Archive member included because of file (symbol)

/OPT/altera/12.1/nios2eds/bin/gnu/H-i686-pc-linux-gnu/bin/../lib/gcc/nios2-elf/4.1.2/libgcc.a(lib2-divmod.o)
                              obj/default/srec_flash.o (__divsi3)
/OPT/altera/12.1/nios2eds/bin/gnu/H-i686-pc-linux-gnu/bin/../lib/gcc/nios2-elf/4.1.2/../../../../nios2-elf/lib/libc.a(lib_a-atoi.o)
                              obj/default/http.o (atoi)
/OPT/altera/12.1/nios2eds/bin/gnu/H-i686-pc-linux-gnu/bin/../lib/gcc/nios2-elf/4.1.2/../../../../nios2-elf/lib/libc.a(lib_a-ctype_.o)
                              obj/default/http.o (__ctype_ptr)
/OPT/altera/12.1/nios2eds/bin/gnu/H-i686-pc-linux-gnu/bin/../lib/gcc/nios2-elf/4.1.2/../../../../nios2-elf/lib/libc.a(lib_a-fclose.o)
                              obj/default/http.o (fclose)
/OPT/altera/12.1/nios2eds/bin/gnu/H-i686-pc-linux-gnu/bin/../lib/gcc/nios2-elf/4.1.2/../../../../nios2-elf/lib/libc.a(lib_a-fflush.o)
                              /OPT/altera/12.1/nios2eds/bin/gnu/H-i686-pc-linux-gnu/bin/../lib/gcc/nios2-elf/4.1.2/../../../../nios2-elf/lib/libc.a(lib_a-fclose.o) (_fflush_r)
/OPT/altera/12.1/nios2eds/bin/gnu/H-i686-pc-linux-gnu/bin/../lib/gcc/nios2-elf/4.1.2/../../../../nios2-elf/lib/libc.a(lib_a-fgetpos.o)
                              obj/default/http.o (fgetpos)
/OPT/altera/12.1/nios2eds/bin/gnu/H-i686-pc-linux-gnu/bin/../lib/gcc/nios2-elf/4.1.2/../../../../nios2-elf/lib/libc.a(lib_a-findfp.o)
                              /OPT/altera/12.1/nios2eds/bin/gnu/H-i686-pc-linux-gnu/bin/../lib/gcc/nios2-elf/4.1.2/../../../../nios2-elf/lib/libc.a(lib_a-fclose.o) (__sfp_lock_acquire)
/OPT/altera/12.1/nios2eds/bin/gnu/H-i686-pc-linux-gnu/bin/../lib/gcc/nios2-elf/4.1.2/../../../../nios2-elf/lib/libc.a(lib_a-fopen.o)
                              obj/default/http.o (fopen)
/OPT/altera/12.1/nios2eds/bin/gnu/H-i686-pc-linux-gnu/bin/../lib/gcc/nios2-elf/4.1.2/../../../../nios2-elf/lib/libc.a(lib_a-fprintf.o)
                              obj/default/alt_error_handler.o (fprintf)
/OPT/altera/12.1/nios2eds/bin/gnu/H-i686-pc-linux-gnu/bin/../lib/gcc/nios2-elf/4.1.2/../../../../nios2-elf/lib/libc.a(lib_a-fread.o)
                              obj/default/http.o (fread)
/OPT/altera/12.1/nios2eds/bin/gnu/H-i686-pc-linux-gnu/bin/../lib/gcc/nios2-elf/4.1.2/../../../../nios2-elf/lib/libc.a(lib_a-freer.o)
                              /OPT/altera/12.1/nios2eds/bin/gnu/H-i686-pc-linux-gnu/bin/../lib/gcc/nios2-elf/4.1.2/../../../../nios2-elf/lib/libc.a(lib_a-fclose.o) (_free_r)
/OPT/altera/12.1/nios2eds/bin/gnu/H-i686-pc-linux-gnu/bin/../lib/gcc/nios2-elf/4.1.2/../../../../nios2-elf/lib/libc.a(lib_a-fseek.o)
                              /OPT/altera/12.1/nios2eds/bin/gnu/H-i686-pc-linux-gnu/bin/../lib/gcc/nios2-elf/4.1.2/../../../../nios2-elf/lib/libc.a(lib_a-fopen.o) (_fseek_r)
/OPT/altera/12.1/nios2eds/bin/gnu/H-i686-pc-linux-gnu/bin/../lib/gcc/nios2-elf/4.1.2/../../../../nios2-elf/lib/libc.a(lib_a-fstatr.o)
                              /OPT/altera/12.1/nios2eds/bin/gnu/H-i686-pc-linux-gnu/bin/../lib/gcc/nios2-elf/4.1.2/../../../../nios2-elf/lib/libc.a(lib_a-fseek.o) (_fstat_r)
/OPT/altera/12.1/nios2eds/bin/gnu/H-i686-pc-linux-gnu/bin/../lib/gcc/nios2-elf/4.1.2/../../../../nios2-elf/lib/libc.a(lib_a-ftell.o)
                              /OPT/altera/12.1/nios2eds/bin/gnu/H-i686-pc-linux-gnu/bin/../lib/gcc/nios2-elf/4.1.2/../../../../nios2-elf/lib/libc.a(lib_a-fgetpos.o) (_ftell_r)
/OPT/altera/12.1/nios2eds/bin/gnu/H-i686-pc-linux-gnu/bin/../lib/gcc/nios2-elf/4.1.2/../../../../nios2-elf/lib/libc.a(lib_a-fwalk.o)
                              /OPT/altera/12.1/nios2eds/bin/gnu/H-i686-pc-linux-gnu/bin/../lib/gcc/nios2-elf/4.1.2/../../../../nios2-elf/lib/libc.a(lib_a-fflush.o) (_fwalk_reent)
/OPT/altera/12.1/nios2eds/bin/gnu/H-i686-pc-linux-gnu/bin/../lib/gcc/nios2-elf/4.1.2/../../../../nios2-elf/lib/libc.a(lib_a-fwrite.o)
                              obj/default/alt_error_handler.o (fwrite)
/OPT/altera/12.1/nios2eds/bin/gnu/H-i686-pc-linux-gnu/bin/../lib/gcc/nios2-elf/4.1.2/../../../../nios2-elf/lib/libc.a(lib_a-impure.o)
                              obj/default/alt_error_handler.o (_impure_ptr)
/OPT/altera/12.1/nios2eds/bin/gnu/H-i686-pc-linux-gnu/bin/../lib/gcc/nios2-elf/4.1.2/../../../../nios2-elf/lib/libc.a(lib_a-int_errno.o)
                              /OPT/altera/12.1/nios2eds/bin/gnu/H-i686-pc-linux-gnu/bin/../lib/gcc/nios2-elf/4.1.2/../../../../nios2-elf/lib/libc.a(lib_a-fstatr.o) (errno)
/OPT/altera/12.1/nios2eds/bin/gnu/H-i686-pc-linux-gnu/bin/../lib/gcc/nios2-elf/4.1.2/../../../../nios2-elf/lib/libc.a(lib_a-makebuf.o)
                              /OPT/altera/12.1/nios2eds/bin/gnu/H-i686-pc-linux-gnu/bin/../lib/gcc/nios2-elf/4.1.2/../../../../nios2-elf/lib/libc.a(lib_a-fseek.o) (__smakebuf_r)
/OPT/altera/12.1/nios2eds/bin/gnu/H-i686-pc-linux-gnu/bin/../lib/gcc/nios2-elf/4.1.2/../../../../nios2-elf/lib/libc.a(lib_a-mallocr.o)
                              /OPT/altera/12.1/nios2eds/bin/gnu/H-i686-pc-linux-gnu/bin/../lib/gcc/nios2-elf/4.1.2/../../../../nios2-elf/lib/libc.a(lib_a-findfp.o) (_malloc_r)
/OPT/altera/12.1/nios2eds/bin/gnu/H-i686-pc-linux-gnu/bin/../lib/gcc/nios2-elf/4.1.2/../../../../nios2-elf/lib/libc.a(lib_a-memcpy.o)
                              obj/default/http.o (memcpy)
/OPT/altera/12.1/nios2eds/bin/gnu/H-i686-pc-linux-gnu/bin/../lib/gcc/nios2-elf/4.1.2/../../../../nios2-elf/lib/libc.a(lib_a-memmove.o)
                              obj/default/http.o (memmove)
/OPT/altera/12.1/nios2eds/bin/gnu/H-i686-pc-linux-gnu/bin/../lib/gcc/nios2-elf/4.1.2/../../../../nios2-elf/lib/libc.a(lib_a-memset.o)
                              obj/default/http.o (memset)
/OPT/altera/12.1/nios2eds/bin/gnu/H-i686-pc-linux-gnu/bin/../lib/gcc/nios2-elf/4.1.2/../../../../nios2-elf/lib/libc.a(lib_a-openr.o)
                              /OPT/altera/12.1/nios2eds/bin/gnu/H-i686-pc-linux-gnu/bin/../lib/gcc/nios2-elf/4.1.2/../../../../nios2-elf/lib/libc.a(lib_a-fopen.o) (_open_r)
/OPT/altera/12.1/nios2eds/bin/gnu/H-i686-pc-linux-gnu/bin/../lib/gcc/nios2-elf/4.1.2/../../../../nios2-elf/lib/libc.a(lib_a-perror.o)
                              obj/default/alt_error_handler.o (perror)
/OPT/altera/12.1/nios2eds/bin/gnu/H-i686-pc-linux-gnu/bin/../lib/gcc/nios2-elf/4.1.2/../../../../nios2-elf/lib/libc.a(lib_a-printf.o)
                              obj/default/alt_error_handler.o (printf)
/OPT/altera/12.1/nios2eds/bin/gnu/H-i686-pc-linux-gnu/bin/../lib/gcc/nios2-elf/4.1.2/../../../../nios2-elf/lib/libc.a(lib_a-puts.o)
                              obj/default/alt_error_handler.o (puts)
/OPT/altera/12.1/nios2eds/bin/gnu/H-i686-pc-linux-gnu/bin/../lib/gcc/nios2-elf/4.1.2/../../../../nios2-elf/lib/libc.a(lib_a-refill.o)
                              /OPT/altera/12.1/nios2eds/bin/gnu/H-i686-pc-linux-gnu/bin/../lib/gcc/nios2-elf/4.1.2/../../../../nios2-elf/lib/libc.a(lib_a-fread.o) (__srefill_r)
/OPT/altera/12.1/nios2eds/bin/gnu/H-i686-pc-linux-gnu/bin/../lib/gcc/nios2-elf/4.1.2/../../../../nios2-elf/lib/libc.a(lib_a-sbrkr.o)
                              /OPT/altera/12.1/nios2eds/bin/gnu/H-i686-pc-linux-gnu/bin/../lib/gcc/nios2-elf/4.1.2/../../../../nios2-elf/lib/libc.a(lib_a-freer.o) (_sbrk_r)
/OPT/altera/12.1/nios2eds/bin/gnu/H-i686-pc-linux-gnu/bin/../lib/gcc/nios2-elf/4.1.2/../../../../nios2-elf/lib/libc.a(lib_a-snprintf.o)
                              obj/default/web_server.o (snprintf)
/OPT/altera/12.1/nios2eds/bin/gnu/H-i686-pc-linux-gnu/bin/../lib/gcc/nios2-elf/4.1.2/../../../../nios2-elf/lib/libc.a(lib_a-sprintf.o)
                              obj/default/http.o (sprintf)
/OPT/altera/12.1/nios2eds/bin/gnu/H-i686-pc-linux-gnu/bin/../lib/gcc/nios2-elf/4.1.2/../../../../nios2-elf/lib/libc.a(lib_a-sscanf.o)
                              obj/default/srec_flash.o (sscanf)
/OPT/altera/12.1/nios2eds/bin/gnu/H-i686-pc-linux-gnu/bin/../lib/gcc/nios2-elf/4.1.2/../../../../nios2-elf/lib/libc.a(lib_a-stdio.o)
                              /OPT/altera/12.1/nios2eds/bin/gnu/H-i686-pc-linux-gnu/bin/../lib/gcc/nios2-elf/4.1.2/../../../../nios2-elf/lib/libc.a(lib_a-findfp.o) (__sclose)
/OPT/altera/12.1/nios2eds/bin/gnu/H-i686-pc-linux-gnu/bin/../lib/gcc/nios2-elf/4.1.2/../../../../nios2-elf/lib/libc.a(lib_a-strcasecmp.o)
                              obj/default/http.o (strcasecmp)
/OPT/altera/12.1/nios2eds/bin/gnu/H-i686-pc-linux-gnu/bin/../lib/gcc/nios2-elf/4.1.2/../../../../nios2-elf/lib/libc.a(lib_a-strcat.o)
                              obj/default/srec_flash.o (strcat)
/OPT/altera/12.1/nios2eds/bin/gnu/H-i686-pc-linux-gnu/bin/../lib/gcc/nios2-elf/4.1.2/../../../../nios2-elf/lib/libc.a(lib_a-strchr.o)
                              obj/default/http.o (strchr)
/OPT/altera/12.1/nios2eds/bin/gnu/H-i686-pc-linux-gnu/bin/../lib/gcc/nios2-elf/4.1.2/../../../../nios2-elf/lib/libc.a(lib_a-strcmp.o)
                              obj/default/http.o (strcmp)
/OPT/altera/12.1/nios2eds/bin/gnu/H-i686-pc-linux-gnu/bin/../lib/gcc/nios2-elf/4.1.2/../../../../nios2-elf/lib/libc.a(lib_a-strcpy.o)
                              obj/default/http.o (strcpy)
/OPT/altera/12.1/nios2eds/bin/gnu/H-i686-pc-linux-gnu/bin/../lib/gcc/nios2-elf/4.1.2/../../../../nios2-elf/lib/libc.a(lib_a-strerror.o)
                              /OPT/altera/12.1/nios2eds/bin/gnu/H-i686-pc-linux-gnu/bin/../lib/gcc/nios2-elf/4.1.2/../../../../nios2-elf/lib/libc.a(lib_a-perror.o) (strerror)
/OPT/altera/12.1/nios2eds/bin/gnu/H-i686-pc-linux-gnu/bin/../lib/gcc/nios2-elf/4.1.2/../../../../nios2-elf/lib/libc.a(lib_a-strlen.o)
                              obj/default/http.o (strlen)
/OPT/altera/12.1/nios2eds/bin/gnu/H-i686-pc-linux-gnu/bin/../lib/gcc/nios2-elf/4.1.2/../../../../nios2-elf/lib/libc.a(lib_a-strncmp.o)
                              obj/default/http.o (strncmp)
/OPT/altera/12.1/nios2eds/bin/gnu/H-i686-pc-linux-gnu/bin/../lib/gcc/nios2-elf/4.1.2/../../../../nios2-elf/lib/libc.a(lib_a-strncpy.o)
                              obj/default/http.o (strncpy)
/OPT/altera/12.1/nios2eds/bin/gnu/H-i686-pc-linux-gnu/bin/../lib/gcc/nios2-elf/4.1.2/../../../../nios2-elf/lib/libc.a(lib_a-strstr.o)
                              obj/default/http.o (strstr)
/OPT/altera/12.1/nios2eds/bin/gnu/H-i686-pc-linux-gnu/bin/../lib/gcc/nios2-elf/4.1.2/../../../../nios2-elf/lib/libc.a(lib_a-strtok.o)
                              obj/default/http.o (strtok)
/OPT/altera/12.1/nios2eds/bin/gnu/H-i686-pc-linux-gnu/bin/../lib/gcc/nios2-elf/4.1.2/../../../../nios2-elf/lib/libc.a(lib_a-strtok_r.o)
                              /OPT/altera/12.1/nios2eds/bin/gnu/H-i686-pc-linux-gnu/bin/../lib/gcc/nios2-elf/4.1.2/../../../../nios2-elf/lib/libc.a(lib_a-strtok.o) (__strtok_r)
/OPT/altera/12.1/nios2eds/bin/gnu/H-i686-pc-linux-gnu/bin/../lib/gcc/nios2-elf/4.1.2/../../../../nios2-elf/lib/libc.a(lib_a-strtol.o)
                              /OPT/altera/12.1/nios2eds/bin/gnu/H-i686-pc-linux-gnu/bin/../lib/gcc/nios2-elf/4.1.2/../../../../nios2-elf/lib/libc.a(lib_a-atoi.o) (_strtol_r)
/OPT/altera/12.1/nios2eds/bin/gnu/H-i686-pc-linux-gnu/bin/../lib/gcc/nios2-elf/4.1.2/../../../../nios2-elf/lib/libc.a(lib_a-u_strerr.o)
                              /OPT/altera/12.1/nios2eds/bin/gnu/H-i686-pc-linux-gnu/bin/../lib/gcc/nios2-elf/4.1.2/../../../../nios2-elf/lib/libc.a(lib_a-strerror.o) (_user_strerror)
/OPT/altera/12.1/nios2eds/bin/gnu/H-i686-pc-linux-gnu/bin/../lib/gcc/nios2-elf/4.1.2/../../../../nios2-elf/lib/libc.a(lib_a-vfprintf.o)
                              /OPT/altera/12.1/nios2eds/bin/gnu/H-i686-pc-linux-gnu/bin/../lib/gcc/nios2-elf/4.1.2/../../../../nios2-elf/lib/libc.a(lib_a-printf.o) (___vfprintf_internal_r)
/OPT/altera/12.1/nios2eds/bin/gnu/H-i686-pc-linux-gnu/bin/../lib/gcc/nios2-elf/4.1.2/../../../../nios2-elf/lib/libc.a(lib_a-vfscanf.o)
                              /OPT/altera/12.1/nios2eds/bin/gnu/H-i686-pc-linux-gnu/bin/../lib/gcc/nios2-elf/4.1.2/../../../../nios2-elf/lib/libc.a(lib_a-sscanf.o) (__svfscanf_r)
/OPT/altera/12.1/nios2eds/bin/gnu/H-i686-pc-linux-gnu/bin/../lib/gcc/nios2-elf/4.1.2/../../../../nios2-elf/lib/libc.a(lib_a-writer.o)
                              /OPT/altera/12.1/nios2eds/bin/gnu/H-i686-pc-linux-gnu/bin/../lib/gcc/nios2-elf/4.1.2/../../../../nios2-elf/lib/libc.a(lib_a-stdio.o) (_write_r)
/OPT/altera/12.1/nios2eds/bin/gnu/H-i686-pc-linux-gnu/bin/../lib/gcc/nios2-elf/4.1.2/../../../../nios2-elf/lib/libc.a(lib_a-wsetup.o)
                              /OPT/altera/12.1/nios2eds/bin/gnu/H-i686-pc-linux-gnu/bin/../lib/gcc/nios2-elf/4.1.2/../../../../nios2-elf/lib/libc.a(lib_a-vfprintf.o) (__swsetup_r)
/OPT/altera/12.1/nios2eds/bin/gnu/H-i686-pc-linux-gnu/bin/../lib/gcc/nios2-elf/4.1.2/../../../../nios2-elf/lib/libc.a(lib_a-closer.o)
                              /OPT/altera/12.1/nios2eds/bin/gnu/H-i686-pc-linux-gnu/bin/../lib/gcc/nios2-elf/4.1.2/../../../../nios2-elf/lib/libc.a(lib_a-stdio.o) (_close_r)
/OPT/altera/12.1/nios2eds/bin/gnu/H-i686-pc-linux-gnu/bin/../lib/gcc/nios2-elf/4.1.2/../../../../nios2-elf/lib/libc.a(lib_a-dtoa.o)
                              /OPT/altera/12.1/nios2eds/bin/gnu/H-i686-pc-linux-gnu/bin/../lib/gcc/nios2-elf/4.1.2/../../../../nios2-elf/lib/libc.a(lib_a-vfprintf.o) (_dtoa_r)
/OPT/altera/12.1/nios2eds/bin/gnu/H-i686-pc-linux-gnu/bin/../lib/gcc/nios2-elf/4.1.2/../../../../nios2-elf/lib/libc.a(lib_a-flags.o)
                              /OPT/altera/12.1/nios2eds/bin/gnu/H-i686-pc-linux-gnu/bin/../lib/gcc/nios2-elf/4.1.2/../../../../nios2-elf/lib/libc.a(lib_a-fopen.o) (__sflags)
/OPT/altera/12.1/nios2eds/bin/gnu/H-i686-pc-linux-gnu/bin/../lib/gcc/nios2-elf/4.1.2/../../../../nios2-elf/lib/libc.a(lib_a-fputc.o)
                              /OPT/altera/12.1/nios2eds/bin/gnu/H-i686-pc-linux-gnu/bin/../lib/gcc/nios2-elf/4.1.2/../../../../nios2-elf/lib/libc.a(lib_a-perror.o) (fputc)
/OPT/altera/12.1/nios2eds/bin/gnu/H-i686-pc-linux-gnu/bin/../lib/gcc/nios2-elf/4.1.2/../../../../nios2-elf/lib/libc.a(lib_a-fputs.o)
                              /OPT/altera/12.1/nios2eds/bin/gnu/H-i686-pc-linux-gnu/bin/../lib/gcc/nios2-elf/4.1.2/../../../../nios2-elf/lib/libc.a(lib_a-perror.o) (fputs)
/OPT/altera/12.1/nios2eds/bin/gnu/H-i686-pc-linux-gnu/bin/../lib/gcc/nios2-elf/4.1.2/../../../../nios2-elf/lib/libc.a(lib_a-fvwrite.o)
                              /OPT/altera/12.1/nios2eds/bin/gnu/H-i686-pc-linux-gnu/bin/../lib/gcc/nios2-elf/4.1.2/../../../../nios2-elf/lib/libc.a(lib_a-fwrite.o) (__sfvwrite_r)
/OPT/altera/12.1/nios2eds/bin/gnu/H-i686-pc-linux-gnu/bin/../lib/gcc/nios2-elf/4.1.2/../../../../nios2-elf/lib/libc.a(lib_a-isattyr.o)
                              /OPT/altera/12.1/nios2eds/bin/gnu/H-i686-pc-linux-gnu/bin/../lib/gcc/nios2-elf/4.1.2/../../../../nios2-elf/lib/libc.a(lib_a-makebuf.o) (_isatty_r)
/OPT/altera/12.1/nios2eds/bin/gnu/H-i686-pc-linux-gnu/bin/../lib/gcc/nios2-elf/4.1.2/../../../../nios2-elf/lib/libc.a(lib_a-iswspace.o)
                              /OPT/altera/12.1/nios2eds/bin/gnu/H-i686-pc-linux-gnu/bin/../lib/gcc/nios2-elf/4.1.2/../../../../nios2-elf/lib/libc.a(lib_a-vfscanf.o) (iswspace)
/OPT/altera/12.1/nios2eds/bin/gnu/H-i686-pc-linux-gnu/bin/../lib/gcc/nios2-elf/4.1.2/../../../../nios2-elf/lib/libc.a(lib_a-locale.o)
                              /OPT/altera/12.1/nios2eds/bin/gnu/H-i686-pc-linux-gnu/bin/../lib/gcc/nios2-elf/4.1.2/../../../../nios2-elf/lib/libc.a(lib_a-vfprintf.o) (_localeconv_r)
/OPT/altera/12.1/nios2eds/bin/gnu/H-i686-pc-linux-gnu/bin/../lib/gcc/nios2-elf/4.1.2/../../../../nios2-elf/lib/libc.a(lib_a-lseekr.o)
                              /OPT/altera/12.1/nios2eds/bin/gnu/H-i686-pc-linux-gnu/bin/../lib/gcc/nios2-elf/4.1.2/../../../../nios2-elf/lib/libc.a(lib_a-stdio.o) (_lseek_r)
/OPT/altera/12.1/nios2eds/bin/gnu/H-i686-pc-linux-gnu/bin/../lib/gcc/nios2-elf/4.1.2/../../../../nios2-elf/lib/libc.a(lib_a-mbrtowc.o)
                              /OPT/altera/12.1/nios2eds/bin/gnu/H-i686-pc-linux-gnu/bin/../lib/gcc/nios2-elf/4.1.2/../../../../nios2-elf/lib/libc.a(lib_a-vfscanf.o) (_mbrtowc_r)
/OPT/altera/12.1/nios2eds/bin/gnu/H-i686-pc-linux-gnu/bin/../lib/gcc/nios2-elf/4.1.2/../../../../nios2-elf/lib/libc.a(lib_a-mbtowc_r.o)
                              /OPT/altera/12.1/nios2eds/bin/gnu/H-i686-pc-linux-gnu/bin/../lib/gcc/nios2-elf/4.1.2/../../../../nios2-elf/lib/libc.a(lib_a-mbrtowc.o) (_mbtowc_r)
/OPT/altera/12.1/nios2eds/bin/gnu/H-i686-pc-linux-gnu/bin/../lib/gcc/nios2-elf/4.1.2/../../../../nios2-elf/lib/libc.a(lib_a-memchr.o)
                              /OPT/altera/12.1/nios2eds/bin/gnu/H-i686-pc-linux-gnu/bin/../lib/gcc/nios2-elf/4.1.2/../../../../nios2-elf/lib/libc.a(lib_a-strstr.o) (memchr)
/OPT/altera/12.1/nios2eds/bin/gnu/H-i686-pc-linux-gnu/bin/../lib/gcc/nios2-elf/4.1.2/../../../../nios2-elf/lib/libc.a(lib_a-memcmp.o)
                              /OPT/altera/12.1/nios2eds/bin/gnu/H-i686-pc-linux-gnu/bin/../lib/gcc/nios2-elf/4.1.2/../../../../nios2-elf/lib/libc.a(lib_a-strstr.o) (memcmp)
/OPT/altera/12.1/nios2eds/bin/gnu/H-i686-pc-linux-gnu/bin/../lib/gcc/nios2-elf/4.1.2/../../../../nios2-elf/lib/libc.a(lib_a-mprec.o)
                              /OPT/altera/12.1/nios2eds/bin/gnu/H-i686-pc-linux-gnu/bin/../lib/gcc/nios2-elf/4.1.2/../../../../nios2-elf/lib/libc.a(lib_a-dtoa.o) (_Bfree)
/OPT/altera/12.1/nios2eds/bin/gnu/H-i686-pc-linux-gnu/bin/../lib/gcc/nios2-elf/4.1.2/../../../../nios2-elf/lib/libc.a(lib_a-putc.o)
                              /OPT/altera/12.1/nios2eds/bin/gnu/H-i686-pc-linux-gnu/bin/../lib/gcc/nios2-elf/4.1.2/../../../../nios2-elf/lib/libc.a(lib_a-fputc.o) (_putc_r)
/OPT/altera/12.1/nios2eds/bin/gnu/H-i686-pc-linux-gnu/bin/../lib/gcc/nios2-elf/4.1.2/../../../../nios2-elf/lib/libc.a(lib_a-readr.o)
                              /OPT/altera/12.1/nios2eds/bin/gnu/H-i686-pc-linux-gnu/bin/../lib/gcc/nios2-elf/4.1.2/../../../../nios2-elf/lib/libc.a(lib_a-stdio.o) (_read_r)
/OPT/altera/12.1/nios2eds/bin/gnu/H-i686-pc-linux-gnu/bin/../lib/gcc/nios2-elf/4.1.2/../../../../nios2-elf/lib/libc.a(lib_a-reallocr.o)
                              /OPT/altera/12.1/nios2eds/bin/gnu/H-i686-pc-linux-gnu/bin/../lib/gcc/nios2-elf/4.1.2/../../../../nios2-elf/lib/libc.a(lib_a-fvwrite.o) (_realloc_r)
/OPT/altera/12.1/nios2eds/bin/gnu/H-i686-pc-linux-gnu/bin/../lib/gcc/nios2-elf/4.1.2/../../../../nios2-elf/lib/libc.a(lib_a-s_isinfd.o)
                              /OPT/altera/12.1/nios2eds/bin/gnu/H-i686-pc-linux-gnu/bin/../lib/gcc/nios2-elf/4.1.2/../../../../nios2-elf/lib/libc.a(lib_a-vfprintf.o) (__isinfd)
/OPT/altera/12.1/nios2eds/bin/gnu/H-i686-pc-linux-gnu/bin/../lib/gcc/nios2-elf/4.1.2/../../../../nios2-elf/lib/libc.a(lib_a-s_isnand.o)
                              /OPT/altera/12.1/nios2eds/bin/gnu/H-i686-pc-linux-gnu/bin/../lib/gcc/nios2-elf/4.1.2/../../../../nios2-elf/lib/libc.a(lib_a-vfprintf.o) (__isnand)
/OPT/altera/12.1/nios2eds/bin/gnu/H-i686-pc-linux-gnu/bin/../lib/gcc/nios2-elf/4.1.2/../../../../nios2-elf/lib/libc.a(lib_a-sccl.o)
                              /OPT/altera/12.1/nios2eds/bin/gnu/H-i686-pc-linux-gnu/bin/../lib/gcc/nios2-elf/4.1.2/../../../../nios2-elf/lib/libc.a(lib_a-vfscanf.o) (__sccl)
/OPT/altera/12.1/nios2eds/bin/gnu/H-i686-pc-linux-gnu/bin/../lib/gcc/nios2-elf/4.1.2/../../../../nios2-elf/lib/libc.a(lib_a-sf_nan.o)
                              /OPT/altera/12.1/nios2eds/bin/gnu/H-i686-pc-linux-gnu/bin/../lib/gcc/nios2-elf/4.1.2/../../../../nios2-elf/lib/libc.a(lib_a-vfscanf.o) (nanf)
/OPT/altera/12.1/nios2eds/bin/gnu/H-i686-pc-linux-gnu/bin/../lib/gcc/nios2-elf/4.1.2/../../../../nios2-elf/lib/libc.a(lib_a-strtod.o)
                              /OPT/altera/12.1/nios2eds/bin/gnu/H-i686-pc-linux-gnu/bin/../lib/gcc/nios2-elf/4.1.2/../../../../nios2-elf/lib/libc.a(lib_a-vfscanf.o) (_strtod_r)
/OPT/altera/12.1/nios2eds/bin/gnu/H-i686-pc-linux-gnu/bin/../lib/gcc/nios2-elf/4.1.2/../../../../nios2-elf/lib/libc.a(lib_a-strtoll_r.o)
                              /OPT/altera/12.1/nios2eds/bin/gnu/H-i686-pc-linux-gnu/bin/../lib/gcc/nios2-elf/4.1.2/../../../../nios2-elf/lib/libc.a(lib_a-vfscanf.o) (_strtoll_r)
/OPT/altera/12.1/nios2eds/bin/gnu/H-i686-pc-linux-gnu/bin/../lib/gcc/nios2-elf/4.1.2/../../../../nios2-elf/lib/libc.a(lib_a-strtoul.o)
                              /OPT/altera/12.1/nios2eds/bin/gnu/H-i686-pc-linux-gnu/bin/../lib/gcc/nios2-elf/4.1.2/../../../../nios2-elf/lib/libc.a(lib_a-vfscanf.o) (_strtoul_r)
/OPT/altera/12.1/nios2eds/bin/gnu/H-i686-pc-linux-gnu/bin/../lib/gcc/nios2-elf/4.1.2/../../../../nios2-elf/lib/libc.a(lib_a-strtoull_r.o)
                              /OPT/altera/12.1/nios2eds/bin/gnu/H-i686-pc-linux-gnu/bin/../lib/gcc/nios2-elf/4.1.2/../../../../nios2-elf/lib/libc.a(lib_a-vfscanf.o) (_strtoull_r)
/OPT/altera/12.1/nios2eds/bin/gnu/H-i686-pc-linux-gnu/bin/../lib/gcc/nios2-elf/4.1.2/../../../../nios2-elf/lib/libc.a(lib_a-ungetc.o)
                              /OPT/altera/12.1/nios2eds/bin/gnu/H-i686-pc-linux-gnu/bin/../lib/gcc/nios2-elf/4.1.2/../../../../nios2-elf/lib/libc.a(lib_a-vfscanf.o) (_ungetc_r)
/OPT/altera/12.1/nios2eds/bin/gnu/H-i686-pc-linux-gnu/bin/../lib/gcc/nios2-elf/4.1.2/../../../../nios2-elf/lib/libc.a(lib_a-wbuf.o)
                              /OPT/altera/12.1/nios2eds/bin/gnu/H-i686-pc-linux-gnu/bin/../lib/gcc/nios2-elf/4.1.2/../../../../nios2-elf/lib/libc.a(lib_a-putc.o) (__swbuf_r)
/OPT/altera/12.1/nios2eds/bin/gnu/H-i686-pc-linux-gnu/bin/../lib/gcc/nios2-elf/4.1.2/../../../../nios2-elf/lib/libc.a(lib_a-callocr.o)
                              /OPT/altera/12.1/nios2eds/bin/gnu/H-i686-pc-linux-gnu/bin/../lib/gcc/nios2-elf/4.1.2/../../../../nios2-elf/lib/libc.a(lib_a-mprec.o) (_calloc_r)
/OPT/altera/12.1/nios2eds/bin/gnu/H-i686-pc-linux-gnu/bin/../lib/gcc/nios2-elf/4.1.2/../../../../nios2-elf/lib/libc.a(lib_a-gdtoa-gethex.o)
                              /OPT/altera/12.1/nios2eds/bin/gnu/H-i686-pc-linux-gnu/bin/../lib/gcc/nios2-elf/4.1.2/../../../../nios2-elf/lib/libc.a(lib_a-strtod.o) (__gethex)
/OPT/altera/12.1/nios2eds/bin/gnu/H-i686-pc-linux-gnu/bin/../lib/gcc/nios2-elf/4.1.2/../../../../nios2-elf/lib/libc.a(lib_a-gdtoa-hexnan.o)
                              /OPT/altera/12.1/nios2eds/bin/gnu/H-i686-pc-linux-gnu/bin/../lib/gcc/nios2-elf/4.1.2/../../../../nios2-elf/lib/libc.a(lib_a-strtod.o) (__hexnan)
/OPT/altera/12.1/nios2eds/bin/gnu/H-i686-pc-linux-gnu/bin/../lib/gcc/nios2-elf/4.1.2/libgcc.a(_muldi3.o)
                              /OPT/altera/12.1/nios2eds/bin/gnu/H-i686-pc-linux-gnu/bin/../lib/gcc/nios2-elf/4.1.2/../../../../nios2-elf/lib/libc.a(lib_a-strtoll_r.o) (__muldi3)
/OPT/altera/12.1/nios2eds/bin/gnu/H-i686-pc-linux-gnu/bin/../lib/gcc/nios2-elf/4.1.2/libgcc.a(_fixunsdfsi.o)
                              /OPT/altera/12.1/nios2eds/bin/gnu/H-i686-pc-linux-gnu/bin/../lib/gcc/nios2-elf/4.1.2/../../../../nios2-elf/lib/libc.a(lib_a-strtod.o) (__fixunsdfsi)
/OPT/altera/12.1/nios2eds/bin/gnu/H-i686-pc-linux-gnu/bin/../lib/gcc/nios2-elf/4.1.2/libgcc.a(_udivdi3.o)
                              /OPT/altera/12.1/nios2eds/bin/gnu/H-i686-pc-linux-gnu/bin/../lib/gcc/nios2-elf/4.1.2/../../../../nios2-elf/lib/libc.a(lib_a-vfprintf.o) (__udivdi3)
/OPT/altera/12.1/nios2eds/bin/gnu/H-i686-pc-linux-gnu/bin/../lib/gcc/nios2-elf/4.1.2/libgcc.a(_umoddi3.o)
                              /OPT/altera/12.1/nios2eds/bin/gnu/H-i686-pc-linux-gnu/bin/../lib/gcc/nios2-elf/4.1.2/../../../../nios2-elf/lib/libc.a(lib_a-vfprintf.o) (__umoddi3)
/OPT/altera/12.1/nios2eds/bin/gnu/H-i686-pc-linux-gnu/bin/../lib/gcc/nios2-elf/4.1.2/libgcc.a(_ne_sf.o)
                              /OPT/altera/12.1/nios2eds/bin/gnu/H-i686-pc-linux-gnu/bin/../lib/gcc/nios2-elf/4.1.2/../../../../nios2-elf/lib/libc.a(lib_a-strtod.o) (__nesf2)
/OPT/altera/12.1/nios2eds/bin/gnu/H-i686-pc-linux-gnu/bin/../lib/gcc/nios2-elf/4.1.2/libgcc.a(_gt_sf.o)
                              /OPT/altera/12.1/nios2eds/bin/gnu/H-i686-pc-linux-gnu/bin/../lib/gcc/nios2-elf/4.1.2/../../../../nios2-elf/lib/libc.a(lib_a-strtod.o) (__gtsf2)
/OPT/altera/12.1/nios2eds/bin/gnu/H-i686-pc-linux-gnu/bin/../lib/gcc/nios2-elf/4.1.2/libgcc.a(_lt_sf.o)
                              /OPT/altera/12.1/nios2eds/bin/gnu/H-i686-pc-linux-gnu/bin/../lib/gcc/nios2-elf/4.1.2/../../../../nios2-elf/lib/libc.a(lib_a-strtod.o) (__ltsf2)
/OPT/altera/12.1/nios2eds/bin/gnu/H-i686-pc-linux-gnu/bin/../lib/gcc/nios2-elf/4.1.2/libgcc.a(_addsub_df.o)
                              /OPT/altera/12.1/nios2eds/bin/gnu/H-i686-pc-linux-gnu/bin/../lib/gcc/nios2-elf/4.1.2/../../../../nios2-elf/lib/libc.a(lib_a-dtoa.o) (__subdf3)
/OPT/altera/12.1/nios2eds/bin/gnu/H-i686-pc-linux-gnu/bin/../lib/gcc/nios2-elf/4.1.2/libgcc.a(_mul_df.o)
                              /OPT/altera/12.1/nios2eds/bin/gnu/H-i686-pc-linux-gnu/bin/../lib/gcc/nios2-elf/4.1.2/../../../../nios2-elf/lib/libc.a(lib_a-dtoa.o) (__muldf3)
/OPT/altera/12.1/nios2eds/bin/gnu/H-i686-pc-linux-gnu/bin/../lib/gcc/nios2-elf/4.1.2/libgcc.a(_div_df.o)
                              /OPT/altera/12.1/nios2eds/bin/gnu/H-i686-pc-linux-gnu/bin/../lib/gcc/nios2-elf/4.1.2/../../../../nios2-elf/lib/libc.a(lib_a-dtoa.o) (__divdf3)
/OPT/altera/12.1/nios2eds/bin/gnu/H-i686-pc-linux-gnu/bin/../lib/gcc/nios2-elf/4.1.2/libgcc.a(_eq_df.o)
                              /OPT/altera/12.1/nios2eds/bin/gnu/H-i686-pc-linux-gnu/bin/../lib/gcc/nios2-elf/4.1.2/../../../../nios2-elf/lib/libc.a(lib_a-vfprintf.o) (__eqdf2)
/OPT/altera/12.1/nios2eds/bin/gnu/H-i686-pc-linux-gnu/bin/../lib/gcc/nios2-elf/4.1.2/libgcc.a(_ne_df.o)
                              /OPT/altera/12.1/nios2eds/bin/gnu/H-i686-pc-linux-gnu/bin/../lib/gcc/nios2-elf/4.1.2/../../../../nios2-elf/lib/libc.a(lib_a-vfprintf.o) (__nedf2)
/OPT/altera/12.1/nios2eds/bin/gnu/H-i686-pc-linux-gnu/bin/../lib/gcc/nios2-elf/4.1.2/libgcc.a(_gt_df.o)
                              /OPT/altera/12.1/nios2eds/bin/gnu/H-i686-pc-linux-gnu/bin/../lib/gcc/nios2-elf/4.1.2/../../../../nios2-elf/lib/libc.a(lib_a-dtoa.o) (__gtdf2)
/OPT/altera/12.1/nios2eds/bin/gnu/H-i686-pc-linux-gnu/bin/../lib/gcc/nios2-elf/4.1.2/libgcc.a(_ge_df.o)
                              /OPT/altera/12.1/nios2eds/bin/gnu/H-i686-pc-linux-gnu/bin/../lib/gcc/nios2-elf/4.1.2/../../../../nios2-elf/lib/libc.a(lib_a-dtoa.o) (__gedf2)
/OPT/altera/12.1/nios2eds/bin/gnu/H-i686-pc-linux-gnu/bin/../lib/gcc/nios2-elf/4.1.2/libgcc.a(_lt_df.o)
                              /OPT/altera/12.1/nios2eds/bin/gnu/H-i686-pc-linux-gnu/bin/../lib/gcc/nios2-elf/4.1.2/../../../../nios2-elf/lib/libc.a(lib_a-vfprintf.o) (__ltdf2)
/OPT/altera/12.1/nios2eds/bin/gnu/H-i686-pc-linux-gnu/bin/../lib/gcc/nios2-elf/4.1.2/libgcc.a(_le_df.o)
                              /OPT/altera/12.1/nios2eds/bin/gnu/H-i686-pc-linux-gnu/bin/../lib/gcc/nios2-elf/4.1.2/../../../../nios2-elf/lib/libc.a(lib_a-strtod.o) (__ledf2)
/OPT/altera/12.1/nios2eds/bin/gnu/H-i686-pc-linux-gnu/bin/../lib/gcc/nios2-elf/4.1.2/libgcc.a(_si_to_df.o)
                              /OPT/altera/12.1/nios2eds/bin/gnu/H-i686-pc-linux-gnu/bin/../lib/gcc/nios2-elf/4.1.2/../../../../nios2-elf/lib/libc.a(lib_a-dtoa.o) (__floatsidf)
/OPT/altera/12.1/nios2eds/bin/gnu/H-i686-pc-linux-gnu/bin/../lib/gcc/nios2-elf/4.1.2/libgcc.a(_df_to_si.o)
                              /OPT/altera/12.1/nios2eds/bin/gnu/H-i686-pc-linux-gnu/bin/../lib/gcc/nios2-elf/4.1.2/../../../../nios2-elf/lib/libc.a(lib_a-dtoa.o) (__fixdfsi)
/OPT/altera/12.1/nios2eds/bin/gnu/H-i686-pc-linux-gnu/bin/../lib/gcc/nios2-elf/4.1.2/libgcc.a(_df_to_sf.o)
                              /OPT/altera/12.1/nios2eds/bin/gnu/H-i686-pc-linux-gnu/bin/../lib/gcc/nios2-elf/4.1.2/../../../../nios2-elf/lib/libc.a(lib_a-vfscanf.o) (__truncdfsf2)
/OPT/altera/12.1/nios2eds/bin/gnu/H-i686-pc-linux-gnu/bin/../lib/gcc/nios2-elf/4.1.2/libgcc.a(_thenan_df.o)
                              /OPT/altera/12.1/nios2eds/bin/gnu/H-i686-pc-linux-gnu/bin/../lib/gcc/nios2-elf/4.1.2/libgcc.a(_addsub_df.o) (__thenan_df)
/OPT/altera/12.1/nios2eds/bin/gnu/H-i686-pc-linux-gnu/bin/../lib/gcc/nios2-elf/4.1.2/libgcc.a(_usi_to_df.o)
                              /OPT/altera/12.1/nios2eds/bin/gnu/H-i686-pc-linux-gnu/bin/../lib/gcc/nios2-elf/4.1.2/../../../../nios2-elf/lib/libc.a(lib_a-dtoa.o) (__floatunsidf)
/OPT/altera/12.1/nios2eds/bin/gnu/H-i686-pc-linux-gnu/bin/../lib/gcc/nios2-elf/4.1.2/libgcc.a(_clz.o)
                              /OPT/altera/12.1/nios2eds/bin/gnu/H-i686-pc-linux-gnu/bin/../lib/gcc/nios2-elf/4.1.2/libgcc.a(_udivdi3.o) (__clz_tab)
/OPT/altera/12.1/nios2eds/bin/gnu/H-i686-pc-linux-gnu/bin/../lib/gcc/nios2-elf/4.1.2/libgcc.a(_clzsi2.o)
                              /OPT/altera/12.1/nios2eds/bin/gnu/H-i686-pc-linux-gnu/bin/../lib/gcc/nios2-elf/4.1.2/libgcc.a(_si_to_df.o) (__clzsi2)
/OPT/altera/12.1/nios2eds/bin/gnu/H-i686-pc-linux-gnu/bin/../lib/gcc/nios2-elf/4.1.2/libgcc.a(_unpack_sf.o)
                              /OPT/altera/12.1/nios2eds/bin/gnu/H-i686-pc-linux-gnu/bin/../lib/gcc/nios2-elf/4.1.2/libgcc.a(_ne_sf.o) (__unpack_f)
/OPT/altera/12.1/nios2eds/bin/gnu/H-i686-pc-linux-gnu/bin/../lib/gcc/nios2-elf/4.1.2/libgcc.a(_fpcmp_parts_sf.o)
                              /OPT/altera/12.1/nios2eds/bin/gnu/H-i686-pc-linux-gnu/bin/../lib/gcc/nios2-elf/4.1.2/libgcc.a(_ne_sf.o) (__fpcmp_parts_f)
/OPT/altera/12.1/nios2eds/bin/gnu/H-i686-pc-linux-gnu/bin/../lib/gcc/nios2-elf/4.1.2/libgcc.a(_make_sf.o)
                              /OPT/altera/12.1/nios2eds/bin/gnu/H-i686-pc-linux-gnu/bin/../lib/gcc/nios2-elf/4.1.2/libgcc.a(_df_to_sf.o) (__make_fp)
/OPT/altera/12.1/nios2eds/bin/gnu/H-i686-pc-linux-gnu/bin/../lib/gcc/nios2-elf/4.1.2/libgcc.a(_pack_df.o)
                              /OPT/altera/12.1/nios2eds/bin/gnu/H-i686-pc-linux-gnu/bin/../lib/gcc/nios2-elf/4.1.2/libgcc.a(_addsub_df.o) (__pack_d)
/OPT/altera/12.1/nios2eds/bin/gnu/H-i686-pc-linux-gnu/bin/../lib/gcc/nios2-elf/4.1.2/libgcc.a(_unpack_df.o)
                              /OPT/altera/12.1/nios2eds/bin/gnu/H-i686-pc-linux-gnu/bin/../lib/gcc/nios2-elf/4.1.2/libgcc.a(_addsub_df.o) (__unpack_d)
/OPT/altera/12.1/nios2eds/bin/gnu/H-i686-pc-linux-gnu/bin/../lib/gcc/nios2-elf/4.1.2/libgcc.a(_fpcmp_parts_df.o)
                              /OPT/altera/12.1/nios2eds/bin/gnu/H-i686-pc-linux-gnu/bin/../lib/gcc/nios2-elf/4.1.2/libgcc.a(_eq_df.o) (__fpcmp_parts_d)
/OPT/altera/12.1/nios2eds/bin/gnu/H-i686-pc-linux-gnu/bin/../lib/gcc/nios2-elf/4.1.2/libgcc.a(_pack_sf.o)
                              /OPT/altera/12.1/nios2eds/bin/gnu/H-i686-pc-linux-gnu/bin/../lib/gcc/nios2-elf/4.1.2/libgcc.a(_make_sf.o) (__pack_f)
../Webserver_bsp//libucosii_bsp.a(alt_dcache_flush.o)
                              obj/default/srec_flash.o (alt_dcache_flush)
../Webserver_bsp//libucosii_bsp.a(alt_flash_dev.o)
                              obj/default/network_utilities.o (alt_flash_open_dev)
../Webserver_bsp//libucosii_bsp.a(alt_fstat.o)
                              /OPT/altera/12.1/nios2eds/bin/gnu/H-i686-pc-linux-gnu/bin/../lib/gcc/nios2-elf/4.1.2/../../../../nios2-elf/lib/libc.a(lib_a-fstatr.o) (fstat)
../Webserver_bsp//libucosii_bsp.a(alt_irq_register.o)
                              obj/default/dm9000a.o (alt_irq_register)
../Webserver_bsp//libucosii_bsp.a(alt_irq_vars.o)
                              ../Webserver_bsp//libucosii_bsp.a(alt_irq_register.o) (alt_irq_active)
../Webserver_bsp//libucosii_bsp.a(alt_isatty.o)
                              /OPT/altera/12.1/nios2eds/bin/gnu/H-i686-pc-linux-gnu/bin/../lib/gcc/nios2-elf/4.1.2/../../../../nios2-elf/lib/libc.a(lib_a-isattyr.o) (isatty)
../Webserver_bsp//libucosii_bsp.a(alt_lseek.o)
                              /OPT/altera/12.1/nios2eds/bin/gnu/H-i686-pc-linux-gnu/bin/../lib/gcc/nios2-elf/4.1.2/../../../../nios2-elf/lib/libc.a(lib_a-lseekr.o) (lseek)
../Webserver_bsp//libucosii_bsp.a(alt_main.o)
                              ../Webserver_bsp//obj/HAL/src/crt0.o (alt_main)
../Webserver_bsp//libucosii_bsp.a(alt_open.o)
                              /OPT/altera/12.1/nios2eds/bin/gnu/H-i686-pc-linux-gnu/bin/../lib/gcc/nios2-elf/4.1.2/../../../../nios2-elf/lib/libc.a(lib_a-openr.o) (open)
../Webserver_bsp//libucosii_bsp.a(alt_release_fd.o)
                              ../Webserver_bsp//libucosii_bsp.a(alt_open.o) (alt_release_fd)
../Webserver_bsp//libucosii_bsp.a(alt_sbrk.o)
                              /OPT/altera/12.1/nios2eds/bin/gnu/H-i686-pc-linux-gnu/bin/../lib/gcc/nios2-elf/4.1.2/../../../../nios2-elf/lib/libc.a(lib_a-sbrkr.o) (sbrk)
../Webserver_bsp//libucosii_bsp.a(alt_tick.o)
                              obj/default/http.o (_alt_nticks)
../Webserver_bsp//libucosii_bsp.a(alt_usleep.o)
                              obj/default/dm9000a.o (usleep)
../Webserver_bsp//libucosii_bsp.a(alt_env_lock.o)
                              ../Webserver_bsp//libucosii_bsp.a(alt_main.o) (alt_envsem)
../Webserver_bsp//libucosii_bsp.a(alt_malloc_lock.o)
                              /OPT/altera/12.1/nios2eds/bin/gnu/H-i686-pc-linux-gnu/bin/../lib/gcc/nios2-elf/4.1.2/../../../../nios2-elf/lib/libc.a(lib_a-freer.o) (__malloc_lock)
../Webserver_bsp//libucosii_bsp.a(os_core.o)
                              ../Webserver_bsp//libucosii_bsp.a(alt_main.o) (OSInit)
../Webserver_bsp//libucosii_bsp.a(os_dbg.o)
                              ../Webserver_bsp//libucosii_bsp.a(os_core.o) (OSDebugInit)
../Webserver_bsp//libucosii_bsp.a(os_flag.o)
                              ../Webserver_bsp//libucosii_bsp.a(os_core.o) (OS_FlagInit)
../Webserver_bsp//libucosii_bsp.a(os_mbox.o)
                              obj/default/web_server.o (OSMboxCreate)
../Webserver_bsp//libucosii_bsp.a(os_mem.o)
                              ../Webserver_bsp//libucosii_bsp.a(os_core.o) (OS_MemInit)
../Webserver_bsp//libucosii_bsp.a(os_q.o)
                              ../Webserver_bsp//libucosii_bsp.a(os_core.o) (OS_QInit)
../Webserver_bsp//libucosii_bsp.a(os_sem.o)
                              ../Webserver_bsp//libucosii_bsp.a(alt_main.o) (OSSemCreate)
../Webserver_bsp//libucosii_bsp.a(os_task.o)
                              obj/default/web_server.o (OSTaskCreateExt)
../Webserver_bsp//libucosii_bsp.a(os_time.o)
                              obj/default/web_server.o (OSTimeDly)
../Webserver_bsp//libucosii_bsp.a(alt_sys_init.o)
                              ../Webserver_bsp//libucosii_bsp.a(alt_main.o) (alt_irq_init)
../Webserver_bsp//libucosii_bsp.a(altera_avalon_jtag_uart_fd.o)
                              ../Webserver_bsp//libucosii_bsp.a(alt_sys_init.o) (altera_avalon_jtag_uart_read_fd)
../Webserver_bsp//libucosii_bsp.a(altera_avalon_jtag_uart_init.o)
                              ../Webserver_bsp//libucosii_bsp.a(alt_sys_init.o) (altera_avalon_jtag_uart_init)
../Webserver_bsp//libucosii_bsp.a(altera_avalon_jtag_uart_ioctl.o)
                              ../Webserver_bsp//libucosii_bsp.a(altera_avalon_jtag_uart_fd.o) (altera_avalon_jtag_uart_ioctl)
../Webserver_bsp//libucosii_bsp.a(altera_avalon_jtag_uart_read.o)
                              ../Webserver_bsp//libucosii_bsp.a(altera_avalon_jtag_uart_fd.o) (altera_avalon_jtag_uart_read)
../Webserver_bsp//libucosii_bsp.a(altera_avalon_jtag_uart_write.o)
                              ../Webserver_bsp//libucosii_bsp.a(altera_avalon_jtag_uart_fd.o) (altera_avalon_jtag_uart_write)
../Webserver_bsp//libucosii_bsp.a(altera_avalon_timer_sc.o)
                              ../Webserver_bsp//libucosii_bsp.a(alt_sys_init.o) (alt_avalon_timer_sc_init)
../Webserver_bsp//libucosii_bsp.a(altera_ro_zipfs.o)
                              ../Webserver_bsp//libucosii_bsp.a(alt_sys_init.o) (alt_ro_zipfs_open)
../Webserver_bsp//libucosii_bsp.a(altera_up_avalon_character_lcd.o)
                              obj/default/web_server.o (alt_up_character_lcd_init)
../Webserver_bsp//libucosii_bsp.a(alt_iniche_close.o)
                              obj/default/http.o (close)
../Webserver_bsp//libucosii_bsp.a(alt_iniche_dev.o)
                              obj/default/web_server.o (alt_iniche_dev_list)
../Webserver_bsp//libucosii_bsp.a(alt_iniche_read.o)
                              obj/default/http.o (read)
../Webserver_bsp//libucosii_bsp.a(alt_iniche_write.o)
                              obj/default/http.o (write)
../Webserver_bsp//libucosii_bsp.a(ipnet.o)
                              obj/default/dm9000a.o (rcvdq)
../Webserver_bsp//libucosii_bsp.a(ipstart.o)
                              ../Webserver_bsp//libucosii_bsp.a(ipnet.o) (ifNumber)
../Webserver_bsp//libucosii_bsp.a(igmp_cmn.o)
                              ../Webserver_bsp//libucosii_bsp.a(ipstart.o) (igmp_init)
../Webserver_bsp//libucosii_bsp.a(bsdsock.o)
                              obj/default/http.o (bsd_accept)
../Webserver_bsp//libucosii_bsp.a(cksum.o)
                              ../Webserver_bsp//libucosii_bsp.a(igmp_cmn.o) (cksum)
../Webserver_bsp//libucosii_bsp.a(in_utils.o)
                              ../Webserver_bsp//libucosii_bsp.a(igmp_cmn.o) (ns_printf)
../Webserver_bsp//libucosii_bsp.a(netmain.o)
                              obj/default/web_server.o (iniche_net_ready)
../Webserver_bsp//libucosii_bsp.a(parseip.o)
                              obj/default/http.o (inet_addr)
../Webserver_bsp//libucosii_bsp.a(tk_crnos.o)
                              ../Webserver_bsp//libucosii_bsp.a(ipnet.o) (tk_yield)
../Webserver_bsp//libucosii_bsp.a(dhcpclnt.o)
                              ../Webserver_bsp//libucosii_bsp.a(netmain.o) (dhc_second)
../Webserver_bsp//libucosii_bsp.a(dhcputil.o)
                              ../Webserver_bsp//libucosii_bsp.a(dhcpclnt.o) (find_opt)
../Webserver_bsp//libucosii_bsp.a(pktalloc.o)
                              ../Webserver_bsp//libucosii_bsp.a(ipnet.o) (pk_init)
../Webserver_bsp//libucosii_bsp.a(q.o)
                              ../Webserver_bsp//libucosii_bsp.a(ipnet.o) (getq)
../Webserver_bsp//libucosii_bsp.a(udp_open.o)
                              ../Webserver_bsp//libucosii_bsp.a(dhcpclnt.o) (udp_open)
../Webserver_bsp//libucosii_bsp.a(asm_cksum.o)
                              ../Webserver_bsp//libucosii_bsp.a(cksum.o) (asm_cksum)
../Webserver_bsp//libucosii_bsp.a(brdutils.o)
                              ../Webserver_bsp//libucosii_bsp.a(ipnet.o) (dtrap)
../Webserver_bsp//libucosii_bsp.a(osportco.o)
                              ../Webserver_bsp//libucosii_bsp.a(tk_crnos.o) (tcp_sleep_count)
../Webserver_bsp//libucosii_bsp.a(targnios.o)
                              obj/default/web_server.o (alt_iniche_init)
../Webserver_bsp//libucosii_bsp.a(nptcp.o)
                              ../Webserver_bsp//libucosii_bsp.a(bsdsock.o) (soq)
../Webserver_bsp//libucosii_bsp.a(rawsock.o)
                              ../Webserver_bsp//libucosii_bsp.a(nptcp.o) (rawip_usrreq)
../Webserver_bsp//libucosii_bsp.a(sockcall.o)
                              obj/default/http.o (t_socket)
../Webserver_bsp//libucosii_bsp.a(socket.o)
                              ../Webserver_bsp//libucosii_bsp.a(sockcall.o) (socreate)
../Webserver_bsp//libucosii_bsp.a(socket2.o)
                              ../Webserver_bsp//libucosii_bsp.a(sockcall.o) (soqremque)
../Webserver_bsp//libucosii_bsp.a(soselect.o)
                              ../Webserver_bsp//libucosii_bsp.a(bsdsock.o) (t_select)
../Webserver_bsp//libucosii_bsp.a(tcp_in.o)
                              ../Webserver_bsp//libucosii_bsp.a(nptcp.o) (tcp_input)
../Webserver_bsp//libucosii_bsp.a(tcp_out.o)
                              ../Webserver_bsp//libucosii_bsp.a(tcp_in.o) (tcp_output)
../Webserver_bsp//libucosii_bsp.a(tcp_subr.o)
                              ../Webserver_bsp//libucosii_bsp.a(nptcp.o) (tcp_init)
../Webserver_bsp//libucosii_bsp.a(tcp_timr.o)
                              ../Webserver_bsp//libucosii_bsp.a(tcp_in.o) (tcp_keepidle)
../Webserver_bsp//libucosii_bsp.a(tcp_usr.o)
                              ../Webserver_bsp//libucosii_bsp.a(nptcp.o) (tcp_usrreq)
../Webserver_bsp//libucosii_bsp.a(tcpport.o)
                              ../Webserver_bsp//libucosii_bsp.a(ipstart.o) (tcpinit)
../Webserver_bsp//libucosii_bsp.a(udpsock.o)
                              ../Webserver_bsp//libucosii_bsp.a(nptcp.o) (udp_usrreq)
../Webserver_bsp//libucosii_bsp.a(alt_alarm_start.o)
                              ../Webserver_bsp//libucosii_bsp.a(altera_avalon_jtag_uart_init.o) (alt_alarm_start)
../Webserver_bsp//libucosii_bsp.a(alt_busy_sleep.o)
                              ../Webserver_bsp//libucosii_bsp.a(alt_usleep.o) (alt_busy_sleep)
../Webserver_bsp//libucosii_bsp.a(alt_close.o)
                              ../Webserver_bsp//libucosii_bsp.a(alt_iniche_close.o) (alt_close)
../Webserver_bsp//libucosii_bsp.a(alt_dev.o)
                              ../Webserver_bsp//libucosii_bsp.a(alt_open.o) (alt_dev_list)
../Webserver_bsp//libucosii_bsp.a(alt_dev_llist_insert.o)
                              ../Webserver_bsp//libucosii_bsp.a(alt_sys_init.o) (alt_dev_llist_insert)
../Webserver_bsp//libucosii_bsp.a(alt_do_ctors.o)
                              ../Webserver_bsp//libucosii_bsp.a(alt_main.o) (_do_ctors)
../Webserver_bsp//libucosii_bsp.a(alt_do_dtors.o)
                              ../Webserver_bsp//libucosii_bsp.a(alt_main.o) (_do_dtors)
../Webserver_bsp//libucosii_bsp.a(alt_errno.o)
                              ../Webserver_bsp//libucosii_bsp.a(alt_fstat.o) (alt_errno)
../Webserver_bsp//libucosii_bsp.a(alt_find_dev.o)
                              ../Webserver_bsp//libucosii_bsp.a(alt_flash_dev.o) (alt_find_dev)
../Webserver_bsp//libucosii_bsp.a(alt_find_file.o)
                              ../Webserver_bsp//libucosii_bsp.a(alt_open.o) (alt_find_file)
../Webserver_bsp//libucosii_bsp.a(alt_fs_reg.o)
                              ../Webserver_bsp//libucosii_bsp.a(alt_sys_init.o) (alt_fs_reg)
../Webserver_bsp//libucosii_bsp.a(alt_get_fd.o)
                              ../Webserver_bsp//libucosii_bsp.a(alt_open.o) (alt_get_fd)
../Webserver_bsp//libucosii_bsp.a(alt_iic.o)
                              ../Webserver_bsp//libucosii_bsp.a(altera_avalon_jtag_uart_init.o) (alt_ic_isr_register)
../Webserver_bsp//libucosii_bsp.a(alt_iic_isr_register.o)
                              ../Webserver_bsp//libucosii_bsp.a(alt_iic.o) (alt_iic_isr_register)
../Webserver_bsp//libucosii_bsp.a(alt_io_redirect.o)
                              ../Webserver_bsp//libucosii_bsp.a(alt_main.o) (alt_io_redirect)
../Webserver_bsp//libucosii_bsp.a(alt_irq_entry.o)
                              ../Webserver_bsp//libucosii_bsp.a(alt_irq_register.o) (alt_irq_entry)
../Webserver_bsp//libucosii_bsp.a(alt_irq_handler.o)
                              ../Webserver_bsp//libucosii_bsp.a(alt_irq_register.o) (alt_irq_handler)
../Webserver_bsp//libucosii_bsp.a(alt_read.o)
                              ../Webserver_bsp//libucosii_bsp.a(alt_iniche_read.o) (alt_read)
../Webserver_bsp//libucosii_bsp.a(alt_remap_cached.o)
                              ../Webserver_bsp//libucosii_bsp.a(targnios.o) (alt_remap_cached)
../Webserver_bsp//libucosii_bsp.a(alt_remap_uncached.o)
                              ../Webserver_bsp//libucosii_bsp.a(targnios.o) (alt_remap_uncached)
../Webserver_bsp//libucosii_bsp.a(alt_write.o)
                              ../Webserver_bsp//libucosii_bsp.a(alt_iniche_write.o) (alt_write)
../Webserver_bsp//libucosii_bsp.a(altera_nios2_qsys_irq.o)
                              ../Webserver_bsp//libucosii_bsp.a(alt_sys_init.o) (altera_nios2_qsys_irq_init)
../Webserver_bsp//libucosii_bsp.a(os_cpu_a.o)
                              ../Webserver_bsp//libucosii_bsp.a(os_core.o) (OSIntCtxSw)
../Webserver_bsp//libucosii_bsp.a(os_cpu_c.o)
                              ../Webserver_bsp//libucosii_bsp.a(os_task.o) (OSTaskStkInit)
../Webserver_bsp//libucosii_bsp.a(allports.o)
                              ../Webserver_bsp//libucosii_bsp.a(dhcpclnt.o) (name)
../Webserver_bsp//libucosii_bsp.a(timeouts.o)
                              ../Webserver_bsp//libucosii_bsp.a(netmain.o) (inet_timer)
../Webserver_bsp//libucosii_bsp.a(tk_misc.o)
                              ../Webserver_bsp//libucosii_bsp.a(netmain.o) (create_apptasks)
../Webserver_bsp//libucosii_bsp.a(alt_iniche_fcntl.o)
                              ../Webserver_bsp//libucosii_bsp.a(brdutils.o) (fcntl)
../Webserver_bsp//libucosii_bsp.a(et_arp.o)
                              ../Webserver_bsp//libucosii_bsp.a(ipstart.o) (etainit)
../Webserver_bsp//libucosii_bsp.a(iface.o)
                              ../Webserver_bsp//libucosii_bsp.a(ipnet.o) (netlist)
../Webserver_bsp//libucosii_bsp.a(ip.o)
                              ../Webserver_bsp//libucosii_bsp.a(ipstart.o) (ip_init)
../Webserver_bsp//libucosii_bsp.a(ip_reasm.o)
                              ../Webserver_bsp//libucosii_bsp.a(timeouts.o) (ire_cticks)
../Webserver_bsp//libucosii_bsp.a(ipdemux.o)
                              ../Webserver_bsp//libucosii_bsp.a(ipnet.o) (ip_rcv)
../Webserver_bsp//libucosii_bsp.a(ipmc.o)
                              ../Webserver_bsp//libucosii_bsp.a(ipstart.o) (in_addmulti)
../Webserver_bsp//libucosii_bsp.a(ipport.o)
                              ../Webserver_bsp//libucosii_bsp.a(targnios.o) (port_prep)
../Webserver_bsp//libucosii_bsp.a(ipraw.o)
                              ../Webserver_bsp//libucosii_bsp.a(rawsock.o) (ipraw_eps)
../Webserver_bsp//libucosii_bsp.a(iproute.o)
                              ../Webserver_bsp//libucosii_bsp.a(ip.o) (cachedRoute)
../Webserver_bsp//libucosii_bsp.a(udp.o)
                              ../Webserver_bsp//libucosii_bsp.a(ipdemux.o) (udpdemux)
../Webserver_bsp//libucosii_bsp.a(igmp.o)
                              ../Webserver_bsp//libucosii_bsp.a(igmp_cmn.o) (igmpv1_input)
../Webserver_bsp//libucosii_bsp.a(igmp2.o)
                              ../Webserver_bsp//libucosii_bsp.a(igmp_cmn.o) (igmpv2_input)
../Webserver_bsp//libucosii_bsp.a(ipopt.o)
                              ../Webserver_bsp//libucosii_bsp.a(socket.o) (ip_setmoptions)
../Webserver_bsp//libucosii_bsp.a(u_mctest.o)
                              ../Webserver_bsp//libucosii_bsp.a(allports.o) (u_mctest_init)
../Webserver_bsp//libucosii_bsp.a(dhcsetup.o)
                              ../Webserver_bsp//libucosii_bsp.a(allports.o) (dhc_setup)
../Webserver_bsp//libucosii_bsp.a(memdev.o)
                              ../Webserver_bsp//libucosii_bsp.a(allports.o) (init_memdev)
../Webserver_bsp//libucosii_bsp.a(tcpcksum.o)
                              ../Webserver_bsp//libucosii_bsp.a(nptcp.o) (tcp_cksum)
../Webserver_bsp//libucosii_bsp.a(in_pcb.o)
                              ../Webserver_bsp//libucosii_bsp.a(tcp_usr.o) (in_pcballoc)
../Webserver_bsp//libucosii_bsp.a(vfsfiles.o)
                              ../Webserver_bsp//libucosii_bsp.a(memdev.o) (vfsystems)
../Webserver_bsp//libucosii_bsp.a(vfsport.o)
                              ../Webserver_bsp//libucosii_bsp.a(allports.o) (prep_vfs)
../Webserver_bsp//libucosii_bsp.a(alt_exception_entry.o)
                              ../Webserver_bsp//libucosii_bsp.a(alt_irq_entry.o) (alt_exception)
../Webserver_bsp//libucosii_bsp.a(alt_fcntl.o)
                              ../Webserver_bsp//libucosii_bsp.a(alt_iniche_fcntl.o) (alt_fcntl)
../Webserver_bsp//libucosii_bsp.a(icmp.o)
                              ../Webserver_bsp//libucosii_bsp.a(ipdemux.o) (icmprcv)
/OPT/altera/12.1/nios2eds/bin/gnu/H-i686-pc-linux-gnu/bin/../lib/gcc/nios2-elf/4.1.2/../../../../nios2-elf/lib/libc.a(lib_a-atexit.o)
                              ../Webserver_bsp//libucosii_bsp.a(alt_main.o) (atexit)
/OPT/altera/12.1/nios2eds/bin/gnu/H-i686-pc-linux-gnu/bin/../lib/gcc/nios2-elf/4.1.2/../../../../nios2-elf/lib/libc.a(lib_a-calloc.o)
                              ../Webserver_bsp//libucosii_bsp.a(targnios.o) (calloc)
/OPT/altera/12.1/nios2eds/bin/gnu/H-i686-pc-linux-gnu/bin/../lib/gcc/nios2-elf/4.1.2/../../../../nios2-elf/lib/libc.a(lib_a-exit.o)
                              ../Webserver_bsp//libucosii_bsp.a(alt_main.o) (exit)
/OPT/altera/12.1/nios2eds/bin/gnu/H-i686-pc-linux-gnu/bin/../lib/gcc/nios2-elf/4.1.2/../../../../nios2-elf/lib/libc.a(lib_a-getc.o)
                              ../Webserver_bsp//libucosii_bsp.a(brdutils.o) (getc)
/OPT/altera/12.1/nios2eds/bin/gnu/H-i686-pc-linux-gnu/bin/../lib/gcc/nios2-elf/4.1.2/../../../../nios2-elf/lib/libc.a(lib_a-malloc.o)
                              ../Webserver_bsp//libucosii_bsp.a(targnios.o) (free)
/OPT/altera/12.1/nios2eds/bin/gnu/H-i686-pc-linux-gnu/bin/../lib/gcc/nios2-elf/4.1.2/../../../../nios2-elf/lib/libc.a(lib_a-rget.o)
                              /OPT/altera/12.1/nios2eds/bin/gnu/H-i686-pc-linux-gnu/bin/../lib/gcc/nios2-elf/4.1.2/../../../../nios2-elf/lib/libc.a(lib_a-getc.o) (__srget_r)
/OPT/altera/12.1/nios2eds/bin/gnu/H-i686-pc-linux-gnu/bin/../lib/gcc/nios2-elf/4.1.2/../../../../nios2-elf/lib/libc.a(lib_a-vprintf.o)
                              ../Webserver_bsp//libucosii_bsp.a(in_utils.o) (vprintf)
/OPT/altera/12.1/nios2eds/bin/gnu/H-i686-pc-linux-gnu/bin/../lib/gcc/nios2-elf/4.1.2/../../../../nios2-elf/lib/libc.a(lib_a-vsprintf.o)
                              ../Webserver_bsp//libucosii_bsp.a(in_utils.o) (vsprintf)
/OPT/altera/12.1/nios2eds/bin/gnu/H-i686-pc-linux-gnu/bin/../lib/gcc/nios2-elf/4.1.2/../../../../nios2-elf/lib/libc.a(lib_a-__atexit.o)
                              /OPT/altera/12.1/nios2eds/bin/gnu/H-i686-pc-linux-gnu/bin/../lib/gcc/nios2-elf/4.1.2/../../../../nios2-elf/lib/libc.a(lib_a-atexit.o) (__register_exitproc)
/OPT/altera/12.1/nios2eds/bin/gnu/H-i686-pc-linux-gnu/bin/../lib/gcc/nios2-elf/4.1.2/../../../../nios2-elf/lib/libc.a(lib_a-__call_atexit.o)
                              /OPT/altera/12.1/nios2eds/bin/gnu/H-i686-pc-linux-gnu/bin/../lib/gcc/nios2-elf/4.1.2/../../../../nios2-elf/lib/libc.a(lib_a-exit.o) (__call_exitprocs)
../Webserver_bsp//libucosii_bsp.a(alt_exit.o)
                              /OPT/altera/12.1/nios2eds/bin/gnu/H-i686-pc-linux-gnu/bin/../lib/gcc/nios2-elf/4.1.2/../../../../nios2-elf/lib/libc.a(lib_a-exit.o) (_exit)

Allocating common symbols
Common symbol       size              file

soq                 0x14              ../Webserver_bsp//libucosii_bsp.a(nptcp.o)
upload_buf          0x5b8d88          obj/default/http.o
alt_irq             0x100             ../Webserver_bsp//libucosii_bsp.a(alt_irq_handler.o)
tcp_optionbuf       0x4               ../Webserver_bsp//libucosii_bsp.a(tcp_out.o)
last_flash_sector_offset
                    0x4               obj/default/network_utilities.o
rt_mib              0x4               ../Webserver_bsp//libucosii_bsp.a(ip.o)
so_evtmap_create    0x4               ../Webserver_bsp//libucosii_bsp.a(ipport.o)
board_funcs         0x2a              obj/default/http.o
OSLockNesting       0x1               ../Webserver_bsp//libucosii_bsp.a(os_core.o)
tcb                 0x2c              ../Webserver_bsp//libucosii_bsp.a(tcp_subr.o)
OSRunning           0x1               ../Webserver_bsp//libucosii_bsp.a(os_core.o)
dhc_states          0xf0              ../Webserver_bsp//libucosii_bsp.a(dhcpclnt.o)
tcpstat             0xe0              ../Webserver_bsp//libucosii_bsp.a(tcp_subr.o)
OSIdleCtr           0x4               ../Webserver_bsp//libucosii_bsp.a(os_core.o)
udp_mib             0x10              ../Webserver_bsp//libucosii_bsp.a(udp.o)
to_netmain          0x1               ../Webserver_bsp//libucosii_bsp.a(netmain.o)
OSPrioHighRdy       0x1               ../Webserver_bsp//libucosii_bsp.a(os_core.o)
errno               0x4               /OPT/altera/12.1/nios2eds/bin/gnu/H-i686-pc-linux-gnu/bin/../lib/gcc/nios2-elf/4.1.2/../../../../nios2-elf/lib/libc.a(lib_a-int_errno.o)
lilfreeq            0x14              ../Webserver_bsp//libucosii_bsp.a(pktalloc.o)
icmp_mib            0x68              ../Webserver_bsp//libucosii_bsp.a(icmp.o)
resid_semaphore     0x40              ../Webserver_bsp//libucosii_bsp.a(targnios.o)
alt_heapsem         0x4               ../Webserver_bsp//libucosii_bsp.a(alt_malloc_lock.o)
OSFlagTbl           0x370             ../Webserver_bsp//libucosii_bsp.a(os_core.o)
mbstat              0x8               ../Webserver_bsp//libucosii_bsp.a(nptcp.o)
netq_intmask        0x4               ../Webserver_bsp//libucosii_bsp.a(osportco.o)
select_wait         0x2               ../Webserver_bsp//libucosii_bsp.a(nptcp.o)
tcpmib              0x3c              ../Webserver_bsp//libucosii_bsp.a(nptcp.o)
OSPrioCur           0x1               ../Webserver_bsp//libucosii_bsp.a(os_core.o)
mheap_sem_ptr       0x4               ../Webserver_bsp//libucosii_bsp.a(targnios.o)
netlist             0x14              ../Webserver_bsp//libucosii_bsp.a(iface.o)
mbufq               0x14              ../Webserver_bsp//libucosii_bsp.a(nptcp.o)
OSTCBList           0x4               ../Webserver_bsp//libucosii_bsp.a(os_core.o)
alt_fd_list_lock    0x4               ../Webserver_bsp//libucosii_bsp.a(alt_dev.o)
OSMemTbl            0xc30             ../Webserver_bsp//libucosii_bsp.a(os_core.o)
OSTickStepState     0x1               ../Webserver_bsp//libucosii_bsp.a(os_core.o)
SSDTaskStk          0x2000            obj/default/web_server.o
line_count          0x4               obj/default/srec_flash.o
OSTaskStatStk       0x800             ../Webserver_bsp//libucosii_bsp.a(os_core.o)
OSCtxSwCtr          0x4               ../Webserver_bsp//libucosii_bsp.a(os_core.o)
igmpstats           0x64              ../Webserver_bsp//libucosii_bsp.a(igmp_cmn.o)
ire_stats           0x18              ../Webserver_bsp//libucosii_bsp.a(ip_reasm.o)
__hexdig            0x100             /OPT/altera/12.1/nios2eds/bin/gnu/H-i686-pc-linux-gnu/bin/../lib/gcc/nios2-elf/4.1.2/../../../../nios2-elf/lib/libc.a(lib_a-gdtoa-gethex.o)
old_mode            0x4               ../Webserver_bsp//libucosii_bsp.a(osportco.o)
vfs_dir_stale       0x4               ../Webserver_bsp//libucosii_bsp.a(vfsfiles.o)
cticks_factor       0x4               ../Webserver_bsp//libucosii_bsp.a(brdutils.o)
g_dm9ka             0x44              obj/default/dm9000a.o
OSIdleCtrMax        0x4               ../Webserver_bsp//libucosii_bsp.a(os_core.o)
memestats           0x10              ../Webserver_bsp//libucosii_bsp.a(pktalloc.o)
intimers            0x64              ../Webserver_bsp//libucosii_bsp.a(timeouts.o)
OSTCBFreeList       0x4               ../Webserver_bsp//libucosii_bsp.a(os_core.o)
global_TCPwakeup_setIndx
                    0x4               ../Webserver_bsp//libucosii_bsp.a(osportco.o)
rcvdq               0x14              ../Webserver_bsp//libucosii_bsp.a(ipnet.o)
http_rx_buffer      0xc000            obj/default/http.o
global_tcb_ext      0xfc              ../Webserver_bsp//libucosii_bsp.a(osportco.o)
netstatic           0x300             ../Webserver_bsp//libucosii_bsp.a(ipstart.o)
tcp_maxidle         0x4               ../Webserver_bsp//libucosii_bsp.a(tcp_timr.o)
flash_inf           0x30              obj/default/http.o
OSCPUUsage          0x1               ../Webserver_bsp//libucosii_bsp.a(os_core.o)
nets                0x10              ../Webserver_bsp//libucosii_bsp.a(ipstart.o)
pktlog              0xf0              ../Webserver_bsp//libucosii_bsp.a(pktalloc.o)
lcdDevice           0x4               obj/default/web_server.o
frag                0x104             obj/default/srec_flash.o
OSTaskCtr           0x1               ../Webserver_bsp//libucosii_bsp.a(os_core.o)
OSMemFreeList       0x4               ../Webserver_bsp//libucosii_bsp.a(os_core.o)
vfs_open_files      0x4               ../Webserver_bsp//libucosii_bsp.a(vfsfiles.o)
cticks              0x4               ../Webserver_bsp//libucosii_bsp.a(osportco.o)
to_nettick          0x1               ../Webserver_bsp//libucosii_bsp.a(netmain.o)
WSInitialTaskStk    0x2000            obj/default/web_server.o
last_flash_sector   0x4               obj/default/network_utilities.o
OSQTbl              0x1e0             ../Webserver_bsp//libucosii_bsp.a(os_core.o)
OSTCBHighRdy        0x4               ../Webserver_bsp//libucosii_bsp.a(os_core.o)
OSQFreeList         0x4               ../Webserver_bsp//libucosii_bsp.a(os_core.o)
OSRdyGrp            0x1               ../Webserver_bsp//libucosii_bsp.a(os_core.o)
ip_mib              0x50              ../Webserver_bsp//libucosii_bsp.a(ip.o)
OS_TPS              0x4               ../Webserver_bsp//libucosii_bsp.a(brdutils.o)
_atexit0            0x190             /OPT/altera/12.1/nios2eds/bin/gnu/H-i686-pc-linux-gnu/bin/../lib/gcc/nios2-elf/4.1.2/../../../../nios2-elf/lib/libc.a(lib_a-atexit.o)
current_flash_block
                    0x4               obj/default/srec_flash.o
OSRdyTbl            0x3               ../Webserver_bsp//libucosii_bsp.a(os_core.o)
igmp_all_hosts_group
                    0x4               ../Webserver_bsp//libucosii_bsp.a(igmp_cmn.o)
LEDTaskStk          0x2000            obj/default/web_server.o
eth_prt_buf         0x12              ../Webserver_bsp//libucosii_bsp.a(in_utils.o)
app_semaphore       0x18              ../Webserver_bsp//libucosii_bsp.a(targnios.o)
rcvdq_sem_ptr       0x4               ../Webserver_bsp//libucosii_bsp.a(targnios.o)
OSEventFreeList     0x4               ../Webserver_bsp//libucosii_bsp.a(os_core.o)
http_tx_buffer      0xc000            obj/default/http.o
mfreeq              0x14              ../Webserver_bsp//libucosii_bsp.a(nptcp.o)
global_TCPwakeup_set
                    0xf0              ../Webserver_bsp//libucosii_bsp.a(osportco.o)
bigfreeq            0x14              ../Webserver_bsp//libucosii_bsp.a(pktalloc.o)
so_evtmap_delete    0x4               ../Webserver_bsp//libucosii_bsp.a(ipport.o)
tcp_saveti          0x28              ../Webserver_bsp//libucosii_bsp.a(tcp_in.o)
OSIntNesting        0x1               ../Webserver_bsp//libucosii_bsp.a(os_core.o)
so_evtmap           0x1               ../Webserver_bsp//libucosii_bsp.a(ipport.o)
board_control_mbox  0x4               obj/default/web_server.o
to_wstask           0x1               obj/default/web_server.o
OSTCBCur            0x4               ../Webserver_bsp//libucosii_bsp.a(os_core.o)
arp_table           0x100             ../Webserver_bsp//libucosii_bsp.a(et_arp.o)
tcp_iss             0x4               ../Webserver_bsp//libucosii_bsp.a(tcp_timr.o)
vfs_total_rw_space  0x4               ../Webserver_bsp//libucosii_bsp.a(vfsfiles.o)
OSTime              0x4               ../Webserver_bsp//libucosii_bsp.a(os_core.o)
OSTaskIdleStk       0x800             ../Webserver_bsp//libucosii_bsp.a(os_core.o)
OSEventTbl          0xb40             ../Webserver_bsp//libucosii_bsp.a(os_core.o)
vfs_total_dyna_files
                    0x4               ../Webserver_bsp//libucosii_bsp.a(vfsfiles.o)
OSTCBTbl            0x510             ../Webserver_bsp//libucosii_bsp.a(os_core.o)
ipreturn            0x12              ../Webserver_bsp//libucosii_bsp.a(in_utils.o)
OSFlagFreeList      0x4               ../Webserver_bsp//libucosii_bsp.a(os_core.o)
dropline            0x4               ../Webserver_bsp//libucosii_bsp.a(tcp_in.o)
OSStatRdy           0x1               ../Webserver_bsp//libucosii_bsp.a(os_core.o)
OSTCBPrioTbl        0x54              ../Webserver_bsp//libucosii_bsp.a(os_core.o)
igmp_all_rtrs_group
                    0x4               ../Webserver_bsp//libucosii_bsp.a(igmp_cmn.o)
BCTaskStk           0x2000            obj/default/web_server.o
alt_envsem          0x4               ../Webserver_bsp//libucosii_bsp.a(alt_env_lock.o)
OSIdleCtrRun        0x4               ../Webserver_bsp//libucosii_bsp.a(os_core.o)

Memory Configuration

Name             Origin             Length             Attributes
sdram_0          0x00800000         0x00800000
reset            0x01400000         0x00000020
generic_tristate_controller_0 0x01400020         0x003fffe0
onchip_memory2_0_BEFORE_EXCEPTION 0x01904000         0x00000020
onchip_memory2_0 0x01904020         0x00003fe0
*default*        0x00000000         0xffffffff

Linker script and memory map

LOAD ../Webserver_bsp//obj/HAL/src/crt0.o
LOAD obj/default/alt_error_handler.o
LOAD obj/default/dm9000a.o
LOAD obj/default/http.o
LOAD obj/default/network_utilities.o
LOAD obj/default/srec_flash.o
LOAD obj/default/web_server.o
LOAD /OPT/altera/12.1/nios2eds/bin/gnu/H-i686-pc-linux-gnu/bin/../lib/gcc/nios2-elf/4.1.2/../../../../nios2-elf/lib/libstdc++.a
LOAD /OPT/altera/12.1/nios2eds/bin/gnu/H-i686-pc-linux-gnu/bin/../lib/gcc/nios2-elf/4.1.2/../../../../nios2-elf/lib/libm.a
LOAD /OPT/altera/12.1/nios2eds/bin/gnu/H-i686-pc-linux-gnu/bin/../lib/gcc/nios2-elf/4.1.2/libgcc.a
START GROUP
LOAD /OPT/altera/12.1/nios2eds/bin/gnu/H-i686-pc-linux-gnu/bin/../lib/gcc/nios2-elf/4.1.2/../../../../nios2-elf/lib/libc.a
LOAD /OPT/altera/12.1/nios2eds/bin/gnu/H-i686-pc-linux-gnu/bin/../lib/gcc/nios2-elf/4.1.2/libgcc.a
LOAD ../Webserver_bsp//libucosii_bsp.a
END GROUP
LOAD /OPT/altera/12.1/nios2eds/bin/gnu/H-i686-pc-linux-gnu/bin/../lib/gcc/nios2-elf/4.1.2/libgcc.a
                0x00800000                __alt_mem_sdram_0 = 0x800000
                0x01400000                __alt_mem_generic_tristate_controller_0 = 0x1400000
                0x01904000                __alt_mem_onchip_memory2_0 = 0x1904000

.entry          0x01400000        0x0
 *(.entry)
 .entry         0x01400000        0x0 ../Webserver_bsp//obj/HAL/src/crt0.o
                0x01400000                __reset

.exceptions     0x01904020      0x19c
                0x01904020                PROVIDE (__ram_exceptions_start, ABSOLUTE (.))
                0x01904020                . = ALIGN (0x20)
 *(.irq)
 *(.exceptions.entry.label)
 .exceptions.entry.label
                0x01904020        0x0 ../Webserver_bsp//libucosii_bsp.a(alt_irq_entry.o)
                0x01904020                alt_irq_entry
 .exceptions.entry.label
                0x01904020        0x0 ../Webserver_bsp//libucosii_bsp.a(alt_exception_entry.o)
                0x01904020                alt_exception
 *(.exceptions.entry.user)
 *(.exceptions.entry)
 .exceptions.entry
                0x01904020       0x54 ../Webserver_bsp//libucosii_bsp.a(alt_exception_entry.o)
 *(.exceptions.irqtest.user)
 *(.exceptions.irqtest)
 .exceptions.irqtest
                0x01904074       0x10 ../Webserver_bsp//libucosii_bsp.a(alt_irq_entry.o)
 *(.exceptions.irqhandler.user)
 *(.exceptions.irqhandler)
 .exceptions.irqhandler
                0x01904084        0x4 ../Webserver_bsp//libucosii_bsp.a(alt_irq_entry.o)
 *(.exceptions.irqreturn.user)
 *(.exceptions.irqreturn)
 .exceptions.irqreturn
                0x01904088        0x4 ../Webserver_bsp//libucosii_bsp.a(alt_irq_entry.o)
 *(.exceptions.notirq.label)
 .exceptions.notirq.label
                0x0190408c        0x0 ../Webserver_bsp//libucosii_bsp.a(alt_irq_entry.o)
 *(.exceptions.notirq.user)
 *(.exceptions.notirq)
 .exceptions.notirq
                0x0190408c        0x8 ../Webserver_bsp//libucosii_bsp.a(alt_exception_entry.o)
 *(.exceptions.soft.user)
 *(.exceptions.soft)
 *(.exceptions.unknown.user)
 *(.exceptions.unknown)
 .exceptions.unknown
                0x01904094        0x4 ../Webserver_bsp//libucosii_bsp.a(alt_exception_entry.o)
 *(.exceptions.exit.label)
 .exceptions.exit.label
                0x01904098        0x0 ../Webserver_bsp//libucosii_bsp.a(alt_irq_entry.o)
 .exceptions.exit.label
                0x01904098        0x0 ../Webserver_bsp//libucosii_bsp.a(alt_exception_entry.o)
 *(.exceptions.exit.user)
 *(.exceptions.exit)
 .exceptions.exit
                0x01904098       0x54 ../Webserver_bsp//libucosii_bsp.a(alt_exception_entry.o)
 *(.exceptions)
 .exceptions    0x019040ec       0xd0 ../Webserver_bsp//libucosii_bsp.a(alt_irq_handler.o)
                0x019040ec                alt_irq_handler
                0x019041bc                PROVIDE (__ram_exceptions_end, ABSOLUTE (.))
                0x01904020                PROVIDE (__flash_exceptions_start, LOADADDR (.exceptions))

.text           0x00800000    0x4aa38
                0x00800000                PROVIDE (stext, ABSOLUTE (.))
 *(.interp)
 *(.hash)
 *(.dynsym)
 *(.dynstr)
 *(.gnu.version)
 *(.gnu.version_d)
 *(.gnu.version_r)
 *(.rel.init)
 *(.rela.init)
 *(.rel.text .rel.text.* .rel.gnu.linkonce.t.*)
 *(.rela.text .rela.text.* .rela.gnu.linkonce.t.*)
 *(.rel.fini)
 *(.rela.fini)
 *(.rel.rodata .rel.rodata.* .rel.gnu.linkonce.r.*)
 *(.rela.rodata .rela.rodata.* .rela.gnu.linkonce.r.*)
 *(.rel.data .rel.data.* .rel.gnu.linkonce.d.*)
 *(.rela.data .rela.data.* .rela.gnu.linkonce.d.*)
 *(.rel.tdata .rel.tdata.* .rel.gnu.linkonce.td.*)
 *(.rela.tdata .rela.tdata.* .rela.gnu.linkonce.td.*)
 *(.rel.tbss .rel.tbss.* .rel.gnu.linkonce.tb.*)
 *(.rela.tbss .rela.tbss.* .rela.gnu.linkonce.tb.*)
 *(.rel.ctors)
 *(.rela.ctors)
 *(.rel.dtors)
 *(.rela.dtors)
 *(.rel.got)
 *(.rela.got)
 *(.rel.sdata .rel.sdata.* .rel.gnu.linkonce.s.*)
 *(.rela.sdata .rela.sdata.* .rela.gnu.linkonce.s.*)
 *(.rel.sbss .rel.sbss.* .rel.gnu.linkonce.sb.*)
 *(.rela.sbss .rela.sbss.* .rela.gnu.linkonce.sb.*)
 *(.rel.sdata2 .rel.sdata2.* .rel.gnu.linkonce.s2.*)
 *(.rela.sdata2 .rela.sdata2.* .rela.gnu.linkonce.s2.*)
 *(.rel.sbss2 .rel.sbss2.* .rel.gnu.linkonce.sb2.*)
 *(.rela.sbss2 .rela.sbss2.* .rela.gnu.linkonce.sb2.*)
 *(.rel.bss .rel.bss.* .rel.gnu.linkonce.b.*)
 *(.rela.bss .rela.bss.* .rela.gnu.linkonce.b.*)
 *(.rel.plt)
 *(.rela.plt)
 *(.rel.dyn)
 *(.init)
 *(.plt)
 *(.text .stub .text.* .gnu.linkonce.t.*)
 .text          0x00800000       0x48 ../Webserver_bsp//obj/HAL/src/crt0.o
                0x00800000                _start
 .text          0x00800048      0x624 obj/default/alt_error_handler.o
                0x00800048                alt_uCOSIIErrorHandler
 .text          0x0080066c      0xdf0 obj/default/dm9000a.o
                0x0080066c                dm9000a_iow
                0x008006c0                dm9000a_ior
                0x0080070c                phy_write
                0x008007a8                dm9000a_reset
                0x0080096c                TransmitPacket
                0x00800a88                prep_dm9000a
                0x00800c4c                dm9000a_init
                0x0080109c                dm9Ka_isr_wrap
                0x008010dc                dm9ka_init
                0x008011d4                dm9ka_close
                0x008012e4                dm9ka_stats
                0x00801340                dm9ka_pkt_send
 .text          0x0080145c     0x294c obj/default/http.o
                0x0080145c                print
                0x0080148c                sweep
                0x00801574                http_cleanup_lcd_text
                0x008015f8                lcd_output
                0x008016c0                http_parse_multipart_header
                0x00801910                file_upload
                0x00801b74                ProgFlashStub
                0x00801bc4                http_reset_connection
                0x00801cb4                http_manage_connection
                0x00801e60                http_handle_accept
                0x00801f88                http_read_line
                0x00802038                http_parse_type_boundary
                0x00802124                http_process_headers
                0x00802358                http_process_request
                0x0080264c                http_send_file_chunk
                0x008027f8                http_send_file_header
                0x00802f38                http_find_file
                0x008031b4                http_send_redirect
                0x008031e8                http_handle_post
                0x008034e0                http_prepare_response
                0x00803554                http_handle_receive
                0x00803910                http_handle_transmit
                0x00803970                WSClientTask
                0x00803ca8                WSTask
 .text          0x00803da8      0x7a8 obj/default/network_utilities.o
                0x00803da8                die_with_error
                0x00803dd8                get_serial_number
                0x00803edc                generate_and_store_mac_addr
                0x00804088                generate_mac_addr
                0x008041c4                get_board_mac_addr
                0x00804358                get_mac_addr
                0x008043b0                get_ip_addr
                0x0080440c                FindLastFlashSectorOffset
 .text          0x00804550      0x820 obj/default/srec_flash.o
                0x00804550                ProgFlash
                0x008047f4                ParseAndProgramLine
                0x00804ab0                ParseSRECBuf
 .text          0x00804d70      0x5d8 obj/default/web_server.o
                0x00804d70                lcd_ip_addr
                0x00804f68                WSInitialTask
                0x00804fe4                main
                0x008051c8                lcd_output_text
                0x00805234                board_control_task
                0x008052cc                LED_task
 .text          0x00805348      0x14c /OPT/altera/12.1/nios2eds/bin/gnu/H-i686-pc-linux-gnu/bin/../lib/gcc/nios2-elf/4.1.2/libgcc.a(lib2-divmod.o)
                0x008053c4                __divsi3
                0x00805424                __modsi3
                0x00805484                __udivsi3
                0x0080548c                __umodsi3
 .text          0x00805494       0x18 /OPT/altera/12.1/nios2eds/bin/gnu/H-i686-pc-linux-gnu/bin/../lib/gcc/nios2-elf/4.1.2/../../../../nios2-elf/lib/libc.a(lib_a-atoi.o)
                0x00805494                _atoi_r
                0x008054a0                atoi
 .text          0x008054ac        0x0 /OPT/altera/12.1/nios2eds/bin/gnu/H-i686-pc-linux-gnu/bin/../lib/gcc/nios2-elf/4.1.2/../../../../nios2-elf/lib/libc.a(lib_a-ctype_.o)
 .text          0x008054ac      0x124 /OPT/altera/12.1/nios2eds/bin/gnu/H-i686-pc-linux-gnu/bin/../lib/gcc/nios2-elf/4.1.2/../../../../nios2-elf/lib/libc.a(lib_a-fclose.o)
                0x008054ac                _fclose_r
                0x008055bc                fclose
 .text          0x008055d0      0x230 /OPT/altera/12.1/nios2eds/bin/gnu/H-i686-pc-linux-gnu/bin/../lib/gcc/nios2-elf/4.1.2/../../../../nios2-elf/lib/libc.a(lib_a-fflush.o)
                0x008055d0                _fflush_r
                0x008057cc                fflush
 .text          0x00805800       0x48 /OPT/altera/12.1/nios2eds/bin/gnu/H-i686-pc-linux-gnu/bin/../lib/gcc/nios2-elf/4.1.2/../../../../nios2-elf/lib/libc.a(lib_a-fgetpos.o)
                0x00805800                _fgetpos_r
                0x0080582c                fgetpos
 .text          0x00805848      0x2c0 /OPT/altera/12.1/nios2eds/bin/gnu/H-i686-pc-linux-gnu/bin/../lib/gcc/nios2-elf/4.1.2/../../../../nios2-elf/lib/libc.a(lib_a-findfp.o)
                0x008058a0                __sfp_lock_acquire
                0x008058a4                __sfp_lock_release
                0x008058a8                __sinit_lock_acquire
                0x008058ac                __sinit_lock_release
                0x008058b0                __sinit
                0x00805964                __fp_unlock_all
                0x0080597c                __fp_lock_all
                0x00805994                _cleanup_r
                0x008059a0                _cleanup
                0x008059b0                __sfmoreglue
                0x00805a18                __sfp
 .text          0x00805b08      0x110 /OPT/altera/12.1/nios2eds/bin/gnu/H-i686-pc-linux-gnu/bin/../lib/gcc/nios2-elf/4.1.2/../../../../nios2-elf/lib/libc.a(lib_a-fopen.o)
                0x00805b08                _fopen_r
                0x00805bfc                fopen
 .text          0x00805c18       0x60 /OPT/altera/12.1/nios2eds/bin/gnu/H-i686-pc-linux-gnu/bin/../lib/gcc/nios2-elf/4.1.2/../../../../nios2-elf/lib/libc.a(lib_a-fprintf.o)
                0x00805c18                fprintf
                0x00805c44                _fprintf_r
 .text          0x00805c78      0x23c /OPT/altera/12.1/nios2eds/bin/gnu/H-i686-pc-linux-gnu/bin/../lib/gcc/nios2-elf/4.1.2/../../../../nios2-elf/lib/libc.a(lib_a-fread.o)
                0x00805c78                _fread_r
                0x00805e74                fread
 .text          0x00805eb4      0x440 /OPT/altera/12.1/nios2eds/bin/gnu/H-i686-pc-linux-gnu/bin/../lib/gcc/nios2-elf/4.1.2/../../../../nios2-elf/lib/libc.a(lib_a-freer.o)
                0x00805eb4                _malloc_trim_r
                0x00805fe0                _free_r
 .text          0x008062f4      0x460 /OPT/altera/12.1/nios2eds/bin/gnu/H-i686-pc-linux-gnu/bin/../lib/gcc/nios2-elf/4.1.2/../../../../nios2-elf/lib/libc.a(lib_a-fseek.o)
                0x008062f4                _fseek_r
                0x00806730                fseek
 .text          0x00806754       0x74 /OPT/altera/12.1/nios2eds/bin/gnu/H-i686-pc-linux-gnu/bin/../lib/gcc/nios2-elf/4.1.2/../../../../nios2-elf/lib/libc.a(lib_a-fstatr.o)
                0x00806754                _fstat_r
 .text          0x008067c8      0x10c /OPT/altera/12.1/nios2eds/bin/gnu/H-i686-pc-linux-gnu/bin/../lib/gcc/nios2-elf/4.1.2/../../../../nios2-elf/lib/libc.a(lib_a-ftell.o)
                0x008067c8                _ftell_r
                0x008068c0                ftell
 .text          0x008068d4      0x180 /OPT/altera/12.1/nios2eds/bin/gnu/H-i686-pc-linux-gnu/bin/../lib/gcc/nios2-elf/4.1.2/../../../../nios2-elf/lib/libc.a(lib_a-fwalk.o)
                0x008068d4                _fwalk_reent
                0x0080699c                _fwalk
 .text          0x00806a54       0xdc /OPT/altera/12.1/nios2eds/bin/gnu/H-i686-pc-linux-gnu/bin/../lib/gcc/nios2-elf/4.1.2/../../../../nios2-elf/lib/libc.a(lib_a-fwrite.o)
                0x00806a54                _fwrite_r
                0x00806af0                fwrite
 .text          0x00806b30        0x0 /OPT/altera/12.1/nios2eds/bin/gnu/H-i686-pc-linux-gnu/bin/../lib/gcc/nios2-elf/4.1.2/../../../../nios2-elf/lib/libc.a(lib_a-impure.o)
 .text          0x00806b30        0x0 /OPT/altera/12.1/nios2eds/bin/gnu/H-i686-pc-linux-gnu/bin/../lib/gcc/nios2-elf/4.1.2/../../../../nios2-elf/lib/libc.a(lib_a-int_errno.o)
 .text          0x00806b30      0x194 /OPT/altera/12.1/nios2eds/bin/gnu/H-i686-pc-linux-gnu/bin/../lib/gcc/nios2-elf/4.1.2/../../../../nios2-elf/lib/libc.a(lib_a-makebuf.o)
                0x00806b30                __smakebuf_r
 .text          0x00806cc4      0x740 /OPT/altera/12.1/nios2eds/bin/gnu/H-i686-pc-linux-gnu/bin/../lib/gcc/nios2-elf/4.1.2/../../../../nios2-elf/lib/libc.a(lib_a-mallocr.o)
                0x00806cc4                _malloc_r
 .text          0x00807404       0xa0 /OPT/altera/12.1/nios2eds/bin/gnu/H-i686-pc-linux-gnu/bin/../lib/gcc/nios2-elf/4.1.2/../../../../nios2-elf/lib/libc.a(lib_a-memcpy.o)
                0x00807404                memcpy
 .text          0x008074a4       0xe0 /OPT/altera/12.1/nios2eds/bin/gnu/H-i686-pc-linux-gnu/bin/../lib/gcc/nios2-elf/4.1.2/../../../../nios2-elf/lib/libc.a(lib_a-memmove.o)
                0x008074a4                memmove
 .text          0x00807584       0x98 /OPT/altera/12.1/nios2eds/bin/gnu/H-i686-pc-linux-gnu/bin/../lib/gcc/nios2-elf/4.1.2/../../../../nios2-elf/lib/libc.a(lib_a-memset.o)
                0x00807584                memset
 .text          0x0080761c       0x78 /OPT/altera/12.1/nios2eds/bin/gnu/H-i686-pc-linux-gnu/bin/../lib/gcc/nios2-elf/4.1.2/../../../../nios2-elf/lib/libc.a(lib_a-openr.o)
                0x0080761c                _open_r
 .text          0x00807694       0x80 /OPT/altera/12.1/nios2eds/bin/gnu/H-i686-pc-linux-gnu/bin/../lib/gcc/nios2-elf/4.1.2/../../../../nios2-elf/lib/libc.a(lib_a-perror.o)
                0x00807694                _perror_r
                0x00807700                perror
 .text          0x00807714       0x78 /OPT/altera/12.1/nios2eds/bin/gnu/H-i686-pc-linux-gnu/bin/../lib/gcc/nios2-elf/4.1.2/../../../../nios2-elf/lib/libc.a(lib_a-printf.o)
                0x00807714                printf
                0x00807758                _printf_r
 .text          0x0080778c       0xb4 /OPT/altera/12.1/nios2eds/bin/gnu/H-i686-pc-linux-gnu/bin/../lib/gcc/nios2-elf/4.1.2/../../../../nios2-elf/lib/libc.a(lib_a-puts.o)
                0x0080778c                _puts_r
                0x0080782c                puts
 .text          0x00807840      0x1e0 /OPT/altera/12.1/nios2eds/bin/gnu/H-i686-pc-linux-gnu/bin/../lib/gcc/nios2-elf/4.1.2/../../../../nios2-elf/lib/libc.a(lib_a-refill.o)
                0x00807840                __srefill_r
 .text          0x00807a20       0x70 /OPT/altera/12.1/nios2eds/bin/gnu/H-i686-pc-linux-gnu/bin/../lib/gcc/nios2-elf/4.1.2/../../../../nios2-elf/lib/libc.a(lib_a-sbrkr.o)
                0x00807a20                _sbrk_r
 .text          0x00807a90      0x170 /OPT/altera/12.1/nios2eds/bin/gnu/H-i686-pc-linux-gnu/bin/../lib/gcc/nios2-elf/4.1.2/../../../../nios2-elf/lib/libc.a(lib_a-snprintf.o)
                0x00807a90                snprintf
                0x00807b4c                _snprintf_r
 .text          0x00807c00       0xd4 /OPT/altera/12.1/nios2eds/bin/gnu/H-i686-pc-linux-gnu/bin/../lib/gcc/nios2-elf/4.1.2/../../../../nios2-elf/lib/libc.a(lib_a-sprintf.o)
                0x00807c00                sprintf
                0x00807c74                _sprintf_r
 .text          0x00807cd4      0x114 /OPT/altera/12.1/nios2eds/bin/gnu/H-i686-pc-linux-gnu/bin/../lib/gcc/nios2-elf/4.1.2/../../../../nios2-elf/lib/libc.a(lib_a-sscanf.o)
                0x00807cdc                _sscanf_r
                0x00807d64                sscanf
 .text          0x00807de8      0x14c /OPT/altera/12.1/nios2eds/bin/gnu/H-i686-pc-linux-gnu/bin/../lib/gcc/nios2-elf/4.1.2/../../../../nios2-elf/lib/libc.a(lib_a-stdio.o)
                0x00807de8                __sclose
                0x00807df0                __sseek
                0x00807e58                __swrite
                0x00807ed4                __sread
 .text          0x00807f34       0xb0 /OPT/altera/12.1/nios2eds/bin/gnu/H-i686-pc-linux-gnu/bin/../lib/gcc/nios2-elf/4.1.2/../../../../nios2-elf/lib/libc.a(lib_a-strcasecmp.o)
                0x00807f34                strcasecmp
 .text          0x00807fe4       0x90 /OPT/altera/12.1/nios2eds/bin/gnu/H-i686-pc-linux-gnu/bin/../lib/gcc/nios2-elf/4.1.2/../../../../nios2-elf/lib/libc.a(lib_a-strcat.o)
                0x00807fe4                strcat
 .text          0x00808074       0xe0 /OPT/altera/12.1/nios2eds/bin/gnu/H-i686-pc-linux-gnu/bin/../lib/gcc/nios2-elf/4.1.2/../../../../nios2-elf/lib/libc.a(lib_a-strchr.o)
                0x00808074                strchr
 .text          0x00808154       0xbc /OPT/altera/12.1/nios2eds/bin/gnu/H-i686-pc-linux-gnu/bin/../lib/gcc/nios2-elf/4.1.2/../../../../nios2-elf/lib/libc.a(lib_a-strcmp.o)
                0x00808154                strcmp
 .text          0x00808210       0x8c /OPT/altera/12.1/nios2eds/bin/gnu/H-i686-pc-linux-gnu/bin/../lib/gcc/nios2-elf/4.1.2/../../../../nios2-elf/lib/libc.a(lib_a-strcpy.o)
                0x00808210                strcpy
 .text          0x0080829c      0x674 /OPT/altera/12.1/nios2eds/bin/gnu/H-i686-pc-linux-gnu/bin/../lib/gcc/nios2-elf/4.1.2/../../../../nios2-elf/lib/libc.a(lib_a-strerror.o)
                0x0080829c                strerror
 .text          0x00808910       0x74 /OPT/altera/12.1/nios2eds/bin/gnu/H-i686-pc-linux-gnu/bin/../lib/gcc/nios2-elf/4.1.2/../../../../nios2-elf/lib/libc.a(lib_a-strlen.o)
                0x00808910                strlen
 .text          0x00808984       0xf0 /OPT/altera/12.1/nios2eds/bin/gnu/H-i686-pc-linux-gnu/bin/../lib/gcc/nios2-elf/4.1.2/../../../../nios2-elf/lib/libc.a(lib_a-strncmp.o)
                0x00808984                strncmp
 .text          0x00808a74       0xbc /OPT/altera/12.1/nios2eds/bin/gnu/H-i686-pc-linux-gnu/bin/../lib/gcc/nios2-elf/4.1.2/../../../../nios2-elf/lib/libc.a(lib_a-strncpy.o)
                0x00808a74                strncpy
 .text          0x00808b30      0x794 /OPT/altera/12.1/nios2eds/bin/gnu/H-i686-pc-linux-gnu/bin/../lib/gcc/nios2-elf/4.1.2/../../../../nios2-elf/lib/libc.a(lib_a-strstr.o)
                0x00808c64                strstr
 .text          0x008092c4       0x18 /OPT/altera/12.1/nios2eds/bin/gnu/H-i686-pc-linux-gnu/bin/../lib/gcc/nios2-elf/4.1.2/../../../../nios2-elf/lib/libc.a(lib_a-strtok.o)
                0x008092c4                strtok
 .text          0x008092dc       0xac /OPT/altera/12.1/nios2eds/bin/gnu/H-i686-pc-linux-gnu/bin/../lib/gcc/nios2-elf/4.1.2/../../../../nios2-elf/lib/libc.a(lib_a-strtok_r.o)
                0x008092dc                __strtok_r
                0x00809380                strtok_r
 .text          0x00809388      0x268 /OPT/altera/12.1/nios2eds/bin/gnu/H-i686-pc-linux-gnu/bin/../lib/gcc/nios2-elf/4.1.2/../../../../nios2-elf/lib/libc.a(lib_a-strtol.o)
                0x00809388                _strtol_r
                0x008095cc                strtol
 .text          0x008095f0        0x8 /OPT/altera/12.1/nios2eds/bin/gnu/H-i686-pc-linux-gnu/bin/../lib/gcc/nios2-elf/4.1.2/../../../../nios2-elf/lib/libc.a(lib_a-u_strerr.o)
                0x008095f0                _user_strerror
 .text          0x008095f8     0x1f28 /OPT/altera/12.1/nios2eds/bin/gnu/H-i686-pc-linux-gnu/bin/../lib/gcc/nios2-elf/4.1.2/../../../../nios2-elf/lib/libc.a(lib_a-vfprintf.o)
                0x00809650                ___vfprintf_internal_r
                0x0080b4fc                __vfprintf_internal
 .text          0x0080b520     0x1780 /OPT/altera/12.1/nios2eds/bin/gnu/H-i686-pc-linux-gnu/bin/../lib/gcc/nios2-elf/4.1.2/../../../../nios2-elf/lib/libc.a(lib_a-vfscanf.o)
                0x0080b520                __svfscanf_r
                0x0080cba0                __svfscanf
                0x0080cbc4                _vfscanf_r
                0x0080cc2c                vfscanf
 .text          0x0080cca0       0x78 /OPT/altera/12.1/nios2eds/bin/gnu/H-i686-pc-linux-gnu/bin/../lib/gcc/nios2-elf/4.1.2/../../../../nios2-elf/lib/libc.a(lib_a-writer.o)
                0x0080cca0                _write_r
 .text          0x0080cd18      0x13c /OPT/altera/12.1/nios2eds/bin/gnu/H-i686-pc-linux-gnu/bin/../lib/gcc/nios2-elf/4.1.2/../../../../nios2-elf/lib/libc.a(lib_a-wsetup.o)
                0x0080cd18                __swsetup_r
 .text          0x0080ce54       0x70 /OPT/altera/12.1/nios2eds/bin/gnu/H-i686-pc-linux-gnu/bin/../lib/gcc/nios2-elf/4.1.2/../../../../nios2-elf/lib/libc.a(lib_a-closer.o)
                0x0080ce54                _close_r
 .text          0x0080cec4     0x17cc /OPT/altera/12.1/nios2eds/bin/gnu/H-i686-pc-linux-gnu/bin/../lib/gcc/nios2-elf/4.1.2/../../../../nios2-elf/lib/libc.a(lib_a-dtoa.o)
                0x0080d0dc                _dtoa_r
 .text          0x0080e690       0xa0 /OPT/altera/12.1/nios2eds/bin/gnu/H-i686-pc-linux-gnu/bin/../lib/gcc/nios2-elf/4.1.2/../../../../nios2-elf/lib/libc.a(lib_a-flags.o)
                0x0080e690                __sflags
 .text          0x0080e730       0xbc /OPT/altera/12.1/nios2eds/bin/gnu/H-i686-pc-linux-gnu/bin/../lib/gcc/nios2-elf/4.1.2/../../../../nios2-elf/lib/libc.a(lib_a-fputc.o)
                0x0080e730                fputc
                0x0080e794                _fputc_r
 .text          0x0080e7ec       0x90 /OPT/altera/12.1/nios2eds/bin/gnu/H-i686-pc-linux-gnu/bin/../lib/gcc/nios2-elf/4.1.2/../../../../nios2-elf/lib/libc.a(lib_a-fputs.o)
                0x0080e7ec                _fputs_r
                0x0080e860                fputs
 .text          0x0080e87c      0x49c /OPT/altera/12.1/nios2eds/bin/gnu/H-i686-pc-linux-gnu/bin/../lib/gcc/nios2-elf/4.1.2/../../../../nios2-elf/lib/libc.a(lib_a-fvwrite.o)
                0x0080e87c                __sfvwrite_r
 .text          0x0080ed18       0x70 /OPT/altera/12.1/nios2eds/bin/gnu/H-i686-pc-linux-gnu/bin/../lib/gcc/nios2-elf/4.1.2/../../../../nios2-elf/lib/libc.a(lib_a-isattyr.o)
                0x0080ed18                _isatty_r
 .text          0x0080ed88       0x2c /OPT/altera/12.1/nios2eds/bin/gnu/H-i686-pc-linux-gnu/bin/../lib/gcc/nios2-elf/4.1.2/../../../../nios2-elf/lib/libc.a(lib_a-iswspace.o)
                0x0080ed88                iswspace
 .text          0x0080edb4       0xc4 /OPT/altera/12.1/nios2eds/bin/gnu/H-i686-pc-linux-gnu/bin/../lib/gcc/nios2-elf/4.1.2/../../../../nios2-elf/lib/libc.a(lib_a-locale.o)
                0x0080edb4                __locale_charset
                0x0080edbc                _localeconv_r
                0x0080edc8                localeconv
                0x0080edd8                _setlocale_r
                0x0080ee5c                setlocale
 .text          0x0080ee78       0x78 /OPT/altera/12.1/nios2eds/bin/gnu/H-i686-pc-linux-gnu/bin/../lib/gcc/nios2-elf/4.1.2/../../../../nios2-elf/lib/libc.a(lib_a-lseekr.o)
                0x0080ee78                _lseek_r
 .text          0x0080eef0       0xc0 /OPT/altera/12.1/nios2eds/bin/gnu/H-i686-pc-linux-gnu/bin/../lib/gcc/nios2-elf/4.1.2/../../../../nios2-elf/lib/libc.a(lib_a-mbrtowc.o)
                0x0080eef0                _mbrtowc_r
                0x0080ef70                mbrtowc
 .text          0x0080efb0       0x40 /OPT/altera/12.1/nios2eds/bin/gnu/H-i686-pc-linux-gnu/bin/../lib/gcc/nios2-elf/4.1.2/../../../../nios2-elf/lib/libc.a(lib_a-mbtowc_r.o)
                0x0080efb0                _mbtowc_r
 .text          0x0080eff0       0xe4 /OPT/altera/12.1/nios2eds/bin/gnu/H-i686-pc-linux-gnu/bin/../lib/gcc/nios2-elf/4.1.2/../../../../nios2-elf/lib/libc.a(lib_a-memchr.o)
                0x0080eff0                memchr
 .text          0x0080f0d4       0x74 /OPT/altera/12.1/nios2eds/bin/gnu/H-i686-pc-linux-gnu/bin/../lib/gcc/nios2-elf/4.1.2/../../../../nios2-elf/lib/libc.a(lib_a-memcmp.o)
                0x0080f0d4                memcmp
 .text          0x0080f148      0xff4 /OPT/altera/12.1/nios2eds/bin/gnu/H-i686-pc-linux-gnu/bin/../lib/gcc/nios2-elf/4.1.2/../../../../nios2-elf/lib/libc.a(lib_a-mprec.o)
                0x0080f148                _Bfree
                0x0080f170                __hi0bits
                0x0080f1e0                __lo0bits
                0x0080f2a4                __mcmp
                0x0080f304                __ulp
                0x0080f384                __b2d
                0x0080f4a4                __ratio
                0x0080f554                _mprec_log10
                0x0080f5e8                __copybits
                0x0080f640                __any_on
                0x0080f6c8                _Balloc
                0x0080f784                __d2b
                0x0080f900                __mdiff
                0x0080fa8c                __lshift
                0x0080fbd8                __multiply
                0x0080fdc0                __i2b
                0x0080fdfc                __multadd
                0x0080fefc                __pow5mult
                0x0081001c                __s2b
 .text          0x0081013c      0x1ec /OPT/altera/12.1/nios2eds/bin/gnu/H-i686-pc-linux-gnu/bin/../lib/gcc/nios2-elf/4.1.2/../../../../nios2-elf/lib/libc.a(lib_a-putc.o)
                0x0081013c                putc
                0x00810240                _putc_r
 .text          0x00810328       0x78 /OPT/altera/12.1/nios2eds/bin/gnu/H-i686-pc-linux-gnu/bin/../lib/gcc/nios2-elf/4.1.2/../../../../nios2-elf/lib/libc.a(lib_a-readr.o)
                0x00810328                _read_r
 .text          0x008103a0      0x5f4 /OPT/altera/12.1/nios2eds/bin/gnu/H-i686-pc-linux-gnu/bin/../lib/gcc/nios2-elf/4.1.2/../../../../nios2-elf/lib/libc.a(lib_a-reallocr.o)
                0x008103a0                _realloc_r
 .text          0x00810994       0x40 /OPT/altera/12.1/nios2eds/bin/gnu/H-i686-pc-linux-gnu/bin/../lib/gcc/nios2-elf/4.1.2/../../../../nios2-elf/lib/libc.a(lib_a-s_isinfd.o)
                0x00810994                __isinfd
 .text          0x008109d4       0x30 /OPT/altera/12.1/nios2eds/bin/gnu/H-i686-pc-linux-gnu/bin/../lib/gcc/nios2-elf/4.1.2/../../../../nios2-elf/lib/libc.a(lib_a-s_isnand.o)
                0x008109d4                __isnand
 .text          0x00810a04       0xc0 /OPT/altera/12.1/nios2eds/bin/gnu/H-i686-pc-linux-gnu/bin/../lib/gcc/nios2-elf/4.1.2/../../../../nios2-elf/lib/libc.a(lib_a-sccl.o)
                0x00810a04                __sccl
 .text          0x00810ac4        0x8 /OPT/altera/12.1/nios2eds/bin/gnu/H-i686-pc-linux-gnu/bin/../lib/gcc/nios2-elf/4.1.2/../../../../nios2-elf/lib/libc.a(lib_a-sf_nan.o)
                0x00810ac4                nanf
 .text          0x00810acc     0x166c /OPT/altera/12.1/nios2eds/bin/gnu/H-i686-pc-linux-gnu/bin/../lib/gcc/nios2-elf/4.1.2/../../../../nios2-elf/lib/libc.a(lib_a-strtod.o)
                0x00810b14                _strtod_r
                0x00811ff8                strtof
                0x0081211c                strtod
 .text          0x00812138      0x318 /OPT/altera/12.1/nios2eds/bin/gnu/H-i686-pc-linux-gnu/bin/../lib/gcc/nios2-elf/4.1.2/../../../../nios2-elf/lib/libc.a(lib_a-strtoll_r.o)
                0x00812138                _strtoll_r
 .text          0x00812450      0x254 /OPT/altera/12.1/nios2eds/bin/gnu/H-i686-pc-linux-gnu/bin/../lib/gcc/nios2-elf/4.1.2/../../../../nios2-elf/lib/libc.a(lib_a-strtoul.o)
                0x00812450                _strtoul_r
                0x00812680                strtoul
 .text          0x008126a4      0x2f0 /OPT/altera/12.1/nios2eds/bin/gnu/H-i686-pc-linux-gnu/bin/../lib/gcc/nios2-elf/4.1.2/../../../../nios2-elf/lib/libc.a(lib_a-strtoull_r.o)
                0x008126a4                _strtoull_r
 .text          0x00812994      0x294 /OPT/altera/12.1/nios2eds/bin/gnu/H-i686-pc-linux-gnu/bin/../lib/gcc/nios2-elf/4.1.2/../../../../nios2-elf/lib/libc.a(lib_a-ungetc.o)
                0x00812994                __submore
                0x00812a70                _ungetc_r
                0x00812c0c                ungetc
 .text          0x00812c28      0x14c /OPT/altera/12.1/nios2eds/bin/gnu/H-i686-pc-linux-gnu/bin/../lib/gcc/nios2-elf/4.1.2/../../../../nios2-elf/lib/libc.a(lib_a-wbuf.o)
                0x00812c28                __swbuf_r
                0x00812d58                __swbuf
 .text          0x00812d74       0xb4 /OPT/altera/12.1/nios2eds/bin/gnu/H-i686-pc-linux-gnu/bin/../lib/gcc/nios2-elf/4.1.2/../../../../nios2-elf/lib/libc.a(lib_a-callocr.o)
                0x00812d74                _calloc_r
 .text          0x00812e28      0x8f4 /OPT/altera/12.1/nios2eds/bin/gnu/H-i686-pc-linux-gnu/bin/../lib/gcc/nios2-elf/4.1.2/../../../../nios2-elf/lib/libc.a(lib_a-gdtoa-gethex.o)
                0x00812e4c                __hexdig_init
                0x00812f64                __gethex
 .text          0x0081371c      0x294 /OPT/altera/12.1/nios2eds/bin/gnu/H-i686-pc-linux-gnu/bin/../lib/gcc/nios2-elf/4.1.2/../../../../nios2-elf/lib/libc.a(lib_a-gdtoa-hexnan.o)
                0x00813768                __hexnan
 .text          0x008139b0       0x98 /OPT/altera/12.1/nios2eds/bin/gnu/H-i686-pc-linux-gnu/bin/../lib/gcc/nios2-elf/4.1.2/libgcc.a(_muldi3.o)
                0x008139b0                __muldi3
 .text          0x00813a48       0xa4 /OPT/altera/12.1/nios2eds/bin/gnu/H-i686-pc-linux-gnu/bin/../lib/gcc/nios2-elf/4.1.2/libgcc.a(_fixunsdfsi.o)
                0x00813a48                __fixunsdfsi
 .text          0x00813aec      0x5dc /OPT/altera/12.1/nios2eds/bin/gnu/H-i686-pc-linux-gnu/bin/../lib/gcc/nios2-elf/4.1.2/libgcc.a(_udivdi3.o)
                0x00813aec                __udivdi3
 .text          0x008140c8      0x5b0 /OPT/altera/12.1/nios2eds/bin/gnu/H-i686-pc-linux-gnu/bin/../lib/gcc/nios2-elf/4.1.2/libgcc.a(_umoddi3.o)
                0x008140c8                __umoddi3
 .text          0x00814678       0x78 /OPT/altera/12.1/nios2eds/bin/gnu/H-i686-pc-linux-gnu/bin/../lib/gcc/nios2-elf/4.1.2/libgcc.a(_ne_sf.o)
                0x00814678                __nesf2
 .text          0x008146f0       0x78 /OPT/altera/12.1/nios2eds/bin/gnu/H-i686-pc-linux-gnu/bin/../lib/gcc/nios2-elf/4.1.2/libgcc.a(_gt_sf.o)
                0x008146f0                __gtsf2
 .text          0x00814768       0x78 /OPT/altera/12.1/nios2eds/bin/gnu/H-i686-pc-linux-gnu/bin/../lib/gcc/nios2-elf/4.1.2/libgcc.a(_lt_sf.o)
                0x00814768                __ltsf2
 .text          0x008147e0      0x504 /OPT/altera/12.1/nios2eds/bin/gnu/H-i686-pc-linux-gnu/bin/../lib/gcc/nios2-elf/4.1.2/libgcc.a(_addsub_df.o)
                0x00814bf0                __subdf3
                0x00814c70                __adddf3
 .text          0x00814ce4      0x3c4 /OPT/altera/12.1/nios2eds/bin/gnu/H-i686-pc-linux-gnu/bin/../lib/gcc/nios2-elf/4.1.2/libgcc.a(_mul_df.o)
                0x00814ce4                __muldf3
 .text          0x008150a8      0x258 /OPT/altera/12.1/nios2eds/bin/gnu/H-i686-pc-linux-gnu/bin/../lib/gcc/nios2-elf/4.1.2/libgcc.a(_div_df.o)
                0x008150a8                __divdf3
 .text          0x00815300       0x88 /OPT/altera/12.1/nios2eds/bin/gnu/H-i686-pc-linux-gnu/bin/../lib/gcc/nios2-elf/4.1.2/libgcc.a(_eq_df.o)
                0x00815300                __eqdf2
 .text          0x00815388       0x88 /OPT/altera/12.1/nios2eds/bin/gnu/H-i686-pc-linux-gnu/bin/../lib/gcc/nios2-elf/4.1.2/libgcc.a(_ne_df.o)
                0x00815388                __nedf2
 .text          0x00815410       0x88 /OPT/altera/12.1/nios2eds/bin/gnu/H-i686-pc-linux-gnu/bin/../lib/gcc/nios2-elf/4.1.2/libgcc.a(_gt_df.o)
                0x00815410                __gtdf2
 .text          0x00815498       0x88 /OPT/altera/12.1/nios2eds/bin/gnu/H-i686-pc-linux-gnu/bin/../lib/gcc/nios2-elf/4.1.2/libgcc.a(_ge_df.o)
                0x00815498                __gedf2
 .text          0x00815520       0x88 /OPT/altera/12.1/nios2eds/bin/gnu/H-i686-pc-linux-gnu/bin/../lib/gcc/nios2-elf/4.1.2/libgcc.a(_lt_df.o)
                0x00815520                __ltdf2
 .text          0x008155a8       0x88 /OPT/altera/12.1/nios2eds/bin/gnu/H-i686-pc-linux-gnu/bin/../lib/gcc/nios2-elf/4.1.2/libgcc.a(_le_df.o)
                0x008155a8                __ledf2
 .text          0x00815630       0xf8 /OPT/altera/12.1/nios2eds/bin/gnu/H-i686-pc-linux-gnu/bin/../lib/gcc/nios2-elf/4.1.2/libgcc.a(_si_to_df.o)
                0x00815630                __floatsidf
 .text          0x00815728       0xd8 /OPT/altera/12.1/nios2eds/bin/gnu/H-i686-pc-linux-gnu/bin/../lib/gcc/nios2-elf/4.1.2/libgcc.a(_df_to_si.o)
                0x00815728                __fixdfsi
 .text          0x00815800       0x74 /OPT/altera/12.1/nios2eds/bin/gnu/H-i686-pc-linux-gnu/bin/../lib/gcc/nios2-elf/4.1.2/libgcc.a(_df_to_sf.o)
                0x00815800                __truncdfsf2
 .text          0x00815874        0x0 /OPT/altera/12.1/nios2eds/bin/gnu/H-i686-pc-linux-gnu/bin/../lib/gcc/nios2-elf/4.1.2/libgcc.a(_thenan_df.o)
 .text          0x00815874      0x194 /OPT/altera/12.1/nios2eds/bin/gnu/H-i686-pc-linux-gnu/bin/../lib/gcc/nios2-elf/4.1.2/libgcc.a(_usi_to_df.o)
                0x00815874                __floatunsidf
 .text          0x00815a08        0x0 /OPT/altera/12.1/nios2eds/bin/gnu/H-i686-pc-linux-gnu/bin/../lib/gcc/nios2-elf/4.1.2/libgcc.a(_clz.o)
 .text          0x00815a08       0x80 /OPT/altera/12.1/nios2eds/bin/gnu/H-i686-pc-linux-gnu/bin/../lib/gcc/nios2-elf/4.1.2/libgcc.a(_clzsi2.o)
                0x00815a08                __clzsi2
 .text          0x00815a88       0xc8 /OPT/altera/12.1/nios2eds/bin/gnu/H-i686-pc-linux-gnu/bin/../lib/gcc/nios2-elf/4.1.2/libgcc.a(_unpack_sf.o)
                0x00815a88                __unpack_f
 .text          0x00815b50       0xa8 /OPT/altera/12.1/nios2eds/bin/gnu/H-i686-pc-linux-gnu/bin/../lib/gcc/nios2-elf/4.1.2/libgcc.a(_fpcmp_parts_sf.o)
                0x00815b50                __fpcmp_parts_f
 .text          0x00815bf8       0x2c /OPT/altera/12.1/nios2eds/bin/gnu/H-i686-pc-linux-gnu/bin/../lib/gcc/nios2-elf/4.1.2/libgcc.a(_make_sf.o)
                0x00815bf8                __make_fp
 .text          0x00815c24      0x314 /OPT/altera/12.1/nios2eds/bin/gnu/H-i686-pc-linux-gnu/bin/../lib/gcc/nios2-elf/4.1.2/libgcc.a(_pack_df.o)
                0x00815c24                __pack_d
 .text          0x00815f38      0x138 /OPT/altera/12.1/nios2eds/bin/gnu/H-i686-pc-linux-gnu/bin/../lib/gcc/nios2-elf/4.1.2/libgcc.a(_unpack_df.o)
                0x00815f38                __unpack_d
 .text          0x00816070       0xc8 /OPT/altera/12.1/nios2eds/bin/gnu/H-i686-pc-linux-gnu/bin/../lib/gcc/nios2-elf/4.1.2/libgcc.a(_fpcmp_parts_df.o)
                0x00816070                __fpcmp_parts_d
 .text          0x00816138      0x160 /OPT/altera/12.1/nios2eds/bin/gnu/H-i686-pc-linux-gnu/bin/../lib/gcc/nios2-elf/4.1.2/libgcc.a(_pack_sf.o)
                0x00816138                __pack_f
 .text          0x00816298       0x78 ../Webserver_bsp//libucosii_bsp.a(alt_dcache_flush.o)
                0x00816298                alt_dcache_flush
 .text          0x00816310       0xd0 ../Webserver_bsp//libucosii_bsp.a(alt_flash_dev.o)
                0x00816310                alt_flash_open_dev
                0x0081638c                alt_flash_close_dev
 .text          0x008163e0      0x134 ../Webserver_bsp//libucosii_bsp.a(alt_fstat.o)
                0x008163e0                fstat
 .text          0x00816514      0x1c0 ../Webserver_bsp//libucosii_bsp.a(alt_irq_register.o)
                0x00816514                alt_irq_register
 .text          0x008166d4        0x0 ../Webserver_bsp//libucosii_bsp.a(alt_irq_vars.o)
 .text          0x008166d4      0x120 ../Webserver_bsp//libucosii_bsp.a(alt_isatty.o)
                0x008166d4                isatty
 .text          0x008167f4      0x150 ../Webserver_bsp//libucosii_bsp.a(alt_lseek.o)
                0x008167f4                lseek
 .text          0x00816944       0xc8 ../Webserver_bsp//libucosii_bsp.a(alt_main.o)
                0x00816944                alt_main
 .text          0x00816a0c      0x2c4 ../Webserver_bsp//libucosii_bsp.a(alt_open.o)
                0x00816ae8                open
 .text          0x00816cd0       0x60 ../Webserver_bsp//libucosii_bsp.a(alt_release_fd.o)
                0x00816cd0                alt_release_fd
 .text          0x00816d30       0xbc ../Webserver_bsp//libucosii_bsp.a(alt_sbrk.o)
                0x00816d30                sbrk
 .text          0x00816dec      0x1a8 ../Webserver_bsp//libucosii_bsp.a(alt_tick.o)
                0x00816dec                alt_alarm_stop
                0x00816e84                alt_tick
 .text          0x00816f94      0x118 ../Webserver_bsp//libucosii_bsp.a(alt_usleep.o)
                0x00816f94                usleep
 .text          0x008170ac      0x108 ../Webserver_bsp//libucosii_bsp.a(alt_env_lock.o)
                0x008170ac                __env_lock
                0x00817158                __env_unlock
 .text          0x008171b4      0x1d8 ../Webserver_bsp//libucosii_bsp.a(alt_malloc_lock.o)
                0x008171b4                __malloc_lock
                0x008172bc                __malloc_unlock
 .text          0x0081738c     0x2128 ../Webserver_bsp//libucosii_bsp.a(os_core.o)
                0x0081738c                OSEventNameGet
                0x008174bc                OSEventNameSet
                0x00817600                OSEventPendMulti
                0x00817cb4                OSInit
                0x00817d08                OSIntEnter
                0x00817d84                OSIntExit
                0x00817e84                OSSchedLock
                0x00817f10                OSSchedUnlock
                0x00817ff4                OSStart
                0x00818064                OSStatInit
                0x00818110                OSTimeTick
                0x00818350                OSVersion
                0x00818370                OS_Dummy
                0x0081838c                OS_EventTaskRdy
                0x00818520                OS_EventTaskWait
                0x00818630                OS_EventTaskWaitMulti
                0x00818784                OS_EventTaskRemove
                0x0081883c                OS_EventTaskRemoveMulti
                0x00818940                OS_EventWaitListInit
                0x00818d0c                OS_MemClr
                0x00818d60                OS_MemCopy
                0x00818dcc                OS_Sched
                0x00818f10                OS_StrCopy
                0x00818f90                OS_StrLen
                0x00818fe8                OS_TaskIdle
                0x00819044                OS_TaskStat
                0x0081910c                OS_TaskStatStkChk
                0x008191d4                OS_TCBInit
 .text          0x008194b4      0x18c ../Webserver_bsp//libucosii_bsp.a(os_dbg.o)
                0x008194b4                OSDebugInit
 .text          0x00819640     0x193c ../Webserver_bsp//libucosii_bsp.a(os_flag.o)
                0x00819640                OSFlagAccept
                0x00819974                OSFlagCreate
                0x00819ab0                OSFlagDel
                0x00819d58                OSFlagNameGet
                0x00819e9c                OSFlagNameSet
                0x00819ff0                OSFlagPend
                0x0081a634                OSFlagPendGetFlagsRdy
                0x0081a69c                OSFlagPost
                0x0081aa44                OSFlagQuery
                0x0081acdc                OS_FlagInit
                0x0081aed0                OS_FlagUnlink
 .text          0x0081af7c      0xc8c ../Webserver_bsp//libucosii_bsp.a(os_mbox.o)
                0x0081af7c                OSMboxAccept
                0x0081b020                OSMboxCreate
                0x0081b134                OSMboxDel
                0x0081b3d4                OSMboxPend
                0x0081b69c                OSMboxPendAbort
                0x0081b818                OSMboxPost
                0x0081b94c                OSMboxPostOpt
                0x0081bad8                OSMboxQuery
 .text          0x0081bc08      0x808 ../Webserver_bsp//libucosii_bsp.a(os_mem.o)
                0x0081bc08                OSMemCreate
                0x0081be24                OSMemGet
                0x0081bf28                OSMemNameGet
                0x0081c034                OSMemNameSet
                0x0081c154                OSMemPut
                0x0081c244                OSMemQuery
                0x0081c340                OS_MemInit
 .text          0x0081c410     0x1334 ../Webserver_bsp//libucosii_bsp.a(os_q.o)
                0x0081c410                OSQAccept
                0x0081c564                OSQCreate
                0x0081c778                OSQDel
                0x0081ca78                OSQFlush
                0x0081cb40                OSQPend
                0x0081ce60                OSQPendAbort
                0x0081cfdc                OSQPost
                0x0081d15c                OSQPostFront
                0x0081d2e4                OSQPostOpt
                0x0081d518                OSQQuery
                0x0081d698                OS_QInit
 .text          0x0081d744      0xbc8 ../Webserver_bsp//libucosii_bsp.a(os_sem.o)
                0x0081d744                OSSemAccept
                0x0081d804                OSSemCreate
                0x0081d918                OSSemDel
                0x0081dbb8                OSSemPend
                0x0081de34                OSSemPendAbort
                0x0081dfb0                OSSemPost
                0x0081e0d8                OSSemQuery
                0x0081e208                OSSemSet
 .text          0x0081e30c     0x1a40 ../Webserver_bsp//libucosii_bsp.a(os_task.o)
                0x0081e30c                OSTaskChangePrio
                0x0081e880                OSTaskCreate
                0x0081ea54                OSTaskCreateExt
                0x0081ec54                OSTaskDel
                0x0081f060                OSTaskDelReq
                0x0081f1d0                OSTaskNameGet
                0x0081f388                OSTaskNameSet
                0x0081f54c                OSTaskResume
                0x0081f764                OSTaskStkChk
                0x0081f960                OSTaskSuspend
                0x0081fb8c                OSTaskQuery
                0x0081fcd0                OS_TaskStkClr
 .text          0x0081fd4c      0x598 ../Webserver_bsp//libucosii_bsp.a(os_time.o)
                0x0081fd4c                OSTimeDly
                0x0081fe98                OSTimeDlyHMSM
                0x0082000c                OSTimeDlyResume
                0x0082021c                OSTimeGet
                0x00820280                OSTimeSet
 .text          0x008202e4      0x304 ../Webserver_bsp//libucosii_bsp.a(alt_sys_init.o)
                0x008202e4                alt_irq_init
                0x00820318                alt_sys_init
 .text          0x008205e8      0x148 ../Webserver_bsp//libucosii_bsp.a(altera_avalon_jtag_uart_fd.o)
                0x008205e8                altera_avalon_jtag_uart_read_fd
                0x00820640                altera_avalon_jtag_uart_write_fd
                0x00820698                altera_avalon_jtag_uart_close_fd
                0x008206e0                altera_avalon_jtag_uart_ioctl_fd
 .text          0x00820730      0x584 ../Webserver_bsp//libucosii_bsp.a(altera_avalon_jtag_uart_init.o)
                0x00820730                altera_avalon_jtag_uart_init
                0x00820c40                altera_avalon_jtag_uart_close
 .text          0x00820cb4       0xf4 ../Webserver_bsp//libucosii_bsp.a(altera_avalon_jtag_uart_ioctl.o)
                0x00820cb4                altera_avalon_jtag_uart_ioctl
 .text          0x00820da8      0x2c0 ../Webserver_bsp//libucosii_bsp.a(altera_avalon_jtag_uart_read.o)
                0x00820da8                altera_avalon_jtag_uart_read
 .text          0x00821068      0x2dc ../Webserver_bsp//libucosii_bsp.a(altera_avalon_jtag_uart_write.o)
                0x00821068                altera_avalon_jtag_uart_write
 .text          0x00821344      0x100 ../Webserver_bsp//libucosii_bsp.a(altera_avalon_timer_sc.o)
                0x008213b4                alt_avalon_timer_sc_init
 .text          0x00821444      0xb70 ../Webserver_bsp//libucosii_bsp.a(altera_ro_zipfs.o)
                0x008216b8                check_directory_header
                0x00821c10                alt_ro_zipfs_open
                0x00821ca8                alt_ro_zipfs_read
                0x00821da4                alt_ro_zipfs_seek
                0x00821eec                alt_ro_zipfs_fstat
                0x00821f5c                alt_ro_zipfs_check_valid
 .text          0x00821fb4      0x530 ../Webserver_bsp//libucosii_bsp.a(altera_up_avalon_character_lcd.o)
                0x00821fb4                get_DDRAM_addr
                0x00822030                alt_up_character_lcd_send_cmd
                0x00822064                alt_up_character_lcd_init
                0x00822098                alt_up_character_lcd_open_dev
                0x008220d8                alt_up_character_lcd_write
                0x00822150                alt_up_character_lcd_string
                0x008221c8                alt_up_character_lcd_write_fd
                0x00822214                alt_up_character_lcd_set_cursor_pos
                0x0082228c                alt_up_character_lcd_shift_cursor
                0x0082233c                alt_up_character_lcd_shift_display
                0x008223ec                alt_up_character_lcd_erase_pos
                0x0082247c                alt_up_character_lcd_cursor_off
                0x008224b0                alt_up_character_lcd_cursor_blink_on
 .text          0x008224e4       0x54 ../Webserver_bsp//libucosii_bsp.a(alt_iniche_close.o)
                0x008224e4                close
 .text          0x00822538      0x144 ../Webserver_bsp//libucosii_bsp.a(alt_iniche_dev.o)
                0x00822538                iniche_devices_init
 .text          0x0082267c       0x78 ../Webserver_bsp//libucosii_bsp.a(alt_iniche_read.o)
                0x0082267c                read
 .text          0x008226f4       0x70 ../Webserver_bsp//libucosii_bsp.a(alt_iniche_write.o)
                0x008226f4                write
 .text          0x00822764      0xedc ../Webserver_bsp//libucosii_bsp.a(ipnet.o)
                0x00822764                Netinit
                0x00822db0                fixup_subnet_mask
                0x00822f10                netclose
                0x00822ff8                pktdemux
                0x008233cc                c_older
                0x0082349c                ip2mac
 .text          0x00823640      0x4b0 ../Webserver_bsp//libucosii_bsp.a(ipstart.o)
                0x00823640                ip_startup
                0x00823924                exit_hook
                0x00823990                ip_exit
                0x00823a60                if_netnumber
 .text          0x00823af0     0x1010 ../Webserver_bsp//libucosii_bsp.a(igmp_cmn.o)
                0x00823af0                igmp_init
                0x00823ba0                igmp_input
                0x00823c98                igmp_fasttimo
                0x00823e34                igmp_send
                0x008240dc                igmp_joingroup
                0x00824348                igmp_leavegroup
                0x008243c4                igmp_validate
                0x00824720                igmp_print_stats
 .text          0x00824b00      0xb50 ../Webserver_bsp//libucosii_bsp.a(bsdsock.o)
                0x00824b00                bsd_accept
                0x00824c38                bsd_getpeername
                0x00824d64                bsd_getsockname
                0x00824e90                bsd_i_sockoptlen
                0x00825048                bsd_getsockopt
                0x00825168                bsd_ioctl
                0x0082526c                bsd_inet_ntoa
                0x0082529c                bsd_recvfrom
                0x008253fc                bsd_select
                0x00825564                bsd_setsockopt
 .text          0x00825650      0x118 ../Webserver_bsp//libucosii_bsp.a(cksum.o)
                0x00825650                ccksum
                0x00825700                cksum
 .text          0x00825768      0xa9c ../Webserver_bsp//libucosii_bsp.a(in_utils.o)
                0x00825768                do_trap
                0x00825794                nextarg
                0x00825810                hexdump
                0x00825958                print_ipad
                0x008259cc                print_uptime
                0x00825af8                panic
                0x00825b3c                print_eth
                0x00825ca0                uslash
                0x00825d20                ns_printf
                0x00825ea4                std_out
                0x00825ee8                con_page
                0x00825fd8                parse_args
 .text          0x00826204      0x1c8 ../Webserver_bsp//libucosii_bsp.a(netmain.o)
                0x00826204                netmain
                0x008262f8                tk_netmain
                0x00826380                tk_nettick
 .text          0x008263cc      0x810 ../Webserver_bsp//libucosii_bsp.a(parseip.o)
                0x008263cc                parse_ipad
                0x008266e8                inet_addr
                0x00826750                hextoa
                0x008267c0                inet_pton
                0x0082686c                inet_ntop
                0x008268f8                print46_addr
                0x00826958                inet46_addr
                0x00826a1c                inet_setport
                0x00826a90                convert_ip
 .text          0x00826bdc      0x5e8 ../Webserver_bsp//libucosii_bsp.a(tk_crnos.o)
                0x00826bdc                TK_OSTimeDly
                0x00826c08                TK_OSTaskResume
                0x00826c78                tcp_sleep
                0x00826e18                tcp_wakeup
                0x00826f1c                TK_OSTaskQuery
                0x00826f90                tk_yield
                0x00826fbc                tk_stats
 .text          0x008271c4     0x2f40 ../Webserver_bsp//libucosii_bsp.a(dhcpclnt.o)
                0x008271c4                dhc_get_srv_ipaddr
                0x00827254                dhc_init
                0x00827310                dhc_set_callback
                0x00827354                dhc_upcall
                0x00827b84                dhc_buildheader
                0x00827da0                dhc_discover
                0x008282b8                dhc_rx_offer
                0x008283bc                dhc_request
                0x00828ef8                dhc_setip
                0x00829178                dhc_resetip
                0x0082925c                dhc_decline
                0x00829440                dhc_extract_opts
                0x008296fc                dhc_second
                0x00829c98                dhc_halt
                0x00829d20                dhc_reclaim
                0x00829ef0                dhc_state_init
                0x00829f50                dhc_alldone
                0x00829fe0                dhc_ifacedone
                0x0082a054                dhc_set_state
 .text          0x0082a104       0xcc ../Webserver_bsp//libucosii_bsp.a(dhcputil.o)
                0x0082a104                find_opt
 .text          0x0082a1d0      0x79c ../Webserver_bsp//libucosii_bsp.a(pktalloc.o)
                0x0082a1d0                pk_init
                0x0082a460                pk_alloc
                0x0082a53c                pk_validate
                0x0082a7f4                pk_free
                0x0082a8a0                pk_get_max_intrsafe_buf_len
                0x0082a8c0                dump_buf_estats
 .text          0x0082a96c      0x288 ../Webserver_bsp//libucosii_bsp.a(q.o)
                0x0082a96c                getq
                0x0082aa34                putq
                0x0082aae4                qdel
 .text          0x0082abf4      0x31c ../Webserver_bsp//libucosii_bsp.a(udp_open.o)
                0x0082abf4                udp_open
                0x0082ae2c                udp_close
 .text          0x0082af10      0x194 ../Webserver_bsp//libucosii_bsp.a(asm_cksum.o)
                0x0082af10                asm_cksum
 .text          0x0082b0a4      0x2a0 ../Webserver_bsp//libucosii_bsp.a(brdutils.o)
                0x0082b0a4                dtrap
                0x0082b0d4                kbhit
                0x0082b180                getch
                0x0082b1e0                clock_init
                0x0082b21c                clock_c
                0x0082b238                cticks_hook
                0x0082b2a4                irq_Mask
                0x0082b300                irq_Unmask
 .text          0x0082b344      0x488 ../Webserver_bsp//libucosii_bsp.a(osportco.o)
                0x0082b344                LOCK_NET_RESOURCE
                0x0082b404                UNLOCK_NET_RESOURCE
                0x0082b48c                TK_NEWTASK
                0x0082b6a0                wait_app_sem
                0x0082b754                post_app_sem
 .text          0x0082b7cc      0x568 ../Webserver_bsp//libucosii_bsp.a(targnios.o)
                0x0082b7cc                alt_iniche_init
                0x0082b9e8                pre_task_setup
                0x0082ba5c                post_task_setup
                0x0082ba7c                prep_armintcp
                0x0082bab4                calloc2
                0x0082bae8                npalloc
                0x0082bbdc                npfree
                0x0082bc94                ncpalloc
                0x0082bce8                ncpfree
 .text          0x0082bd34     0x197c ../Webserver_bsp//libucosii_bsp.a(nptcp.o)
                0x0082bd34                pffindtype
                0x0082bdd4                pffindproto
                0x0082bea4                m_getnbuf
                0x0082c04c                m_free
                0x0082c180                m_freem
                0x0082c1c4                m_copy
                0x0082c4e8                m_adj
                0x0082c6b8                mbuf_len
                0x0082c710                dtom
                0x0082c7b8                remque
                0x0082c828                insque
                0x0082c8a4                nptcp_init
                0x0082c9c8                tcp_rcv
                0x0082cbb4                ip_output
                0x0082d1ac                in_broadcast
                0x0082d1ec                np_stripoptions
                0x0082d2d4                so_icmpdu
                0x0082d62c                tcp_tick
 .text          0x0082d6b0      0xa2c ../Webserver_bsp//libucosii_bsp.a(rawsock.o)
                0x0082d6b0                rawip_lookup
                0x0082d720                rawip_soinput
                0x0082d8f4                rawip_usrreq
 .text          0x0082e0dc     0x17fc ../Webserver_bsp//libucosii_bsp.a(sockcall.o)
                0x0082e0dc                DOMAIN_CHECK
                0x0082e128                t_socket
                0x0082e1b8                t_bind
                0x0082e334                t_listen
                0x0082e418                t_accept
                0x0082e6b0                t_connect
                0x0082e958                t_getpeername
                0x0082e99c                t_getsockname
                0x0082ebdc                t_setsockopt
                0x0082edb8                t_getsockopt
                0x0082ef5c                t_recv
                0x0082f04c                t_recvfrom
                0x0082f19c                t_sendto
                0x0082f3c8                t_send
                0x0082f5f0                t_shutdown
                0x0082f6d4                t_socketclose
                0x0082f83c                t_errno
 .text          0x0082f8d8     0x2374 ../Webserver_bsp//libucosii_bsp.a(socket.o)
                0x0082f8d8                socreate
                0x0082faa4                sobind
                0x0082fb00                solisten
                0x0082fbf0                sofree
                0x0082fd20                soclose
                0x00830014                soabort
                0x00830064                soaccept
                0x00830100                soconnect
                0x008301d4                sodisconnect
                0x00830274                sosend
                0x0083087c                soreceive
                0x00831060                soshutdown
                0x00831108                sorflush
                0x00831208                sosetopt
                0x008316c8                sogetopt
                0x00831c08                sohasoutofband
 .text          0x00831c4c     0x1318 ../Webserver_bsp//libucosii_bsp.a(socket2.o)
                0x00831c4c                soisconnecting
                0x00831cb8                soisconnected
                0x00831db4                soisdisconnecting
                0x00831e40                soisdisconnected
                0x00831efc                sonewconn
                0x00832118                soqinsque
                0x008321c4                soqremque
                0x008322e4                socantsendmore
                0x00832334                socantrcvmore
                0x00832384                sbselqueue
                0x008323bc                sbwait
                0x00832424                sbwakeup
                0x008324c0                soreserve
                0x00832540                sbreserve
                0x008325a0                sbrelease
                0x008325e8                sbappend
                0x00832690                sbappendrecord
                0x00832770                sbappendaddr
                0x00832978                sbcompress
                0x00832b60                sbflush
                0x00832bf0                sbdrop
                0x00832dc0                sbdropend
                0x00832ed0                sbdroprecord
 .text          0x00832f64      0x914 ../Webserver_bsp//libucosii_bsp.a(soselect.o)
                0x00832f64                t_select
                0x00833184                sock_selscan
                0x008332dc                sock_select
                0x008334f0                in_pcbnotify
                0x008335bc                tcp_notify
                0x00833624                ifd_clr
                0x00833714                ifd_set
                0x00833788                ifd_isset
                0x00833808                ifd_get
 .text          0x00833878     0x2fe8 ../Webserver_bsp//libucosii_bsp.a(tcp_in.o)
                0x00833878                tcp_reass
                0x00833c80                tcp_input
                0x008361d4                tcp_dooptions
                0x00836364                tcp_pulloutofband
                0x00836490                tcp_xmit_timer
                0x008366fc                ip4_tcpmss
                0x00836744                tcp_mss
 .text          0x00836860     0x1360 ../Webserver_bsp//libucosii_bsp.a(tcp_out.o)
                0x00836860                tcp_output
                0x008379dc                tcp_setpersist
 .text          0x00837bc0      0x9e8 ../Webserver_bsp//libucosii_bsp.a(tcp_subr.o)
                0x00837bc0                tcp_init
                0x00837c18                tcp_template
                0x00837d30                tcp_respond
                0x008381b8                tcp_newtcpcb
                0x008382d0                tcp_drop
                0x0083837c                tcp_close
                0x00838464                tcp_quench
                0x008384b0                tcp_putseq
                0x00838530                tcp_getseq
 .text          0x008385a8      0x798 ../Webserver_bsp//libucosii_bsp.a(tcp_timr.o)
                0x008385a8                tcp_slowtimo
                0x00838848                tcp_canceltimers
                0x008388a4                tcp_timers
 .text          0x00838d40      0x9ec ../Webserver_bsp//libucosii_bsp.a(tcp_usr.o)
                0x00838d40                tcp_usrreq
                0x00839444                tcp_attach
                0x00839578                tcp_disconnect
                0x0083964c                tcp_usrclosed
 .text          0x0083972c       0x4c ../Webserver_bsp//libucosii_bsp.a(tcpport.o)
                0x0083972c                tcpinit
 .text          0x00839778      0xd20 ../Webserver_bsp//libucosii_bsp.a(udpsock.o)
                0x00839778                udp_lookup
                0x008397e8                udp_soinput
                0x008399a0                udp_usrreq
                0x00839c24                udp4_sockbind
                0x00839f60                udp4_socksend
                0x0083a33c                udp4_sockaddr
 .text          0x0083a498      0x154 ../Webserver_bsp//libucosii_bsp.a(alt_alarm_start.o)
                0x0083a498                alt_alarm_start
 .text          0x0083a5ec      0x14c ../Webserver_bsp//libucosii_bsp.a(alt_busy_sleep.o)
                0x0083a5ec                alt_busy_sleep
 .text          0x0083a738      0x15c ../Webserver_bsp//libucosii_bsp.a(alt_close.o)
                0x0083a738                alt_close
 .text          0x0083a894       0x2c ../Webserver_bsp//libucosii_bsp.a(alt_dev.o)
 .text          0x0083a8c0      0x114 ../Webserver_bsp//libucosii_bsp.a(alt_dev_llist_insert.o)
                0x0083a8c0                alt_dev_llist_insert
 .text          0x0083a9d4       0x64 ../Webserver_bsp//libucosii_bsp.a(alt_do_ctors.o)
                0x0083a9d4                _do_ctors
 .text          0x0083aa38       0x64 ../Webserver_bsp//libucosii_bsp.a(alt_do_dtors.o)
                0x0083aa38                _do_dtors
 .text          0x0083aa9c        0x0 ../Webserver_bsp//libucosii_bsp.a(alt_errno.o)
 .text          0x0083aa9c       0x94 ../Webserver_bsp//libucosii_bsp.a(alt_find_dev.o)
                0x0083aa9c                alt_find_dev
 .text          0x0083ab30      0x120 ../Webserver_bsp//libucosii_bsp.a(alt_find_file.o)
                0x0083ab30                alt_find_file
 .text          0x0083ac50       0x90 ../Webserver_bsp//libucosii_bsp.a(alt_fs_reg.o)
                0x0083ac50                alt_fs_reg
 .text          0x0083ace0       0xf4 ../Webserver_bsp//libucosii_bsp.a(alt_get_fd.o)
                0x0083ace0                alt_get_fd
 .text          0x0083add4      0x1d4 ../Webserver_bsp//libucosii_bsp.a(alt_iic.o)
                0x0083add4                alt_ic_isr_register
                0x0083ae24                alt_ic_irq_enable
                0x0083aec0                alt_ic_irq_disable
                0x0083af60                alt_ic_irq_enabled
 .text          0x0083afa8       0xf8 ../Webserver_bsp//libucosii_bsp.a(alt_iic_isr_register.o)
                0x0083afa8                alt_iic_isr_register
 .text          0x0083b0a0      0x13c ../Webserver_bsp//libucosii_bsp.a(alt_io_redirect.o)
                0x0083b164                alt_io_redirect
 .text          0x0083b1dc        0x0 ../Webserver_bsp//libucosii_bsp.a(alt_irq_entry.o)
 .text          0x0083b1dc        0x0 ../Webserver_bsp//libucosii_bsp.a(alt_irq_handler.o)
 .text          0x0083b1dc      0x180 ../Webserver_bsp//libucosii_bsp.a(alt_read.o)
                0x0083b1dc                alt_read
 .text          0x0083b35c       0x38 ../Webserver_bsp//libucosii_bsp.a(alt_remap_cached.o)
                0x0083b35c                alt_remap_cached
 .text          0x0083b394       0x40 ../Webserver_bsp//libucosii_bsp.a(alt_remap_uncached.o)
                0x0083b394                alt_remap_uncached
 .text          0x0083b3d4      0x180 ../Webserver_bsp//libucosii_bsp.a(alt_write.o)
                0x0083b3d4                alt_write
 .text          0x0083b554       0x20 ../Webserver_bsp//libucosii_bsp.a(altera_nios2_qsys_irq.o)
                0x0083b554                altera_nios2_qsys_irq_init
 .text          0x0083b574       0xd0 ../Webserver_bsp//libucosii_bsp.a(os_cpu_a.o)
                0x0083b574                OSCtxSw
                0x0083b574                OSIntCtxSw
                0x0083b600                OSStartHighRdy
                0x0083b620                OSStartTsk
 .text          0x0083b644      0x424 ../Webserver_bsp//libucosii_bsp.a(os_cpu_c.o)
                0x0083b644                OSTaskStkInit
                0x0083b954                OSTaskCreateHook
                0x0083b974                OSTaskDelHook
                0x0083b994                OSTaskSwHook
                0x0083b9b0                OSTaskStatHook
                0x0083b9cc                OSTimeTickHook
                0x0083b9f4                OSInitHookBegin
                0x0083ba10                OSInitHookEnd
                0x0083ba2c                OSTaskIdleHook
                0x0083ba48                OSTCBInitHook
 .text          0x0083ba68      0x3d4 ../Webserver_bsp//libucosii_bsp.a(allports.o)
                0x0083ba68                netmain_init
                0x0083bb64                icmp_port_du
                0x0083bbec                station_state
                0x0083bd38                sysuptime
                0x0083bd74                packet_check
                0x0083bdc0                mcastlist
                0x0083bde4                prep_modules
 .text          0x0083be3c      0x480 ../Webserver_bsp//libucosii_bsp.a(timeouts.o)
                0x0083be3c                inet_timer
                0x0083c098                in_timerset
                0x0083c214                in_timerkill
 .text          0x0083c2bc       0xa4 ../Webserver_bsp//libucosii_bsp.a(tk_misc.o)
                0x0083c2bc                create_apptasks
                0x0083c2e0                task_stats
 .text          0x0083c360       0xb0 ../Webserver_bsp//libucosii_bsp.a(alt_iniche_fcntl.o)
                0x0083c360                fcntl
 .text          0x0083c410     0x14a0 ../Webserver_bsp//libucosii_bsp.a(et_arp.o)
                0x0083c410                etainit
                0x0083c464                et_send
                0x0083c5e0                arp_free_pending
                0x0083c668                arp_send_pending
                0x0083c6dc                send_arp
                0x0083cb74                find_oldest_arp
                0x0083cd1c                make_arp_entry
                0x0083ce30                arpReply
                0x0083d0c4                arprcv
                0x0083d324                send_via_arp
                0x0083d4cc                cb_arpent_tmo
                0x0083d5e4                grat_arp
 .text          0x0083d8b0      0x298 ../Webserver_bsp//libucosii_bsp.a(iface.o)
                0x0083d8b0                if_getbynum
                0x0083d934                isbcast
                0x0083da14                reg_type
                0x0083dab0                if_killsocks
 .text          0x0083db48     0x22a4 ../Webserver_bsp//libucosii_bsp.a(ip.o)
                0x0083db48                ip_init
                0x0083dc44                ip_bldhead
                0x0083dde8                ip_write_internal
                0x0083e568                ip_write
                0x0083e7b0                ip_write2
                0x0083eb60                ip_raw_write
                0x0083ec38                ip_fragment_lc
                0x0083f0c0                ip_fragment
                0x0083f6e4                ip_mymach
                0x0083f790                ip_dump
                0x0083fa48                iproute
                0x0083fcb4                ip_copypkt
 .text          0x0083fdec     0x1d9c ../Webserver_bsp//libucosii_bsp.a(ip_reasm.o)
                0x0083fdec                ip_reasm_match_frag_with_ire
                0x0083febc                ip_reasm_determine_type_of_frag
                0x0083ffa8                ip_reasm_check_mem_useage
                0x00840040                ip_reasm_incr_mem_useage
                0x008400e8                ip_reasm_decr_mem_useage
                0x00840188                ip_reasm_process_first_fragment
                0x00840468                ip_reassm
                0x00840508                ip_reasm_compute_overlap
                0x00840a98                ip_reasm_process_subsequent_fragments
                0x0084102c                ip_reasm_find_ire
                0x00841090                ip_reasm_copy_queued_fragments_into_reassy_buffer
                0x008413ec                ip_reasm_process_timer_tick
                0x008414d0                ip_reasm_delete_ire
                0x00841698                ip_reasm_mark_compact_rfq
                0x008417e0                ipr_stats
                0x00841b34                ip_reasm_send_icmp_timex
 .text          0x00841b88      0xe3c ../Webserver_bsp//libucosii_bsp.a(ipdemux.o)
                0x00841b88                ip_rcv
                0x00841f88                ip_rcv_phase2
                0x00842594                ip_demux
 .text          0x008429c4      0x2f0 ../Webserver_bsp//libucosii_bsp.a(ipmc.o)
                0x008429c4                in_addmulti
                0x00842b2c                in_delmulti
                0x00842c44                lookup_mcast
 .text          0x00842cb4       0xe4 ../Webserver_bsp//libucosii_bsp.a(ipport.o)
                0x00842cb4                prep_ifaces
                0x00842d48                netexit
                0x00842d70                evtmap_setup
 .text          0x00842d98      0x550 ../Webserver_bsp//libucosii_bsp.a(ipraw.o)
                0x00842d98                ip_raw_open
                0x00842e88                ip_raw_close
                0x00842f48                ip_raw_input
                0x00843180                ip_raw_alloc
                0x0084324c                ip_raw_free
                0x0084328c                ip_raw_maxalloc
 .text          0x008432e8      0x6f0 ../Webserver_bsp//libucosii_bsp.a(iproute.o)
                0x008432e8                rt_lookup
                0x0084346c                add_route
                0x00843894                del_route
 .text          0x008439d8      0xe3c ../Webserver_bsp//libucosii_bsp.a(udp.o)
                0x008439d8                udpdemux
                0x00844230                udp_send
                0x008444e8                udpswap
                0x00844618                udp_socket
                0x008446e8                udp_alloc
                0x008447a8                udp_maxalloc
                0x008447d4                udp_free
 .text          0x00844814      0x2e8 ../Webserver_bsp//libucosii_bsp.a(igmp.o)
                0x00844814                igmpv1_input
 .text          0x00844afc      0x7c0 ../Webserver_bsp//libucosii_bsp.a(igmp2.o)
                0x00844afc                igmpv2_input
                0x00844c5c                igmpv2_process_report
                0x00844da8                igmpv2_process_query
                0x00844ff4                igmpv2_chk_set_timer
                0x0084514c                igmpv2_chk4_rtr_alert_opt
 .text          0x008452bc      0x8fc ../Webserver_bsp//libucosii_bsp.a(ipopt.o)
                0x008452bc                IPADDR_TO_NETP
                0x00845404                ip_setmoptions
                0x008459f4                ip_getmoptions
                0x00845b34                ip_freemoptions
 .text          0x00845bb8      0x6ac ../Webserver_bsp//libucosii_bsp.a(u_mctest.o)
                0x00845bb8                u_mctest_init
                0x00845be8                u_mctest_run
 .text          0x00846264      0x38c ../Webserver_bsp//libucosii_bsp.a(dhcsetup.o)
                0x00846264                dhc_setup
                0x008464ec                dhc_main_ipset
 .text          0x008465f0      0x40c ../Webserver_bsp//libucosii_bsp.a(memdev.o)
                0x008465f0                init_memdev
                0x00846668                md_fopen
                0x00846690                md_fclose
                0x008466b0                md_fread
                0x00846830                md_fwrite
                0x008468b0                md_fseek
                0x008468dc                md_ftell
                0x00846900                md_fgetc
                0x008469d8                md_unlink
 .text          0x008469fc      0x1cc ../Webserver_bsp//libucosii_bsp.a(tcpcksum.o)
                0x008469fc                tcp_cksum
 .text          0x00846bc8      0x900 ../Webserver_bsp//libucosii_bsp.a(in_pcb.o)
                0x00846bc8                in_pcballoc
                0x00846c5c                in_pcbdetach
                0x00846cb0                in_pcbbind
                0x00846f04                in_pcbconnect
                0x00847114                in_pcbdisconnect
                0x00847174                in_setsockaddr
                0x008471f0                in_setpeeraddr
                0x0084726c                in_pcblookup
 .text          0x008474c8     0x1a74 ../Webserver_bsp//libucosii_bsp.a(vfsfiles.o)
                0x008474c8                set_vfopen_error
                0x008474f0                get_vfopen_error
                0x00847510                vf_alloc_and_link_vop
                0x0084758c                vf_alloc_buffer
                0x00847664                vf_free_buffer
                0x008476b4                vfopen_locked
                0x00847a1c                vfopen
                0x00847a6c                vfclose_locked
                0x00847c14                vfclose
                0x00847c54                vfflush
                0x00847c9c                vfgets
                0x00847d80                vfeof
                0x00847dd8                vunlink_flag_open_files
                0x00847e34                vunlink
                0x00848054                vfread
                0x00848200                vfwrite_locked
                0x008485e8                vfwrite
                0x00848648                vfseek
                0x008487c4                vftell
                0x008488f8                vgetc_locked
                0x00848a18                vgetc
                0x00848a60                vfslookup_locked
                0x00848b98                vfslookup
                0x00848be0                strippath
                0x00848dc8                isvfile_locked
                0x00848e2c                isvfile
                0x00848e74                vferror
                0x00848ee0                vclearerr
 .text          0x00848f3c       0x24 ../Webserver_bsp//libucosii_bsp.a(vfsport.o)
                0x00848f3c                prep_vfs
 .text          0x00848f60        0x0 ../Webserver_bsp//libucosii_bsp.a(alt_exception_entry.o)
 .text          0x00848f60      0x1b4 ../Webserver_bsp//libucosii_bsp.a(alt_fcntl.o)
                0x00848f60                alt_fcntl
 .text          0x00849114     0x130c ../Webserver_bsp//libucosii_bsp.a(icmp.o)
                0x00849114                icmprcv
                0x00849d48                icmp_destun
                0x0084a098                icmp_timex
                0x0084a3cc                icmp_du
 .text          0x0084a420       0x14 /OPT/altera/12.1/nios2eds/bin/gnu/H-i686-pc-linux-gnu/bin/../lib/gcc/nios2-elf/4.1.2/../../../../nios2-elf/lib/libc.a(lib_a-atexit.o)
                0x0084a420                atexit
 .text          0x0084a434       0x1c /OPT/altera/12.1/nios2eds/bin/gnu/H-i686-pc-linux-gnu/bin/../lib/gcc/nios2-elf/4.1.2/../../../../nios2-elf/lib/libc.a(lib_a-calloc.o)
                0x0084a434                calloc
 .text          0x0084a450       0x38 /OPT/altera/12.1/nios2eds/bin/gnu/H-i686-pc-linux-gnu/bin/../lib/gcc/nios2-elf/4.1.2/../../../../nios2-elf/lib/libc.a(lib_a-exit.o)
                0x0084a450                exit
 .text          0x0084a488      0x128 /OPT/altera/12.1/nios2eds/bin/gnu/H-i686-pc-linux-gnu/bin/../lib/gcc/nios2-elf/4.1.2/../../../../nios2-elf/lib/libc.a(lib_a-getc.o)
                0x0084a488                getc
                0x0084a520                _getc_r
 .text          0x0084a5b0       0x28 /OPT/altera/12.1/nios2eds/bin/gnu/H-i686-pc-linux-gnu/bin/../lib/gcc/nios2-elf/4.1.2/../../../../nios2-elf/lib/libc.a(lib_a-malloc.o)
                0x0084a5b0                free
                0x0084a5c4                malloc
 .text          0x0084a5d8       0x60 /OPT/altera/12.1/nios2eds/bin/gnu/H-i686-pc-linux-gnu/bin/../lib/gcc/nios2-elf/4.1.2/../../../../nios2-elf/lib/libc.a(lib_a-rget.o)
                0x0084a5d8                __srget_r
                0x0084a624                __srget
 .text          0x0084a638       0x34 /OPT/altera/12.1/nios2eds/bin/gnu/H-i686-pc-linux-gnu/bin/../lib/gcc/nios2-elf/4.1.2/../../../../nios2-elf/lib/libc.a(lib_a-vprintf.o)
                0x0084a638                _vprintf_r
                0x0084a64c                vprintf
 .text          0x0084a66c       0x74 /OPT/altera/12.1/nios2eds/bin/gnu/H-i686-pc-linux-gnu/bin/../lib/gcc/nios2-elf/4.1.2/../../../../nios2-elf/lib/libc.a(lib_a-vsprintf.o)
                0x0084a66c                _vsprintf_r
                0x0084a6bc                vsprintf
 .text          0x0084a6e0      0x134 /OPT/altera/12.1/nios2eds/bin/gnu/H-i686-pc-linux-gnu/bin/../lib/gcc/nios2-elf/4.1.2/../../../../nios2-elf/lib/libc.a(lib_a-__atexit.o)
                0x0084a6e0                __register_exitproc
 .text          0x0084a814      0x1b4 /OPT/altera/12.1/nios2eds/bin/gnu/H-i686-pc-linux-gnu/bin/../lib/gcc/nios2-elf/4.1.2/../../../../nios2-elf/lib/libc.a(lib_a-__call_atexit.o)
                0x0084a818                __call_exitprocs
 .text          0x0084a9c8       0x6c ../Webserver_bsp//libucosii_bsp.a(alt_exit.o)
                0x0084aa08                _exit
 *(.gnu.warning.*)
 *(.fini)
                0x0084aa34                PROVIDE (__etext, ABSOLUTE (.))
                0x0084aa34                PROVIDE (_etext, ABSOLUTE (.))
                0x0084aa34                PROVIDE (etext, ABSOLUTE (.))
 *(.eh_frame_hdr)
                0x0084aa34                . = ALIGN (0x4)
                0x0084aa34                PROVIDE (__preinit_array_start, ABSOLUTE (.))
 *(.preinit_array)
                0x0084aa34                PROVIDE (__preinit_array_end, ABSOLUTE (.))
                0x0084aa34                PROVIDE (__init_array_start, ABSOLUTE (.))
 *(.init_array)
                0x0084aa34                PROVIDE (__init_array_end, ABSOLUTE (.))
                0x0084aa34                PROVIDE (__fini_array_start, ABSOLUTE (.))
 *(.fini_array)
                0x0084aa34                PROVIDE (__fini_array_end, ABSOLUTE (.))
 *(.eh_frame)
 *(.gcc_except_table)
 *(.dynamic)
                0x0084aa34                PROVIDE (__CTOR_LIST__, ABSOLUTE (.))
 *(.ctors)
 *(SORT(.ctors.*))
 .ctors.65535   0x0084aa34        0x4 /OPT/altera/12.1/nios2eds/bin/gnu/H-i686-pc-linux-gnu/bin/../lib/gcc/nios2-elf/4.1.2/../../../../nios2-elf/lib/libc.a(lib_a-__call_atexit.o)
                0x0084aa38                PROVIDE (__CTOR_END__, ABSOLUTE (.))
                0x0084aa38                PROVIDE (__DTOR_LIST__, ABSOLUTE (.))
 *(.dtors)
 *(SORT(.dtors.*))
                0x0084aa38                PROVIDE (__DTOR_END__, ABSOLUTE (.))
 *(.jcr)
                0x0084aa38                . = ALIGN (0x4)

.rodata         0x0084aa38     0x42e8
                0x0084aa38                PROVIDE (__ram_rodata_start, ABSOLUTE (.))
                0x0084aa38                . = ALIGN (0x4)
 *(.rodata .rodata.* .gnu.linkonce.r.*)
 .rodata        0x0084aa38      0x654 obj/default/alt_error_handler.o
 .rodata        0x0084b08c       0x64 obj/default/dm9000a.o
 .rodata        0x0084b0f0      0x8d4 obj/default/http.o
 .rodata        0x0084b9c4      0x1a0 obj/default/network_utilities.o
 .rodata        0x0084bb64      0x1ac obj/default/srec_flash.o
 .rodata        0x0084bd10       0x74 obj/default/web_server.o
 .rodata        0x0084bd84      0x281 /OPT/altera/12.1/nios2eds/bin/gnu/H-i686-pc-linux-gnu/bin/../lib/gcc/nios2-elf/4.1.2/../../../../nios2-elf/lib/libc.a(lib_a-ctype_.o)
                0x0084bd84                _ctype_
 *fill*         0x0084c005        0x3 00
 .rodata.str1.4
                0x0084c008        0x2 /OPT/altera/12.1/nios2eds/bin/gnu/H-i686-pc-linux-gnu/bin/../lib/gcc/nios2-elf/4.1.2/../../../../nios2-elf/lib/libc.a(lib_a-impure.o)
                                  0x4 (size before relaxing)
 *fill*         0x0084c00a        0x2 00
 .rodata.str1.4
                0x0084c00c        0x3 /OPT/altera/12.1/nios2eds/bin/gnu/H-i686-pc-linux-gnu/bin/../lib/gcc/nios2-elf/4.1.2/../../../../nios2-elf/lib/libc.a(lib_a-perror.o)
                                  0x4 (size before relaxing)
 *fill*         0x0084c00f        0x1 00
 .rodata.str1.4
                0x0084c010        0x2 /OPT/altera/12.1/nios2eds/bin/gnu/H-i686-pc-linux-gnu/bin/../lib/gcc/nios2-elf/4.1.2/../../../../nios2-elf/lib/libc.a(lib_a-puts.o)
                                  0x4 (size before relaxing)
 *fill*         0x0084c012        0x2 00
 .rodata.str1.4
                0x0084c014      0x7a2 /OPT/altera/12.1/nios2eds/bin/gnu/H-i686-pc-linux-gnu/bin/../lib/gcc/nios2-elf/4.1.2/../../../../nios2-elf/lib/libc.a(lib_a-strerror.o)
                                0x7a8 (size before relaxing)
 *fill*         0x0084c7b6        0x2 00
 .rodata.str1.4
                0x0084c7b8       0x5e /OPT/altera/12.1/nios2eds/bin/gnu/H-i686-pc-linux-gnu/bin/../lib/gcc/nios2-elf/4.1.2/../../../../nios2-elf/lib/libc.a(lib_a-vfprintf.o)
                                 0x60 (size before relaxing)
 .rodata        0x0084c816       0x20 /OPT/altera/12.1/nios2eds/bin/gnu/H-i686-pc-linux-gnu/bin/../lib/gcc/nios2-elf/4.1.2/../../../../nios2-elf/lib/libc.a(lib_a-vfprintf.o)
 *fill*         0x0084c836        0x2 00
 .rodata.str1.4
                0x0084c838        0x5 /OPT/altera/12.1/nios2eds/bin/gnu/H-i686-pc-linux-gnu/bin/../lib/gcc/nios2-elf/4.1.2/../../../../nios2-elf/lib/libc.a(lib_a-vfscanf.o)
                                  0x8 (size before relaxing)
 *fill*         0x0084c83d        0x1 00
 .rodata        0x0084c83e       0x22 /OPT/altera/12.1/nios2eds/bin/gnu/H-i686-pc-linux-gnu/bin/../lib/gcc/nios2-elf/4.1.2/../../../../nios2-elf/lib/libc.a(lib_a-vfscanf.o)
 .rodata.str1.4
                0x0084c860       0x10 /OPT/altera/12.1/nios2eds/bin/gnu/H-i686-pc-linux-gnu/bin/../lib/gcc/nios2-elf/4.1.2/../../../../nios2-elf/lib/libc.a(lib_a-dtoa.o)
                                 0x14 (size before relaxing)
 .rodata.str1.4
                0x0084c870        0xf /OPT/altera/12.1/nios2eds/bin/gnu/H-i686-pc-linux-gnu/bin/../lib/gcc/nios2-elf/4.1.2/../../../../nios2-elf/lib/libc.a(lib_a-locale.o)
                                 0x18 (size before relaxing)
 *fill*         0x0084c87f        0x1 00
 .rodata        0x0084c880       0x30 /OPT/altera/12.1/nios2eds/bin/gnu/H-i686-pc-linux-gnu/bin/../lib/gcc/nios2-elf/4.1.2/../../../../nios2-elf/lib/libc.a(lib_a-locale.o)
 .rodata.str1.4
                0x00000000        0x4 /OPT/altera/12.1/nios2eds/bin/gnu/H-i686-pc-linux-gnu/bin/../lib/gcc/nios2-elf/4.1.2/../../../../nios2-elf/lib/libc.a(lib_a-mbrtowc.o)
 .rodata        0x0084c8b0      0x124 /OPT/altera/12.1/nios2eds/bin/gnu/H-i686-pc-linux-gnu/bin/../lib/gcc/nios2-elf/4.1.2/../../../../nios2-elf/lib/libc.a(lib_a-mprec.o)
                0x0084c8b0                __mprec_tens
                0x0084c978                __mprec_bigtens
                0x0084c9a0                __mprec_tinytens
 .rodata.str1.4
                0x0084c9d4        0xf /OPT/altera/12.1/nios2eds/bin/gnu/H-i686-pc-linux-gnu/bin/../lib/gcc/nios2-elf/4.1.2/../../../../nios2-elf/lib/libc.a(lib_a-strtod.o)
                                 0x10 (size before relaxing)
 *fill*         0x0084c9e3        0x1 00
 .rodata        0x0084c9e4       0x28 /OPT/altera/12.1/nios2eds/bin/gnu/H-i686-pc-linux-gnu/bin/../lib/gcc/nios2-elf/4.1.2/../../../../nios2-elf/lib/libc.a(lib_a-strtod.o)
 .rodata.str1.4
                0x0084ca0c       0x1c /OPT/altera/12.1/nios2eds/bin/gnu/H-i686-pc-linux-gnu/bin/../lib/gcc/nios2-elf/4.1.2/../../../../nios2-elf/lib/libc.a(lib_a-gdtoa-gethex.o)
 .rodata        0x0084ca28       0x14 /OPT/altera/12.1/nios2eds/bin/gnu/H-i686-pc-linux-gnu/bin/../lib/gcc/nios2-elf/4.1.2/libgcc.a(_thenan_df.o)
                0x0084ca28                __thenan_df
 .rodata        0x0084ca3c      0x100 /OPT/altera/12.1/nios2eds/bin/gnu/H-i686-pc-linux-gnu/bin/../lib/gcc/nios2-elf/4.1.2/libgcc.a(_clz.o)
                0x0084ca3c                __clz_tab
 .rodata        0x0084cb3c       0x14 ../Webserver_bsp//libucosii_bsp.a(alt_main.o)
 .rodata        0x0084cb50      0x120 ../Webserver_bsp//libucosii_bsp.a(os_core.o)
                0x0084cb50                OSUnMapTbl
 .rodata        0x0084cc70       0x88 ../Webserver_bsp//libucosii_bsp.a(alt_sys_init.o)
 .rodata        0x0084ccf8       0xd8 ../Webserver_bsp//libucosii_bsp.a(ipnet.o)
 .rodata        0x0084cdd0       0xec ../Webserver_bsp//libucosii_bsp.a(ipstart.o)
 .rodata        0x0084cebc      0x54c ../Webserver_bsp//libucosii_bsp.a(igmp_cmn.o)
 .rodata        0x0084d408       0xb8 ../Webserver_bsp//libucosii_bsp.a(in_utils.o)
 .rodata        0x0084d4c0       0x34 ../Webserver_bsp//libucosii_bsp.a(netmain.o)
 .rodata        0x0084d4f4       0x94 ../Webserver_bsp//libucosii_bsp.a(parseip.o)
 .rodata        0x0084d588      0x1a8 ../Webserver_bsp//libucosii_bsp.a(tk_crnos.o)
 .rodata        0x0084d730        0x8 ../Webserver_bsp//libucosii_bsp.a(dhcpclnt.o)
 .rodata        0x0084d738      0x118 ../Webserver_bsp//libucosii_bsp.a(pktalloc.o)
 .rodata        0x0084d850       0x84 ../Webserver_bsp//libucosii_bsp.a(udp_open.o)
 .rodata        0x0084d8d4       0x2c ../Webserver_bsp//libucosii_bsp.a(brdutils.o)
 .rodata        0x0084d900      0x26c ../Webserver_bsp//libucosii_bsp.a(osportco.o)
 .rodata        0x0084db6c       0xa0 ../Webserver_bsp//libucosii_bsp.a(targnios.o)
 .rodata        0x0084dc0c       0x90 ../Webserver_bsp//libucosii_bsp.a(nptcp.o)
 .rodata        0x0084dc9c        0x8 ../Webserver_bsp//libucosii_bsp.a(sockcall.o)
 .rodata        0x0084dca4       0x50 ../Webserver_bsp//libucosii_bsp.a(socket.o)
 .rodata        0x0084dcf4       0x40 ../Webserver_bsp//libucosii_bsp.a(socket2.o)
 .rodata        0x0084dd34       0x20 ../Webserver_bsp//libucosii_bsp.a(tcp_in.o)
 .rodata        0x0084dd54       0x40 ../Webserver_bsp//libucosii_bsp.a(tcp_out.o)
 .rodata        0x0084dd94       0x24 ../Webserver_bsp//libucosii_bsp.a(tcp_subr.o)
 .rodata        0x0084ddb8       0x2c ../Webserver_bsp//libucosii_bsp.a(tcp_usr.o)
 .rodata        0x0084dde4        0xc ../Webserver_bsp//libucosii_bsp.a(alt_dev.o)
 .rodata        0x0084ddf0        0x4 ../Webserver_bsp//libucosii_bsp.a(os_cpu_c.o)
 .rodata        0x0084ddf4      0x1d4 ../Webserver_bsp//libucosii_bsp.a(allports.o)
 .rodata        0x0084dfc8       0x34 ../Webserver_bsp//libucosii_bsp.a(tk_misc.o)
 .rodata        0x0084dffc       0x44 ../Webserver_bsp//libucosii_bsp.a(et_arp.o)
 .rodata        0x0084e040      0x1dc ../Webserver_bsp//libucosii_bsp.a(ip.o)
 .rodata        0x0084e21c      0x158 ../Webserver_bsp//libucosii_bsp.a(ip_reasm.o)
 .rodata        0x0084e374      0x120 ../Webserver_bsp//libucosii_bsp.a(ipdemux.o)
 .rodata        0x0084e494       0x34 ../Webserver_bsp//libucosii_bsp.a(ipport.o)
 .rodata        0x0084e4c8       0x24 ../Webserver_bsp//libucosii_bsp.a(ipraw.o)
 .rodata        0x0084e4ec       0x38 ../Webserver_bsp//libucosii_bsp.a(iproute.o)
 .rodata        0x0084e524       0xe8 ../Webserver_bsp//libucosii_bsp.a(udp.o)
 .rodata        0x0084e60c      0x2d0 ../Webserver_bsp//libucosii_bsp.a(u_mctest.o)
 .rodata        0x0084e8dc       0xf8 ../Webserver_bsp//libucosii_bsp.a(dhcsetup.o)
 .rodata        0x0084e9d4       0x34 ../Webserver_bsp//libucosii_bsp.a(vfsfiles.o)
 .rodata        0x0084ea08      0x318 ../Webserver_bsp//libucosii_bsp.a(icmp.o)
 *(.rodata1)
                0x0084ed20                . = ALIGN (0x4)
                0x0084ed20                PROVIDE (__ram_rodata_end, ABSOLUTE (.))
                0x0084aa38                PROVIDE (__flash_rodata_start, LOADADDR (.rodata))

.rwdata         0x0084ed20     0x1ed0
                0x0084ed20                PROVIDE (__ram_rwdata_start, ABSOLUTE (.))
                0x0084ed20                . = ALIGN (0x4)
 *(.got.plt)
 *(.got)
 *(.data1)
 *(.data .data.* .gnu.linkonce.d.*)
 .data          0x0084ed20        0x0 ../Webserver_bsp//obj/HAL/src/crt0.o
 .data          0x0084ed20        0x0 obj/default/alt_error_handler.o
 .data          0x0084ed20        0x0 obj/default/dm9000a.o
 .data          0x0084ed20        0x0 obj/default/http.o
 .data          0x0084ed20        0x0 obj/default/network_utilities.o
 .data          0x0084ed20        0x0 obj/default/srec_flash.o
 .data          0x0084ed20       0x18 obj/default/web_server.o
                0x0084ed20                wstask
 .data          0x0084ed38        0x0 /OPT/altera/12.1/nios2eds/bin/gnu/H-i686-pc-linux-gnu/bin/../lib/gcc/nios2-elf/4.1.2/libgcc.a(lib2-divmod.o)
 .data          0x0084ed38        0x0 /OPT/altera/12.1/nios2eds/bin/gnu/H-i686-pc-linux-gnu/bin/../lib/gcc/nios2-elf/4.1.2/../../../../nios2-elf/lib/libc.a(lib_a-atoi.o)
 .data          0x0084ed38        0x0 /OPT/altera/12.1/nios2eds/bin/gnu/H-i686-pc-linux-gnu/bin/../lib/gcc/nios2-elf/4.1.2/../../../../nios2-elf/lib/libc.a(lib_a-ctype_.o)
 .data          0x0084ed38        0x0 /OPT/altera/12.1/nios2eds/bin/gnu/H-i686-pc-linux-gnu/bin/../lib/gcc/nios2-elf/4.1.2/../../../../nios2-elf/lib/libc.a(lib_a-fclose.o)
 .data          0x0084ed38        0x0 /OPT/altera/12.1/nios2eds/bin/gnu/H-i686-pc-linux-gnu/bin/../lib/gcc/nios2-elf/4.1.2/../../../../nios2-elf/lib/libc.a(lib_a-fflush.o)
 .data          0x0084ed38        0x0 /OPT/altera/12.1/nios2eds/bin/gnu/H-i686-pc-linux-gnu/bin/../lib/gcc/nios2-elf/4.1.2/../../../../nios2-elf/lib/libc.a(lib_a-fgetpos.o)
 .data          0x0084ed38        0x0 /OPT/altera/12.1/nios2eds/bin/gnu/H-i686-pc-linux-gnu/bin/../lib/gcc/nios2-elf/4.1.2/../../../../nios2-elf/lib/libc.a(lib_a-findfp.o)
 .data          0x0084ed38        0x0 /OPT/altera/12.1/nios2eds/bin/gnu/H-i686-pc-linux-gnu/bin/../lib/gcc/nios2-elf/4.1.2/../../../../nios2-elf/lib/libc.a(lib_a-fopen.o)
 .data          0x0084ed38        0x0 /OPT/altera/12.1/nios2eds/bin/gnu/H-i686-pc-linux-gnu/bin/../lib/gcc/nios2-elf/4.1.2/../../../../nios2-elf/lib/libc.a(lib_a-fprintf.o)
 .data          0x0084ed38        0x0 /OPT/altera/12.1/nios2eds/bin/gnu/H-i686-pc-linux-gnu/bin/../lib/gcc/nios2-elf/4.1.2/../../../../nios2-elf/lib/libc.a(lib_a-fread.o)
 .data          0x0084ed38        0x0 /OPT/altera/12.1/nios2eds/bin/gnu/H-i686-pc-linux-gnu/bin/../lib/gcc/nios2-elf/4.1.2/../../../../nios2-elf/lib/libc.a(lib_a-freer.o)
 .data          0x0084ed38        0x0 /OPT/altera/12.1/nios2eds/bin/gnu/H-i686-pc-linux-gnu/bin/../lib/gcc/nios2-elf/4.1.2/../../../../nios2-elf/lib/libc.a(lib_a-fseek.o)
 .data          0x0084ed38        0x0 /OPT/altera/12.1/nios2eds/bin/gnu/H-i686-pc-linux-gnu/bin/../lib/gcc/nios2-elf/4.1.2/../../../../nios2-elf/lib/libc.a(lib_a-fstatr.o)
 .data          0x0084ed38        0x0 /OPT/altera/12.1/nios2eds/bin/gnu/H-i686-pc-linux-gnu/bin/../lib/gcc/nios2-elf/4.1.2/../../../../nios2-elf/lib/libc.a(lib_a-ftell.o)
 .data          0x0084ed38        0x0 /OPT/altera/12.1/nios2eds/bin/gnu/H-i686-pc-linux-gnu/bin/../lib/gcc/nios2-elf/4.1.2/../../../../nios2-elf/lib/libc.a(lib_a-fwalk.o)
 .data          0x0084ed38        0x0 /OPT/altera/12.1/nios2eds/bin/gnu/H-i686-pc-linux-gnu/bin/../lib/gcc/nios2-elf/4.1.2/../../../../nios2-elf/lib/libc.a(lib_a-fwrite.o)
 .data          0x0084ed38      0x400 /OPT/altera/12.1/nios2eds/bin/gnu/H-i686-pc-linux-gnu/bin/../lib/gcc/nios2-elf/4.1.2/../../../../nios2-elf/lib/libc.a(lib_a-impure.o)
 .data          0x0084f138        0x0 /OPT/altera/12.1/nios2eds/bin/gnu/H-i686-pc-linux-gnu/bin/../lib/gcc/nios2-elf/4.1.2/../../../../nios2-elf/lib/libc.a(lib_a-int_errno.o)
 .data          0x0084f138        0x0 /OPT/altera/12.1/nios2eds/bin/gnu/H-i686-pc-linux-gnu/bin/../lib/gcc/nios2-elf/4.1.2/../../../../nios2-elf/lib/libc.a(lib_a-makebuf.o)
 .data          0x0084f138      0x408 /OPT/altera/12.1/nios2eds/bin/gnu/H-i686-pc-linux-gnu/bin/../lib/gcc/nios2-elf/4.1.2/../../../../nios2-elf/lib/libc.a(lib_a-mallocr.o)
                0x0084f138                __malloc_av_
 .data          0x0084f540        0x0 /OPT/altera/12.1/nios2eds/bin/gnu/H-i686-pc-linux-gnu/bin/../lib/gcc/nios2-elf/4.1.2/../../../../nios2-elf/lib/libc.a(lib_a-memcpy.o)
 .data          0x0084f540        0x0 /OPT/altera/12.1/nios2eds/bin/gnu/H-i686-pc-linux-gnu/bin/../lib/gcc/nios2-elf/4.1.2/../../../../nios2-elf/lib/libc.a(lib_a-memmove.o)
 .data          0x0084f540        0x0 /OPT/altera/12.1/nios2eds/bin/gnu/H-i686-pc-linux-gnu/bin/../lib/gcc/nios2-elf/4.1.2/../../../../nios2-elf/lib/libc.a(lib_a-memset.o)
 .data          0x0084f540        0x0 /OPT/altera/12.1/nios2eds/bin/gnu/H-i686-pc-linux-gnu/bin/../lib/gcc/nios2-elf/4.1.2/../../../../nios2-elf/lib/libc.a(lib_a-openr.o)
 .data          0x0084f540        0x0 /OPT/altera/12.1/nios2eds/bin/gnu/H-i686-pc-linux-gnu/bin/../lib/gcc/nios2-elf/4.1.2/../../../../nios2-elf/lib/libc.a(lib_a-perror.o)
 .data          0x0084f540        0x0 /OPT/altera/12.1/nios2eds/bin/gnu/H-i686-pc-linux-gnu/bin/../lib/gcc/nios2-elf/4.1.2/../../../../nios2-elf/lib/libc.a(lib_a-printf.o)
 .data          0x0084f540        0x0 /OPT/altera/12.1/nios2eds/bin/gnu/H-i686-pc-linux-gnu/bin/../lib/gcc/nios2-elf/4.1.2/../../../../nios2-elf/lib/libc.a(lib_a-puts.o)
 .data          0x0084f540        0x0 /OPT/altera/12.1/nios2eds/bin/gnu/H-i686-pc-linux-gnu/bin/../lib/gcc/nios2-elf/4.1.2/../../../../nios2-elf/lib/libc.a(lib_a-refill.o)
 .data          0x0084f540        0x0 /OPT/altera/12.1/nios2eds/bin/gnu/H-i686-pc-linux-gnu/bin/../lib/gcc/nios2-elf/4.1.2/../../../../nios2-elf/lib/libc.a(lib_a-sbrkr.o)
 .data          0x0084f540        0x0 /OPT/altera/12.1/nios2eds/bin/gnu/H-i686-pc-linux-gnu/bin/../lib/gcc/nios2-elf/4.1.2/../../../../nios2-elf/lib/libc.a(lib_a-snprintf.o)
 .data          0x0084f540        0x0 /OPT/altera/12.1/nios2eds/bin/gnu/H-i686-pc-linux-gnu/bin/../lib/gcc/nios2-elf/4.1.2/../../../../nios2-elf/lib/libc.a(lib_a-sprintf.o)
 .data          0x0084f540        0x0 /OPT/altera/12.1/nios2eds/bin/gnu/H-i686-pc-linux-gnu/bin/../lib/gcc/nios2-elf/4.1.2/../../../../nios2-elf/lib/libc.a(lib_a-sscanf.o)
 .data          0x0084f540        0x0 /OPT/altera/12.1/nios2eds/bin/gnu/H-i686-pc-linux-gnu/bin/../lib/gcc/nios2-elf/4.1.2/../../../../nios2-elf/lib/libc.a(lib_a-stdio.o)
 .data          0x0084f540        0x0 /OPT/altera/12.1/nios2eds/bin/gnu/H-i686-pc-linux-gnu/bin/../lib/gcc/nios2-elf/4.1.2/../../../../nios2-elf/lib/libc.a(lib_a-strcasecmp.o)
 .data          0x0084f540        0x0 /OPT/altera/12.1/nios2eds/bin/gnu/H-i686-pc-linux-gnu/bin/../lib/gcc/nios2-elf/4.1.2/../../../../nios2-elf/lib/libc.a(lib_a-strcat.o)
 .data          0x0084f540        0x0 /OPT/altera/12.1/nios2eds/bin/gnu/H-i686-pc-linux-gnu/bin/../lib/gcc/nios2-elf/4.1.2/../../../../nios2-elf/lib/libc.a(lib_a-strchr.o)
 .data          0x0084f540        0x0 /OPT/altera/12.1/nios2eds/bin/gnu/H-i686-pc-linux-gnu/bin/../lib/gcc/nios2-elf/4.1.2/../../../../nios2-elf/lib/libc.a(lib_a-strcmp.o)
 .data          0x0084f540        0x0 /OPT/altera/12.1/nios2eds/bin/gnu/H-i686-pc-linux-gnu/bin/../lib/gcc/nios2-elf/4.1.2/../../../../nios2-elf/lib/libc.a(lib_a-strcpy.o)
 .data          0x0084f540        0x0 /OPT/altera/12.1/nios2eds/bin/gnu/H-i686-pc-linux-gnu/bin/../lib/gcc/nios2-elf/4.1.2/../../../../nios2-elf/lib/libc.a(lib_a-strerror.o)
 .data          0x0084f540        0x0 /OPT/altera/12.1/nios2eds/bin/gnu/H-i686-pc-linux-gnu/bin/../lib/gcc/nios2-elf/4.1.2/../../../../nios2-elf/lib/libc.a(lib_a-strlen.o)
 .data          0x0084f540        0x0 /OPT/altera/12.1/nios2eds/bin/gnu/H-i686-pc-linux-gnu/bin/../lib/gcc/nios2-elf/4.1.2/../../../../nios2-elf/lib/libc.a(lib_a-strncmp.o)
 .data          0x0084f540        0x0 /OPT/altera/12.1/nios2eds/bin/gnu/H-i686-pc-linux-gnu/bin/../lib/gcc/nios2-elf/4.1.2/../../../../nios2-elf/lib/libc.a(lib_a-strncpy.o)
 .data          0x0084f540        0x0 /OPT/altera/12.1/nios2eds/bin/gnu/H-i686-pc-linux-gnu/bin/../lib/gcc/nios2-elf/4.1.2/../../../../nios2-elf/lib/libc.a(lib_a-strstr.o)
 .data          0x0084f540        0x0 /OPT/altera/12.1/nios2eds/bin/gnu/H-i686-pc-linux-gnu/bin/../lib/gcc/nios2-elf/4.1.2/../../../../nios2-elf/lib/libc.a(lib_a-strtok.o)
 .data          0x0084f540        0x0 /OPT/altera/12.1/nios2eds/bin/gnu/H-i686-pc-linux-gnu/bin/../lib/gcc/nios2-elf/4.1.2/../../../../nios2-elf/lib/libc.a(lib_a-strtok_r.o)
 .data          0x0084f540        0x0 /OPT/altera/12.1/nios2eds/bin/gnu/H-i686-pc-linux-gnu/bin/../lib/gcc/nios2-elf/4.1.2/../../../../nios2-elf/lib/libc.a(lib_a-strtol.o)
 .data          0x0084f540        0x0 /OPT/altera/12.1/nios2eds/bin/gnu/H-i686-pc-linux-gnu/bin/../lib/gcc/nios2-elf/4.1.2/../../../../nios2-elf/lib/libc.a(lib_a-u_strerr.o)
 .data          0x0084f540        0x0 /OPT/altera/12.1/nios2eds/bin/gnu/H-i686-pc-linux-gnu/bin/../lib/gcc/nios2-elf/4.1.2/../../../../nios2-elf/lib/libc.a(lib_a-vfprintf.o)
 .data          0x0084f540        0x0 /OPT/altera/12.1/nios2eds/bin/gnu/H-i686-pc-linux-gnu/bin/../lib/gcc/nios2-elf/4.1.2/../../../../nios2-elf/lib/libc.a(lib_a-vfscanf.o)
 .data          0x0084f540        0x0 /OPT/altera/12.1/nios2eds/bin/gnu/H-i686-pc-linux-gnu/bin/../lib/gcc/nios2-elf/4.1.2/../../../../nios2-elf/lib/libc.a(lib_a-writer.o)
 .data          0x0084f540        0x0 /OPT/altera/12.1/nios2eds/bin/gnu/H-i686-pc-linux-gnu/bin/../lib/gcc/nios2-elf/4.1.2/../../../../nios2-elf/lib/libc.a(lib_a-wsetup.o)
 .data          0x0084f540        0x0 /OPT/altera/12.1/nios2eds/bin/gnu/H-i686-pc-linux-gnu/bin/../lib/gcc/nios2-elf/4.1.2/../../../../nios2-elf/lib/libc.a(lib_a-closer.o)
 .data          0x0084f540        0x0 /OPT/altera/12.1/nios2eds/bin/gnu/H-i686-pc-linux-gnu/bin/../lib/gcc/nios2-elf/4.1.2/../../../../nios2-elf/lib/libc.a(lib_a-dtoa.o)
 .data          0x0084f540        0x0 /OPT/altera/12.1/nios2eds/bin/gnu/H-i686-pc-linux-gnu/bin/../lib/gcc/nios2-elf/4.1.2/../../../../nios2-elf/lib/libc.a(lib_a-flags.o)
 .data          0x0084f540        0x0 /OPT/altera/12.1/nios2eds/bin/gnu/H-i686-pc-linux-gnu/bin/../lib/gcc/nios2-elf/4.1.2/../../../../nios2-elf/lib/libc.a(lib_a-fputc.o)
 .data          0x0084f540        0x0 /OPT/altera/12.1/nios2eds/bin/gnu/H-i686-pc-linux-gnu/bin/../lib/gcc/nios2-elf/4.1.2/../../../../nios2-elf/lib/libc.a(lib_a-fputs.o)
 .data          0x0084f540        0x0 /OPT/altera/12.1/nios2eds/bin/gnu/H-i686-pc-linux-gnu/bin/../lib/gcc/nios2-elf/4.1.2/../../../../nios2-elf/lib/libc.a(lib_a-fvwrite.o)
 .data          0x0084f540        0x0 /OPT/altera/12.1/nios2eds/bin/gnu/H-i686-pc-linux-gnu/bin/../lib/gcc/nios2-elf/4.1.2/../../../../nios2-elf/lib/libc.a(lib_a-isattyr.o)
 .data          0x0084f540        0x0 /OPT/altera/12.1/nios2eds/bin/gnu/H-i686-pc-linux-gnu/bin/../lib/gcc/nios2-elf/4.1.2/../../../../nios2-elf/lib/libc.a(lib_a-iswspace.o)
 .data          0x0084f540        0xc /OPT/altera/12.1/nios2eds/bin/gnu/H-i686-pc-linux-gnu/bin/../lib/gcc/nios2-elf/4.1.2/../../../../nios2-elf/lib/libc.a(lib_a-locale.o)
                0x0084f540                __lc_ctype
 .data          0x0084f54c        0x0 /OPT/altera/12.1/nios2eds/bin/gnu/H-i686-pc-linux-gnu/bin/../lib/gcc/nios2-elf/4.1.2/../../../../nios2-elf/lib/libc.a(lib_a-lseekr.o)
 .data          0x0084f54c        0x0 /OPT/altera/12.1/nios2eds/bin/gnu/H-i686-pc-linux-gnu/bin/../lib/gcc/nios2-elf/4.1.2/../../../../nios2-elf/lib/libc.a(lib_a-mbrtowc.o)
 .data          0x0084f54c        0x0 /OPT/altera/12.1/nios2eds/bin/gnu/H-i686-pc-linux-gnu/bin/../lib/gcc/nios2-elf/4.1.2/../../../../nios2-elf/lib/libc.a(lib_a-mbtowc_r.o)
 .data          0x0084f54c        0x0 /OPT/altera/12.1/nios2eds/bin/gnu/H-i686-pc-linux-gnu/bin/../lib/gcc/nios2-elf/4.1.2/../../../../nios2-elf/lib/libc.a(lib_a-memchr.o)
 .data          0x0084f54c        0x0 /OPT/altera/12.1/nios2eds/bin/gnu/H-i686-pc-linux-gnu/bin/../lib/gcc/nios2-elf/4.1.2/../../../../nios2-elf/lib/libc.a(lib_a-memcmp.o)
 .data          0x0084f54c        0x0 /OPT/altera/12.1/nios2eds/bin/gnu/H-i686-pc-linux-gnu/bin/../lib/gcc/nios2-elf/4.1.2/../../../../nios2-elf/lib/libc.a(lib_a-mprec.o)
 .data          0x0084f54c        0x0 /OPT/altera/12.1/nios2eds/bin/gnu/H-i686-pc-linux-gnu/bin/../lib/gcc/nios2-elf/4.1.2/../../../../nios2-elf/lib/libc.a(lib_a-putc.o)
 .data          0x0084f54c        0x0 /OPT/altera/12.1/nios2eds/bin/gnu/H-i686-pc-linux-gnu/bin/../lib/gcc/nios2-elf/4.1.2/../../../../nios2-elf/lib/libc.a(lib_a-readr.o)
 .data          0x0084f54c        0x0 /OPT/altera/12.1/nios2eds/bin/gnu/H-i686-pc-linux-gnu/bin/../lib/gcc/nios2-elf/4.1.2/../../../../nios2-elf/lib/libc.a(lib_a-reallocr.o)
 .data          0x0084f54c        0x0 /OPT/altera/12.1/nios2eds/bin/gnu/H-i686-pc-linux-gnu/bin/../lib/gcc/nios2-elf/4.1.2/../../../../nios2-elf/lib/libc.a(lib_a-s_isinfd.o)
 .data          0x0084f54c        0x0 /OPT/altera/12.1/nios2eds/bin/gnu/H-i686-pc-linux-gnu/bin/../lib/gcc/nios2-elf/4.1.2/../../../../nios2-elf/lib/libc.a(lib_a-s_isnand.o)
 .data          0x0084f54c        0x0 /OPT/altera/12.1/nios2eds/bin/gnu/H-i686-pc-linux-gnu/bin/../lib/gcc/nios2-elf/4.1.2/../../../../nios2-elf/lib/libc.a(lib_a-sccl.o)
 .data          0x0084f54c        0x0 /OPT/altera/12.1/nios2eds/bin/gnu/H-i686-pc-linux-gnu/bin/../lib/gcc/nios2-elf/4.1.2/../../../../nios2-elf/lib/libc.a(lib_a-sf_nan.o)
 .data          0x0084f54c       0x28 /OPT/altera/12.1/nios2eds/bin/gnu/H-i686-pc-linux-gnu/bin/../lib/gcc/nios2-elf/4.1.2/../../../../nios2-elf/lib/libc.a(lib_a-strtod.o)
 .data          0x0084f574        0x0 /OPT/altera/12.1/nios2eds/bin/gnu/H-i686-pc-linux-gnu/bin/../lib/gcc/nios2-elf/4.1.2/../../../../nios2-elf/lib/libc.a(lib_a-strtoll_r.o)
 .data          0x0084f574        0x0 /OPT/altera/12.1/nios2eds/bin/gnu/H-i686-pc-linux-gnu/bin/../lib/gcc/nios2-elf/4.1.2/../../../../nios2-elf/lib/libc.a(lib_a-strtoul.o)
 .data          0x0084f574        0x0 /OPT/altera/12.1/nios2eds/bin/gnu/H-i686-pc-linux-gnu/bin/../lib/gcc/nios2-elf/4.1.2/../../../../nios2-elf/lib/libc.a(lib_a-strtoull_r.o)
 .data          0x0084f574        0x0 /OPT/altera/12.1/nios2eds/bin/gnu/H-i686-pc-linux-gnu/bin/../lib/gcc/nios2-elf/4.1.2/../../../../nios2-elf/lib/libc.a(lib_a-ungetc.o)
 .data          0x0084f574        0x0 /OPT/altera/12.1/nios2eds/bin/gnu/H-i686-pc-linux-gnu/bin/../lib/gcc/nios2-elf/4.1.2/../../../../nios2-elf/lib/libc.a(lib_a-wbuf.o)
 .data          0x0084f574        0x0 /OPT/altera/12.1/nios2eds/bin/gnu/H-i686-pc-linux-gnu/bin/../lib/gcc/nios2-elf/4.1.2/../../../../nios2-elf/lib/libc.a(lib_a-callocr.o)
 .data          0x0084f574        0x0 /OPT/altera/12.1/nios2eds/bin/gnu/H-i686-pc-linux-gnu/bin/../lib/gcc/nios2-elf/4.1.2/../../../../nios2-elf/lib/libc.a(lib_a-gdtoa-gethex.o)
 .data          0x0084f574        0x0 /OPT/altera/12.1/nios2eds/bin/gnu/H-i686-pc-linux-gnu/bin/../lib/gcc/nios2-elf/4.1.2/../../../../nios2-elf/lib/libc.a(lib_a-gdtoa-hexnan.o)
 .data          0x0084f574        0x0 /OPT/altera/12.1/nios2eds/bin/gnu/H-i686-pc-linux-gnu/bin/../lib/gcc/nios2-elf/4.1.2/libgcc.a(_muldi3.o)
 .data          0x0084f574        0x0 /OPT/altera/12.1/nios2eds/bin/gnu/H-i686-pc-linux-gnu/bin/../lib/gcc/nios2-elf/4.1.2/libgcc.a(_fixunsdfsi.o)
 .data          0x0084f574        0x0 /OPT/altera/12.1/nios2eds/bin/gnu/H-i686-pc-linux-gnu/bin/../lib/gcc/nios2-elf/4.1.2/libgcc.a(_udivdi3.o)
 .data          0x0084f574        0x0 /OPT/altera/12.1/nios2eds/bin/gnu/H-i686-pc-linux-gnu/bin/../lib/gcc/nios2-elf/4.1.2/libgcc.a(_umoddi3.o)
 .data          0x0084f574        0x0 /OPT/altera/12.1/nios2eds/bin/gnu/H-i686-pc-linux-gnu/bin/../lib/gcc/nios2-elf/4.1.2/libgcc.a(_ne_sf.o)
 .data          0x0084f574        0x0 /OPT/altera/12.1/nios2eds/bin/gnu/H-i686-pc-linux-gnu/bin/../lib/gcc/nios2-elf/4.1.2/libgcc.a(_gt_sf.o)
 .data          0x0084f574        0x0 /OPT/altera/12.1/nios2eds/bin/gnu/H-i686-pc-linux-gnu/bin/../lib/gcc/nios2-elf/4.1.2/libgcc.a(_lt_sf.o)
 .data          0x0084f574        0x0 /OPT/altera/12.1/nios2eds/bin/gnu/H-i686-pc-linux-gnu/bin/../lib/gcc/nios2-elf/4.1.2/libgcc.a(_addsub_df.o)
 .data          0x0084f574        0x0 /OPT/altera/12.1/nios2eds/bin/gnu/H-i686-pc-linux-gnu/bin/../lib/gcc/nios2-elf/4.1.2/libgcc.a(_mul_df.o)
 .data          0x0084f574        0x0 /OPT/altera/12.1/nios2eds/bin/gnu/H-i686-pc-linux-gnu/bin/../lib/gcc/nios2-elf/4.1.2/libgcc.a(_div_df.o)
 .data          0x0084f574        0x0 /OPT/altera/12.1/nios2eds/bin/gnu/H-i686-pc-linux-gnu/bin/../lib/gcc/nios2-elf/4.1.2/libgcc.a(_eq_df.o)
 .data          0x0084f574        0x0 /OPT/altera/12.1/nios2eds/bin/gnu/H-i686-pc-linux-gnu/bin/../lib/gcc/nios2-elf/4.1.2/libgcc.a(_ne_df.o)
 .data          0x0084f574        0x0 /OPT/altera/12.1/nios2eds/bin/gnu/H-i686-pc-linux-gnu/bin/../lib/gcc/nios2-elf/4.1.2/libgcc.a(_gt_df.o)
 .data          0x0084f574        0x0 /OPT/altera/12.1/nios2eds/bin/gnu/H-i686-pc-linux-gnu/bin/../lib/gcc/nios2-elf/4.1.2/libgcc.a(_ge_df.o)
 .data          0x0084f574        0x0 /OPT/altera/12.1/nios2eds/bin/gnu/H-i686-pc-linux-gnu/bin/../lib/gcc/nios2-elf/4.1.2/libgcc.a(_lt_df.o)
 .data          0x0084f574        0x0 /OPT/altera/12.1/nios2eds/bin/gnu/H-i686-pc-linux-gnu/bin/../lib/gcc/nios2-elf/4.1.2/libgcc.a(_le_df.o)
 .data          0x0084f574        0x0 /OPT/altera/12.1/nios2eds/bin/gnu/H-i686-pc-linux-gnu/bin/../lib/gcc/nios2-elf/4.1.2/libgcc.a(_si_to_df.o)
 .data          0x0084f574        0x0 /OPT/altera/12.1/nios2eds/bin/gnu/H-i686-pc-linux-gnu/bin/../lib/gcc/nios2-elf/4.1.2/libgcc.a(_df_to_si.o)
 .data          0x0084f574        0x0 /OPT/altera/12.1/nios2eds/bin/gnu/H-i686-pc-linux-gnu/bin/../lib/gcc/nios2-elf/4.1.2/libgcc.a(_df_to_sf.o)
 .data          0x0084f574        0x0 /OPT/altera/12.1/nios2eds/bin/gnu/H-i686-pc-linux-gnu/bin/../lib/gcc/nios2-elf/4.1.2/libgcc.a(_thenan_df.o)
 .data          0x0084f574        0x0 /OPT/altera/12.1/nios2eds/bin/gnu/H-i686-pc-linux-gnu/bin/../lib/gcc/nios2-elf/4.1.2/libgcc.a(_usi_to_df.o)
 .data          0x0084f574        0x0 /OPT/altera/12.1/nios2eds/bin/gnu/H-i686-pc-linux-gnu/bin/../lib/gcc/nios2-elf/4.1.2/libgcc.a(_clz.o)
 .data          0x0084f574        0x0 /OPT/altera/12.1/nios2eds/bin/gnu/H-i686-pc-linux-gnu/bin/../lib/gcc/nios2-elf/4.1.2/libgcc.a(_clzsi2.o)
 .data          0x0084f574        0x0 /OPT/altera/12.1/nios2eds/bin/gnu/H-i686-pc-linux-gnu/bin/../lib/gcc/nios2-elf/4.1.2/libgcc.a(_unpack_sf.o)
 .data          0x0084f574        0x0 /OPT/altera/12.1/nios2eds/bin/gnu/H-i686-pc-linux-gnu/bin/../lib/gcc/nios2-elf/4.1.2/libgcc.a(_fpcmp_parts_sf.o)
 .data          0x0084f574        0x0 /OPT/altera/12.1/nios2eds/bin/gnu/H-i686-pc-linux-gnu/bin/../lib/gcc/nios2-elf/4.1.2/libgcc.a(_make_sf.o)
 .data          0x0084f574        0x0 /OPT/altera/12.1/nios2eds/bin/gnu/H-i686-pc-linux-gnu/bin/../lib/gcc/nios2-elf/4.1.2/libgcc.a(_pack_df.o)
 .data          0x0084f574        0x0 /OPT/altera/12.1/nios2eds/bin/gnu/H-i686-pc-linux-gnu/bin/../lib/gcc/nios2-elf/4.1.2/libgcc.a(_unpack_df.o)
 .data          0x0084f574        0x0 /OPT/altera/12.1/nios2eds/bin/gnu/H-i686-pc-linux-gnu/bin/../lib/gcc/nios2-elf/4.1.2/libgcc.a(_fpcmp_parts_df.o)
 .data          0x0084f574        0x0 /OPT/altera/12.1/nios2eds/bin/gnu/H-i686-pc-linux-gnu/bin/../lib/gcc/nios2-elf/4.1.2/libgcc.a(_pack_sf.o)
 .data          0x0084f574        0x0 ../Webserver_bsp//libucosii_bsp.a(alt_dcache_flush.o)
 .data          0x0084f574        0x0 ../Webserver_bsp//libucosii_bsp.a(alt_flash_dev.o)
 .data          0x0084f574        0x0 ../Webserver_bsp//libucosii_bsp.a(alt_fstat.o)
 .data          0x0084f574        0x0 ../Webserver_bsp//libucosii_bsp.a(alt_irq_register.o)
 .data          0x0084f574        0x0 ../Webserver_bsp//libucosii_bsp.a(alt_irq_vars.o)
 .data          0x0084f574        0x0 ../Webserver_bsp//libucosii_bsp.a(alt_isatty.o)
 .data          0x0084f574        0x0 ../Webserver_bsp//libucosii_bsp.a(alt_lseek.o)
 .data          0x0084f574        0x0 ../Webserver_bsp//libucosii_bsp.a(alt_main.o)
 .data          0x0084f574        0x0 ../Webserver_bsp//libucosii_bsp.a(alt_open.o)
 .data          0x0084f574        0x0 ../Webserver_bsp//libucosii_bsp.a(alt_release_fd.o)
 .data          0x0084f574        0x0 ../Webserver_bsp//libucosii_bsp.a(alt_sbrk.o)
 .data          0x0084f574        0x0 ../Webserver_bsp//libucosii_bsp.a(alt_tick.o)
 .data          0x0084f574        0x0 ../Webserver_bsp//libucosii_bsp.a(alt_usleep.o)
 .data          0x0084f574        0x0 ../Webserver_bsp//libucosii_bsp.a(alt_env_lock.o)
 .data          0x0084f574        0x0 ../Webserver_bsp//libucosii_bsp.a(alt_malloc_lock.o)
 .data          0x0084f574        0x0 ../Webserver_bsp//libucosii_bsp.a(os_core.o)
 .data          0x0084f574        0x0 ../Webserver_bsp//libucosii_bsp.a(os_dbg.o)
 .data          0x0084f574        0x0 ../Webserver_bsp//libucosii_bsp.a(os_flag.o)
 .data          0x0084f574        0x0 ../Webserver_bsp//libucosii_bsp.a(os_mbox.o)
 .data          0x0084f574        0x0 ../Webserver_bsp//libucosii_bsp.a(os_mem.o)
 .data          0x0084f574        0x0 ../Webserver_bsp//libucosii_bsp.a(os_q.o)
 .data          0x0084f574        0x0 ../Webserver_bsp//libucosii_bsp.a(os_sem.o)
 .data          0x0084f574        0x0 ../Webserver_bsp//libucosii_bsp.a(os_task.o)
 .data          0x0084f574        0x0 ../Webserver_bsp//libucosii_bsp.a(os_time.o)
 .data          0x0084f574     0x1148 ../Webserver_bsp//libucosii_bsp.a(alt_sys_init.o)
 .data          0x008506bc        0x0 ../Webserver_bsp//libucosii_bsp.a(altera_avalon_jtag_uart_fd.o)
 .data          0x008506bc        0x0 ../Webserver_bsp//libucosii_bsp.a(altera_avalon_jtag_uart_init.o)
 .data          0x008506bc        0x0 ../Webserver_bsp//libucosii_bsp.a(altera_avalon_jtag_uart_ioctl.o)
 .data          0x008506bc        0x0 ../Webserver_bsp//libucosii_bsp.a(altera_avalon_jtag_uart_read.o)
 .data          0x008506bc        0x0 ../Webserver_bsp//libucosii_bsp.a(altera_avalon_jtag_uart_write.o)
 .data          0x008506bc        0x0 ../Webserver_bsp//libucosii_bsp.a(altera_avalon_timer_sc.o)
 .data          0x008506bc        0x0 ../Webserver_bsp//libucosii_bsp.a(altera_ro_zipfs.o)
 .data          0x008506bc        0x0 ../Webserver_bsp//libucosii_bsp.a(altera_up_avalon_character_lcd.o)
 .data          0x008506bc        0x0 ../Webserver_bsp//libucosii_bsp.a(alt_iniche_close.o)
 .data          0x008506bc        0x0 ../Webserver_bsp//libucosii_bsp.a(alt_iniche_dev.o)
 .data          0x008506bc        0x0 ../Webserver_bsp//libucosii_bsp.a(alt_iniche_read.o)
 .data          0x008506bc        0x0 ../Webserver_bsp//libucosii_bsp.a(alt_iniche_write.o)
 .data          0x008506bc        0x0 ../Webserver_bsp//libucosii_bsp.a(ipnet.o)
 .data          0x008506bc        0x0 ../Webserver_bsp//libucosii_bsp.a(ipstart.o)
 .data          0x008506bc        0x0 ../Webserver_bsp//libucosii_bsp.a(igmp_cmn.o)
 .data          0x008506bc        0x0 ../Webserver_bsp//libucosii_bsp.a(bsdsock.o)
 .data          0x008506bc        0x0 ../Webserver_bsp//libucosii_bsp.a(cksum.o)
 .data          0x008506bc        0x0 ../Webserver_bsp//libucosii_bsp.a(in_utils.o)
 .data          0x008506bc       0x30 ../Webserver_bsp//libucosii_bsp.a(netmain.o)
                0x008506bc                nettasks
 .data          0x008506ec        0x0 ../Webserver_bsp//libucosii_bsp.a(parseip.o)
 .data          0x008506ec        0x0 ../Webserver_bsp//libucosii_bsp.a(tk_crnos.o)
 .data          0x008506ec        0x0 ../Webserver_bsp//libucosii_bsp.a(dhcpclnt.o)
 .data          0x008506ec        0x0 ../Webserver_bsp//libucosii_bsp.a(dhcputil.o)
 .data          0x008506ec        0x0 ../Webserver_bsp//libucosii_bsp.a(pktalloc.o)
 .data          0x008506ec        0x0 ../Webserver_bsp//libucosii_bsp.a(q.o)
 .data          0x008506ec        0x0 ../Webserver_bsp//libucosii_bsp.a(udp_open.o)
 .data          0x008506ec        0x0 ../Webserver_bsp//libucosii_bsp.a(asm_cksum.o)
 .data          0x008506ec        0x0 ../Webserver_bsp//libucosii_bsp.a(brdutils.o)
 .data          0x008506ec        0x0 ../Webserver_bsp//libucosii_bsp.a(osportco.o)
 .data          0x008506ec        0x0 ../Webserver_bsp//libucosii_bsp.a(targnios.o)
 .data          0x008506ec       0x48 ../Webserver_bsp//libucosii_bsp.a(nptcp.o)
                0x008506ec                tcp_protosw
                0x00850704                udp_protosw
                0x0085071c                rawip_protosw
 .data          0x00850734        0x0 ../Webserver_bsp//libucosii_bsp.a(rawsock.o)
 .data          0x00850734        0x0 ../Webserver_bsp//libucosii_bsp.a(sockcall.o)
 .data          0x00850734        0x0 ../Webserver_bsp//libucosii_bsp.a(socket.o)
 .data          0x00850734        0x0 ../Webserver_bsp//libucosii_bsp.a(socket2.o)
 .data          0x00850734        0x0 ../Webserver_bsp//libucosii_bsp.a(soselect.o)
 .data          0x00850734        0x0 ../Webserver_bsp//libucosii_bsp.a(tcp_in.o)
 .data          0x00850734        0xb ../Webserver_bsp//libucosii_bsp.a(tcp_out.o)
                0x00850734                tcp_outflags
 .data          0x0085073f        0x0 ../Webserver_bsp//libucosii_bsp.a(tcp_subr.o)
 .data          0x0085073f        0xd ../Webserver_bsp//libucosii_bsp.a(tcp_timr.o)
                0x0085073f                tcp_backoff
 .data          0x0085074c        0x0 ../Webserver_bsp//libucosii_bsp.a(tcp_usr.o)
 .data          0x0085074c        0x0 ../Webserver_bsp//libucosii_bsp.a(tcpport.o)
 .data          0x0085074c        0x0 ../Webserver_bsp//libucosii_bsp.a(udpsock.o)
 .data          0x0085074c        0x0 ../Webserver_bsp//libucosii_bsp.a(alt_alarm_start.o)
 .data          0x0085074c        0x0 ../Webserver_bsp//libucosii_bsp.a(alt_busy_sleep.o)
 .data          0x0085074c        0x0 ../Webserver_bsp//libucosii_bsp.a(alt_close.o)
 .data          0x0085074c      0x1a8 ../Webserver_bsp//libucosii_bsp.a(alt_dev.o)
                0x0085074c                alt_dev_null
                0x00850774                alt_fd_list
 .data          0x008508f4        0x0 ../Webserver_bsp//libucosii_bsp.a(alt_dev_llist_insert.o)
 .data          0x008508f4        0x0 ../Webserver_bsp//libucosii_bsp.a(alt_do_ctors.o)
 .data          0x008508f4        0x0 ../Webserver_bsp//libucosii_bsp.a(alt_do_dtors.o)
 .data          0x008508f4        0x0 ../Webserver_bsp//libucosii_bsp.a(alt_errno.o)
 .data          0x008508f4        0x0 ../Webserver_bsp//libucosii_bsp.a(alt_find_dev.o)
 .data          0x008508f4        0x0 ../Webserver_bsp//libucosii_bsp.a(alt_find_file.o)
 .data          0x008508f4        0x0 ../Webserver_bsp//libucosii_bsp.a(alt_fs_reg.o)
 .data          0x008508f4        0x0 ../Webserver_bsp//libucosii_bsp.a(alt_get_fd.o)
 .data          0x008508f4        0x0 ../Webserver_bsp//libucosii_bsp.a(alt_iic.o)
 .data          0x008508f4        0x0 ../Webserver_bsp//libucosii_bsp.a(alt_iic_isr_register.o)
 .data          0x008508f4        0x0 ../Webserver_bsp//libucosii_bsp.a(alt_io_redirect.o)
 .data          0x008508f4        0x0 ../Webserver_bsp//libucosii_bsp.a(alt_irq_entry.o)
 .data          0x008508f4        0x0 ../Webserver_bsp//libucosii_bsp.a(alt_irq_handler.o)
 .data          0x008508f4        0x0 ../Webserver_bsp//libucosii_bsp.a(alt_read.o)
 .data          0x008508f4        0x0 ../Webserver_bsp//libucosii_bsp.a(alt_remap_cached.o)
 .data          0x008508f4        0x0 ../Webserver_bsp//libucosii_bsp.a(alt_remap_uncached.o)
 .data          0x008508f4        0x0 ../Webserver_bsp//libucosii_bsp.a(alt_write.o)
 .data          0x008508f4        0x0 ../Webserver_bsp//libucosii_bsp.a(altera_nios2_qsys_irq.o)
 .data          0x008508f4        0x0 ../Webserver_bsp//libucosii_bsp.a(os_cpu_a.o)
 .data          0x008508f4        0x0 ../Webserver_bsp//libucosii_bsp.a(os_cpu_c.o)
 .data          0x008508f4       0x18 ../Webserver_bsp//libucosii_bsp.a(allports.o)
                0x008508f4                icmpdu_types
 .data          0x0085090c        0x0 ../Webserver_bsp//libucosii_bsp.a(timeouts.o)
 .data          0x0085090c        0x0 ../Webserver_bsp//libucosii_bsp.a(tk_misc.o)
 .data          0x0085090c        0x0 ../Webserver_bsp//libucosii_bsp.a(alt_iniche_fcntl.o)
 .data          0x0085090c        0x0 ../Webserver_bsp//libucosii_bsp.a(et_arp.o)
 .data          0x0085090c        0x0 ../Webserver_bsp//libucosii_bsp.a(iface.o)
 .data          0x0085090c        0x0 ../Webserver_bsp//libucosii_bsp.a(ip.o)
 .data          0x0085090c        0x0 ../Webserver_bsp//libucosii_bsp.a(ip_reasm.o)
 .data          0x0085090c        0x0 ../Webserver_bsp//libucosii_bsp.a(ipdemux.o)
 .data          0x0085090c        0x0 ../Webserver_bsp//libucosii_bsp.a(ipmc.o)
 .data          0x0085090c        0x0 ../Webserver_bsp//libucosii_bsp.a(ipport.o)
 .data          0x0085090c        0x0 ../Webserver_bsp//libucosii_bsp.a(ipraw.o)
 .data          0x0085090c        0x9 ../Webserver_bsp//libucosii_bsp.a(iproute.o)
                0x0085090c                rtp_priority
 .data          0x00850915        0x0 ../Webserver_bsp//libucosii_bsp.a(udp.o)
 .data          0x00850915        0x0 ../Webserver_bsp//libucosii_bsp.a(igmp.o)
 .data          0x00850915        0x0 ../Webserver_bsp//libucosii_bsp.a(igmp2.o)
 .data          0x00850915        0x0 ../Webserver_bsp//libucosii_bsp.a(ipopt.o)
 .data          0x00850915        0x0 ../Webserver_bsp//libucosii_bsp.a(u_mctest.o)
 .data          0x00850915        0x0 ../Webserver_bsp//libucosii_bsp.a(dhcsetup.o)
 *fill*         0x00850915        0x3 00
 .data          0x00850918       0xd4 ../Webserver_bsp//libucosii_bsp.a(memdev.o)
                0x00850918                mdio
                0x0085093c                mdlist
 .data          0x008509ec        0x0 ../Webserver_bsp//libucosii_bsp.a(tcpcksum.o)
 .data          0x008509ec        0x0 ../Webserver_bsp//libucosii_bsp.a(in_pcb.o)
 .data          0x008509ec       0x80 ../Webserver_bsp//libucosii_bsp.a(vfsfiles.o)
                0x008509ec                vfs_root_path
 .data          0x00850a6c        0x0 ../Webserver_bsp//libucosii_bsp.a(vfsport.o)
 .data          0x00850a6c        0x0 ../Webserver_bsp//libucosii_bsp.a(alt_exception_entry.o)
 .data          0x00850a6c        0x0 ../Webserver_bsp//libucosii_bsp.a(alt_fcntl.o)
 .data          0x00850a6c       0x18 ../Webserver_bsp//libucosii_bsp.a(icmp.o)
 .data          0x00850a84        0x0 /OPT/altera/12.1/nios2eds/bin/gnu/H-i686-pc-linux-gnu/bin/../lib/gcc/nios2-elf/4.1.2/../../../../nios2-elf/lib/libc.a(lib_a-atexit.o)
 .data          0x00850a84        0x0 /OPT/altera/12.1/nios2eds/bin/gnu/H-i686-pc-linux-gnu/bin/../lib/gcc/nios2-elf/4.1.2/../../../../nios2-elf/lib/libc.a(lib_a-calloc.o)
 .data          0x00850a84        0x0 /OPT/altera/12.1/nios2eds/bin/gnu/H-i686-pc-linux-gnu/bin/../lib/gcc/nios2-elf/4.1.2/../../../../nios2-elf/lib/libc.a(lib_a-exit.o)
 .data          0x00850a84        0x0 /OPT/altera/12.1/nios2eds/bin/gnu/H-i686-pc-linux-gnu/bin/../lib/gcc/nios2-elf/4.1.2/../../../../nios2-elf/lib/libc.a(lib_a-getc.o)
 .data          0x00850a84        0x0 /OPT/altera/12.1/nios2eds/bin/gnu/H-i686-pc-linux-gnu/bin/../lib/gcc/nios2-elf/4.1.2/../../../../nios2-elf/lib/libc.a(lib_a-malloc.o)
 .data          0x00850a84        0x0 /OPT/altera/12.1/nios2eds/bin/gnu/H-i686-pc-linux-gnu/bin/../lib/gcc/nios2-elf/4.1.2/../../../../nios2-elf/lib/libc.a(lib_a-rget.o)
 .data          0x00850a84        0x0 /OPT/altera/12.1/nios2eds/bin/gnu/H-i686-pc-linux-gnu/bin/../lib/gcc/nios2-elf/4.1.2/../../../../nios2-elf/lib/libc.a(lib_a-vprintf.o)
 .data          0x00850a84        0x0 /OPT/altera/12.1/nios2eds/bin/gnu/H-i686-pc-linux-gnu/bin/../lib/gcc/nios2-elf/4.1.2/../../../../nios2-elf/lib/libc.a(lib_a-vsprintf.o)
 .data          0x00850a84        0x0 /OPT/altera/12.1/nios2eds/bin/gnu/H-i686-pc-linux-gnu/bin/../lib/gcc/nios2-elf/4.1.2/../../../../nios2-elf/lib/libc.a(lib_a-__atexit.o)
 .data          0x00850a84        0x0 /OPT/altera/12.1/nios2eds/bin/gnu/H-i686-pc-linux-gnu/bin/../lib/gcc/nios2-elf/4.1.2/../../../../nios2-elf/lib/libc.a(lib_a-__call_atexit.o)
 .data          0x00850a84        0x0 ../Webserver_bsp//libucosii_bsp.a(alt_exit.o)
                0x00858a84                _gp = ABSOLUTE ((. + 0x8000))
                0x00858a84                PROVIDE (gp, _gp)
 *(.rwdata .rwdata.*)
 *(.sdata .sdata.* .gnu.linkonce.s.*)
 .sdata         0x00850a84       0x28 obj/default/http.o
                0x00850a84                mapping
                0x00850a8c                sweep_field
                0x00850a94                lcd_field
                0x00850a9c                upload_field
                0x00850aa4                flash_field
 .sdata         0x00850aac        0x4 /OPT/altera/12.1/nios2eds/bin/gnu/H-i686-pc-linux-gnu/bin/../lib/gcc/nios2-elf/4.1.2/../../../../nios2-elf/lib/libc.a(lib_a-ctype_.o)
                0x00850aac                __ctype_ptr
 .sdata         0x00850ab0        0x8 /OPT/altera/12.1/nios2eds/bin/gnu/H-i686-pc-linux-gnu/bin/../lib/gcc/nios2-elf/4.1.2/../../../../nios2-elf/lib/libc.a(lib_a-impure.o)
                0x00850ab0                _impure_ptr
                0x00850ab4                _global_impure_ptr
 .sdata         0x00850ab8        0x8 /OPT/altera/12.1/nios2eds/bin/gnu/H-i686-pc-linux-gnu/bin/../lib/gcc/nios2-elf/4.1.2/../../../../nios2-elf/lib/libc.a(lib_a-mallocr.o)
                0x00850ab8                __malloc_trim_threshold
                0x00850abc                __malloc_sbrk_base
 .sdata         0x00850ac0        0x8 /OPT/altera/12.1/nios2eds/bin/gnu/H-i686-pc-linux-gnu/bin/../lib/gcc/nios2-elf/4.1.2/../../../../nios2-elf/lib/libc.a(lib_a-locale.o)
                0x00850ac0                __mb_cur_max
 .sdata         0x00850ac8        0x8 ../Webserver_bsp//libucosii_bsp.a(alt_flash_dev.o)
                0x00850ac8                alt_flash_dev_list
 .sdata         0x00850ad0        0x4 ../Webserver_bsp//libucosii_bsp.a(alt_irq_vars.o)
                0x00850ad0                alt_priority_mask
 .sdata         0x00850ad4        0x4 ../Webserver_bsp//libucosii_bsp.a(alt_sbrk.o)
 .sdata         0x00850ad8        0x8 ../Webserver_bsp//libucosii_bsp.a(alt_tick.o)
                0x00850ad8                alt_alarm_list
 .sdata         0x00850ae0        0x4 ../Webserver_bsp//libucosii_bsp.a(alt_env_lock.o)
 .sdata         0x00850ae4        0x4 ../Webserver_bsp//libucosii_bsp.a(alt_malloc_lock.o)
 .sdata         0x00850ae8       0x74 ../Webserver_bsp//libucosii_bsp.a(os_dbg.o)
                0x00850ae8                OSDebugEn
                0x00850aec                OSEndiannessTest
                0x00850af0                OSEventEn
                0x00850af2                OSEventMax
                0x00850af4                OSEventNameSize
                0x00850af6                OSEventSize
                0x00850af8                OSEventTblSize
                0x00850afa                OSEventMultiEn
                0x00850afc                OSFlagEn
                0x00850afe                OSFlagGrpSize
                0x00850b00                OSFlagNodeSize
                0x00850b02                OSFlagWidth
                0x00850b04                OSFlagMax
                0x00850b06                OSFlagNameSize
                0x00850b08                OSLowestPrio
                0x00850b0a                OSMboxEn
                0x00850b0c                OSMemEn
                0x00850b0e                OSMemMax
                0x00850b10                OSMemNameSize
                0x00850b12                OSMemSize
                0x00850b14                OSMemTblSize
                0x00850b16                OSMutexEn
                0x00850b18                OSPtrSize
                0x00850b1a                OSQEn
                0x00850b1c                OSQMax
                0x00850b1e                OSQSize
                0x00850b20                OSRdyTblSize
                0x00850b22                OSSemEn
                0x00850b24                OSStkWidth
                0x00850b26                OSTaskCreateEn
                0x00850b28                OSTaskCreateExtEn
                0x00850b2a                OSTaskDelEn
                0x00850b2c                OSTaskIdleStkSize
                0x00850b2e                OSTaskProfileEn
                0x00850b30                OSTaskMax
                0x00850b32                OSTaskNameSize
                0x00850b34                OSTaskStatEn
                0x00850b36                OSTaskStatStkSize
                0x00850b38                OSTaskStatStkChkEn
                0x00850b3a                OSTaskSwHookEn
                0x00850b3c                OSTCBPrioTblMax
                0x00850b3e                OSTCBSize
                0x00850b40                OSTicksPerSec
                0x00850b42                OSTimeTickHookEn
                0x00850b44                OSVersionNbr
                0x00850b46                OSTmrEn
                0x00850b48                OSTmrCfgMax
                0x00850b4a                OSTmrCfgNameSize
                0x00850b4c                OSTmrCfgWheelSize
                0x00850b4e                OSTmrCfgTicksPerSec
                0x00850b50                OSTmrSize
                0x00850b52                OSTmrTblSize
                0x00850b54                OSTmrWheelSize
                0x00850b56                OSTmrWheelTblSize
                0x00850b58                OSDataSize
 .sdata         0x00850b5c        0x8 ../Webserver_bsp//libucosii_bsp.a(alt_iniche_dev.o)
                0x00850b5c                alt_iniche_dev_list
 .sdata         0x00850b64        0x4 ../Webserver_bsp//libucosii_bsp.a(ipstart.o)
                0x00850b64                ipmcfail_str
 .sdata         0x00850b68        0x4 ../Webserver_bsp//libucosii_bsp.a(cksum.o)
 .sdata         0x00850b6c        0x4 ../Webserver_bsp//libucosii_bsp.a(netmain.o)
                0x00850b6c                num_net_tasks
 .sdata         0x00850b70        0x4 ../Webserver_bsp//libucosii_bsp.a(parseip.o)
                0x00850b70                pton_error
 .sdata         0x00850b74        0xc ../Webserver_bsp//libucosii_bsp.a(dhcpclnt.o)
                0x00850b74                xids
                0x00850b78                reqlist
                0x00850b7c                reqlist_len
 .sdata         0x00850b80       0x10 ../Webserver_bsp//libucosii_bsp.a(pktalloc.o)
                0x00850b80                lilbufs
                0x00850b84                lilbufsiz
                0x00850b88                bigbufs
                0x00850b8c                bigbufsiz
 .sdata         0x00850b90        0x4 ../Webserver_bsp//libucosii_bsp.a(brdutils.o)
                0x00850b90                kb_last
 .sdata         0x00850b94        0x4 ../Webserver_bsp//libucosii_bsp.a(nptcp.o)
                0x00850b94                TCPTV_MSL
 .sdata         0x00850b98        0x2 ../Webserver_bsp//libucosii_bsp.a(socket.o)
                0x00850b98                socket_defaults
 .sdata         0x00850b9a        0x1 ../Webserver_bsp//libucosii_bsp.a(tcp_in.o)
                0x00850b9a                tcprexmtthresh
 *fill*         0x00850b9b        0x1 00
 .sdata         0x00850b9c        0x4 ../Webserver_bsp//libucosii_bsp.a(tcp_subr.o)
                0x00850b9c                tcp_ttl
 .sdata         0x00850ba0        0x8 ../Webserver_bsp//libucosii_bsp.a(tcp_timr.o)
                0x00850ba0                tcp_keepidle
                0x00850ba4                tcp_keepintvl
 .sdata         0x00850ba8        0x8 ../Webserver_bsp//libucosii_bsp.a(tcp_usr.o)
                0x00850ba8                tcp_sendspace
                0x00850bac                tcp_recvspace
 .sdata         0x00850bb0       0x14 ../Webserver_bsp//libucosii_bsp.a(alt_dev.o)
                0x00850bb0                alt_fs_list
                0x00850bb8                alt_dev_list
                0x00850bc0                alt_max_fd
 .sdata         0x00850bc4        0x4 ../Webserver_bsp//libucosii_bsp.a(alt_errno.o)
                0x00850bc4                alt_errno
 .sdata         0x00850bc8       0x10 ../Webserver_bsp//libucosii_bsp.a(allports.o)
                0x00850bc8                name
                0x00850bcc                prompt
                0x00850bd0                pingdelay
                0x00850bd4                deflength
 .sdata         0x00850bd8        0x4 ../Webserver_bsp//libucosii_bsp.a(et_arp.o)
                0x00850bd8                arp_ageout
 .sdata         0x00850bdc        0x8 ../Webserver_bsp//libucosii_bsp.a(ip.o)
                0x00850be0                ipRoutes
 .sdata         0x00850be4        0x4 ../Webserver_bsp//libucosii_bsp.a(u_mctest.o)
 .sdata         0x00850be8        0x4 ../Webserver_bsp//libucosii_bsp.a(memdev.o)
                0x00850be8                mdlist_size
 .sdata         0x00850bec        0x4 ../Webserver_bsp//libucosii_bsp.a(vfsfiles.o)
                0x00850bec                http_root_path
 *(.sdata2 .sdata2.* .gnu.linkonce.s2.*)
                0x00850bf0                . = ALIGN (0x4)
                0x00850bf0                _edata = ABSOLUTE (.)
                0x00850bf0                PROVIDE (edata, ABSOLUTE (.))
                0x00850bf0                PROVIDE (__ram_rwdata_end, ABSOLUTE (.))
                0x0084ed20                PROVIDE (__flash_rwdata_start, LOADADDR (.rwdata))

.bss            0x00850bf0   0x5f69c4
                0x00850bf0                __bss_start = ABSOLUTE (.)
                0x00850bf0                PROVIDE (__sbss_start, ABSOLUTE (.))
                0x00850bf0                PROVIDE (___sbss_start, ABSOLUTE (.))
 *(.dynsbss)
 *(.sbss .sbss.* .gnu.linkonce.sb.*)
 .sbss          0x00850bf0        0x8 obj/default/dm9000a.o
                0x00850bf0                autoReset
                0x00850bf4                netisrs
 .sbss          0x00850bf8        0x8 obj/default/network_utilities.o
                0x00850bf8                last_flash_sector_offset
                0x00850bfc                last_flash_sector
 .sbss          0x00850c00        0x8 obj/default/srec_flash.o
                0x00850c00                line_count
                0x00850c04                current_flash_block
 .sbss          0x00850c08        0x9 obj/default/web_server.o
                0x00850c08                lcdDevice
                0x00850c0c                board_control_mbox
                0x00850c10                to_wstask
 *fill*         0x00850c11        0x3 00
 .sbss          0x00850c14        0x4 /OPT/altera/12.1/nios2eds/bin/gnu/H-i686-pc-linux-gnu/bin/../lib/gcc/nios2-elf/4.1.2/../../../../nios2-elf/lib/libc.a(lib_a-int_errno.o)
                0x00850c14                errno
 .sbss          0x00850c18        0xc /OPT/altera/12.1/nios2eds/bin/gnu/H-i686-pc-linux-gnu/bin/../lib/gcc/nios2-elf/4.1.2/../../../../nios2-elf/lib/libc.a(lib_a-mallocr.o)
                0x00850c18                __malloc_top_pad
                0x00850c1c                __malloc_max_sbrked_mem
                0x00850c20                __malloc_max_total_mem
 .sbss          0x00850c24        0xc /OPT/altera/12.1/nios2eds/bin/gnu/H-i686-pc-linux-gnu/bin/../lib/gcc/nios2-elf/4.1.2/../../../../nios2-elf/lib/libc.a(lib_a-locale.o)
                0x00850c24                __nlocale_changed
                0x00850c28                __mlocale_changed
                0x00850c2c                _PathLocale
 .sbss          0x00850c30        0x4 ../Webserver_bsp//libucosii_bsp.a(alt_irq_vars.o)
                0x00850c30                alt_irq_active
 .sbss          0x00850c34        0xc ../Webserver_bsp//libucosii_bsp.a(alt_main.o)
                0x00850c34                alt_argc
                0x00850c38                alt_argv
                0x00850c3c                alt_envp
 .sbss          0x00850c40        0x8 ../Webserver_bsp//libucosii_bsp.a(alt_tick.o)
                0x00850c40                _alt_tick_rate
                0x00850c44                _alt_nticks
 .sbss          0x00850c48        0x8 ../Webserver_bsp//libucosii_bsp.a(alt_env_lock.o)
                0x00850c4c                alt_envsem
 .sbss          0x00850c50        0x8 ../Webserver_bsp//libucosii_bsp.a(alt_malloc_lock.o)
                0x00850c54                alt_heapsem
 .sbss          0x00850c58       0x50 ../Webserver_bsp//libucosii_bsp.a(os_core.o)
                0x00850c58                OSLockNesting
                0x00850c59                OSRunning
                0x00850c5c                OSIdleCtr
                0x00850c60                OSPrioHighRdy
                0x00850c61                OSPrioCur
                0x00850c64                OSTCBList
                0x00850c68                OSTickStepState
                0x00850c6c                OSCtxSwCtr
                0x00850c70                OSIdleCtrMax
                0x00850c74                OSTCBFreeList
                0x00850c78                OSCPUUsage
                0x00850c79                OSTaskCtr
                0x00850c7c                OSMemFreeList
                0x00850c80                OSTCBHighRdy
                0x00850c84                OSQFreeList
                0x00850c88                OSRdyGrp
                0x00850c89                OSRdyTbl
                0x00850c8c                OSEventFreeList
                0x00850c90                OSIntNesting
                0x00850c94                OSTCBCur
                0x00850c98                OSTime
                0x00850c9c                OSFlagFreeList
                0x00850ca0                OSStatRdy
                0x00850ca4                OSIdleCtrRun
 .sbss          0x00850ca8        0xc ../Webserver_bsp//libucosii_bsp.a(ipnet.o)
                0x00850ca8                MaxLnh
                0x00850cac                MaxMtu
                0x00850cb0                NDEBUG
 .sbss          0x00850cb4        0x8 ../Webserver_bsp//libucosii_bsp.a(ipstart.o)
                0x00850cb4                ifNumber
 .sbss          0x00850cbc       0x10 ../Webserver_bsp//libucosii_bsp.a(igmp_cmn.o)
                0x00850cbc                igmp_timers_are_running
                0x00850cc0                igmp_cticks
                0x00850cc4                igmp_all_hosts_group
                0x00850cc8                igmp_all_rtrs_group
 .sbss          0x00850ccc        0xe ../Webserver_bsp//libucosii_bsp.a(netmain.o)
                0x00850ccc                netmain_wakes
                0x00850cd0                nettick_wakes
                0x00850cd4                iniche_net_ready
                0x00850cd8                to_netmain
                0x00850cd9                to_nettick
 *fill*         0x00850cda        0x2 00
 .sbss          0x00850cdc        0x4 ../Webserver_bsp//libucosii_bsp.a(tk_crnos.o)
                0x00850cdc                tcp_sleep_timeout
 .sbss          0x00850ce0       0x34 ../Webserver_bsp//libucosii_bsp.a(dhcpclnt.o)
                0x00850ce0                dhc_conn
                0x00850ce4                dsc_errors
                0x00850ce8                dsc_discovers
                0x00850cec                dsc_offers
                0x00850cf0                dsc_requests
                0x00850cf4                dsc_acks
                0x00850cf8                dsc_bpreplys
                0x00850cfc                dsc_declines
                0x00850d00                dsc_releases
                0x00850d04                dsc_naks
                0x00850d08                dsc_renew
                0x00850d0c                dsc_rebind
                0x00850d10                dsc_rlyerrs
 .sbss          0x00850d14        0x4 ../Webserver_bsp//libucosii_bsp.a(udp_open.o)
                0x00850d14                firstudp
 .sbss          0x00850d18       0x18 ../Webserver_bsp//libucosii_bsp.a(brdutils.o)
                0x00850d1c                cticks_initialized
                0x00850d20                irq_level
                0x00850d28                cticks_factor
                0x00850d2c                OS_TPS
 .sbss          0x00850d30       0x18 ../Webserver_bsp//libucosii_bsp.a(osportco.o)
                0x00850d30                tcp_sleep_count
                0x00850d34                tcp_wakeup_count
                0x00850d38                netq_intmask
                0x00850d3c                old_mode
                0x00850d40                global_TCPwakeup_setIndx
                0x00850d44                cticks
 .sbss          0x00850d48        0xc ../Webserver_bsp//libucosii_bsp.a(targnios.o)
                0x00850d48                memtrapsize
                0x00850d4c                mheap_sem_ptr
                0x00850d50                rcvdq_sem_ptr
 .sbss          0x00850d54       0x12 ../Webserver_bsp//libucosii_bsp.a(nptcp.o)
                0x00850d54                nextslow
                0x00850d5c                mbstat
                0x00850d64                select_wait
 *fill*         0x00850d66        0x2 00
 .sbss          0x00850d68        0x8 ../Webserver_bsp//libucosii_bsp.a(tcp_in.o)
                0x00850d68                tcpprintfs
                0x00850d6c                dropline
 .sbss          0x00850d70        0x4 ../Webserver_bsp//libucosii_bsp.a(tcp_out.o)
                0x00850d70                tcp_optionbuf
 .sbss          0x00850d74        0x8 ../Webserver_bsp//libucosii_bsp.a(tcp_timr.o)
                0x00850d74                tcp_maxidle
                0x00850d78                tcp_iss
 .sbss          0x00850d7c        0x4 ../Webserver_bsp//libucosii_bsp.a(alt_dev.o)
                0x00850d7c                alt_fd_list_lock
 .sbss          0x00850d80        0x8 ../Webserver_bsp//libucosii_bsp.a(allports.o)
                0x00850d80                activehost
 .sbss          0x00850d88        0xc ../Webserver_bsp//libucosii_bsp.a(timeouts.o)
                0x00850d88                nextppp
                0x00850d8c                port_1s_callout
 .sbss          0x00850d94       0x1c ../Webserver_bsp//libucosii_bsp.a(et_arp.o)
                0x00850d98                arpcache
                0x00850d9c                arpReqsIn
                0x00850da0                arpReqsOut
                0x00850da4                arpRepsIn
                0x00850da8                arpRepsOut
 .sbss          0x00850db0        0x4 ../Webserver_bsp//libucosii_bsp.a(ip.o)
                0x00850db0                rt_mib
 .sbss          0x00850db4        0xc ../Webserver_bsp//libucosii_bsp.a(ip_reasm.o)
                0x00850db4                ipr_curr_mem
                0x00850db8                h_ireq
                0x00850dbc                ire_cticks
 .sbss          0x00850dc0       0x11 ../Webserver_bsp//libucosii_bsp.a(ipport.o)
                0x00850dc0                port_prep
                0x00850dc4                net_system_exit
                0x00850dc8                so_evtmap_create
                0x00850dcc                so_evtmap_delete
                0x00850dd0                so_evtmap
 *fill*         0x00850dd1        0x3 00
 .sbss          0x00850dd4        0x4 ../Webserver_bsp//libucosii_bsp.a(ipraw.o)
                0x00850dd4                ipraw_eps
 .sbss          0x00850dd8        0x4 ../Webserver_bsp//libucosii_bsp.a(iproute.o)
                0x00850dd8                cachedRoute
 .sbss          0x00850ddc        0x2 ../Webserver_bsp//libucosii_bsp.a(udp.o)
 *fill*         0x00850dde        0x2 00
 .sbss          0x00850de0        0x8 ../Webserver_bsp//libucosii_bsp.a(in_pcb.o)
                0x00850de0                inpcb_cachehits
                0x00850de4                inpcb_cachemiss
 .sbss          0x00850de8       0x20 ../Webserver_bsp//libucosii_bsp.a(vfsfiles.o)
                0x00850de8                vfsystems
                0x00850dec                vfiles
                0x00850df0                vfsfiles
                0x00850df4                vfopen_error
                0x00850df8                vfs_dir_stale
                0x00850dfc                vfs_open_files
                0x00850e00                vfs_total_rw_space
                0x00850e04                vfs_total_dyna_files
 .sbss          0x00850e08        0x4 ../Webserver_bsp//libucosii_bsp.a(icmp.o)
                0x00850e08                icmpdu_hook
 *(.sbss2 .sbss2.* .gnu.linkonce.sb2.*)
 *(.scommon)
                0x00850e0c                PROVIDE (__sbss_end, ABSOLUTE (.))
                0x00850e0c                PROVIDE (___sbss_end, ABSOLUTE (.))
 *(.dynbss)
 *(.bss .bss.* .gnu.linkonce.b.*)
 .bss           0x00850e0c        0x0 ../Webserver_bsp//obj/HAL/src/crt0.o
 .bss           0x00850e0c        0x0 obj/default/alt_error_handler.o
 .bss           0x00850e0c        0x0 obj/default/dm9000a.o
 .bss           0x00850e0c    0x19620 obj/default/http.o
 .bss           0x0086a42c        0x0 obj/default/network_utilities.o
 .bss           0x0086a42c        0x0 obj/default/srec_flash.o
 .bss           0x0086a42c        0x0 obj/default/web_server.o
 .bss           0x0086a42c        0x0 /OPT/altera/12.1/nios2eds/bin/gnu/H-i686-pc-linux-gnu/bin/../lib/gcc/nios2-elf/4.1.2/libgcc.a(lib2-divmod.o)
 .bss           0x0086a42c        0x0 /OPT/altera/12.1/nios2eds/bin/gnu/H-i686-pc-linux-gnu/bin/../lib/gcc/nios2-elf/4.1.2/../../../../nios2-elf/lib/libc.a(lib_a-atoi.o)
 .bss           0x0086a42c        0x0 /OPT/altera/12.1/nios2eds/bin/gnu/H-i686-pc-linux-gnu/bin/../lib/gcc/nios2-elf/4.1.2/../../../../nios2-elf/lib/libc.a(lib_a-ctype_.o)
 .bss           0x0086a42c        0x0 /OPT/altera/12.1/nios2eds/bin/gnu/H-i686-pc-linux-gnu/bin/../lib/gcc/nios2-elf/4.1.2/../../../../nios2-elf/lib/libc.a(lib_a-fclose.o)
 .bss           0x0086a42c        0x0 /OPT/altera/12.1/nios2eds/bin/gnu/H-i686-pc-linux-gnu/bin/../lib/gcc/nios2-elf/4.1.2/../../../../nios2-elf/lib/libc.a(lib_a-fflush.o)
 .bss           0x0086a42c        0x0 /OPT/altera/12.1/nios2eds/bin/gnu/H-i686-pc-linux-gnu/bin/../lib/gcc/nios2-elf/4.1.2/../../../../nios2-elf/lib/libc.a(lib_a-fgetpos.o)
 .bss           0x0086a42c        0x0 /OPT/altera/12.1/nios2eds/bin/gnu/H-i686-pc-linux-gnu/bin/../lib/gcc/nios2-elf/4.1.2/../../../../nios2-elf/lib/libc.a(lib_a-findfp.o)
 .bss           0x0086a42c        0x0 /OPT/altera/12.1/nios2eds/bin/gnu/H-i686-pc-linux-gnu/bin/../lib/gcc/nios2-elf/4.1.2/../../../../nios2-elf/lib/libc.a(lib_a-fopen.o)
 .bss           0x0086a42c        0x0 /OPT/altera/12.1/nios2eds/bin/gnu/H-i686-pc-linux-gnu/bin/../lib/gcc/nios2-elf/4.1.2/../../../../nios2-elf/lib/libc.a(lib_a-fprintf.o)
 .bss           0x0086a42c        0x0 /OPT/altera/12.1/nios2eds/bin/gnu/H-i686-pc-linux-gnu/bin/../lib/gcc/nios2-elf/4.1.2/../../../../nios2-elf/lib/libc.a(lib_a-fread.o)
 .bss           0x0086a42c        0x0 /OPT/altera/12.1/nios2eds/bin/gnu/H-i686-pc-linux-gnu/bin/../lib/gcc/nios2-elf/4.1.2/../../../../nios2-elf/lib/libc.a(lib_a-freer.o)
 .bss           0x0086a42c        0x0 /OPT/altera/12.1/nios2eds/bin/gnu/H-i686-pc-linux-gnu/bin/../lib/gcc/nios2-elf/4.1.2/../../../../nios2-elf/lib/libc.a(lib_a-fseek.o)
 .bss           0x0086a42c        0x0 /OPT/altera/12.1/nios2eds/bin/gnu/H-i686-pc-linux-gnu/bin/../lib/gcc/nios2-elf/4.1.2/../../../../nios2-elf/lib/libc.a(lib_a-fstatr.o)
 .bss           0x0086a42c        0x0 /OPT/altera/12.1/nios2eds/bin/gnu/H-i686-pc-linux-gnu/bin/../lib/gcc/nios2-elf/4.1.2/../../../../nios2-elf/lib/libc.a(lib_a-ftell.o)
 .bss           0x0086a42c        0x0 /OPT/altera/12.1/nios2eds/bin/gnu/H-i686-pc-linux-gnu/bin/../lib/gcc/nios2-elf/4.1.2/../../../../nios2-elf/lib/libc.a(lib_a-fwalk.o)
 .bss           0x0086a42c        0x0 /OPT/altera/12.1/nios2eds/bin/gnu/H-i686-pc-linux-gnu/bin/../lib/gcc/nios2-elf/4.1.2/../../../../nios2-elf/lib/libc.a(lib_a-fwrite.o)
 .bss           0x0086a42c        0x0 /OPT/altera/12.1/nios2eds/bin/gnu/H-i686-pc-linux-gnu/bin/../lib/gcc/nios2-elf/4.1.2/../../../../nios2-elf/lib/libc.a(lib_a-impure.o)
 .bss           0x0086a42c        0x0 /OPT/altera/12.1/nios2eds/bin/gnu/H-i686-pc-linux-gnu/bin/../lib/gcc/nios2-elf/4.1.2/../../../../nios2-elf/lib/libc.a(lib_a-int_errno.o)
 .bss           0x0086a42c        0x0 /OPT/altera/12.1/nios2eds/bin/gnu/H-i686-pc-linux-gnu/bin/../lib/gcc/nios2-elf/4.1.2/../../../../nios2-elf/lib/libc.a(lib_a-makebuf.o)
 .bss           0x0086a42c       0x28 /OPT/altera/12.1/nios2eds/bin/gnu/H-i686-pc-linux-gnu/bin/../lib/gcc/nios2-elf/4.1.2/../../../../nios2-elf/lib/libc.a(lib_a-mallocr.o)
                0x0086a42c                __malloc_current_mallinfo
 .bss           0x0086a454        0x0 /OPT/altera/12.1/nios2eds/bin/gnu/H-i686-pc-linux-gnu/bin/../lib/gcc/nios2-elf/4.1.2/../../../../nios2-elf/lib/libc.a(lib_a-memcpy.o)
 .bss           0x0086a454        0x0 /OPT/altera/12.1/nios2eds/bin/gnu/H-i686-pc-linux-gnu/bin/../lib/gcc/nios2-elf/4.1.2/../../../../nios2-elf/lib/libc.a(lib_a-memmove.o)
 .bss           0x0086a454        0x0 /OPT/altera/12.1/nios2eds/bin/gnu/H-i686-pc-linux-gnu/bin/../lib/gcc/nios2-elf/4.1.2/../../../../nios2-elf/lib/libc.a(lib_a-memset.o)
 .bss           0x0086a454        0x0 /OPT/altera/12.1/nios2eds/bin/gnu/H-i686-pc-linux-gnu/bin/../lib/gcc/nios2-elf/4.1.2/../../../../nios2-elf/lib/libc.a(lib_a-openr.o)
 .bss           0x0086a454        0x0 /OPT/altera/12.1/nios2eds/bin/gnu/H-i686-pc-linux-gnu/bin/../lib/gcc/nios2-elf/4.1.2/../../../../nios2-elf/lib/libc.a(lib_a-perror.o)
 .bss           0x0086a454        0x0 /OPT/altera/12.1/nios2eds/bin/gnu/H-i686-pc-linux-gnu/bin/../lib/gcc/nios2-elf/4.1.2/../../../../nios2-elf/lib/libc.a(lib_a-printf.o)
 .bss           0x0086a454        0x0 /OPT/altera/12.1/nios2eds/bin/gnu/H-i686-pc-linux-gnu/bin/../lib/gcc/nios2-elf/4.1.2/../../../../nios2-elf/lib/libc.a(lib_a-puts.o)
 .bss           0x0086a454        0x0 /OPT/altera/12.1/nios2eds/bin/gnu/H-i686-pc-linux-gnu/bin/../lib/gcc/nios2-elf/4.1.2/../../../../nios2-elf/lib/libc.a(lib_a-refill.o)
 .bss           0x0086a454        0x0 /OPT/altera/12.1/nios2eds/bin/gnu/H-i686-pc-linux-gnu/bin/../lib/gcc/nios2-elf/4.1.2/../../../../nios2-elf/lib/libc.a(lib_a-sbrkr.o)
 .bss           0x0086a454        0x0 /OPT/altera/12.1/nios2eds/bin/gnu/H-i686-pc-linux-gnu/bin/../lib/gcc/nios2-elf/4.1.2/../../../../nios2-elf/lib/libc.a(lib_a-snprintf.o)
 .bss           0x0086a454        0x0 /OPT/altera/12.1/nios2eds/bin/gnu/H-i686-pc-linux-gnu/bin/../lib/gcc/nios2-elf/4.1.2/../../../../nios2-elf/lib/libc.a(lib_a-sprintf.o)
 .bss           0x0086a454        0x0 /OPT/altera/12.1/nios2eds/bin/gnu/H-i686-pc-linux-gnu/bin/../lib/gcc/nios2-elf/4.1.2/../../../../nios2-elf/lib/libc.a(lib_a-sscanf.o)
 .bss           0x0086a454        0x0 /OPT/altera/12.1/nios2eds/bin/gnu/H-i686-pc-linux-gnu/bin/../lib/gcc/nios2-elf/4.1.2/../../../../nios2-elf/lib/libc.a(lib_a-stdio.o)
 .bss           0x0086a454        0x0 /OPT/altera/12.1/nios2eds/bin/gnu/H-i686-pc-linux-gnu/bin/../lib/gcc/nios2-elf/4.1.2/../../../../nios2-elf/lib/libc.a(lib_a-strcasecmp.o)
 .bss           0x0086a454        0x0 /OPT/altera/12.1/nios2eds/bin/gnu/H-i686-pc-linux-gnu/bin/../lib/gcc/nios2-elf/4.1.2/../../../../nios2-elf/lib/libc.a(lib_a-strcat.o)
 .bss           0x0086a454        0x0 /OPT/altera/12.1/nios2eds/bin/gnu/H-i686-pc-linux-gnu/bin/../lib/gcc/nios2-elf/4.1.2/../../../../nios2-elf/lib/libc.a(lib_a-strchr.o)
 .bss           0x0086a454        0x0 /OPT/altera/12.1/nios2eds/bin/gnu/H-i686-pc-linux-gnu/bin/../lib/gcc/nios2-elf/4.1.2/../../../../nios2-elf/lib/libc.a(lib_a-strcmp.o)
 .bss           0x0086a454        0x0 /OPT/altera/12.1/nios2eds/bin/gnu/H-i686-pc-linux-gnu/bin/../lib/gcc/nios2-elf/4.1.2/../../../../nios2-elf/lib/libc.a(lib_a-strcpy.o)
 .bss           0x0086a454        0x0 /OPT/altera/12.1/nios2eds/bin/gnu/H-i686-pc-linux-gnu/bin/../lib/gcc/nios2-elf/4.1.2/../../../../nios2-elf/lib/libc.a(lib_a-strerror.o)
 .bss           0x0086a454        0x0 /OPT/altera/12.1/nios2eds/bin/gnu/H-i686-pc-linux-gnu/bin/../lib/gcc/nios2-elf/4.1.2/../../../../nios2-elf/lib/libc.a(lib_a-strlen.o)
 .bss           0x0086a454        0x0 /OPT/altera/12.1/nios2eds/bin/gnu/H-i686-pc-linux-gnu/bin/../lib/gcc/nios2-elf/4.1.2/../../../../nios2-elf/lib/libc.a(lib_a-strncmp.o)
 .bss           0x0086a454        0x0 /OPT/altera/12.1/nios2eds/bin/gnu/H-i686-pc-linux-gnu/bin/../lib/gcc/nios2-elf/4.1.2/../../../../nios2-elf/lib/libc.a(lib_a-strncpy.o)
 .bss           0x0086a454        0x0 /OPT/altera/12.1/nios2eds/bin/gnu/H-i686-pc-linux-gnu/bin/../lib/gcc/nios2-elf/4.1.2/../../../../nios2-elf/lib/libc.a(lib_a-strstr.o)
 .bss           0x0086a454        0x0 /OPT/altera/12.1/nios2eds/bin/gnu/H-i686-pc-linux-gnu/bin/../lib/gcc/nios2-elf/4.1.2/../../../../nios2-elf/lib/libc.a(lib_a-strtok.o)
 .bss           0x0086a454        0x0 /OPT/altera/12.1/nios2eds/bin/gnu/H-i686-pc-linux-gnu/bin/../lib/gcc/nios2-elf/4.1.2/../../../../nios2-elf/lib/libc.a(lib_a-strtok_r.o)
 .bss           0x0086a454        0x0 /OPT/altera/12.1/nios2eds/bin/gnu/H-i686-pc-linux-gnu/bin/../lib/gcc/nios2-elf/4.1.2/../../../../nios2-elf/lib/libc.a(lib_a-strtol.o)
 .bss           0x0086a454        0x0 /OPT/altera/12.1/nios2eds/bin/gnu/H-i686-pc-linux-gnu/bin/../lib/gcc/nios2-elf/4.1.2/../../../../nios2-elf/lib/libc.a(lib_a-u_strerr.o)
 .bss           0x0086a454        0x0 /OPT/altera/12.1/nios2eds/bin/gnu/H-i686-pc-linux-gnu/bin/../lib/gcc/nios2-elf/4.1.2/../../../../nios2-elf/lib/libc.a(lib_a-vfprintf.o)
 .bss           0x0086a454        0x0 /OPT/altera/12.1/nios2eds/bin/gnu/H-i686-pc-linux-gnu/bin/../lib/gcc/nios2-elf/4.1.2/../../../../nios2-elf/lib/libc.a(lib_a-vfscanf.o)
 .bss           0x0086a454        0x0 /OPT/altera/12.1/nios2eds/bin/gnu/H-i686-pc-linux-gnu/bin/../lib/gcc/nios2-elf/4.1.2/../../../../nios2-elf/lib/libc.a(lib_a-writer.o)
 .bss           0x0086a454        0x0 /OPT/altera/12.1/nios2eds/bin/gnu/H-i686-pc-linux-gnu/bin/../lib/gcc/nios2-elf/4.1.2/../../../../nios2-elf/lib/libc.a(lib_a-wsetup.o)
 .bss           0x0086a454        0x0 /OPT/altera/12.1/nios2eds/bin/gnu/H-i686-pc-linux-gnu/bin/../lib/gcc/nios2-elf/4.1.2/../../../../nios2-elf/lib/libc.a(lib_a-closer.o)
 .bss           0x0086a454        0x0 /OPT/altera/12.1/nios2eds/bin/gnu/H-i686-pc-linux-gnu/bin/../lib/gcc/nios2-elf/4.1.2/../../../../nios2-elf/lib/libc.a(lib_a-dtoa.o)
 .bss           0x0086a454        0x0 /OPT/altera/12.1/nios2eds/bin/gnu/H-i686-pc-linux-gnu/bin/../lib/gcc/nios2-elf/4.1.2/../../../../nios2-elf/lib/libc.a(lib_a-flags.o)
 .bss           0x0086a454        0x0 /OPT/altera/12.1/nios2eds/bin/gnu/H-i686-pc-linux-gnu/bin/../lib/gcc/nios2-elf/4.1.2/../../../../nios2-elf/lib/libc.a(lib_a-fputc.o)
 .bss           0x0086a454        0x0 /OPT/altera/12.1/nios2eds/bin/gnu/H-i686-pc-linux-gnu/bin/../lib/gcc/nios2-elf/4.1.2/../../../../nios2-elf/lib/libc.a(lib_a-fputs.o)
 .bss           0x0086a454        0x0 /OPT/altera/12.1/nios2eds/bin/gnu/H-i686-pc-linux-gnu/bin/../lib/gcc/nios2-elf/4.1.2/../../../../nios2-elf/lib/libc.a(lib_a-fvwrite.o)
 .bss           0x0086a454        0x0 /OPT/altera/12.1/nios2eds/bin/gnu/H-i686-pc-linux-gnu/bin/../lib/gcc/nios2-elf/4.1.2/../../../../nios2-elf/lib/libc.a(lib_a-isattyr.o)
 .bss           0x0086a454        0x0 /OPT/altera/12.1/nios2eds/bin/gnu/H-i686-pc-linux-gnu/bin/../lib/gcc/nios2-elf/4.1.2/../../../../nios2-elf/lib/libc.a(lib_a-iswspace.o)
 .bss           0x0086a454        0x0 /OPT/altera/12.1/nios2eds/bin/gnu/H-i686-pc-linux-gnu/bin/../lib/gcc/nios2-elf/4.1.2/../../../../nios2-elf/lib/libc.a(lib_a-locale.o)
 .bss           0x0086a454        0x0 /OPT/altera/12.1/nios2eds/bin/gnu/H-i686-pc-linux-gnu/bin/../lib/gcc/nios2-elf/4.1.2/../../../../nios2-elf/lib/libc.a(lib_a-lseekr.o)
 .bss           0x0086a454        0x0 /OPT/altera/12.1/nios2eds/bin/gnu/H-i686-pc-linux-gnu/bin/../lib/gcc/nios2-elf/4.1.2/../../../../nios2-elf/lib/libc.a(lib_a-mbrtowc.o)
 .bss           0x0086a454        0x0 /OPT/altera/12.1/nios2eds/bin/gnu/H-i686-pc-linux-gnu/bin/../lib/gcc/nios2-elf/4.1.2/../../../../nios2-elf/lib/libc.a(lib_a-mbtowc_r.o)
 .bss           0x0086a454        0x0 /OPT/altera/12.1/nios2eds/bin/gnu/H-i686-pc-linux-gnu/bin/../lib/gcc/nios2-elf/4.1.2/../../../../nios2-elf/lib/libc.a(lib_a-memchr.o)
 .bss           0x0086a454        0x0 /OPT/altera/12.1/nios2eds/bin/gnu/H-i686-pc-linux-gnu/bin/../lib/gcc/nios2-elf/4.1.2/../../../../nios2-elf/lib/libc.a(lib_a-memcmp.o)
 .bss           0x0086a454        0x0 /OPT/altera/12.1/nios2eds/bin/gnu/H-i686-pc-linux-gnu/bin/../lib/gcc/nios2-elf/4.1.2/../../../../nios2-elf/lib/libc.a(lib_a-mprec.o)
 .bss           0x0086a454        0x0 /OPT/altera/12.1/nios2eds/bin/gnu/H-i686-pc-linux-gnu/bin/../lib/gcc/nios2-elf/4.1.2/../../../../nios2-elf/lib/libc.a(lib_a-putc.o)
 .bss           0x0086a454        0x0 /OPT/altera/12.1/nios2eds/bin/gnu/H-i686-pc-linux-gnu/bin/../lib/gcc/nios2-elf/4.1.2/../../../../nios2-elf/lib/libc.a(lib_a-readr.o)
 .bss           0x0086a454        0x0 /OPT/altera/12.1/nios2eds/bin/gnu/H-i686-pc-linux-gnu/bin/../lib/gcc/nios2-elf/4.1.2/../../../../nios2-elf/lib/libc.a(lib_a-reallocr.o)
 .bss           0x0086a454        0x0 /OPT/altera/12.1/nios2eds/bin/gnu/H-i686-pc-linux-gnu/bin/../lib/gcc/nios2-elf/4.1.2/../../../../nios2-elf/lib/libc.a(lib_a-s_isinfd.o)
 .bss           0x0086a454        0x0 /OPT/altera/12.1/nios2eds/bin/gnu/H-i686-pc-linux-gnu/bin/../lib/gcc/nios2-elf/4.1.2/../../../../nios2-elf/lib/libc.a(lib_a-s_isnand.o)
 .bss           0x0086a454        0x0 /OPT/altera/12.1/nios2eds/bin/gnu/H-i686-pc-linux-gnu/bin/../lib/gcc/nios2-elf/4.1.2/../../../../nios2-elf/lib/libc.a(lib_a-sccl.o)
 .bss           0x0086a454        0x0 /OPT/altera/12.1/nios2eds/bin/gnu/H-i686-pc-linux-gnu/bin/../lib/gcc/nios2-elf/4.1.2/../../../../nios2-elf/lib/libc.a(lib_a-sf_nan.o)
 .bss           0x0086a454        0x0 /OPT/altera/12.1/nios2eds/bin/gnu/H-i686-pc-linux-gnu/bin/../lib/gcc/nios2-elf/4.1.2/../../../../nios2-elf/lib/libc.a(lib_a-strtod.o)
 .bss           0x0086a454        0x0 /OPT/altera/12.1/nios2eds/bin/gnu/H-i686-pc-linux-gnu/bin/../lib/gcc/nios2-elf/4.1.2/../../../../nios2-elf/lib/libc.a(lib_a-strtoll_r.o)
 .bss           0x0086a454        0x0 /OPT/altera/12.1/nios2eds/bin/gnu/H-i686-pc-linux-gnu/bin/../lib/gcc/nios2-elf/4.1.2/../../../../nios2-elf/lib/libc.a(lib_a-strtoul.o)
 .bss           0x0086a454        0x0 /OPT/altera/12.1/nios2eds/bin/gnu/H-i686-pc-linux-gnu/bin/../lib/gcc/nios2-elf/4.1.2/../../../../nios2-elf/lib/libc.a(lib_a-strtoull_r.o)
 .bss           0x0086a454        0x0 /OPT/altera/12.1/nios2eds/bin/gnu/H-i686-pc-linux-gnu/bin/../lib/gcc/nios2-elf/4.1.2/../../../../nios2-elf/lib/libc.a(lib_a-ungetc.o)
 .bss           0x0086a454        0x0 /OPT/altera/12.1/nios2eds/bin/gnu/H-i686-pc-linux-gnu/bin/../lib/gcc/nios2-elf/4.1.2/../../../../nios2-elf/lib/libc.a(lib_a-wbuf.o)
 .bss           0x0086a454        0x0 /OPT/altera/12.1/nios2eds/bin/gnu/H-i686-pc-linux-gnu/bin/../lib/gcc/nios2-elf/4.1.2/../../../../nios2-elf/lib/libc.a(lib_a-callocr.o)
 .bss           0x0086a454        0x0 /OPT/altera/12.1/nios2eds/bin/gnu/H-i686-pc-linux-gnu/bin/../lib/gcc/nios2-elf/4.1.2/../../../../nios2-elf/lib/libc.a(lib_a-gdtoa-gethex.o)
 .bss           0x0086a454        0x0 /OPT/altera/12.1/nios2eds/bin/gnu/H-i686-pc-linux-gnu/bin/../lib/gcc/nios2-elf/4.1.2/../../../../nios2-elf/lib/libc.a(lib_a-gdtoa-hexnan.o)
 .bss           0x0086a454        0x0 /OPT/altera/12.1/nios2eds/bin/gnu/H-i686-pc-linux-gnu/bin/../lib/gcc/nios2-elf/4.1.2/libgcc.a(_muldi3.o)
 .bss           0x0086a454        0x0 /OPT/altera/12.1/nios2eds/bin/gnu/H-i686-pc-linux-gnu/bin/../lib/gcc/nios2-elf/4.1.2/libgcc.a(_fixunsdfsi.o)
 .bss           0x0086a454        0x0 /OPT/altera/12.1/nios2eds/bin/gnu/H-i686-pc-linux-gnu/bin/../lib/gcc/nios2-elf/4.1.2/libgcc.a(_udivdi3.o)
 .bss           0x0086a454        0x0 /OPT/altera/12.1/nios2eds/bin/gnu/H-i686-pc-linux-gnu/bin/../lib/gcc/nios2-elf/4.1.2/libgcc.a(_umoddi3.o)
 .bss           0x0086a454        0x0 /OPT/altera/12.1/nios2eds/bin/gnu/H-i686-pc-linux-gnu/bin/../lib/gcc/nios2-elf/4.1.2/libgcc.a(_ne_sf.o)
 .bss           0x0086a454        0x0 /OPT/altera/12.1/nios2eds/bin/gnu/H-i686-pc-linux-gnu/bin/../lib/gcc/nios2-elf/4.1.2/libgcc.a(_gt_sf.o)
 .bss           0x0086a454        0x0 /OPT/altera/12.1/nios2eds/bin/gnu/H-i686-pc-linux-gnu/bin/../lib/gcc/nios2-elf/4.1.2/libgcc.a(_lt_sf.o)
 .bss           0x0086a454        0x0 /OPT/altera/12.1/nios2eds/bin/gnu/H-i686-pc-linux-gnu/bin/../lib/gcc/nios2-elf/4.1.2/libgcc.a(_addsub_df.o)
 .bss           0x0086a454        0x0 /OPT/altera/12.1/nios2eds/bin/gnu/H-i686-pc-linux-gnu/bin/../lib/gcc/nios2-elf/4.1.2/libgcc.a(_mul_df.o)
 .bss           0x0086a454        0x0 /OPT/altera/12.1/nios2eds/bin/gnu/H-i686-pc-linux-gnu/bin/../lib/gcc/nios2-elf/4.1.2/libgcc.a(_div_df.o)
 .bss           0x0086a454        0x0 /OPT/altera/12.1/nios2eds/bin/gnu/H-i686-pc-linux-gnu/bin/../lib/gcc/nios2-elf/4.1.2/libgcc.a(_eq_df.o)
 .bss           0x0086a454        0x0 /OPT/altera/12.1/nios2eds/bin/gnu/H-i686-pc-linux-gnu/bin/../lib/gcc/nios2-elf/4.1.2/libgcc.a(_ne_df.o)
 .bss           0x0086a454        0x0 /OPT/altera/12.1/nios2eds/bin/gnu/H-i686-pc-linux-gnu/bin/../lib/gcc/nios2-elf/4.1.2/libgcc.a(_gt_df.o)
 .bss           0x0086a454        0x0 /OPT/altera/12.1/nios2eds/bin/gnu/H-i686-pc-linux-gnu/bin/../lib/gcc/nios2-elf/4.1.2/libgcc.a(_ge_df.o)
 .bss           0x0086a454        0x0 /OPT/altera/12.1/nios2eds/bin/gnu/H-i686-pc-linux-gnu/bin/../lib/gcc/nios2-elf/4.1.2/libgcc.a(_lt_df.o)
 .bss           0x0086a454        0x0 /OPT/altera/12.1/nios2eds/bin/gnu/H-i686-pc-linux-gnu/bin/../lib/gcc/nios2-elf/4.1.2/libgcc.a(_le_df.o)
 .bss           0x0086a454        0x0 /OPT/altera/12.1/nios2eds/bin/gnu/H-i686-pc-linux-gnu/bin/../lib/gcc/nios2-elf/4.1.2/libgcc.a(_si_to_df.o)
 .bss           0x0086a454        0x0 /OPT/altera/12.1/nios2eds/bin/gnu/H-i686-pc-linux-gnu/bin/../lib/gcc/nios2-elf/4.1.2/libgcc.a(_df_to_si.o)
 .bss           0x0086a454        0x0 /OPT/altera/12.1/nios2eds/bin/gnu/H-i686-pc-linux-gnu/bin/../lib/gcc/nios2-elf/4.1.2/libgcc.a(_df_to_sf.o)
 .bss           0x0086a454        0x0 /OPT/altera/12.1/nios2eds/bin/gnu/H-i686-pc-linux-gnu/bin/../lib/gcc/nios2-elf/4.1.2/libgcc.a(_thenan_df.o)
 .bss           0x0086a454        0x0 /OPT/altera/12.1/nios2eds/bin/gnu/H-i686-pc-linux-gnu/bin/../lib/gcc/nios2-elf/4.1.2/libgcc.a(_usi_to_df.o)
 .bss           0x0086a454        0x0 /OPT/altera/12.1/nios2eds/bin/gnu/H-i686-pc-linux-gnu/bin/../lib/gcc/nios2-elf/4.1.2/libgcc.a(_clz.o)
 .bss           0x0086a454        0x0 /OPT/altera/12.1/nios2eds/bin/gnu/H-i686-pc-linux-gnu/bin/../lib/gcc/nios2-elf/4.1.2/libgcc.a(_clzsi2.o)
 .bss           0x0086a454        0x0 /OPT/altera/12.1/nios2eds/bin/gnu/H-i686-pc-linux-gnu/bin/../lib/gcc/nios2-elf/4.1.2/libgcc.a(_unpack_sf.o)
 .bss           0x0086a454        0x0 /OPT/altera/12.1/nios2eds/bin/gnu/H-i686-pc-linux-gnu/bin/../lib/gcc/nios2-elf/4.1.2/libgcc.a(_fpcmp_parts_sf.o)
 .bss           0x0086a454        0x0 /OPT/altera/12.1/nios2eds/bin/gnu/H-i686-pc-linux-gnu/bin/../lib/gcc/nios2-elf/4.1.2/libgcc.a(_make_sf.o)
 .bss           0x0086a454        0x0 /OPT/altera/12.1/nios2eds/bin/gnu/H-i686-pc-linux-gnu/bin/../lib/gcc/nios2-elf/4.1.2/libgcc.a(_pack_df.o)
 .bss           0x0086a454        0x0 /OPT/altera/12.1/nios2eds/bin/gnu/H-i686-pc-linux-gnu/bin/../lib/gcc/nios2-elf/4.1.2/libgcc.a(_unpack_df.o)
 .bss           0x0086a454        0x0 /OPT/altera/12.1/nios2eds/bin/gnu/H-i686-pc-linux-gnu/bin/../lib/gcc/nios2-elf/4.1.2/libgcc.a(_fpcmp_parts_df.o)
 .bss           0x0086a454        0x0 /OPT/altera/12.1/nios2eds/bin/gnu/H-i686-pc-linux-gnu/bin/../lib/gcc/nios2-elf/4.1.2/libgcc.a(_pack_sf.o)
 .bss           0x0086a454        0x0 ../Webserver_bsp//libucosii_bsp.a(alt_dcache_flush.o)
 .bss           0x0086a454        0x0 ../Webserver_bsp//libucosii_bsp.a(alt_flash_dev.o)
 .bss           0x0086a454        0x0 ../Webserver_bsp//libucosii_bsp.a(alt_fstat.o)
 .bss           0x0086a454        0x0 ../Webserver_bsp//libucosii_bsp.a(alt_irq_register.o)
 .bss           0x0086a454        0x0 ../Webserver_bsp//libucosii_bsp.a(alt_irq_vars.o)
 .bss           0x0086a454        0x0 ../Webserver_bsp//libucosii_bsp.a(alt_isatty.o)
 .bss           0x0086a454        0x0 ../Webserver_bsp//libucosii_bsp.a(alt_lseek.o)
 .bss           0x0086a454        0x0 ../Webserver_bsp//libucosii_bsp.a(alt_main.o)
 .bss           0x0086a454        0x0 ../Webserver_bsp//libucosii_bsp.a(alt_open.o)
 .bss           0x0086a454        0x0 ../Webserver_bsp//libucosii_bsp.a(alt_release_fd.o)
 .bss           0x0086a454        0x0 ../Webserver_bsp//libucosii_bsp.a(alt_sbrk.o)
 .bss           0x0086a454        0x0 ../Webserver_bsp//libucosii_bsp.a(alt_tick.o)
 .bss           0x0086a454        0x0 ../Webserver_bsp//libucosii_bsp.a(alt_usleep.o)
 .bss           0x0086a454        0x0 ../Webserver_bsp//libucosii_bsp.a(alt_env_lock.o)
 .bss           0x0086a454        0x0 ../Webserver_bsp//libucosii_bsp.a(alt_malloc_lock.o)
 .bss           0x0086a454        0x0 ../Webserver_bsp//libucosii_bsp.a(os_core.o)
 .bss           0x0086a454        0x0 ../Webserver_bsp//libucosii_bsp.a(os_dbg.o)
 .bss           0x0086a454        0x0 ../Webserver_bsp//libucosii_bsp.a(os_flag.o)
 .bss           0x0086a454        0x0 ../Webserver_bsp//libucosii_bsp.a(os_mbox.o)
 .bss           0x0086a454        0x0 ../Webserver_bsp//libucosii_bsp.a(os_mem.o)
 .bss           0x0086a454        0x0 ../Webserver_bsp//libucosii_bsp.a(os_q.o)
 .bss           0x0086a454        0x0 ../Webserver_bsp//libucosii_bsp.a(os_sem.o)
 .bss           0x0086a454        0x0 ../Webserver_bsp//libucosii_bsp.a(os_task.o)
 .bss           0x0086a454        0x0 ../Webserver_bsp//libucosii_bsp.a(os_time.o)
 .bss           0x0086a454        0x0 ../Webserver_bsp//libucosii_bsp.a(alt_sys_init.o)
 .bss           0x0086a454        0x0 ../Webserver_bsp//libucosii_bsp.a(altera_avalon_jtag_uart_fd.o)
 .bss           0x0086a454        0x0 ../Webserver_bsp//libucosii_bsp.a(altera_avalon_jtag_uart_init.o)
 .bss           0x0086a454        0x0 ../Webserver_bsp//libucosii_bsp.a(altera_avalon_jtag_uart_ioctl.o)
 .bss           0x0086a454        0x0 ../Webserver_bsp//libucosii_bsp.a(altera_avalon_jtag_uart_read.o)
 .bss           0x0086a454        0x0 ../Webserver_bsp//libucosii_bsp.a(altera_avalon_jtag_uart_write.o)
 .bss           0x0086a454        0x0 ../Webserver_bsp//libucosii_bsp.a(altera_avalon_timer_sc.o)
 .bss           0x0086a454        0x0 ../Webserver_bsp//libucosii_bsp.a(altera_ro_zipfs.o)
 .bss           0x0086a454        0x0 ../Webserver_bsp//libucosii_bsp.a(altera_up_avalon_character_lcd.o)
 .bss           0x0086a454        0x0 ../Webserver_bsp//libucosii_bsp.a(alt_iniche_close.o)
 .bss           0x0086a454        0x0 ../Webserver_bsp//libucosii_bsp.a(alt_iniche_dev.o)
 .bss           0x0086a454        0x0 ../Webserver_bsp//libucosii_bsp.a(alt_iniche_read.o)
 .bss           0x0086a454        0x0 ../Webserver_bsp//libucosii_bsp.a(alt_iniche_write.o)
 .bss           0x0086a454        0x0 ../Webserver_bsp//libucosii_bsp.a(ipnet.o)
 .bss           0x0086a454       0x3c ../Webserver_bsp//libucosii_bsp.a(ipstart.o)
 .bss           0x0086a490        0x0 ../Webserver_bsp//libucosii_bsp.a(igmp_cmn.o)
 .bss           0x0086a490        0x0 ../Webserver_bsp//libucosii_bsp.a(bsdsock.o)
 .bss           0x0086a490        0x0 ../Webserver_bsp//libucosii_bsp.a(cksum.o)
 .bss           0x0086a490       0x18 ../Webserver_bsp//libucosii_bsp.a(in_utils.o)
 .bss           0x0086a4a8        0x0 ../Webserver_bsp//libucosii_bsp.a(netmain.o)
 .bss           0x0086a4a8       0x1e ../Webserver_bsp//libucosii_bsp.a(parseip.o)
 .bss           0x0086a4c6        0x0 ../Webserver_bsp//libucosii_bsp.a(tk_crnos.o)
 .bss           0x0086a4c6        0x0 ../Webserver_bsp//libucosii_bsp.a(dhcpclnt.o)
 .bss           0x0086a4c6        0x0 ../Webserver_bsp//libucosii_bsp.a(dhcputil.o)
 .bss           0x0086a4c6        0x0 ../Webserver_bsp//libucosii_bsp.a(pktalloc.o)
 .bss           0x0086a4c6        0x0 ../Webserver_bsp//libucosii_bsp.a(q.o)
 .bss           0x0086a4c6        0x0 ../Webserver_bsp//libucosii_bsp.a(udp_open.o)
 .bss           0x0086a4c6        0x0 ../Webserver_bsp//libucosii_bsp.a(asm_cksum.o)
 .bss           0x0086a4c6        0x0 ../Webserver_bsp//libucosii_bsp.a(brdutils.o)
 .bss           0x0086a4c6        0x0 ../Webserver_bsp//libucosii_bsp.a(osportco.o)
 .bss           0x0086a4c6        0x0 ../Webserver_bsp//libucosii_bsp.a(targnios.o)
 .bss           0x0086a4c6        0x0 ../Webserver_bsp//libucosii_bsp.a(nptcp.o)
 .bss           0x0086a4c6        0x0 ../Webserver_bsp//libucosii_bsp.a(rawsock.o)
 .bss           0x0086a4c6        0x0 ../Webserver_bsp//libucosii_bsp.a(sockcall.o)
 .bss           0x0086a4c6        0x0 ../Webserver_bsp//libucosii_bsp.a(socket.o)
 .bss           0x0086a4c6        0x0 ../Webserver_bsp//libucosii_bsp.a(socket2.o)
 .bss           0x0086a4c6        0x0 ../Webserver_bsp//libucosii_bsp.a(soselect.o)
 .bss           0x0086a4c6        0x0 ../Webserver_bsp//libucosii_bsp.a(tcp_in.o)
 .bss           0x0086a4c6        0x0 ../Webserver_bsp//libucosii_bsp.a(tcp_out.o)
 .bss           0x0086a4c6        0x0 ../Webserver_bsp//libucosii_bsp.a(tcp_subr.o)
 .bss           0x0086a4c6        0x0 ../Webserver_bsp//libucosii_bsp.a(tcp_timr.o)
 .bss           0x0086a4c6        0x0 ../Webserver_bsp//libucosii_bsp.a(tcp_usr.o)
 .bss           0x0086a4c6        0x0 ../Webserver_bsp//libucosii_bsp.a(tcpport.o)
 .bss           0x0086a4c6        0x0 ../Webserver_bsp//libucosii_bsp.a(udpsock.o)
 .bss           0x0086a4c6        0x0 ../Webserver_bsp//libucosii_bsp.a(alt_alarm_start.o)
 .bss           0x0086a4c6        0x0 ../Webserver_bsp//libucosii_bsp.a(alt_busy_sleep.o)
 .bss           0x0086a4c6        0x0 ../Webserver_bsp//libucosii_bsp.a(alt_close.o)
 .bss           0x0086a4c6        0x0 ../Webserver_bsp//libucosii_bsp.a(alt_dev.o)
 .bss           0x0086a4c6        0x0 ../Webserver_bsp//libucosii_bsp.a(alt_dev_llist_insert.o)
 .bss           0x0086a4c6        0x0 ../Webserver_bsp//libucosii_bsp.a(alt_do_ctors.o)
 .bss           0x0086a4c6        0x0 ../Webserver_bsp//libucosii_bsp.a(alt_do_dtors.o)
 .bss           0x0086a4c6        0x0 ../Webserver_bsp//libucosii_bsp.a(alt_errno.o)
 .bss           0x0086a4c6        0x0 ../Webserver_bsp//libucosii_bsp.a(alt_find_dev.o)
 .bss           0x0086a4c6        0x0 ../Webserver_bsp//libucosii_bsp.a(alt_find_file.o)
 .bss           0x0086a4c6        0x0 ../Webserver_bsp//libucosii_bsp.a(alt_fs_reg.o)
 .bss           0x0086a4c6        0x0 ../Webserver_bsp//libucosii_bsp.a(alt_get_fd.o)
 .bss           0x0086a4c6        0x0 ../Webserver_bsp//libucosii_bsp.a(alt_iic.o)
 .bss           0x0086a4c6        0x0 ../Webserver_bsp//libucosii_bsp.a(alt_iic_isr_register.o)
 .bss           0x0086a4c6        0x0 ../Webserver_bsp//libucosii_bsp.a(alt_io_redirect.o)
 .bss           0x0086a4c6        0x0 ../Webserver_bsp//libucosii_bsp.a(alt_irq_entry.o)
 .bss           0x0086a4c6        0x0 ../Webserver_bsp//libucosii_bsp.a(alt_irq_handler.o)
 .bss           0x0086a4c6        0x0 ../Webserver_bsp//libucosii_bsp.a(alt_read.o)
 .bss           0x0086a4c6        0x0 ../Webserver_bsp//libucosii_bsp.a(alt_remap_cached.o)
 .bss           0x0086a4c6        0x0 ../Webserver_bsp//libucosii_bsp.a(alt_remap_uncached.o)
 .bss           0x0086a4c6        0x0 ../Webserver_bsp//libucosii_bsp.a(alt_write.o)
 .bss           0x0086a4c6        0x0 ../Webserver_bsp//libucosii_bsp.a(altera_nios2_qsys_irq.o)
 .bss           0x0086a4c6        0x0 ../Webserver_bsp//libucosii_bsp.a(os_cpu_a.o)
 .bss           0x0086a4c6        0x0 ../Webserver_bsp//libucosii_bsp.a(os_cpu_c.o)
 .bss           0x0086a4c6        0x0 ../Webserver_bsp//libucosii_bsp.a(allports.o)
 .bss           0x0086a4c6        0x0 ../Webserver_bsp//libucosii_bsp.a(timeouts.o)
 .bss           0x0086a4c6        0x0 ../Webserver_bsp//libucosii_bsp.a(tk_misc.o)
 .bss           0x0086a4c6        0x0 ../Webserver_bsp//libucosii_bsp.a(alt_iniche_fcntl.o)
 .bss           0x0086a4c6        0x0 ../Webserver_bsp//libucosii_bsp.a(et_arp.o)
 .bss           0x0086a4c6        0x0 ../Webserver_bsp//libucosii_bsp.a(iface.o)
 .bss           0x0086a4c6        0x0 ../Webserver_bsp//libucosii_bsp.a(ip.o)
 .bss           0x0086a4c6        0x0 ../Webserver_bsp//libucosii_bsp.a(ip_reasm.o)
 .bss           0x0086a4c6        0x0 ../Webserver_bsp//libucosii_bsp.a(ipdemux.o)
 .bss           0x0086a4c6        0x0 ../Webserver_bsp//libucosii_bsp.a(ipmc.o)
 .bss           0x0086a4c6        0x0 ../Webserver_bsp//libucosii_bsp.a(ipport.o)
 .bss           0x0086a4c6        0x0 ../Webserver_bsp//libucosii_bsp.a(ipraw.o)
 .bss           0x0086a4c6        0x0 ../Webserver_bsp//libucosii_bsp.a(iproute.o)
 .bss           0x0086a4c6        0x0 ../Webserver_bsp//libucosii_bsp.a(udp.o)
 .bss           0x0086a4c6        0x0 ../Webserver_bsp//libucosii_bsp.a(igmp.o)
 .bss           0x0086a4c6        0x0 ../Webserver_bsp//libucosii_bsp.a(igmp2.o)
 .bss           0x0086a4c6        0x0 ../Webserver_bsp//libucosii_bsp.a(ipopt.o)
 .bss           0x0086a4c6        0x0 ../Webserver_bsp//libucosii_bsp.a(u_mctest.o)
 .bss           0x0086a4c6        0x0 ../Webserver_bsp//libucosii_bsp.a(dhcsetup.o)
 .bss           0x0086a4c6        0x0 ../Webserver_bsp//libucosii_bsp.a(memdev.o)
 .bss           0x0086a4c6        0x0 ../Webserver_bsp//libucosii_bsp.a(tcpcksum.o)
 .bss           0x0086a4c6        0x0 ../Webserver_bsp//libucosii_bsp.a(in_pcb.o)
 .bss           0x0086a4c6        0x0 ../Webserver_bsp//libucosii_bsp.a(vfsfiles.o)
 .bss           0x0086a4c6        0x0 ../Webserver_bsp//libucosii_bsp.a(vfsport.o)
 .bss           0x0086a4c6        0x0 ../Webserver_bsp//libucosii_bsp.a(alt_exception_entry.o)
 .bss           0x0086a4c6        0x0 ../Webserver_bsp//libucosii_bsp.a(alt_fcntl.o)
 .bss           0x0086a4c6        0x0 ../Webserver_bsp//libucosii_bsp.a(icmp.o)
 .bss           0x0086a4c6        0x0 /OPT/altera/12.1/nios2eds/bin/gnu/H-i686-pc-linux-gnu/bin/../lib/gcc/nios2-elf/4.1.2/../../../../nios2-elf/lib/libc.a(lib_a-atexit.o)
 .bss           0x0086a4c6        0x0 /OPT/altera/12.1/nios2eds/bin/gnu/H-i686-pc-linux-gnu/bin/../lib/gcc/nios2-elf/4.1.2/../../../../nios2-elf/lib/libc.a(lib_a-calloc.o)
 .bss           0x0086a4c6        0x0 /OPT/altera/12.1/nios2eds/bin/gnu/H-i686-pc-linux-gnu/bin/../lib/gcc/nios2-elf/4.1.2/../../../../nios2-elf/lib/libc.a(lib_a-exit.o)
 .bss           0x0086a4c6        0x0 /OPT/altera/12.1/nios2eds/bin/gnu/H-i686-pc-linux-gnu/bin/../lib/gcc/nios2-elf/4.1.2/../../../../nios2-elf/lib/libc.a(lib_a-getc.o)
 .bss           0x0086a4c6        0x0 /OPT/altera/12.1/nios2eds/bin/gnu/H-i686-pc-linux-gnu/bin/../lib/gcc/nios2-elf/4.1.2/../../../../nios2-elf/lib/libc.a(lib_a-malloc.o)
 .bss           0x0086a4c6        0x0 /OPT/altera/12.1/nios2eds/bin/gnu/H-i686-pc-linux-gnu/bin/../lib/gcc/nios2-elf/4.1.2/../../../../nios2-elf/lib/libc.a(lib_a-rget.o)
 .bss           0x0086a4c6        0x0 /OPT/altera/12.1/nios2eds/bin/gnu/H-i686-pc-linux-gnu/bin/../lib/gcc/nios2-elf/4.1.2/../../../../nios2-elf/lib/libc.a(lib_a-vprintf.o)
 .bss           0x0086a4c6        0x0 /OPT/altera/12.1/nios2eds/bin/gnu/H-i686-pc-linux-gnu/bin/../lib/gcc/nios2-elf/4.1.2/../../../../nios2-elf/lib/libc.a(lib_a-vsprintf.o)
 .bss           0x0086a4c6        0x0 /OPT/altera/12.1/nios2eds/bin/gnu/H-i686-pc-linux-gnu/bin/../lib/gcc/nios2-elf/4.1.2/../../../../nios2-elf/lib/libc.a(lib_a-__atexit.o)
 .bss           0x0086a4c6        0x0 /OPT/altera/12.1/nios2eds/bin/gnu/H-i686-pc-linux-gnu/bin/../lib/gcc/nios2-elf/4.1.2/../../../../nios2-elf/lib/libc.a(lib_a-__call_atexit.o)
 .bss           0x0086a4c6        0x0 ../Webserver_bsp//libucosii_bsp.a(alt_exit.o)
 *(COMMON)
 *fill*         0x0086a4c6        0x2 00
 COMMON         0x0086a4c8       0x44 obj/default/dm9000a.o
                0x0086a4c8                g_dm9ka
 COMMON         0x0086a50c   0x5d0de4 obj/default/http.o
                0x0086a50c                upload_buf
                0x00e23294                board_funcs
                0x00e232be                http_rx_buffer
                0x00e2f2c0                flash_inf
                0x00e2f2f0                http_tx_buffer
 COMMON         0x00e3b2f0      0x104 obj/default/srec_flash.o
                0x00e3b2f0                frag
 COMMON         0x00e3b3f4     0x8000 obj/default/web_server.o
                0x00e3b3f4                SSDTaskStk
                0x00e3d3f4                WSInitialTaskStk
                0x00e3f3f4                LEDTaskStk
                0x00e413f4                BCTaskStk
 COMMON         0x00e433f4      0x100 /OPT/altera/12.1/nios2eds/bin/gnu/H-i686-pc-linux-gnu/bin/../lib/gcc/nios2-elf/4.1.2/../../../../nios2-elf/lib/libc.a(lib_a-gdtoa-gethex.o)
                0x00e433f4                __hexdig
 COMMON         0x00e434f4     0x3224 ../Webserver_bsp//libucosii_bsp.a(os_core.o)
                0x00e434f4                OSFlagTbl
                0x00e43864                OSMemTbl
                0x00e44494                OSTaskStatStk
                0x00e44c94                OSQTbl
                0x00e44e74                OSTaskIdleStk
                0x00e45674                OSEventTbl
                0x00e461b4                OSTCBTbl
                0x00e466c4                OSTCBPrioTbl
 COMMON         0x00e46718       0x14 ../Webserver_bsp//libucosii_bsp.a(ipnet.o)
                0x00e46718                rcvdq
 COMMON         0x00e4672c      0x310 ../Webserver_bsp//libucosii_bsp.a(ipstart.o)
                0x00e4672c                netstatic
                0x00e46a2c                nets
 COMMON         0x00e46a3c       0x64 ../Webserver_bsp//libucosii_bsp.a(igmp_cmn.o)
                0x00e46a3c                igmpstats
 COMMON         0x00e46aa0       0x24 ../Webserver_bsp//libucosii_bsp.a(in_utils.o)
                0x00e46aa0                eth_prt_buf
                0x00e46ab2                ipreturn
 COMMON         0x00e46ac4       0xf0 ../Webserver_bsp//libucosii_bsp.a(dhcpclnt.o)
                0x00e46ac4                dhc_states
 COMMON         0x00e46bb4      0x128 ../Webserver_bsp//libucosii_bsp.a(pktalloc.o)
                0x00e46bb4                lilfreeq
                0x00e46bc8                memestats
                0x00e46bd8                pktlog
                0x00e46cc8                bigfreeq
 COMMON         0x00e46cdc      0x1ec ../Webserver_bsp//libucosii_bsp.a(osportco.o)
                0x00e46cdc                global_tcb_ext
                0x00e46dd8                global_TCPwakeup_set
 COMMON         0x00e46ec8       0x58 ../Webserver_bsp//libucosii_bsp.a(targnios.o)
                0x00e46ec8                resid_semaphore
                0x00e46f08                app_semaphore
 COMMON         0x00e46f20       0x78 ../Webserver_bsp//libucosii_bsp.a(nptcp.o)
                0x00e46f20                soq
                0x00e46f34                tcpmib
                0x00e46f70                mbufq
                0x00e46f84                mfreeq
 COMMON         0x00e46f98       0x28 ../Webserver_bsp//libucosii_bsp.a(tcp_in.o)
                0x00e46f98                tcp_saveti
 COMMON         0x00e46fc0      0x10c ../Webserver_bsp//libucosii_bsp.a(tcp_subr.o)
                0x00e46fc0                tcb
                0x00e46fec                tcpstat
 COMMON         0x00e470cc      0x100 ../Webserver_bsp//libucosii_bsp.a(alt_irq_handler.o)
                0x00e470cc                alt_irq
 COMMON         0x00e471cc       0x64 ../Webserver_bsp//libucosii_bsp.a(timeouts.o)
                0x00e471cc                intimers
 COMMON         0x00e47230      0x100 ../Webserver_bsp//libucosii_bsp.a(et_arp.o)
                0x00e47230                arp_table
 COMMON         0x00e47330       0x14 ../Webserver_bsp//libucosii_bsp.a(iface.o)
                0x00e47330                netlist
 COMMON         0x00e47344       0x50 ../Webserver_bsp//libucosii_bsp.a(ip.o)
                0x00e47344                ip_mib
 COMMON         0x00e47394       0x18 ../Webserver_bsp//libucosii_bsp.a(ip_reasm.o)
                0x00e47394                ire_stats
 COMMON         0x00e473ac       0x10 ../Webserver_bsp//libucosii_bsp.a(udp.o)
                0x00e473ac                udp_mib
 COMMON         0x00e473bc       0x68 ../Webserver_bsp//libucosii_bsp.a(icmp.o)
                0x00e473bc                icmp_mib
 COMMON         0x00e47424      0x190 /OPT/altera/12.1/nios2eds/bin/gnu/H-i686-pc-linux-gnu/bin/../lib/gcc/nios2-elf/4.1.2/../../../../nios2-elf/lib/libc.a(lib_a-atexit.o)
                0x00e47424                _atexit0
                0x00e475b4                . = ALIGN (0x4)
                0x00e475b4                __bss_end = ABSOLUTE (.)

.sdram_0        0x00e475b4        0x0
                0x00e475b4                PROVIDE (_alt_partition_sdram_0_start, ABSOLUTE (.))
 *(.sdram_0. sdram_0.*)
                0x00e475b4                . = ALIGN (0x4)
                0x00e475b4                PROVIDE (_alt_partition_sdram_0_end, ABSOLUTE (.))
                0x00e475b4                _end = ABSOLUTE (.)
                0x00e475b4                end = ABSOLUTE (.)
                0x00e475b4                __alt_stack_base = ABSOLUTE (.)
                0x00e475b4                PROVIDE (_alt_partition_sdram_0_load_addr, LOADADDR (.sdram_0))

.generic_tristate_controller_0
                0x01400020        0x0
                0x01400020                PROVIDE (_alt_partition_generic_tristate_controller_0_start, ABSOLUTE (.))
 *(.generic_tristate_controller_0. generic_tristate_controller_0.*)
                0x01400020                . = ALIGN (0x4)
                0x01400020                PROVIDE (_alt_partition_generic_tristate_controller_0_end, ABSOLUTE (.))
                0x01400020                PROVIDE (_alt_partition_generic_tristate_controller_0_load_addr, LOADADDR (.generic_tristate_controller_0))

.onchip_memory2_0
                0x019041bc        0x0
                0x019041bc                PROVIDE (_alt_partition_onchip_memory2_0_start, ABSOLUTE (.))
 *(.onchip_memory2_0. onchip_memory2_0.*)
                0x019041bc                . = ALIGN (0x4)
                0x019041bc                PROVIDE (_alt_partition_onchip_memory2_0_end, ABSOLUTE (.))
                0x019041bc                PROVIDE (_alt_partition_onchip_memory2_0_load_addr, LOADADDR (.onchip_memory2_0))

.stab
 *(.stab)

.stabstr
 *(.stabstr)

.stab.excl
 *(.stab.excl)

.stab.exclstr
 *(.stab.exclstr)

.stab.index
 *(.stab.index)

.stab.indexstr
 *(.stab.indexstr)

.comment        0x00000000       0x26
 *(.comment)
 .comment       0x00000000       0x26 obj/default/alt_error_handler.o
                                 0x27 (size before relaxing)
 .comment       0x00000000       0x27 obj/default/dm9000a.o
 .comment       0x00000000       0x27 obj/default/http.o
 .comment       0x00000000       0x27 obj/default/network_utilities.o
 .comment       0x00000000       0x27 obj/default/srec_flash.o
 .comment       0x00000000       0x27 obj/default/web_server.o
 .comment       0x00000000       0x27 /OPT/altera/12.1/nios2eds/bin/gnu/H-i686-pc-linux-gnu/bin/../lib/gcc/nios2-elf/4.1.2/libgcc.a(lib2-divmod.o)
 .comment       0x00000000       0x27 /OPT/altera/12.1/nios2eds/bin/gnu/H-i686-pc-linux-gnu/bin/../lib/gcc/nios2-elf/4.1.2/../../../../nios2-elf/lib/libc.a(lib_a-atoi.o)
 .comment       0x00000000       0x27 /OPT/altera/12.1/nios2eds/bin/gnu/H-i686-pc-linux-gnu/bin/../lib/gcc/nios2-elf/4.1.2/../../../../nios2-elf/lib/libc.a(lib_a-ctype_.o)
 .comment       0x00000000       0x27 /OPT/altera/12.1/nios2eds/bin/gnu/H-i686-pc-linux-gnu/bin/../lib/gcc/nios2-elf/4.1.2/../../../../nios2-elf/lib/libc.a(lib_a-fclose.o)
 .comment       0x00000000       0x27 /OPT/altera/12.1/nios2eds/bin/gnu/H-i686-pc-linux-gnu/bin/../lib/gcc/nios2-elf/4.1.2/../../../../nios2-elf/lib/libc.a(lib_a-fflush.o)
 .comment       0x00000000       0x27 /OPT/altera/12.1/nios2eds/bin/gnu/H-i686-pc-linux-gnu/bin/../lib/gcc/nios2-elf/4.1.2/../../../../nios2-elf/lib/libc.a(lib_a-fgetpos.o)
 .comment       0x00000000       0x27 /OPT/altera/12.1/nios2eds/bin/gnu/H-i686-pc-linux-gnu/bin/../lib/gcc/nios2-elf/4.1.2/../../../../nios2-elf/lib/libc.a(lib_a-findfp.o)
 .comment       0x00000000       0x27 /OPT/altera/12.1/nios2eds/bin/gnu/H-i686-pc-linux-gnu/bin/../lib/gcc/nios2-elf/4.1.2/../../../../nios2-elf/lib/libc.a(lib_a-fopen.o)
 .comment       0x00000000       0x27 /OPT/altera/12.1/nios2eds/bin/gnu/H-i686-pc-linux-gnu/bin/../lib/gcc/nios2-elf/4.1.2/../../../../nios2-elf/lib/libc.a(lib_a-fprintf.o)
 .comment       0x00000000       0x27 /OPT/altera/12.1/nios2eds/bin/gnu/H-i686-pc-linux-gnu/bin/../lib/gcc/nios2-elf/4.1.2/../../../../nios2-elf/lib/libc.a(lib_a-fread.o)
 .comment       0x00000000       0x27 /OPT/altera/12.1/nios2eds/bin/gnu/H-i686-pc-linux-gnu/bin/../lib/gcc/nios2-elf/4.1.2/../../../../nios2-elf/lib/libc.a(lib_a-freer.o)
 .comment       0x00000000       0x27 /OPT/altera/12.1/nios2eds/bin/gnu/H-i686-pc-linux-gnu/bin/../lib/gcc/nios2-elf/4.1.2/../../../../nios2-elf/lib/libc.a(lib_a-fseek.o)
 .comment       0x00000000       0x27 /OPT/altera/12.1/nios2eds/bin/gnu/H-i686-pc-linux-gnu/bin/../lib/gcc/nios2-elf/4.1.2/../../../../nios2-elf/lib/libc.a(lib_a-fstatr.o)
 .comment       0x00000000       0x27 /OPT/altera/12.1/nios2eds/bin/gnu/H-i686-pc-linux-gnu/bin/../lib/gcc/nios2-elf/4.1.2/../../../../nios2-elf/lib/libc.a(lib_a-ftell.o)
 .comment       0x00000000       0x27 /OPT/altera/12.1/nios2eds/bin/gnu/H-i686-pc-linux-gnu/bin/../lib/gcc/nios2-elf/4.1.2/../../../../nios2-elf/lib/libc.a(lib_a-fwalk.o)
 .comment       0x00000000       0x27 /OPT/altera/12.1/nios2eds/bin/gnu/H-i686-pc-linux-gnu/bin/../lib/gcc/nios2-elf/4.1.2/../../../../nios2-elf/lib/libc.a(lib_a-fwrite.o)
 .comment       0x00000000       0x27 /OPT/altera/12.1/nios2eds/bin/gnu/H-i686-pc-linux-gnu/bin/../lib/gcc/nios2-elf/4.1.2/../../../../nios2-elf/lib/libc.a(lib_a-impure.o)
 .comment       0x00000000       0x27 /OPT/altera/12.1/nios2eds/bin/gnu/H-i686-pc-linux-gnu/bin/../lib/gcc/nios2-elf/4.1.2/../../../../nios2-elf/lib/libc.a(lib_a-int_errno.o)
 .comment       0x00000000       0x27 /OPT/altera/12.1/nios2eds/bin/gnu/H-i686-pc-linux-gnu/bin/../lib/gcc/nios2-elf/4.1.2/../../../../nios2-elf/lib/libc.a(lib_a-makebuf.o)
 .comment       0x00000000       0x27 /OPT/altera/12.1/nios2eds/bin/gnu/H-i686-pc-linux-gnu/bin/../lib/gcc/nios2-elf/4.1.2/../../../../nios2-elf/lib/libc.a(lib_a-mallocr.o)
 .comment       0x00000000       0x27 /OPT/altera/12.1/nios2eds/bin/gnu/H-i686-pc-linux-gnu/bin/../lib/gcc/nios2-elf/4.1.2/../../../../nios2-elf/lib/libc.a(lib_a-memcpy.o)
 .comment       0x00000000       0x27 /OPT/altera/12.1/nios2eds/bin/gnu/H-i686-pc-linux-gnu/bin/../lib/gcc/nios2-elf/4.1.2/../../../../nios2-elf/lib/libc.a(lib_a-memmove.o)
 .comment       0x00000000       0x27 /OPT/altera/12.1/nios2eds/bin/gnu/H-i686-pc-linux-gnu/bin/../lib/gcc/nios2-elf/4.1.2/../../../../nios2-elf/lib/libc.a(lib_a-memset.o)
 .comment       0x00000000       0x27 /OPT/altera/12.1/nios2eds/bin/gnu/H-i686-pc-linux-gnu/bin/../lib/gcc/nios2-elf/4.1.2/../../../../nios2-elf/lib/libc.a(lib_a-openr.o)
 .comment       0x00000000       0x27 /OPT/altera/12.1/nios2eds/bin/gnu/H-i686-pc-linux-gnu/bin/../lib/gcc/nios2-elf/4.1.2/../../../../nios2-elf/lib/libc.a(lib_a-perror.o)
 .comment       0x00000000       0x27 /OPT/altera/12.1/nios2eds/bin/gnu/H-i686-pc-linux-gnu/bin/../lib/gcc/nios2-elf/4.1.2/../../../../nios2-elf/lib/libc.a(lib_a-printf.o)
 .comment       0x00000000       0x27 /OPT/altera/12.1/nios2eds/bin/gnu/H-i686-pc-linux-gnu/bin/../lib/gcc/nios2-elf/4.1.2/../../../../nios2-elf/lib/libc.a(lib_a-puts.o)
 .comment       0x00000000       0x27 /OPT/altera/12.1/nios2eds/bin/gnu/H-i686-pc-linux-gnu/bin/../lib/gcc/nios2-elf/4.1.2/../../../../nios2-elf/lib/libc.a(lib_a-refill.o)
 .comment       0x00000000       0x27 /OPT/altera/12.1/nios2eds/bin/gnu/H-i686-pc-linux-gnu/bin/../lib/gcc/nios2-elf/4.1.2/../../../../nios2-elf/lib/libc.a(lib_a-sbrkr.o)
 .comment       0x00000000       0x27 /OPT/altera/12.1/nios2eds/bin/gnu/H-i686-pc-linux-gnu/bin/../lib/gcc/nios2-elf/4.1.2/../../../../nios2-elf/lib/libc.a(lib_a-snprintf.o)
 .comment       0x00000000       0x27 /OPT/altera/12.1/nios2eds/bin/gnu/H-i686-pc-linux-gnu/bin/../lib/gcc/nios2-elf/4.1.2/../../../../nios2-elf/lib/libc.a(lib_a-sprintf.o)
 .comment       0x00000000       0x27 /OPT/altera/12.1/nios2eds/bin/gnu/H-i686-pc-linux-gnu/bin/../lib/gcc/nios2-elf/4.1.2/../../../../nios2-elf/lib/libc.a(lib_a-sscanf.o)
 .comment       0x00000000       0x27 /OPT/altera/12.1/nios2eds/bin/gnu/H-i686-pc-linux-gnu/bin/../lib/gcc/nios2-elf/4.1.2/../../../../nios2-elf/lib/libc.a(lib_a-stdio.o)
 .comment       0x00000000       0x27 /OPT/altera/12.1/nios2eds/bin/gnu/H-i686-pc-linux-gnu/bin/../lib/gcc/nios2-elf/4.1.2/../../../../nios2-elf/lib/libc.a(lib_a-strcasecmp.o)
 .comment       0x00000000       0x27 /OPT/altera/12.1/nios2eds/bin/gnu/H-i686-pc-linux-gnu/bin/../lib/gcc/nios2-elf/4.1.2/../../../../nios2-elf/lib/libc.a(lib_a-strcat.o)
 .comment       0x00000000       0x27 /OPT/altera/12.1/nios2eds/bin/gnu/H-i686-pc-linux-gnu/bin/../lib/gcc/nios2-elf/4.1.2/../../../../nios2-elf/lib/libc.a(lib_a-strchr.o)
 .comment       0x00000000       0x27 /OPT/altera/12.1/nios2eds/bin/gnu/H-i686-pc-linux-gnu/bin/../lib/gcc/nios2-elf/4.1.2/../../../../nios2-elf/lib/libc.a(lib_a-strcmp.o)
 .comment       0x00000000       0x27 /OPT/altera/12.1/nios2eds/bin/gnu/H-i686-pc-linux-gnu/bin/../lib/gcc/nios2-elf/4.1.2/../../../../nios2-elf/lib/libc.a(lib_a-strcpy.o)
 .comment       0x00000000       0x27 /OPT/altera/12.1/nios2eds/bin/gnu/H-i686-pc-linux-gnu/bin/../lib/gcc/nios2-elf/4.1.2/../../../../nios2-elf/lib/libc.a(lib_a-strerror.o)
 .comment       0x00000000       0x27 /OPT/altera/12.1/nios2eds/bin/gnu/H-i686-pc-linux-gnu/bin/../lib/gcc/nios2-elf/4.1.2/../../../../nios2-elf/lib/libc.a(lib_a-strlen.o)
 .comment       0x00000000       0x27 /OPT/altera/12.1/nios2eds/bin/gnu/H-i686-pc-linux-gnu/bin/../lib/gcc/nios2-elf/4.1.2/../../../../nios2-elf/lib/libc.a(lib_a-strncmp.o)
 .comment       0x00000000       0x27 /OPT/altera/12.1/nios2eds/bin/gnu/H-i686-pc-linux-gnu/bin/../lib/gcc/nios2-elf/4.1.2/../../../../nios2-elf/lib/libc.a(lib_a-strncpy.o)
 .comment       0x00000000       0x27 /OPT/altera/12.1/nios2eds/bin/gnu/H-i686-pc-linux-gnu/bin/../lib/gcc/nios2-elf/4.1.2/../../../../nios2-elf/lib/libc.a(lib_a-strstr.o)
 .comment       0x00000000       0x27 /OPT/altera/12.1/nios2eds/bin/gnu/H-i686-pc-linux-gnu/bin/../lib/gcc/nios2-elf/4.1.2/../../../../nios2-elf/lib/libc.a(lib_a-strtok.o)
 .comment       0x00000000       0x27 /OPT/altera/12.1/nios2eds/bin/gnu/H-i686-pc-linux-gnu/bin/../lib/gcc/nios2-elf/4.1.2/../../../../nios2-elf/lib/libc.a(lib_a-strtok_r.o)
 .comment       0x00000000       0x27 /OPT/altera/12.1/nios2eds/bin/gnu/H-i686-pc-linux-gnu/bin/../lib/gcc/nios2-elf/4.1.2/../../../../nios2-elf/lib/libc.a(lib_a-strtol.o)
 .comment       0x00000000       0x27 /OPT/altera/12.1/nios2eds/bin/gnu/H-i686-pc-linux-gnu/bin/../lib/gcc/nios2-elf/4.1.2/../../../../nios2-elf/lib/libc.a(lib_a-u_strerr.o)
 .comment       0x00000000       0x27 /OPT/altera/12.1/nios2eds/bin/gnu/H-i686-pc-linux-gnu/bin/../lib/gcc/nios2-elf/4.1.2/../../../../nios2-elf/lib/libc.a(lib_a-vfprintf.o)
 .comment       0x00000000       0x27 /OPT/altera/12.1/nios2eds/bin/gnu/H-i686-pc-linux-gnu/bin/../lib/gcc/nios2-elf/4.1.2/../../../../nios2-elf/lib/libc.a(lib_a-vfscanf.o)
 .comment       0x00000000       0x27 /OPT/altera/12.1/nios2eds/bin/gnu/H-i686-pc-linux-gnu/bin/../lib/gcc/nios2-elf/4.1.2/../../../../nios2-elf/lib/libc.a(lib_a-writer.o)
 .comment       0x00000000       0x27 /OPT/altera/12.1/nios2eds/bin/gnu/H-i686-pc-linux-gnu/bin/../lib/gcc/nios2-elf/4.1.2/../../../../nios2-elf/lib/libc.a(lib_a-wsetup.o)
 .comment       0x00000000       0x27 /OPT/altera/12.1/nios2eds/bin/gnu/H-i686-pc-linux-gnu/bin/../lib/gcc/nios2-elf/4.1.2/../../../../nios2-elf/lib/libc.a(lib_a-closer.o)
 .comment       0x00000000       0x27 /OPT/altera/12.1/nios2eds/bin/gnu/H-i686-pc-linux-gnu/bin/../lib/gcc/nios2-elf/4.1.2/../../../../nios2-elf/lib/libc.a(lib_a-dtoa.o)
 .comment       0x00000000       0x27 /OPT/altera/12.1/nios2eds/bin/gnu/H-i686-pc-linux-gnu/bin/../lib/gcc/nios2-elf/4.1.2/../../../../nios2-elf/lib/libc.a(lib_a-flags.o)
 .comment       0x00000000       0x27 /OPT/altera/12.1/nios2eds/bin/gnu/H-i686-pc-linux-gnu/bin/../lib/gcc/nios2-elf/4.1.2/../../../../nios2-elf/lib/libc.a(lib_a-fputc.o)
 .comment       0x00000000       0x27 /OPT/altera/12.1/nios2eds/bin/gnu/H-i686-pc-linux-gnu/bin/../lib/gcc/nios2-elf/4.1.2/../../../../nios2-elf/lib/libc.a(lib_a-fputs.o)
 .comment       0x00000000       0x27 /OPT/altera/12.1/nios2eds/bin/gnu/H-i686-pc-linux-gnu/bin/../lib/gcc/nios2-elf/4.1.2/../../../../nios2-elf/lib/libc.a(lib_a-fvwrite.o)
 .comment       0x00000000       0x27 /OPT/altera/12.1/nios2eds/bin/gnu/H-i686-pc-linux-gnu/bin/../lib/gcc/nios2-elf/4.1.2/../../../../nios2-elf/lib/libc.a(lib_a-isattyr.o)
 .comment       0x00000000       0x27 /OPT/altera/12.1/nios2eds/bin/gnu/H-i686-pc-linux-gnu/bin/../lib/gcc/nios2-elf/4.1.2/../../../../nios2-elf/lib/libc.a(lib_a-iswspace.o)
 .comment       0x00000000       0x27 /OPT/altera/12.1/nios2eds/bin/gnu/H-i686-pc-linux-gnu/bin/../lib/gcc/nios2-elf/4.1.2/../../../../nios2-elf/lib/libc.a(lib_a-locale.o)
 .comment       0x00000000       0x27 /OPT/altera/12.1/nios2eds/bin/gnu/H-i686-pc-linux-gnu/bin/../lib/gcc/nios2-elf/4.1.2/../../../../nios2-elf/lib/libc.a(lib_a-lseekr.o)
 .comment       0x00000000       0x27 /OPT/altera/12.1/nios2eds/bin/gnu/H-i686-pc-linux-gnu/bin/../lib/gcc/nios2-elf/4.1.2/../../../../nios2-elf/lib/libc.a(lib_a-mbrtowc.o)
 .comment       0x00000000       0x27 /OPT/altera/12.1/nios2eds/bin/gnu/H-i686-pc-linux-gnu/bin/../lib/gcc/nios2-elf/4.1.2/../../../../nios2-elf/lib/libc.a(lib_a-mbtowc_r.o)
 .comment       0x00000000       0x27 /OPT/altera/12.1/nios2eds/bin/gnu/H-i686-pc-linux-gnu/bin/../lib/gcc/nios2-elf/4.1.2/../../../../nios2-elf/lib/libc.a(lib_a-memchr.o)
 .comment       0x00000000       0x27 /OPT/altera/12.1/nios2eds/bin/gnu/H-i686-pc-linux-gnu/bin/../lib/gcc/nios2-elf/4.1.2/../../../../nios2-elf/lib/libc.a(lib_a-memcmp.o)
 .comment       0x00000000       0x27 /OPT/altera/12.1/nios2eds/bin/gnu/H-i686-pc-linux-gnu/bin/../lib/gcc/nios2-elf/4.1.2/../../../../nios2-elf/lib/libc.a(lib_a-mprec.o)
 .comment       0x00000000       0x27 /OPT/altera/12.1/nios2eds/bin/gnu/H-i686-pc-linux-gnu/bin/../lib/gcc/nios2-elf/4.1.2/../../../../nios2-elf/lib/libc.a(lib_a-putc.o)
 .comment       0x00000000       0x27 /OPT/altera/12.1/nios2eds/bin/gnu/H-i686-pc-linux-gnu/bin/../lib/gcc/nios2-elf/4.1.2/../../../../nios2-elf/lib/libc.a(lib_a-readr.o)
 .comment       0x00000000       0x27 /OPT/altera/12.1/nios2eds/bin/gnu/H-i686-pc-linux-gnu/bin/../lib/gcc/nios2-elf/4.1.2/../../../../nios2-elf/lib/libc.a(lib_a-reallocr.o)
 .comment       0x00000000       0x27 /OPT/altera/12.1/nios2eds/bin/gnu/H-i686-pc-linux-gnu/bin/../lib/gcc/nios2-elf/4.1.2/../../../../nios2-elf/lib/libc.a(lib_a-s_isinfd.o)
 .comment       0x00000000       0x27 /OPT/altera/12.1/nios2eds/bin/gnu/H-i686-pc-linux-gnu/bin/../lib/gcc/nios2-elf/4.1.2/../../../../nios2-elf/lib/libc.a(lib_a-s_isnand.o)
 .comment       0x00000000       0x27 /OPT/altera/12.1/nios2eds/bin/gnu/H-i686-pc-linux-gnu/bin/../lib/gcc/nios2-elf/4.1.2/../../../../nios2-elf/lib/libc.a(lib_a-sccl.o)
 .comment       0x00000000       0x27 /OPT/altera/12.1/nios2eds/bin/gnu/H-i686-pc-linux-gnu/bin/../lib/gcc/nios2-elf/4.1.2/../../../../nios2-elf/lib/libc.a(lib_a-sf_nan.o)
 .comment       0x00000000       0x27 /OPT/altera/12.1/nios2eds/bin/gnu/H-i686-pc-linux-gnu/bin/../lib/gcc/nios2-elf/4.1.2/../../../../nios2-elf/lib/libc.a(lib_a-strtod.o)
 .comment       0x00000000       0x27 /OPT/altera/12.1/nios2eds/bin/gnu/H-i686-pc-linux-gnu/bin/../lib/gcc/nios2-elf/4.1.2/../../../../nios2-elf/lib/libc.a(lib_a-strtoll_r.o)
 .comment       0x00000000       0x27 /OPT/altera/12.1/nios2eds/bin/gnu/H-i686-pc-linux-gnu/bin/../lib/gcc/nios2-elf/4.1.2/../../../../nios2-elf/lib/libc.a(lib_a-strtoul.o)
 .comment       0x00000000       0x27 /OPT/altera/12.1/nios2eds/bin/gnu/H-i686-pc-linux-gnu/bin/../lib/gcc/nios2-elf/4.1.2/../../../../nios2-elf/lib/libc.a(lib_a-strtoull_r.o)
 .comment       0x00000000       0x27 /OPT/altera/12.1/nios2eds/bin/gnu/H-i686-pc-linux-gnu/bin/../lib/gcc/nios2-elf/4.1.2/../../../../nios2-elf/lib/libc.a(lib_a-ungetc.o)
 .comment       0x00000000       0x27 /OPT/altera/12.1/nios2eds/bin/gnu/H-i686-pc-linux-gnu/bin/../lib/gcc/nios2-elf/4.1.2/../../../../nios2-elf/lib/libc.a(lib_a-wbuf.o)
 .comment       0x00000000       0x27 /OPT/altera/12.1/nios2eds/bin/gnu/H-i686-pc-linux-gnu/bin/../lib/gcc/nios2-elf/4.1.2/../../../../nios2-elf/lib/libc.a(lib_a-callocr.o)
 .comment       0x00000000       0x27 /OPT/altera/12.1/nios2eds/bin/gnu/H-i686-pc-linux-gnu/bin/../lib/gcc/nios2-elf/4.1.2/../../../../nios2-elf/lib/libc.a(lib_a-gdtoa-gethex.o)
 .comment       0x00000000       0x27 /OPT/altera/12.1/nios2eds/bin/gnu/H-i686-pc-linux-gnu/bin/../lib/gcc/nios2-elf/4.1.2/../../../../nios2-elf/lib/libc.a(lib_a-gdtoa-hexnan.o)
 .comment       0x00000000       0x27 /OPT/altera/12.1/nios2eds/bin/gnu/H-i686-pc-linux-gnu/bin/../lib/gcc/nios2-elf/4.1.2/libgcc.a(_muldi3.o)
 .comment       0x00000000       0x27 /OPT/altera/12.1/nios2eds/bin/gnu/H-i686-pc-linux-gnu/bin/../lib/gcc/nios2-elf/4.1.2/libgcc.a(_fixunsdfsi.o)
 .comment       0x00000000       0x27 /OPT/altera/12.1/nios2eds/bin/gnu/H-i686-pc-linux-gnu/bin/../lib/gcc/nios2-elf/4.1.2/libgcc.a(_udivdi3.o)
 .comment       0x00000000       0x27 /OPT/altera/12.1/nios2eds/bin/gnu/H-i686-pc-linux-gnu/bin/../lib/gcc/nios2-elf/4.1.2/libgcc.a(_umoddi3.o)
 .comment       0x00000000       0x27 /OPT/altera/12.1/nios2eds/bin/gnu/H-i686-pc-linux-gnu/bin/../lib/gcc/nios2-elf/4.1.2/libgcc.a(_ne_sf.o)
 .comment       0x00000000       0x27 /OPT/altera/12.1/nios2eds/bin/gnu/H-i686-pc-linux-gnu/bin/../lib/gcc/nios2-elf/4.1.2/libgcc.a(_gt_sf.o)
 .comment       0x00000000       0x27 /OPT/altera/12.1/nios2eds/bin/gnu/H-i686-pc-linux-gnu/bin/../lib/gcc/nios2-elf/4.1.2/libgcc.a(_lt_sf.o)
 .comment       0x00000000       0x27 /OPT/altera/12.1/nios2eds/bin/gnu/H-i686-pc-linux-gnu/bin/../lib/gcc/nios2-elf/4.1.2/libgcc.a(_addsub_df.o)
 .comment       0x00000000       0x27 /OPT/altera/12.1/nios2eds/bin/gnu/H-i686-pc-linux-gnu/bin/../lib/gcc/nios2-elf/4.1.2/libgcc.a(_mul_df.o)
 .comment       0x00000000       0x27 /OPT/altera/12.1/nios2eds/bin/gnu/H-i686-pc-linux-gnu/bin/../lib/gcc/nios2-elf/4.1.2/libgcc.a(_div_df.o)
 .comment       0x00000000       0x27 /OPT/altera/12.1/nios2eds/bin/gnu/H-i686-pc-linux-gnu/bin/../lib/gcc/nios2-elf/4.1.2/libgcc.a(_eq_df.o)
 .comment       0x00000000       0x27 /OPT/altera/12.1/nios2eds/bin/gnu/H-i686-pc-linux-gnu/bin/../lib/gcc/nios2-elf/4.1.2/libgcc.a(_ne_df.o)
 .comment       0x00000000       0x27 /OPT/altera/12.1/nios2eds/bin/gnu/H-i686-pc-linux-gnu/bin/../lib/gcc/nios2-elf/4.1.2/libgcc.a(_gt_df.o)
 .comment       0x00000000       0x27 /OPT/altera/12.1/nios2eds/bin/gnu/H-i686-pc-linux-gnu/bin/../lib/gcc/nios2-elf/4.1.2/libgcc.a(_ge_df.o)
 .comment       0x00000000       0x27 /OPT/altera/12.1/nios2eds/bin/gnu/H-i686-pc-linux-gnu/bin/../lib/gcc/nios2-elf/4.1.2/libgcc.a(_lt_df.o)
 .comment       0x00000000       0x27 /OPT/altera/12.1/nios2eds/bin/gnu/H-i686-pc-linux-gnu/bin/../lib/gcc/nios2-elf/4.1.2/libgcc.a(_le_df.o)
 .comment       0x00000000       0x27 /OPT/altera/12.1/nios2eds/bin/gnu/H-i686-pc-linux-gnu/bin/../lib/gcc/nios2-elf/4.1.2/libgcc.a(_si_to_df.o)
 .comment       0x00000000       0x27 /OPT/altera/12.1/nios2eds/bin/gnu/H-i686-pc-linux-gnu/bin/../lib/gcc/nios2-elf/4.1.2/libgcc.a(_df_to_si.o)
 .comment       0x00000000       0x27 /OPT/altera/12.1/nios2eds/bin/gnu/H-i686-pc-linux-gnu/bin/../lib/gcc/nios2-elf/4.1.2/libgcc.a(_df_to_sf.o)
 .comment       0x00000000       0x27 /OPT/altera/12.1/nios2eds/bin/gnu/H-i686-pc-linux-gnu/bin/../lib/gcc/nios2-elf/4.1.2/libgcc.a(_thenan_df.o)
 .comment       0x00000000       0x27 /OPT/altera/12.1/nios2eds/bin/gnu/H-i686-pc-linux-gnu/bin/../lib/gcc/nios2-elf/4.1.2/libgcc.a(_usi_to_df.o)
 .comment       0x00000000       0x27 /OPT/altera/12.1/nios2eds/bin/gnu/H-i686-pc-linux-gnu/bin/../lib/gcc/nios2-elf/4.1.2/libgcc.a(_clz.o)
 .comment       0x00000000       0x27 /OPT/altera/12.1/nios2eds/bin/gnu/H-i686-pc-linux-gnu/bin/../lib/gcc/nios2-elf/4.1.2/libgcc.a(_clzsi2.o)
 .comment       0x00000000       0x27 /OPT/altera/12.1/nios2eds/bin/gnu/H-i686-pc-linux-gnu/bin/../lib/gcc/nios2-elf/4.1.2/libgcc.a(_unpack_sf.o)
 .comment       0x00000000       0x27 /OPT/altera/12.1/nios2eds/bin/gnu/H-i686-pc-linux-gnu/bin/../lib/gcc/nios2-elf/4.1.2/libgcc.a(_fpcmp_parts_sf.o)
 .comment       0x00000000       0x27 /OPT/altera/12.1/nios2eds/bin/gnu/H-i686-pc-linux-gnu/bin/../lib/gcc/nios2-elf/4.1.2/libgcc.a(_make_sf.o)
 .comment       0x00000000       0x27 /OPT/altera/12.1/nios2eds/bin/gnu/H-i686-pc-linux-gnu/bin/../lib/gcc/nios2-elf/4.1.2/libgcc.a(_pack_df.o)
 .comment       0x00000000       0x27 /OPT/altera/12.1/nios2eds/bin/gnu/H-i686-pc-linux-gnu/bin/../lib/gcc/nios2-elf/4.1.2/libgcc.a(_unpack_df.o)
 .comment       0x00000000       0x27 /OPT/altera/12.1/nios2eds/bin/gnu/H-i686-pc-linux-gnu/bin/../lib/gcc/nios2-elf/4.1.2/libgcc.a(_fpcmp_parts_df.o)
 .comment       0x00000000       0x27 /OPT/altera/12.1/nios2eds/bin/gnu/H-i686-pc-linux-gnu/bin/../lib/gcc/nios2-elf/4.1.2/libgcc.a(_pack_sf.o)
 .comment       0x00000000       0x27 ../Webserver_bsp//libucosii_bsp.a(alt_dcache_flush.o)
 .comment       0x00000000       0x27 ../Webserver_bsp//libucosii_bsp.a(alt_flash_dev.o)
 .comment       0x00000000       0x27 ../Webserver_bsp//libucosii_bsp.a(alt_fstat.o)
 .comment       0x00000000       0x27 ../Webserver_bsp//libucosii_bsp.a(alt_irq_register.o)
 .comment       0x00000000       0x27 ../Webserver_bsp//libucosii_bsp.a(alt_irq_vars.o)
 .comment       0x00000000       0x27 ../Webserver_bsp//libucosii_bsp.a(alt_isatty.o)
 .comment       0x00000000       0x27 ../Webserver_bsp//libucosii_bsp.a(alt_lseek.o)
 .comment       0x00000000       0x27 ../Webserver_bsp//libucosii_bsp.a(alt_main.o)
 .comment       0x00000000       0x27 ../Webserver_bsp//libucosii_bsp.a(alt_open.o)
 .comment       0x00000000       0x27 ../Webserver_bsp//libucosii_bsp.a(alt_release_fd.o)
 .comment       0x00000000       0x27 ../Webserver_bsp//libucosii_bsp.a(alt_sbrk.o)
 .comment       0x00000000       0x27 ../Webserver_bsp//libucosii_bsp.a(alt_tick.o)
 .comment       0x00000000       0x27 ../Webserver_bsp//libucosii_bsp.a(alt_usleep.o)
 .comment       0x00000000       0x27 ../Webserver_bsp//libucosii_bsp.a(alt_env_lock.o)
 .comment       0x00000000       0x27 ../Webserver_bsp//libucosii_bsp.a(alt_malloc_lock.o)
 .comment       0x00000000       0x27 ../Webserver_bsp//libucosii_bsp.a(os_core.o)
 .comment       0x00000000       0x27 ../Webserver_bsp//libucosii_bsp.a(os_dbg.o)
 .comment       0x00000000       0x27 ../Webserver_bsp//libucosii_bsp.a(os_flag.o)
 .comment       0x00000000       0x27 ../Webserver_bsp//libucosii_bsp.a(os_mbox.o)
 .comment       0x00000000       0x27 ../Webserver_bsp//libucosii_bsp.a(os_mem.o)
 .comment       0x00000000       0x27 ../Webserver_bsp//libucosii_bsp.a(os_q.o)
 .comment       0x00000000       0x27 ../Webserver_bsp//libucosii_bsp.a(os_sem.o)
 .comment       0x00000000       0x27 ../Webserver_bsp//libucosii_bsp.a(os_task.o)
 .comment       0x00000000       0x27 ../Webserver_bsp//libucosii_bsp.a(os_time.o)
 .comment       0x00000000       0x27 ../Webserver_bsp//libucosii_bsp.a(alt_sys_init.o)
 .comment       0x00000000       0x27 ../Webserver_bsp//libucosii_bsp.a(altera_avalon_jtag_uart_fd.o)
 .comment       0x00000000       0x27 ../Webserver_bsp//libucosii_bsp.a(altera_avalon_jtag_uart_init.o)
 .comment       0x00000000       0x27 ../Webserver_bsp//libucosii_bsp.a(altera_avalon_jtag_uart_ioctl.o)
 .comment       0x00000000       0x27 ../Webserver_bsp//libucosii_bsp.a(altera_avalon_jtag_uart_read.o)
 .comment       0x00000000       0x27 ../Webserver_bsp//libucosii_bsp.a(altera_avalon_jtag_uart_write.o)
 .comment       0x00000000       0x27 ../Webserver_bsp//libucosii_bsp.a(altera_avalon_timer_sc.o)
 .comment       0x00000000       0x27 ../Webserver_bsp//libucosii_bsp.a(altera_ro_zipfs.o)
 .comment       0x00000000       0x27 ../Webserver_bsp//libucosii_bsp.a(altera_up_avalon_character_lcd.o)
 .comment       0x00000000       0x27 ../Webserver_bsp//libucosii_bsp.a(alt_iniche_close.o)
 .comment       0x00000000       0x27 ../Webserver_bsp//libucosii_bsp.a(alt_iniche_dev.o)
 .comment       0x00000000       0x27 ../Webserver_bsp//libucosii_bsp.a(alt_iniche_read.o)
 .comment       0x00000000       0x27 ../Webserver_bsp//libucosii_bsp.a(alt_iniche_write.o)
 .comment       0x00000000       0x27 ../Webserver_bsp//libucosii_bsp.a(ipnet.o)
 .comment       0x00000000       0x27 ../Webserver_bsp//libucosii_bsp.a(ipstart.o)
 .comment       0x00000000       0x27 ../Webserver_bsp//libucosii_bsp.a(igmp_cmn.o)
 .comment       0x00000000       0x27 ../Webserver_bsp//libucosii_bsp.a(bsdsock.o)
 .comment       0x00000000       0x27 ../Webserver_bsp//libucosii_bsp.a(cksum.o)
 .comment       0x00000000       0x27 ../Webserver_bsp//libucosii_bsp.a(in_utils.o)
 .comment       0x00000000       0x27 ../Webserver_bsp//libucosii_bsp.a(netmain.o)
 .comment       0x00000000       0x27 ../Webserver_bsp//libucosii_bsp.a(parseip.o)
 .comment       0x00000000       0x27 ../Webserver_bsp//libucosii_bsp.a(tk_crnos.o)
 .comment       0x00000000       0x27 ../Webserver_bsp//libucosii_bsp.a(dhcpclnt.o)
 .comment       0x00000000       0x27 ../Webserver_bsp//libucosii_bsp.a(dhcputil.o)
 .comment       0x00000000       0x27 ../Webserver_bsp//libucosii_bsp.a(pktalloc.o)
 .comment       0x00000000       0x27 ../Webserver_bsp//libucosii_bsp.a(q.o)
 .comment       0x00000000       0x27 ../Webserver_bsp//libucosii_bsp.a(udp_open.o)
 .comment       0x00000000       0x27 ../Webserver_bsp//libucosii_bsp.a(brdutils.o)
 .comment       0x00000000       0x27 ../Webserver_bsp//libucosii_bsp.a(osportco.o)
 .comment       0x00000000       0x27 ../Webserver_bsp//libucosii_bsp.a(targnios.o)
 .comment       0x00000000       0x27 ../Webserver_bsp//libucosii_bsp.a(nptcp.o)
 .comment       0x00000000       0x27 ../Webserver_bsp//libucosii_bsp.a(rawsock.o)
 .comment       0x00000000       0x27 ../Webserver_bsp//libucosii_bsp.a(sockcall.o)
 .comment       0x00000000       0x27 ../Webserver_bsp//libucosii_bsp.a(socket.o)
 .comment       0x00000000       0x27 ../Webserver_bsp//libucosii_bsp.a(socket2.o)
 .comment       0x00000000       0x27 ../Webserver_bsp//libucosii_bsp.a(soselect.o)
 .comment       0x00000000       0x27 ../Webserver_bsp//libucosii_bsp.a(tcp_in.o)
 .comment       0x00000000       0x27 ../Webserver_bsp//libucosii_bsp.a(tcp_out.o)
 .comment       0x00000000       0x27 ../Webserver_bsp//libucosii_bsp.a(tcp_subr.o)
 .comment       0x00000000       0x27 ../Webserver_bsp//libucosii_bsp.a(tcp_timr.o)
 .comment       0x00000000       0x27 ../Webserver_bsp//libucosii_bsp.a(tcp_usr.o)
 .comment       0x00000000       0x27 ../Webserver_bsp//libucosii_bsp.a(tcpport.o)
 .comment       0x00000000       0x27 ../Webserver_bsp//libucosii_bsp.a(udpsock.o)
 .comment       0x00000000       0x27 ../Webserver_bsp//libucosii_bsp.a(alt_alarm_start.o)
 .comment       0x00000000       0x27 ../Webserver_bsp//libucosii_bsp.a(alt_busy_sleep.o)
 .comment       0x00000000       0x27 ../Webserver_bsp//libucosii_bsp.a(alt_close.o)
 .comment       0x00000000       0x27 ../Webserver_bsp//libucosii_bsp.a(alt_dev.o)
 .comment       0x00000000       0x27 ../Webserver_bsp//libucosii_bsp.a(alt_dev_llist_insert.o)
 .comment       0x00000000       0x27 ../Webserver_bsp//libucosii_bsp.a(alt_do_ctors.o)
 .comment       0x00000000       0x27 ../Webserver_bsp//libucosii_bsp.a(alt_do_dtors.o)
 .comment       0x00000000       0x27 ../Webserver_bsp//libucosii_bsp.a(alt_errno.o)
 .comment       0x00000000       0x27 ../Webserver_bsp//libucosii_bsp.a(alt_find_dev.o)
 .comment       0x00000000       0x27 ../Webserver_bsp//libucosii_bsp.a(alt_find_file.o)
 .comment       0x00000000       0x27 ../Webserver_bsp//libucosii_bsp.a(alt_fs_reg.o)
 .comment       0x00000000       0x27 ../Webserver_bsp//libucosii_bsp.a(alt_get_fd.o)
 .comment       0x00000000       0x27 ../Webserver_bsp//libucosii_bsp.a(alt_iic.o)
 .comment       0x00000000       0x27 ../Webserver_bsp//libucosii_bsp.a(alt_iic_isr_register.o)
 .comment       0x00000000       0x27 ../Webserver_bsp//libucosii_bsp.a(alt_io_redirect.o)
 .comment       0x00000000       0x27 ../Webserver_bsp//libucosii_bsp.a(alt_irq_handler.o)
 .comment       0x00000000       0x27 ../Webserver_bsp//libucosii_bsp.a(alt_read.o)
 .comment       0x00000000       0x27 ../Webserver_bsp//libucosii_bsp.a(alt_remap_cached.o)
 .comment       0x00000000       0x27 ../Webserver_bsp//libucosii_bsp.a(alt_remap_uncached.o)
 .comment       0x00000000       0x27 ../Webserver_bsp//libucosii_bsp.a(alt_write.o)
 .comment       0x00000000       0x27 ../Webserver_bsp//libucosii_bsp.a(altera_nios2_qsys_irq.o)
 .comment       0x00000000       0x27 ../Webserver_bsp//libucosii_bsp.a(os_cpu_c.o)
 .comment       0x00000000       0x27 ../Webserver_bsp//libucosii_bsp.a(allports.o)
 .comment       0x00000000       0x27 ../Webserver_bsp//libucosii_bsp.a(timeouts.o)
 .comment       0x00000000       0x27 ../Webserver_bsp//libucosii_bsp.a(tk_misc.o)
 .comment       0x00000000       0x27 ../Webserver_bsp//libucosii_bsp.a(alt_iniche_fcntl.o)
 .comment       0x00000000       0x27 ../Webserver_bsp//libucosii_bsp.a(et_arp.o)
 .comment       0x00000000       0x27 ../Webserver_bsp//libucosii_bsp.a(iface.o)
 .comment       0x00000000       0x27 ../Webserver_bsp//libucosii_bsp.a(ip.o)
 .comment       0x00000000       0x27 ../Webserver_bsp//libucosii_bsp.a(ip_reasm.o)
 .comment       0x00000000       0x27 ../Webserver_bsp//libucosii_bsp.a(ipdemux.o)
 .comment       0x00000000       0x27 ../Webserver_bsp//libucosii_bsp.a(ipmc.o)
 .comment       0x00000000       0x27 ../Webserver_bsp//libucosii_bsp.a(ipport.o)
 .comment       0x00000000       0x27 ../Webserver_bsp//libucosii_bsp.a(ipraw.o)
 .comment       0x00000000       0x27 ../Webserver_bsp//libucosii_bsp.a(iproute.o)
 .comment       0x00000000       0x27 ../Webserver_bsp//libucosii_bsp.a(udp.o)
 .comment       0x00000000       0x27 ../Webserver_bsp//libucosii_bsp.a(igmp.o)
 .comment       0x00000000       0x27 ../Webserver_bsp//libucosii_bsp.a(igmp2.o)
 .comment       0x00000000       0x27 ../Webserver_bsp//libucosii_bsp.a(ipopt.o)
 .comment       0x00000000       0x27 ../Webserver_bsp//libucosii_bsp.a(u_mctest.o)
 .comment       0x00000000       0x27 ../Webserver_bsp//libucosii_bsp.a(dhcsetup.o)
 .comment       0x00000000       0x27 ../Webserver_bsp//libucosii_bsp.a(memdev.o)
 .comment       0x00000000       0x27 ../Webserver_bsp//libucosii_bsp.a(tcpcksum.o)
 .comment       0x00000000       0x27 ../Webserver_bsp//libucosii_bsp.a(in_pcb.o)
 .comment       0x00000000       0x27 ../Webserver_bsp//libucosii_bsp.a(vfsfiles.o)
 .comment       0x00000000       0x27 ../Webserver_bsp//libucosii_bsp.a(vfsport.o)
 .comment       0x00000000       0x27 ../Webserver_bsp//libucosii_bsp.a(alt_fcntl.o)
 .comment       0x00000000       0x27 ../Webserver_bsp//libucosii_bsp.a(icmp.o)
 .comment       0x00000000       0x27 /OPT/altera/12.1/nios2eds/bin/gnu/H-i686-pc-linux-gnu/bin/../lib/gcc/nios2-elf/4.1.2/../../../../nios2-elf/lib/libc.a(lib_a-atexit.o)
 .comment       0x00000000       0x27 /OPT/altera/12.1/nios2eds/bin/gnu/H-i686-pc-linux-gnu/bin/../lib/gcc/nios2-elf/4.1.2/../../../../nios2-elf/lib/libc.a(lib_a-calloc.o)
 .comment       0x00000000       0x27 /OPT/altera/12.1/nios2eds/bin/gnu/H-i686-pc-linux-gnu/bin/../lib/gcc/nios2-elf/4.1.2/../../../../nios2-elf/lib/libc.a(lib_a-exit.o)
 .comment       0x00000000       0x27 /OPT/altera/12.1/nios2eds/bin/gnu/H-i686-pc-linux-gnu/bin/../lib/gcc/nios2-elf/4.1.2/../../../../nios2-elf/lib/libc.a(lib_a-getc.o)
 .comment       0x00000000       0x27 /OPT/altera/12.1/nios2eds/bin/gnu/H-i686-pc-linux-gnu/bin/../lib/gcc/nios2-elf/4.1.2/../../../../nios2-elf/lib/libc.a(lib_a-malloc.o)
 .comment       0x00000000       0x27 /OPT/altera/12.1/nios2eds/bin/gnu/H-i686-pc-linux-gnu/bin/../lib/gcc/nios2-elf/4.1.2/../../../../nios2-elf/lib/libc.a(lib_a-rget.o)
 .comment       0x00000000       0x27 /OPT/altera/12.1/nios2eds/bin/gnu/H-i686-pc-linux-gnu/bin/../lib/gcc/nios2-elf/4.1.2/../../../../nios2-elf/lib/libc.a(lib_a-vprintf.o)
 .comment       0x00000000       0x27 /OPT/altera/12.1/nios2eds/bin/gnu/H-i686-pc-linux-gnu/bin/../lib/gcc/nios2-elf/4.1.2/../../../../nios2-elf/lib/libc.a(lib_a-vsprintf.o)
 .comment       0x00000000       0x27 /OPT/altera/12.1/nios2eds/bin/gnu/H-i686-pc-linux-gnu/bin/../lib/gcc/nios2-elf/4.1.2/../../../../nios2-elf/lib/libc.a(lib_a-__atexit.o)
 .comment       0x00000000       0x27 /OPT/altera/12.1/nios2eds/bin/gnu/H-i686-pc-linux-gnu/bin/../lib/gcc/nios2-elf/4.1.2/../../../../nios2-elf/lib/libc.a(lib_a-__call_atexit.o)
 .comment       0x00000000       0x27 ../Webserver_bsp//libucosii_bsp.a(alt_exit.o)

.debug
 *(.debug)

.line
 *(.line)

.debug_srcinfo
 *(.debug_srcinfo)

.debug_sfnames
 *(.debug_sfnames)

.debug_aranges  0x00000000     0x1e70
 *(.debug_aranges)
 .debug_aranges
                0x00000000       0x20 ../Webserver_bsp//obj/HAL/src/crt0.o
 .debug_aranges
                0x00000020       0x20 obj/default/alt_error_handler.o
 .debug_aranges
                0x00000040       0x20 obj/default/dm9000a.o
 .debug_aranges
                0x00000060       0x20 obj/default/http.o
 .debug_aranges
                0x00000080       0x20 obj/default/network_utilities.o
 .debug_aranges
                0x000000a0       0x20 obj/default/srec_flash.o
 .debug_aranges
                0x000000c0       0x20 obj/default/web_server.o
 .debug_aranges
                0x000000e0       0x20 /OPT/altera/12.1/nios2eds/bin/gnu/H-i686-pc-linux-gnu/bin/../lib/gcc/nios2-elf/4.1.2/libgcc.a(lib2-divmod.o)
 .debug_aranges
                0x00000100       0x20 /OPT/altera/12.1/nios2eds/bin/gnu/H-i686-pc-linux-gnu/bin/../lib/gcc/nios2-elf/4.1.2/../../../../nios2-elf/lib/libc.a(lib_a-atoi.o)
 .debug_aranges
                0x00000120       0x20 /OPT/altera/12.1/nios2eds/bin/gnu/H-i686-pc-linux-gnu/bin/../lib/gcc/nios2-elf/4.1.2/../../../../nios2-elf/lib/libc.a(lib_a-fclose.o)
 .debug_aranges
                0x00000140       0x20 /OPT/altera/12.1/nios2eds/bin/gnu/H-i686-pc-linux-gnu/bin/../lib/gcc/nios2-elf/4.1.2/../../../../nios2-elf/lib/libc.a(lib_a-fflush.o)
 .debug_aranges
                0x00000160       0x20 /OPT/altera/12.1/nios2eds/bin/gnu/H-i686-pc-linux-gnu/bin/../lib/gcc/nios2-elf/4.1.2/../../../../nios2-elf/lib/libc.a(lib_a-fgetpos.o)
 .debug_aranges
                0x00000180       0x20 /OPT/altera/12.1/nios2eds/bin/gnu/H-i686-pc-linux-gnu/bin/../lib/gcc/nios2-elf/4.1.2/../../../../nios2-elf/lib/libc.a(lib_a-findfp.o)
 .debug_aranges
                0x000001a0       0x20 /OPT/altera/12.1/nios2eds/bin/gnu/H-i686-pc-linux-gnu/bin/../lib/gcc/nios2-elf/4.1.2/../../../../nios2-elf/lib/libc.a(lib_a-fopen.o)
 .debug_aranges
                0x000001c0       0x20 /OPT/altera/12.1/nios2eds/bin/gnu/H-i686-pc-linux-gnu/bin/../lib/gcc/nios2-elf/4.1.2/../../../../nios2-elf/lib/libc.a(lib_a-fprintf.o)
 .debug_aranges
                0x000001e0       0x20 /OPT/altera/12.1/nios2eds/bin/gnu/H-i686-pc-linux-gnu/bin/../lib/gcc/nios2-elf/4.1.2/../../../../nios2-elf/lib/libc.a(lib_a-fread.o)
 .debug_aranges
                0x00000200       0x20 /OPT/altera/12.1/nios2eds/bin/gnu/H-i686-pc-linux-gnu/bin/../lib/gcc/nios2-elf/4.1.2/../../../../nios2-elf/lib/libc.a(lib_a-freer.o)
 .debug_aranges
                0x00000220       0x20 /OPT/altera/12.1/nios2eds/bin/gnu/H-i686-pc-linux-gnu/bin/../lib/gcc/nios2-elf/4.1.2/../../../../nios2-elf/lib/libc.a(lib_a-fseek.o)
 .debug_aranges
                0x00000240       0x20 /OPT/altera/12.1/nios2eds/bin/gnu/H-i686-pc-linux-gnu/bin/../lib/gcc/nios2-elf/4.1.2/../../../../nios2-elf/lib/libc.a(lib_a-fstatr.o)
 .debug_aranges
                0x00000260       0x20 /OPT/altera/12.1/nios2eds/bin/gnu/H-i686-pc-linux-gnu/bin/../lib/gcc/nios2-elf/4.1.2/../../../../nios2-elf/lib/libc.a(lib_a-ftell.o)
 .debug_aranges
                0x00000280       0x20 /OPT/altera/12.1/nios2eds/bin/gnu/H-i686-pc-linux-gnu/bin/../lib/gcc/nios2-elf/4.1.2/../../../../nios2-elf/lib/libc.a(lib_a-fwalk.o)
 .debug_aranges
                0x000002a0       0x20 /OPT/altera/12.1/nios2eds/bin/gnu/H-i686-pc-linux-gnu/bin/../lib/gcc/nios2-elf/4.1.2/../../../../nios2-elf/lib/libc.a(lib_a-fwrite.o)
 .debug_aranges
                0x000002c0       0x20 /OPT/altera/12.1/nios2eds/bin/gnu/H-i686-pc-linux-gnu/bin/../lib/gcc/nios2-elf/4.1.2/../../../../nios2-elf/lib/libc.a(lib_a-makebuf.o)
 .debug_aranges
                0x000002e0       0x20 /OPT/altera/12.1/nios2eds/bin/gnu/H-i686-pc-linux-gnu/bin/../lib/gcc/nios2-elf/4.1.2/../../../../nios2-elf/lib/libc.a(lib_a-mallocr.o)
 .debug_aranges
                0x00000300       0x20 /OPT/altera/12.1/nios2eds/bin/gnu/H-i686-pc-linux-gnu/bin/../lib/gcc/nios2-elf/4.1.2/../../../../nios2-elf/lib/libc.a(lib_a-memcpy.o)
 .debug_aranges
                0x00000320       0x20 /OPT/altera/12.1/nios2eds/bin/gnu/H-i686-pc-linux-gnu/bin/../lib/gcc/nios2-elf/4.1.2/../../../../nios2-elf/lib/libc.a(lib_a-memmove.o)
 .debug_aranges
                0x00000340       0x20 /OPT/altera/12.1/nios2eds/bin/gnu/H-i686-pc-linux-gnu/bin/../lib/gcc/nios2-elf/4.1.2/../../../../nios2-elf/lib/libc.a(lib_a-memset.o)
 .debug_aranges
                0x00000360       0x20 /OPT/altera/12.1/nios2eds/bin/gnu/H-i686-pc-linux-gnu/bin/../lib/gcc/nios2-elf/4.1.2/../../../../nios2-elf/lib/libc.a(lib_a-openr.o)
 .debug_aranges
                0x00000380       0x20 /OPT/altera/12.1/nios2eds/bin/gnu/H-i686-pc-linux-gnu/bin/../lib/gcc/nios2-elf/4.1.2/../../../../nios2-elf/lib/libc.a(lib_a-perror.o)
 .debug_aranges
                0x000003a0       0x20 /OPT/altera/12.1/nios2eds/bin/gnu/H-i686-pc-linux-gnu/bin/../lib/gcc/nios2-elf/4.1.2/../../../../nios2-elf/lib/libc.a(lib_a-printf.o)
 .debug_aranges
                0x000003c0       0x20 /OPT/altera/12.1/nios2eds/bin/gnu/H-i686-pc-linux-gnu/bin/../lib/gcc/nios2-elf/4.1.2/../../../../nios2-elf/lib/libc.a(lib_a-puts.o)
 .debug_aranges
                0x000003e0       0x20 /OPT/altera/12.1/nios2eds/bin/gnu/H-i686-pc-linux-gnu/bin/../lib/gcc/nios2-elf/4.1.2/../../../../nios2-elf/lib/libc.a(lib_a-refill.o)
 .debug_aranges
                0x00000400       0x20 /OPT/altera/12.1/nios2eds/bin/gnu/H-i686-pc-linux-gnu/bin/../lib/gcc/nios2-elf/4.1.2/../../../../nios2-elf/lib/libc.a(lib_a-sbrkr.o)
 .debug_aranges
                0x00000420       0x20 /OPT/altera/12.1/nios2eds/bin/gnu/H-i686-pc-linux-gnu/bin/../lib/gcc/nios2-elf/4.1.2/../../../../nios2-elf/lib/libc.a(lib_a-snprintf.o)
 .debug_aranges
                0x00000440       0x20 /OPT/altera/12.1/nios2eds/bin/gnu/H-i686-pc-linux-gnu/bin/../lib/gcc/nios2-elf/4.1.2/../../../../nios2-elf/lib/libc.a(lib_a-sprintf.o)
 .debug_aranges
                0x00000460       0x20 /OPT/altera/12.1/nios2eds/bin/gnu/H-i686-pc-linux-gnu/bin/../lib/gcc/nios2-elf/4.1.2/../../../../nios2-elf/lib/libc.a(lib_a-sscanf.o)
 .debug_aranges
                0x00000480       0x20 /OPT/altera/12.1/nios2eds/bin/gnu/H-i686-pc-linux-gnu/bin/../lib/gcc/nios2-elf/4.1.2/../../../../nios2-elf/lib/libc.a(lib_a-stdio.o)
 .debug_aranges
                0x000004a0       0x20 /OPT/altera/12.1/nios2eds/bin/gnu/H-i686-pc-linux-gnu/bin/../lib/gcc/nios2-elf/4.1.2/../../../../nios2-elf/lib/libc.a(lib_a-strcasecmp.o)
 .debug_aranges
                0x000004c0       0x20 /OPT/altera/12.1/nios2eds/bin/gnu/H-i686-pc-linux-gnu/bin/../lib/gcc/nios2-elf/4.1.2/../../../../nios2-elf/lib/libc.a(lib_a-strcat.o)
 .debug_aranges
                0x000004e0       0x20 /OPT/altera/12.1/nios2eds/bin/gnu/H-i686-pc-linux-gnu/bin/../lib/gcc/nios2-elf/4.1.2/../../../../nios2-elf/lib/libc.a(lib_a-strchr.o)
 .debug_aranges
                0x00000500       0x20 /OPT/altera/12.1/nios2eds/bin/gnu/H-i686-pc-linux-gnu/bin/../lib/gcc/nios2-elf/4.1.2/../../../../nios2-elf/lib/libc.a(lib_a-strcmp.o)
 .debug_aranges
                0x00000520       0x20 /OPT/altera/12.1/nios2eds/bin/gnu/H-i686-pc-linux-gnu/bin/../lib/gcc/nios2-elf/4.1.2/../../../../nios2-elf/lib/libc.a(lib_a-strcpy.o)
 .debug_aranges
                0x00000540       0x20 /OPT/altera/12.1/nios2eds/bin/gnu/H-i686-pc-linux-gnu/bin/../lib/gcc/nios2-elf/4.1.2/../../../../nios2-elf/lib/libc.a(lib_a-strerror.o)
 .debug_aranges
                0x00000560       0x20 /OPT/altera/12.1/nios2eds/bin/gnu/H-i686-pc-linux-gnu/bin/../lib/gcc/nios2-elf/4.1.2/../../../../nios2-elf/lib/libc.a(lib_a-strlen.o)
 .debug_aranges
                0x00000580       0x20 /OPT/altera/12.1/nios2eds/bin/gnu/H-i686-pc-linux-gnu/bin/../lib/gcc/nios2-elf/4.1.2/../../../../nios2-elf/lib/libc.a(lib_a-strncmp.o)
 .debug_aranges
                0x000005a0       0x20 /OPT/altera/12.1/nios2eds/bin/gnu/H-i686-pc-linux-gnu/bin/../lib/gcc/nios2-elf/4.1.2/../../../../nios2-elf/lib/libc.a(lib_a-strncpy.o)
 .debug_aranges
                0x000005c0       0x20 /OPT/altera/12.1/nios2eds/bin/gnu/H-i686-pc-linux-gnu/bin/../lib/gcc/nios2-elf/4.1.2/../../../../nios2-elf/lib/libc.a(lib_a-strstr.o)
 .debug_aranges
                0x000005e0       0x20 /OPT/altera/12.1/nios2eds/bin/gnu/H-i686-pc-linux-gnu/bin/../lib/gcc/nios2-elf/4.1.2/../../../../nios2-elf/lib/libc.a(lib_a-strtok.o)
 .debug_aranges
                0x00000600       0x20 /OPT/altera/12.1/nios2eds/bin/gnu/H-i686-pc-linux-gnu/bin/../lib/gcc/nios2-elf/4.1.2/../../../../nios2-elf/lib/libc.a(lib_a-strtok_r.o)
 .debug_aranges
                0x00000620       0x20 /OPT/altera/12.1/nios2eds/bin/gnu/H-i686-pc-linux-gnu/bin/../lib/gcc/nios2-elf/4.1.2/../../../../nios2-elf/lib/libc.a(lib_a-strtol.o)
 .debug_aranges
                0x00000640       0x20 /OPT/altera/12.1/nios2eds/bin/gnu/H-i686-pc-linux-gnu/bin/../lib/gcc/nios2-elf/4.1.2/../../../../nios2-elf/lib/libc.a(lib_a-u_strerr.o)
 .debug_aranges
                0x00000660       0x20 /OPT/altera/12.1/nios2eds/bin/gnu/H-i686-pc-linux-gnu/bin/../lib/gcc/nios2-elf/4.1.2/../../../../nios2-elf/lib/libc.a(lib_a-vfprintf.o)
 .debug_aranges
                0x00000680       0x20 /OPT/altera/12.1/nios2eds/bin/gnu/H-i686-pc-linux-gnu/bin/../lib/gcc/nios2-elf/4.1.2/../../../../nios2-elf/lib/libc.a(lib_a-vfscanf.o)
 .debug_aranges
                0x000006a0       0x20 /OPT/altera/12.1/nios2eds/bin/gnu/H-i686-pc-linux-gnu/bin/../lib/gcc/nios2-elf/4.1.2/../../../../nios2-elf/lib/libc.a(lib_a-writer.o)
 .debug_aranges
                0x000006c0       0x20 /OPT/altera/12.1/nios2eds/bin/gnu/H-i686-pc-linux-gnu/bin/../lib/gcc/nios2-elf/4.1.2/../../../../nios2-elf/lib/libc.a(lib_a-wsetup.o)
 .debug_aranges
                0x000006e0       0x20 /OPT/altera/12.1/nios2eds/bin/gnu/H-i686-pc-linux-gnu/bin/../lib/gcc/nios2-elf/4.1.2/../../../../nios2-elf/lib/libc.a(lib_a-closer.o)
 .debug_aranges
                0x00000700       0x20 /OPT/altera/12.1/nios2eds/bin/gnu/H-i686-pc-linux-gnu/bin/../lib/gcc/nios2-elf/4.1.2/../../../../nios2-elf/lib/libc.a(lib_a-dtoa.o)
 .debug_aranges
                0x00000720       0x20 /OPT/altera/12.1/nios2eds/bin/gnu/H-i686-pc-linux-gnu/bin/../lib/gcc/nios2-elf/4.1.2/../../../../nios2-elf/lib/libc.a(lib_a-flags.o)
 .debug_aranges
                0x00000740       0x20 /OPT/altera/12.1/nios2eds/bin/gnu/H-i686-pc-linux-gnu/bin/../lib/gcc/nios2-elf/4.1.2/../../../../nios2-elf/lib/libc.a(lib_a-fputc.o)
 .debug_aranges
                0x00000760       0x20 /OPT/altera/12.1/nios2eds/bin/gnu/H-i686-pc-linux-gnu/bin/../lib/gcc/nios2-elf/4.1.2/../../../../nios2-elf/lib/libc.a(lib_a-fputs.o)
 .debug_aranges
                0x00000780       0x20 /OPT/altera/12.1/nios2eds/bin/gnu/H-i686-pc-linux-gnu/bin/../lib/gcc/nios2-elf/4.1.2/../../../../nios2-elf/lib/libc.a(lib_a-fvwrite.o)
 .debug_aranges
                0x000007a0       0x20 /OPT/altera/12.1/nios2eds/bin/gnu/H-i686-pc-linux-gnu/bin/../lib/gcc/nios2-elf/4.1.2/../../../../nios2-elf/lib/libc.a(lib_a-isattyr.o)
 .debug_aranges
                0x000007c0       0x20 /OPT/altera/12.1/nios2eds/bin/gnu/H-i686-pc-linux-gnu/bin/../lib/gcc/nios2-elf/4.1.2/../../../../nios2-elf/lib/libc.a(lib_a-iswspace.o)
 .debug_aranges
                0x000007e0       0x20 /OPT/altera/12.1/nios2eds/bin/gnu/H-i686-pc-linux-gnu/bin/../lib/gcc/nios2-elf/4.1.2/../../../../nios2-elf/lib/libc.a(lib_a-locale.o)
 .debug_aranges
                0x00000800       0x20 /OPT/altera/12.1/nios2eds/bin/gnu/H-i686-pc-linux-gnu/bin/../lib/gcc/nios2-elf/4.1.2/../../../../nios2-elf/lib/libc.a(lib_a-lseekr.o)
 .debug_aranges
                0x00000820       0x20 /OPT/altera/12.1/nios2eds/bin/gnu/H-i686-pc-linux-gnu/bin/../lib/gcc/nios2-elf/4.1.2/../../../../nios2-elf/lib/libc.a(lib_a-mbrtowc.o)
 .debug_aranges
                0x00000840       0x20 /OPT/altera/12.1/nios2eds/bin/gnu/H-i686-pc-linux-gnu/bin/../lib/gcc/nios2-elf/4.1.2/../../../../nios2-elf/lib/libc.a(lib_a-mbtowc_r.o)
 .debug_aranges
                0x00000860       0x20 /OPT/altera/12.1/nios2eds/bin/gnu/H-i686-pc-linux-gnu/bin/../lib/gcc/nios2-elf/4.1.2/../../../../nios2-elf/lib/libc.a(lib_a-memchr.o)
 .debug_aranges
                0x00000880       0x20 /OPT/altera/12.1/nios2eds/bin/gnu/H-i686-pc-linux-gnu/bin/../lib/gcc/nios2-elf/4.1.2/../../../../nios2-elf/lib/libc.a(lib_a-memcmp.o)
 .debug_aranges
                0x000008a0       0x20 /OPT/altera/12.1/nios2eds/bin/gnu/H-i686-pc-linux-gnu/bin/../lib/gcc/nios2-elf/4.1.2/../../../../nios2-elf/lib/libc.a(lib_a-mprec.o)
 .debug_aranges
                0x000008c0       0x20 /OPT/altera/12.1/nios2eds/bin/gnu/H-i686-pc-linux-gnu/bin/../lib/gcc/nios2-elf/4.1.2/../../../../nios2-elf/lib/libc.a(lib_a-putc.o)
 .debug_aranges
                0x000008e0       0x20 /OPT/altera/12.1/nios2eds/bin/gnu/H-i686-pc-linux-gnu/bin/../lib/gcc/nios2-elf/4.1.2/../../../../nios2-elf/lib/libc.a(lib_a-readr.o)
 .debug_aranges
                0x00000900       0x20 /OPT/altera/12.1/nios2eds/bin/gnu/H-i686-pc-linux-gnu/bin/../lib/gcc/nios2-elf/4.1.2/../../../../nios2-elf/lib/libc.a(lib_a-reallocr.o)
 .debug_aranges
                0x00000920       0x20 /OPT/altera/12.1/nios2eds/bin/gnu/H-i686-pc-linux-gnu/bin/../lib/gcc/nios2-elf/4.1.2/../../../../nios2-elf/lib/libc.a(lib_a-s_isinfd.o)
 .debug_aranges
                0x00000940       0x20 /OPT/altera/12.1/nios2eds/bin/gnu/H-i686-pc-linux-gnu/bin/../lib/gcc/nios2-elf/4.1.2/../../../../nios2-elf/lib/libc.a(lib_a-s_isnand.o)
 .debug_aranges
                0x00000960       0x20 /OPT/altera/12.1/nios2eds/bin/gnu/H-i686-pc-linux-gnu/bin/../lib/gcc/nios2-elf/4.1.2/../../../../nios2-elf/lib/libc.a(lib_a-sccl.o)
 .debug_aranges
                0x00000980       0x20 /OPT/altera/12.1/nios2eds/bin/gnu/H-i686-pc-linux-gnu/bin/../lib/gcc/nios2-elf/4.1.2/../../../../nios2-elf/lib/libc.a(lib_a-sf_nan.o)
 .debug_aranges
                0x000009a0       0x20 /OPT/altera/12.1/nios2eds/bin/gnu/H-i686-pc-linux-gnu/bin/../lib/gcc/nios2-elf/4.1.2/../../../../nios2-elf/lib/libc.a(lib_a-strtod.o)
 .debug_aranges
                0x000009c0       0x20 /OPT/altera/12.1/nios2eds/bin/gnu/H-i686-pc-linux-gnu/bin/../lib/gcc/nios2-elf/4.1.2/../../../../nios2-elf/lib/libc.a(lib_a-strtoll_r.o)
 .debug_aranges
                0x000009e0       0x20 /OPT/altera/12.1/nios2eds/bin/gnu/H-i686-pc-linux-gnu/bin/../lib/gcc/nios2-elf/4.1.2/../../../../nios2-elf/lib/libc.a(lib_a-strtoul.o)
 .debug_aranges
                0x00000a00       0x20 /OPT/altera/12.1/nios2eds/bin/gnu/H-i686-pc-linux-gnu/bin/../lib/gcc/nios2-elf/4.1.2/../../../../nios2-elf/lib/libc.a(lib_a-strtoull_r.o)
 .debug_aranges
                0x00000a20       0x20 /OPT/altera/12.1/nios2eds/bin/gnu/H-i686-pc-linux-gnu/bin/../lib/gcc/nios2-elf/4.1.2/../../../../nios2-elf/lib/libc.a(lib_a-ungetc.o)
 .debug_aranges
                0x00000a40       0x20 /OPT/altera/12.1/nios2eds/bin/gnu/H-i686-pc-linux-gnu/bin/../lib/gcc/nios2-elf/4.1.2/../../../../nios2-elf/lib/libc.a(lib_a-wbuf.o)
 .debug_aranges
                0x00000a60       0x20 /OPT/altera/12.1/nios2eds/bin/gnu/H-i686-pc-linux-gnu/bin/../lib/gcc/nios2-elf/4.1.2/../../../../nios2-elf/lib/libc.a(lib_a-callocr.o)
 .debug_aranges
                0x00000a80       0x20 /OPT/altera/12.1/nios2eds/bin/gnu/H-i686-pc-linux-gnu/bin/../lib/gcc/nios2-elf/4.1.2/../../../../nios2-elf/lib/libc.a(lib_a-gdtoa-gethex.o)
 .debug_aranges
                0x00000aa0       0x20 /OPT/altera/12.1/nios2eds/bin/gnu/H-i686-pc-linux-gnu/bin/../lib/gcc/nios2-elf/4.1.2/../../../../nios2-elf/lib/libc.a(lib_a-gdtoa-hexnan.o)
 .debug_aranges
                0x00000ac0       0x20 /OPT/altera/12.1/nios2eds/bin/gnu/H-i686-pc-linux-gnu/bin/../lib/gcc/nios2-elf/4.1.2/libgcc.a(_muldi3.o)
 .debug_aranges
                0x00000ae0       0x20 /OPT/altera/12.1/nios2eds/bin/gnu/H-i686-pc-linux-gnu/bin/../lib/gcc/nios2-elf/4.1.2/libgcc.a(_fixunsdfsi.o)
 .debug_aranges
                0x00000b00       0x20 /OPT/altera/12.1/nios2eds/bin/gnu/H-i686-pc-linux-gnu/bin/../lib/gcc/nios2-elf/4.1.2/libgcc.a(_udivdi3.o)
 .debug_aranges
                0x00000b20       0x20 /OPT/altera/12.1/nios2eds/bin/gnu/H-i686-pc-linux-gnu/bin/../lib/gcc/nios2-elf/4.1.2/libgcc.a(_umoddi3.o)
 .debug_aranges
                0x00000b40       0x20 /OPT/altera/12.1/nios2eds/bin/gnu/H-i686-pc-linux-gnu/bin/../lib/gcc/nios2-elf/4.1.2/libgcc.a(_ne_sf.o)
 .debug_aranges
                0x00000b60       0x20 /OPT/altera/12.1/nios2eds/bin/gnu/H-i686-pc-linux-gnu/bin/../lib/gcc/nios2-elf/4.1.2/libgcc.a(_gt_sf.o)
 .debug_aranges
                0x00000b80       0x20 /OPT/altera/12.1/nios2eds/bin/gnu/H-i686-pc-linux-gnu/bin/../lib/gcc/nios2-elf/4.1.2/libgcc.a(_lt_sf.o)
 .debug_aranges
                0x00000ba0       0x20 /OPT/altera/12.1/nios2eds/bin/gnu/H-i686-pc-linux-gnu/bin/../lib/gcc/nios2-elf/4.1.2/libgcc.a(_addsub_df.o)
 .debug_aranges
                0x00000bc0       0x20 /OPT/altera/12.1/nios2eds/bin/gnu/H-i686-pc-linux-gnu/bin/../lib/gcc/nios2-elf/4.1.2/libgcc.a(_mul_df.o)
 .debug_aranges
                0x00000be0       0x20 /OPT/altera/12.1/nios2eds/bin/gnu/H-i686-pc-linux-gnu/bin/../lib/gcc/nios2-elf/4.1.2/libgcc.a(_div_df.o)
 .debug_aranges
                0x00000c00       0x20 /OPT/altera/12.1/nios2eds/bin/gnu/H-i686-pc-linux-gnu/bin/../lib/gcc/nios2-elf/4.1.2/libgcc.a(_eq_df.o)
 .debug_aranges
                0x00000c20       0x20 /OPT/altera/12.1/nios2eds/bin/gnu/H-i686-pc-linux-gnu/bin/../lib/gcc/nios2-elf/4.1.2/libgcc.a(_ne_df.o)
 .debug_aranges
                0x00000c40       0x20 /OPT/altera/12.1/nios2eds/bin/gnu/H-i686-pc-linux-gnu/bin/../lib/gcc/nios2-elf/4.1.2/libgcc.a(_gt_df.o)
 .debug_aranges
                0x00000c60       0x20 /OPT/altera/12.1/nios2eds/bin/gnu/H-i686-pc-linux-gnu/bin/../lib/gcc/nios2-elf/4.1.2/libgcc.a(_ge_df.o)
 .debug_aranges
                0x00000c80       0x20 /OPT/altera/12.1/nios2eds/bin/gnu/H-i686-pc-linux-gnu/bin/../lib/gcc/nios2-elf/4.1.2/libgcc.a(_lt_df.o)
 .debug_aranges
                0x00000ca0       0x20 /OPT/altera/12.1/nios2eds/bin/gnu/H-i686-pc-linux-gnu/bin/../lib/gcc/nios2-elf/4.1.2/libgcc.a(_le_df.o)
 .debug_aranges
                0x00000cc0       0x20 /OPT/altera/12.1/nios2eds/bin/gnu/H-i686-pc-linux-gnu/bin/../lib/gcc/nios2-elf/4.1.2/libgcc.a(_si_to_df.o)
 .debug_aranges
                0x00000ce0       0x20 /OPT/altera/12.1/nios2eds/bin/gnu/H-i686-pc-linux-gnu/bin/../lib/gcc/nios2-elf/4.1.2/libgcc.a(_df_to_si.o)
 .debug_aranges
                0x00000d00       0x20 /OPT/altera/12.1/nios2eds/bin/gnu/H-i686-pc-linux-gnu/bin/../lib/gcc/nios2-elf/4.1.2/libgcc.a(_df_to_sf.o)
 .debug_aranges
                0x00000d20       0x20 /OPT/altera/12.1/nios2eds/bin/gnu/H-i686-pc-linux-gnu/bin/../lib/gcc/nios2-elf/4.1.2/libgcc.a(_usi_to_df.o)
 .debug_aranges
                0x00000d40       0x20 /OPT/altera/12.1/nios2eds/bin/gnu/H-i686-pc-linux-gnu/bin/../lib/gcc/nios2-elf/4.1.2/libgcc.a(_clzsi2.o)
 .debug_aranges
                0x00000d60       0x20 /OPT/altera/12.1/nios2eds/bin/gnu/H-i686-pc-linux-gnu/bin/../lib/gcc/nios2-elf/4.1.2/libgcc.a(_unpack_sf.o)
 .debug_aranges
                0x00000d80       0x20 /OPT/altera/12.1/nios2eds/bin/gnu/H-i686-pc-linux-gnu/bin/../lib/gcc/nios2-elf/4.1.2/libgcc.a(_fpcmp_parts_sf.o)
 .debug_aranges
                0x00000da0       0x20 /OPT/altera/12.1/nios2eds/bin/gnu/H-i686-pc-linux-gnu/bin/../lib/gcc/nios2-elf/4.1.2/libgcc.a(_make_sf.o)
 .debug_aranges
                0x00000dc0       0x20 /OPT/altera/12.1/nios2eds/bin/gnu/H-i686-pc-linux-gnu/bin/../lib/gcc/nios2-elf/4.1.2/libgcc.a(_pack_df.o)
 .debug_aranges
                0x00000de0       0x20 /OPT/altera/12.1/nios2eds/bin/gnu/H-i686-pc-linux-gnu/bin/../lib/gcc/nios2-elf/4.1.2/libgcc.a(_unpack_df.o)
 .debug_aranges
                0x00000e00       0x20 /OPT/altera/12.1/nios2eds/bin/gnu/H-i686-pc-linux-gnu/bin/../lib/gcc/nios2-elf/4.1.2/libgcc.a(_fpcmp_parts_df.o)
 .debug_aranges
                0x00000e20       0x20 /OPT/altera/12.1/nios2eds/bin/gnu/H-i686-pc-linux-gnu/bin/../lib/gcc/nios2-elf/4.1.2/libgcc.a(_pack_sf.o)
 .debug_aranges
                0x00000e40       0x20 ../Webserver_bsp//libucosii_bsp.a(alt_dcache_flush.o)
 .debug_aranges
                0x00000e60       0x20 ../Webserver_bsp//libucosii_bsp.a(alt_flash_dev.o)
 .debug_aranges
                0x00000e80       0x20 ../Webserver_bsp//libucosii_bsp.a(alt_fstat.o)
 .debug_aranges
                0x00000ea0       0x20 ../Webserver_bsp//libucosii_bsp.a(alt_irq_register.o)
 .debug_aranges
                0x00000ec0       0x20 ../Webserver_bsp//libucosii_bsp.a(alt_isatty.o)
 .debug_aranges
                0x00000ee0       0x20 ../Webserver_bsp//libucosii_bsp.a(alt_lseek.o)
 .debug_aranges
                0x00000f00       0x20 ../Webserver_bsp//libucosii_bsp.a(alt_main.o)
 .debug_aranges
                0x00000f20       0x20 ../Webserver_bsp//libucosii_bsp.a(alt_open.o)
 .debug_aranges
                0x00000f40       0x20 ../Webserver_bsp//libucosii_bsp.a(alt_release_fd.o)
 .debug_aranges
                0x00000f60       0x20 ../Webserver_bsp//libucosii_bsp.a(alt_sbrk.o)
 .debug_aranges
                0x00000f80       0x20 ../Webserver_bsp//libucosii_bsp.a(alt_tick.o)
 .debug_aranges
                0x00000fa0       0x20 ../Webserver_bsp//libucosii_bsp.a(alt_usleep.o)
 .debug_aranges
                0x00000fc0       0x20 ../Webserver_bsp//libucosii_bsp.a(alt_env_lock.o)
 .debug_aranges
                0x00000fe0       0x20 ../Webserver_bsp//libucosii_bsp.a(alt_malloc_lock.o)
 .debug_aranges
                0x00001000       0x20 ../Webserver_bsp//libucosii_bsp.a(os_core.o)
 .debug_aranges
                0x00001020       0x20 ../Webserver_bsp//libucosii_bsp.a(os_dbg.o)
 .debug_aranges
                0x00001040       0x20 ../Webserver_bsp//libucosii_bsp.a(os_flag.o)
 .debug_aranges
                0x00001060       0x20 ../Webserver_bsp//libucosii_bsp.a(os_mbox.o)
 .debug_aranges
                0x00001080       0x20 ../Webserver_bsp//libucosii_bsp.a(os_mem.o)
 .debug_aranges
                0x000010a0       0x20 ../Webserver_bsp//libucosii_bsp.a(os_q.o)
 .debug_aranges
                0x000010c0       0x20 ../Webserver_bsp//libucosii_bsp.a(os_sem.o)
 .debug_aranges
                0x000010e0       0x20 ../Webserver_bsp//libucosii_bsp.a(os_task.o)
 .debug_aranges
                0x00001100       0x20 ../Webserver_bsp//libucosii_bsp.a(os_time.o)
 .debug_aranges
                0x00001120       0x20 ../Webserver_bsp//libucosii_bsp.a(alt_sys_init.o)
 .debug_aranges
                0x00001140       0x20 ../Webserver_bsp//libucosii_bsp.a(altera_avalon_jtag_uart_fd.o)
 .debug_aranges
                0x00001160       0x20 ../Webserver_bsp//libucosii_bsp.a(altera_avalon_jtag_uart_init.o)
 .debug_aranges
                0x00001180       0x20 ../Webserver_bsp//libucosii_bsp.a(altera_avalon_jtag_uart_ioctl.o)
 .debug_aranges
                0x000011a0       0x20 ../Webserver_bsp//libucosii_bsp.a(altera_avalon_jtag_uart_read.o)
 .debug_aranges
                0x000011c0       0x20 ../Webserver_bsp//libucosii_bsp.a(altera_avalon_jtag_uart_write.o)
 .debug_aranges
                0x000011e0       0x20 ../Webserver_bsp//libucosii_bsp.a(altera_avalon_timer_sc.o)
 .debug_aranges
                0x00001200       0x20 ../Webserver_bsp//libucosii_bsp.a(altera_ro_zipfs.o)
 .debug_aranges
                0x00001220       0x20 ../Webserver_bsp//libucosii_bsp.a(altera_up_avalon_character_lcd.o)
 .debug_aranges
                0x00001240       0x20 ../Webserver_bsp//libucosii_bsp.a(alt_iniche_close.o)
 .debug_aranges
                0x00001260       0x20 ../Webserver_bsp//libucosii_bsp.a(alt_iniche_dev.o)
 .debug_aranges
                0x00001280       0x20 ../Webserver_bsp//libucosii_bsp.a(alt_iniche_read.o)
 .debug_aranges
                0x000012a0       0x20 ../Webserver_bsp//libucosii_bsp.a(alt_iniche_write.o)
 .debug_aranges
                0x000012c0       0x20 ../Webserver_bsp//libucosii_bsp.a(ipnet.o)
 .debug_aranges
                0x000012e0       0x20 ../Webserver_bsp//libucosii_bsp.a(ipstart.o)
 .debug_aranges
                0x00001300       0x20 ../Webserver_bsp//libucosii_bsp.a(igmp_cmn.o)
 .debug_aranges
                0x00001320       0x20 ../Webserver_bsp//libucosii_bsp.a(bsdsock.o)
 .debug_aranges
                0x00001340       0x20 ../Webserver_bsp//libucosii_bsp.a(cksum.o)
 .debug_aranges
                0x00001360       0x20 ../Webserver_bsp//libucosii_bsp.a(in_utils.o)
 .debug_aranges
                0x00001380       0x20 ../Webserver_bsp//libucosii_bsp.a(netmain.o)
 .debug_aranges
                0x000013a0       0x20 ../Webserver_bsp//libucosii_bsp.a(parseip.o)
 .debug_aranges
                0x000013c0       0x20 ../Webserver_bsp//libucosii_bsp.a(tk_crnos.o)
 .debug_aranges
                0x000013e0       0x20 ../Webserver_bsp//libucosii_bsp.a(dhcpclnt.o)
 .debug_aranges
                0x00001400       0x20 ../Webserver_bsp//libucosii_bsp.a(dhcputil.o)
 .debug_aranges
                0x00001420       0x20 ../Webserver_bsp//libucosii_bsp.a(pktalloc.o)
 .debug_aranges
                0x00001440       0x20 ../Webserver_bsp//libucosii_bsp.a(q.o)
 .debug_aranges
                0x00001460       0x20 ../Webserver_bsp//libucosii_bsp.a(udp_open.o)
 .debug_aranges
                0x00001480       0x20 ../Webserver_bsp//libucosii_bsp.a(asm_cksum.o)
 .debug_aranges
                0x000014a0       0x20 ../Webserver_bsp//libucosii_bsp.a(brdutils.o)
 .debug_aranges
                0x000014c0       0x20 ../Webserver_bsp//libucosii_bsp.a(osportco.o)
 .debug_aranges
                0x000014e0       0x20 ../Webserver_bsp//libucosii_bsp.a(targnios.o)
 .debug_aranges
                0x00001500       0x20 ../Webserver_bsp//libucosii_bsp.a(nptcp.o)
 .debug_aranges
                0x00001520       0x20 ../Webserver_bsp//libucosii_bsp.a(rawsock.o)
 .debug_aranges
                0x00001540       0x20 ../Webserver_bsp//libucosii_bsp.a(sockcall.o)
 .debug_aranges
                0x00001560       0x20 ../Webserver_bsp//libucosii_bsp.a(socket.o)
 .debug_aranges
                0x00001580       0x20 ../Webserver_bsp//libucosii_bsp.a(socket2.o)
 .debug_aranges
                0x000015a0       0x20 ../Webserver_bsp//libucosii_bsp.a(soselect.o)
 .debug_aranges
                0x000015c0       0x20 ../Webserver_bsp//libucosii_bsp.a(tcp_in.o)
 .debug_aranges
                0x000015e0       0x20 ../Webserver_bsp//libucosii_bsp.a(tcp_out.o)
 .debug_aranges
                0x00001600       0x20 ../Webserver_bsp//libucosii_bsp.a(tcp_subr.o)
 .debug_aranges
                0x00001620       0x20 ../Webserver_bsp//libucosii_bsp.a(tcp_timr.o)
 .debug_aranges
                0x00001640       0x20 ../Webserver_bsp//libucosii_bsp.a(tcp_usr.o)
 .debug_aranges
                0x00001660       0x20 ../Webserver_bsp//libucosii_bsp.a(tcpport.o)
 .debug_aranges
                0x00001680       0x20 ../Webserver_bsp//libucosii_bsp.a(udpsock.o)
 .debug_aranges
                0x000016a0       0x20 ../Webserver_bsp//libucosii_bsp.a(alt_alarm_start.o)
 .debug_aranges
                0x000016c0       0x20 ../Webserver_bsp//libucosii_bsp.a(alt_busy_sleep.o)
 .debug_aranges
                0x000016e0       0x20 ../Webserver_bsp//libucosii_bsp.a(alt_close.o)
 .debug_aranges
                0x00001700       0x20 ../Webserver_bsp//libucosii_bsp.a(alt_dev.o)
 .debug_aranges
                0x00001720       0x20 ../Webserver_bsp//libucosii_bsp.a(alt_dev_llist_insert.o)
 .debug_aranges
                0x00001740       0x20 ../Webserver_bsp//libucosii_bsp.a(alt_do_ctors.o)
 .debug_aranges
                0x00001760       0x20 ../Webserver_bsp//libucosii_bsp.a(alt_do_dtors.o)
 .debug_aranges
                0x00001780       0x20 ../Webserver_bsp//libucosii_bsp.a(alt_find_dev.o)
 .debug_aranges
                0x000017a0       0x20 ../Webserver_bsp//libucosii_bsp.a(alt_find_file.o)
 .debug_aranges
                0x000017c0       0x20 ../Webserver_bsp//libucosii_bsp.a(alt_fs_reg.o)
 .debug_aranges
                0x000017e0       0x20 ../Webserver_bsp//libucosii_bsp.a(alt_get_fd.o)
 .debug_aranges
                0x00001800       0x20 ../Webserver_bsp//libucosii_bsp.a(alt_iic.o)
 .debug_aranges
                0x00001820       0x20 ../Webserver_bsp//libucosii_bsp.a(alt_iic_isr_register.o)
 .debug_aranges
                0x00001840       0x20 ../Webserver_bsp//libucosii_bsp.a(alt_io_redirect.o)
 .debug_aranges
                0x00001860       0x30 ../Webserver_bsp//libucosii_bsp.a(alt_irq_entry.o)
 .debug_aranges
                0x00001890       0x28 ../Webserver_bsp//libucosii_bsp.a(alt_irq_handler.o)
 .debug_aranges
                0x000018b8       0x20 ../Webserver_bsp//libucosii_bsp.a(alt_read.o)
 .debug_aranges
                0x000018d8       0x20 ../Webserver_bsp//libucosii_bsp.a(alt_remap_cached.o)
 .debug_aranges
                0x000018f8       0x20 ../Webserver_bsp//libucosii_bsp.a(alt_remap_uncached.o)
 .debug_aranges
                0x00001918       0x20 ../Webserver_bsp//libucosii_bsp.a(alt_write.o)
 .debug_aranges
                0x00001938       0x20 ../Webserver_bsp//libucosii_bsp.a(altera_nios2_qsys_irq.o)
 .debug_aranges
                0x00001958       0x20 ../Webserver_bsp//libucosii_bsp.a(os_cpu_a.o)
 .debug_aranges
                0x00001978       0x20 ../Webserver_bsp//libucosii_bsp.a(os_cpu_c.o)
 .debug_aranges
                0x00001998       0x20 ../Webserver_bsp//libucosii_bsp.a(allports.o)
 .debug_aranges
                0x000019b8       0x20 ../Webserver_bsp//libucosii_bsp.a(timeouts.o)
 .debug_aranges
                0x000019d8       0x20 ../Webserver_bsp//libucosii_bsp.a(tk_misc.o)
 .debug_aranges
                0x000019f8       0x20 ../Webserver_bsp//libucosii_bsp.a(alt_iniche_fcntl.o)
 .debug_aranges
                0x00001a18       0x20 ../Webserver_bsp//libucosii_bsp.a(et_arp.o)
 .debug_aranges
                0x00001a38       0x20 ../Webserver_bsp//libucosii_bsp.a(iface.o)
 .debug_aranges
                0x00001a58       0x20 ../Webserver_bsp//libucosii_bsp.a(ip.o)
 .debug_aranges
                0x00001a78       0x20 ../Webserver_bsp//libucosii_bsp.a(ip_reasm.o)
 .debug_aranges
                0x00001a98       0x20 ../Webserver_bsp//libucosii_bsp.a(ipdemux.o)
 .debug_aranges
                0x00001ab8       0x20 ../Webserver_bsp//libucosii_bsp.a(ipmc.o)
 .debug_aranges
                0x00001ad8       0x20 ../Webserver_bsp//libucosii_bsp.a(ipport.o)
 .debug_aranges
                0x00001af8       0x20 ../Webserver_bsp//libucosii_bsp.a(ipraw.o)
 .debug_aranges
                0x00001b18       0x20 ../Webserver_bsp//libucosii_bsp.a(iproute.o)
 .debug_aranges
                0x00001b38       0x20 ../Webserver_bsp//libucosii_bsp.a(udp.o)
 .debug_aranges
                0x00001b58       0x20 ../Webserver_bsp//libucosii_bsp.a(igmp.o)
 .debug_aranges
                0x00001b78       0x20 ../Webserver_bsp//libucosii_bsp.a(igmp2.o)
 .debug_aranges
                0x00001b98       0x20 ../Webserver_bsp//libucosii_bsp.a(ipopt.o)
 .debug_aranges
                0x00001bb8       0x20 ../Webserver_bsp//libucosii_bsp.a(u_mctest.o)
 .debug_aranges
                0x00001bd8       0x20 ../Webserver_bsp//libucosii_bsp.a(dhcsetup.o)
 .debug_aranges
                0x00001bf8       0x20 ../Webserver_bsp//libucosii_bsp.a(memdev.o)
 .debug_aranges
                0x00001c18       0x20 ../Webserver_bsp//libucosii_bsp.a(tcpcksum.o)
 .debug_aranges
                0x00001c38       0x20 ../Webserver_bsp//libucosii_bsp.a(in_pcb.o)
 .debug_aranges
                0x00001c58       0x20 ../Webserver_bsp//libucosii_bsp.a(vfsfiles.o)
 .debug_aranges
                0x00001c78       0x20 ../Webserver_bsp//libucosii_bsp.a(vfsport.o)
 .debug_aranges
                0x00001c98       0x38 ../Webserver_bsp//libucosii_bsp.a(alt_exception_entry.o)
 .debug_aranges
                0x00001cd0       0x20 ../Webserver_bsp//libucosii_bsp.a(alt_fcntl.o)
 .debug_aranges
                0x00001cf0       0x20 ../Webserver_bsp//libucosii_bsp.a(icmp.o)
 .debug_aranges
                0x00001d10       0x20 /OPT/altera/12.1/nios2eds/bin/gnu/H-i686-pc-linux-gnu/bin/../lib/gcc/nios2-elf/4.1.2/../../../../nios2-elf/lib/libc.a(lib_a-atexit.o)
 .debug_aranges
                0x00001d30       0x20 /OPT/altera/12.1/nios2eds/bin/gnu/H-i686-pc-linux-gnu/bin/../lib/gcc/nios2-elf/4.1.2/../../../../nios2-elf/lib/libc.a(lib_a-calloc.o)
 .debug_aranges
                0x00001d50       0x20 /OPT/altera/12.1/nios2eds/bin/gnu/H-i686-pc-linux-gnu/bin/../lib/gcc/nios2-elf/4.1.2/../../../../nios2-elf/lib/libc.a(lib_a-exit.o)
 .debug_aranges
                0x00001d70       0x20 /OPT/altera/12.1/nios2eds/bin/gnu/H-i686-pc-linux-gnu/bin/../lib/gcc/nios2-elf/4.1.2/../../../../nios2-elf/lib/libc.a(lib_a-getc.o)
 .debug_aranges
                0x00001d90       0x20 /OPT/altera/12.1/nios2eds/bin/gnu/H-i686-pc-linux-gnu/bin/../lib/gcc/nios2-elf/4.1.2/../../../../nios2-elf/lib/libc.a(lib_a-malloc.o)
 .debug_aranges
                0x00001db0       0x20 /OPT/altera/12.1/nios2eds/bin/gnu/H-i686-pc-linux-gnu/bin/../lib/gcc/nios2-elf/4.1.2/../../../../nios2-elf/lib/libc.a(lib_a-rget.o)
 .debug_aranges
                0x00001dd0       0x20 /OPT/altera/12.1/nios2eds/bin/gnu/H-i686-pc-linux-gnu/bin/../lib/gcc/nios2-elf/4.1.2/../../../../nios2-elf/lib/libc.a(lib_a-vprintf.o)
 .debug_aranges
                0x00001df0       0x20 /OPT/altera/12.1/nios2eds/bin/gnu/H-i686-pc-linux-gnu/bin/../lib/gcc/nios2-elf/4.1.2/../../../../nios2-elf/lib/libc.a(lib_a-vsprintf.o)
 .debug_aranges
                0x00001e10       0x20 /OPT/altera/12.1/nios2eds/bin/gnu/H-i686-pc-linux-gnu/bin/../lib/gcc/nios2-elf/4.1.2/../../../../nios2-elf/lib/libc.a(lib_a-__atexit.o)
 .debug_aranges
                0x00001e30       0x20 /OPT/altera/12.1/nios2eds/bin/gnu/H-i686-pc-linux-gnu/bin/../lib/gcc/nios2-elf/4.1.2/../../../../nios2-elf/lib/libc.a(lib_a-__call_atexit.o)
 .debug_aranges
                0x00001e50       0x20 ../Webserver_bsp//libucosii_bsp.a(alt_exit.o)

.debug_pubnames
                0x00000000     0x5810
 *(.debug_pubnames)
 .debug_pubnames
                0x00000000       0x2d obj/default/alt_error_handler.o
 .debug_pubnames
                0x0000002d      0x102 obj/default/dm9000a.o
 .debug_pubnames
                0x0000012f      0x2b6 obj/default/http.o
 .debug_pubnames
                0x000003e5       0xfa obj/default/network_utilities.o
 .debug_pubnames
                0x000004df       0x79 obj/default/srec_flash.o
 .debug_pubnames
                0x00000558       0xf4 obj/default/web_server.o
 .debug_pubnames
                0x0000064c       0x48 /OPT/altera/12.1/nios2eds/bin/gnu/H-i686-pc-linux-gnu/bin/../lib/gcc/nios2-elf/4.1.2/libgcc.a(lib2-divmod.o)
 .debug_pubnames
                0x00000694       0x27 /OPT/altera/12.1/nios2eds/bin/gnu/H-i686-pc-linux-gnu/bin/../lib/gcc/nios2-elf/4.1.2/../../../../nios2-elf/lib/libc.a(lib_a-atoi.o)
 .debug_pubnames
                0x000006bb       0x2e /OPT/altera/12.1/nios2eds/bin/gnu/H-i686-pc-linux-gnu/bin/../lib/gcc/nios2-elf/4.1.2/../../../../nios2-elf/lib/libc.a(lib_a-ctype_.o)
 .debug_pubnames
                0x000006e9       0x2b /OPT/altera/12.1/nios2eds/bin/gnu/H-i686-pc-linux-gnu/bin/../lib/gcc/nios2-elf/4.1.2/../../../../nios2-elf/lib/libc.a(lib_a-fclose.o)
 .debug_pubnames
                0x00000714       0x2b /OPT/altera/12.1/nios2eds/bin/gnu/H-i686-pc-linux-gnu/bin/../lib/gcc/nios2-elf/4.1.2/../../../../nios2-elf/lib/libc.a(lib_a-fflush.o)
 .debug_pubnames
                0x0000073f       0x2d /OPT/altera/12.1/nios2eds/bin/gnu/H-i686-pc-linux-gnu/bin/../lib/gcc/nios2-elf/4.1.2/../../../../nios2-elf/lib/libc.a(lib_a-fgetpos.o)
 .debug_pubnames
                0x0000076c       0xdb /OPT/altera/12.1/nios2eds/bin/gnu/H-i686-pc-linux-gnu/bin/../lib/gcc/nios2-elf/4.1.2/../../../../nios2-elf/lib/libc.a(lib_a-findfp.o)
 .debug_pubnames
                0x00000847       0x29 /OPT/altera/12.1/nios2eds/bin/gnu/H-i686-pc-linux-gnu/bin/../lib/gcc/nios2-elf/4.1.2/../../../../nios2-elf/lib/libc.a(lib_a-fopen.o)
 .debug_pubnames
                0x00000870       0x2d /OPT/altera/12.1/nios2eds/bin/gnu/H-i686-pc-linux-gnu/bin/../lib/gcc/nios2-elf/4.1.2/../../../../nios2-elf/lib/libc.a(lib_a-fprintf.o)
 .debug_pubnames
                0x0000089d       0x29 /OPT/altera/12.1/nios2eds/bin/gnu/H-i686-pc-linux-gnu/bin/../lib/gcc/nios2-elf/4.1.2/../../../../nios2-elf/lib/libc.a(lib_a-fread.o)
 .debug_pubnames
                0x000008c6       0x31 /OPT/altera/12.1/nios2eds/bin/gnu/H-i686-pc-linux-gnu/bin/../lib/gcc/nios2-elf/4.1.2/../../../../nios2-elf/lib/libc.a(lib_a-freer.o)
 .debug_pubnames
                0x000008f7       0x29 /OPT/altera/12.1/nios2eds/bin/gnu/H-i686-pc-linux-gnu/bin/../lib/gcc/nios2-elf/4.1.2/../../../../nios2-elf/lib/libc.a(lib_a-fseek.o)
 .debug_pubnames
                0x00000920       0x1f /OPT/altera/12.1/nios2eds/bin/gnu/H-i686-pc-linux-gnu/bin/../lib/gcc/nios2-elf/4.1.2/../../../../nios2-elf/lib/libc.a(lib_a-fstatr.o)
 .debug_pubnames
                0x0000093f       0x29 /OPT/altera/12.1/nios2eds/bin/gnu/H-i686-pc-linux-gnu/bin/../lib/gcc/nios2-elf/4.1.2/../../../../nios2-elf/lib/libc.a(lib_a-ftell.o)
 .debug_pubnames
                0x00000968       0x2e /OPT/altera/12.1/nios2eds/bin/gnu/H-i686-pc-linux-gnu/bin/../lib/gcc/nios2-elf/4.1.2/../../../../nios2-elf/lib/libc.a(lib_a-fwalk.o)
 .debug_pubnames
                0x00000996       0x2b /OPT/altera/12.1/nios2eds/bin/gnu/H-i686-pc-linux-gnu/bin/../lib/gcc/nios2-elf/4.1.2/../../../../nios2-elf/lib/libc.a(lib_a-fwrite.o)
 .debug_pubnames
                0x000009c1       0x39 /OPT/altera/12.1/nios2eds/bin/gnu/H-i686-pc-linux-gnu/bin/../lib/gcc/nios2-elf/4.1.2/../../../../nios2-elf/lib/libc.a(lib_a-impure.o)
 .debug_pubnames
                0x000009fa       0x1c /OPT/altera/12.1/nios2eds/bin/gnu/H-i686-pc-linux-gnu/bin/../lib/gcc/nios2-elf/4.1.2/../../../../nios2-elf/lib/libc.a(lib_a-int_errno.o)
 .debug_pubnames
                0x00000a16       0x23 /OPT/altera/12.1/nios2eds/bin/gnu/H-i686-pc-linux-gnu/bin/../lib/gcc/nios2-elf/4.1.2/../../../../nios2-elf/lib/libc.a(lib_a-makebuf.o)
 .debug_pubnames
                0x00000a39       0xce /OPT/altera/12.1/nios2eds/bin/gnu/H-i686-pc-linux-gnu/bin/../lib/gcc/nios2-elf/4.1.2/../../../../nios2-elf/lib/libc.a(lib_a-mallocr.o)
 .debug_pubnames
                0x00000b07       0x1d /OPT/altera/12.1/nios2eds/bin/gnu/H-i686-pc-linux-gnu/bin/../lib/gcc/nios2-elf/4.1.2/../../../../nios2-elf/lib/libc.a(lib_a-memcpy.o)
 .debug_pubnames
                0x00000b24       0x1e /OPT/altera/12.1/nios2eds/bin/gnu/H-i686-pc-linux-gnu/bin/../lib/gcc/nios2-elf/4.1.2/../../../../nios2-elf/lib/libc.a(lib_a-memmove.o)
 .debug_pubnames
                0x00000b42       0x1d /OPT/altera/12.1/nios2eds/bin/gnu/H-i686-pc-linux-gnu/bin/../lib/gcc/nios2-elf/4.1.2/../../../../nios2-elf/lib/libc.a(lib_a-memset.o)
 .debug_pubnames
                0x00000b5f       0x1e /OPT/altera/12.1/nios2eds/bin/gnu/H-i686-pc-linux-gnu/bin/../lib/gcc/nios2-elf/4.1.2/../../../../nios2-elf/lib/libc.a(lib_a-openr.o)
 .debug_pubnames
                0x00000b7d       0x2b /OPT/altera/12.1/nios2eds/bin/gnu/H-i686-pc-linux-gnu/bin/../lib/gcc/nios2-elf/4.1.2/../../../../nios2-elf/lib/libc.a(lib_a-perror.o)
 .debug_pubnames
                0x00000ba8       0x2b /OPT/altera/12.1/nios2eds/bin/gnu/H-i686-pc-linux-gnu/bin/../lib/gcc/nios2-elf/4.1.2/../../../../nios2-elf/lib/libc.a(lib_a-printf.o)
 .debug_pubnames
                0x00000bd3       0x27 /OPT/altera/12.1/nios2eds/bin/gnu/H-i686-pc-linux-gnu/bin/../lib/gcc/nios2-elf/4.1.2/../../../../nios2-elf/lib/libc.a(lib_a-puts.o)
 .debug_pubnames
                0x00000bfa       0x22 /OPT/altera/12.1/nios2eds/bin/gnu/H-i686-pc-linux-gnu/bin/../lib/gcc/nios2-elf/4.1.2/../../../../nios2-elf/lib/libc.a(lib_a-refill.o)
 .debug_pubnames
                0x00000c1c       0x1e /OPT/altera/12.1/nios2eds/bin/gnu/H-i686-pc-linux-gnu/bin/../lib/gcc/nios2-elf/4.1.2/../../../../nios2-elf/lib/libc.a(lib_a-sbrkr.o)
 .debug_pubnames
                0x00000c3a       0x2f /OPT/altera/12.1/nios2eds/bin/gnu/H-i686-pc-linux-gnu/bin/../lib/gcc/nios2-elf/4.1.2/../../../../nios2-elf/lib/libc.a(lib_a-snprintf.o)
 .debug_pubnames
                0x00000c69       0x2d /OPT/altera/12.1/nios2eds/bin/gnu/H-i686-pc-linux-gnu/bin/../lib/gcc/nios2-elf/4.1.2/../../../../nios2-elf/lib/libc.a(lib_a-sprintf.o)
 .debug_pubnames
                0x00000c96       0x2b /OPT/altera/12.1/nios2eds/bin/gnu/H-i686-pc-linux-gnu/bin/../lib/gcc/nios2-elf/4.1.2/../../../../nios2-elf/lib/libc.a(lib_a-sscanf.o)
 .debug_pubnames
                0x00000cc1       0x44 /OPT/altera/12.1/nios2eds/bin/gnu/H-i686-pc-linux-gnu/bin/../lib/gcc/nios2-elf/4.1.2/../../../../nios2-elf/lib/libc.a(lib_a-stdio.o)
 .debug_pubnames
                0x00000d05       0x21 /OPT/altera/12.1/nios2eds/bin/gnu/H-i686-pc-linux-gnu/bin/../lib/gcc/nios2-elf/4.1.2/../../../../nios2-elf/lib/libc.a(lib_a-strcasecmp.o)
 .debug_pubnames
                0x00000d26       0x1d /OPT/altera/12.1/nios2eds/bin/gnu/H-i686-pc-linux-gnu/bin/../lib/gcc/nios2-elf/4.1.2/../../../../nios2-elf/lib/libc.a(lib_a-strcat.o)
 .debug_pubnames
                0x00000d43       0x1d /OPT/altera/12.1/nios2eds/bin/gnu/H-i686-pc-linux-gnu/bin/../lib/gcc/nios2-elf/4.1.2/../../../../nios2-elf/lib/libc.a(lib_a-strchr.o)
 .debug_pubnames
                0x00000d60       0x1d /OPT/altera/12.1/nios2eds/bin/gnu/H-i686-pc-linux-gnu/bin/../lib/gcc/nios2-elf/4.1.2/../../../../nios2-elf/lib/libc.a(lib_a-strcmp.o)
 .debug_pubnames
                0x00000d7d       0x1d /OPT/altera/12.1/nios2eds/bin/gnu/H-i686-pc-linux-gnu/bin/../lib/gcc/nios2-elf/4.1.2/../../../../nios2-elf/lib/libc.a(lib_a-strcpy.o)
 .debug_pubnames
                0x00000d9a       0x1f /OPT/altera/12.1/nios2eds/bin/gnu/H-i686-pc-linux-gnu/bin/../lib/gcc/nios2-elf/4.1.2/../../../../nios2-elf/lib/libc.a(lib_a-strerror.o)
 .debug_pubnames
                0x00000db9       0x1d /OPT/altera/12.1/nios2eds/bin/gnu/H-i686-pc-linux-gnu/bin/../lib/gcc/nios2-elf/4.1.2/../../../../nios2-elf/lib/libc.a(lib_a-strlen.o)
 .debug_pubnames
                0x00000dd6       0x1e /OPT/altera/12.1/nios2eds/bin/gnu/H-i686-pc-linux-gnu/bin/../lib/gcc/nios2-elf/4.1.2/../../../../nios2-elf/lib/libc.a(lib_a-strncmp.o)
 .debug_pubnames
                0x00000df4       0x1e /OPT/altera/12.1/nios2eds/bin/gnu/H-i686-pc-linux-gnu/bin/../lib/gcc/nios2-elf/4.1.2/../../../../nios2-elf/lib/libc.a(lib_a-strncpy.o)
 .debug_pubnames
                0x00000e12       0x1d /OPT/altera/12.1/nios2eds/bin/gnu/H-i686-pc-linux-gnu/bin/../lib/gcc/nios2-elf/4.1.2/../../../../nios2-elf/lib/libc.a(lib_a-strstr.o)
 .debug_pubnames
                0x00000e2f       0x1d /OPT/altera/12.1/nios2eds/bin/gnu/H-i686-pc-linux-gnu/bin/../lib/gcc/nios2-elf/4.1.2/../../../../nios2-elf/lib/libc.a(lib_a-strtok.o)
 .debug_pubnames
                0x00000e4c       0x2e /OPT/altera/12.1/nios2eds/bin/gnu/H-i686-pc-linux-gnu/bin/../lib/gcc/nios2-elf/4.1.2/../../../../nios2-elf/lib/libc.a(lib_a-strtok_r.o)
 .debug_pubnames
                0x00000e7a       0x2b /OPT/altera/12.1/nios2eds/bin/gnu/H-i686-pc-linux-gnu/bin/../lib/gcc/nios2-elf/4.1.2/../../../../nios2-elf/lib/libc.a(lib_a-strtol.o)
 .debug_pubnames
                0x00000ea5       0x25 /OPT/altera/12.1/nios2eds/bin/gnu/H-i686-pc-linux-gnu/bin/../lib/gcc/nios2-elf/4.1.2/../../../../nios2-elf/lib/libc.a(lib_a-u_strerr.o)
 .debug_pubnames
                0x00000eca       0x45 /OPT/altera/12.1/nios2eds/bin/gnu/H-i686-pc-linux-gnu/bin/../lib/gcc/nios2-elf/4.1.2/../../../../nios2-elf/lib/libc.a(lib_a-vfprintf.o)
 .debug_pubnames
                0x00000f0f       0x4d /OPT/altera/12.1/nios2eds/bin/gnu/H-i686-pc-linux-gnu/bin/../lib/gcc/nios2-elf/4.1.2/../../../../nios2-elf/lib/libc.a(lib_a-vfscanf.o)
 .debug_pubnames
                0x00000f5c       0x1f /OPT/altera/12.1/nios2eds/bin/gnu/H-i686-pc-linux-gnu/bin/../lib/gcc/nios2-elf/4.1.2/../../../../nios2-elf/lib/libc.a(lib_a-writer.o)
 .debug_pubnames
                0x00000f7b       0x22 /OPT/altera/12.1/nios2eds/bin/gnu/H-i686-pc-linux-gnu/bin/../lib/gcc/nios2-elf/4.1.2/../../../../nios2-elf/lib/libc.a(lib_a-wsetup.o)
 .debug_pubnames
                0x00000f9d       0x1f /OPT/altera/12.1/nios2eds/bin/gnu/H-i686-pc-linux-gnu/bin/../lib/gcc/nios2-elf/4.1.2/../../../../nios2-elf/lib/libc.a(lib_a-closer.o)
 .debug_pubnames
                0x00000fbc       0x1e /OPT/altera/12.1/nios2eds/bin/gnu/H-i686-pc-linux-gnu/bin/../lib/gcc/nios2-elf/4.1.2/../../../../nios2-elf/lib/libc.a(lib_a-dtoa.o)
 .debug_pubnames
                0x00000fda       0x1f /OPT/altera/12.1/nios2eds/bin/gnu/H-i686-pc-linux-gnu/bin/../lib/gcc/nios2-elf/4.1.2/../../../../nios2-elf/lib/libc.a(lib_a-flags.o)
 .debug_pubnames
                0x00000ff9       0x29 /OPT/altera/12.1/nios2eds/bin/gnu/H-i686-pc-linux-gnu/bin/../lib/gcc/nios2-elf/4.1.2/../../../../nios2-elf/lib/libc.a(lib_a-fputc.o)
 .debug_pubnames
                0x00001022       0x29 /OPT/altera/12.1/nios2eds/bin/gnu/H-i686-pc-linux-gnu/bin/../lib/gcc/nios2-elf/4.1.2/../../../../nios2-elf/lib/libc.a(lib_a-fputs.o)
 .debug_pubnames
                0x0000104b       0x23 /OPT/altera/12.1/nios2eds/bin/gnu/H-i686-pc-linux-gnu/bin/../lib/gcc/nios2-elf/4.1.2/../../../../nios2-elf/lib/libc.a(lib_a-fvwrite.o)
 .debug_pubnames
                0x0000106e       0x20 /OPT/altera/12.1/nios2eds/bin/gnu/H-i686-pc-linux-gnu/bin/../lib/gcc/nios2-elf/4.1.2/../../../../nios2-elf/lib/libc.a(lib_a-isattyr.o)
 .debug_pubnames
                0x0000108e       0x1f /OPT/altera/12.1/nios2eds/bin/gnu/H-i686-pc-linux-gnu/bin/../lib/gcc/nios2-elf/4.1.2/../../../../nios2-elf/lib/libc.a(lib_a-iswspace.o)
 .debug_pubnames
                0x000010ad       0xc3 /OPT/altera/12.1/nios2eds/bin/gnu/H-i686-pc-linux-gnu/bin/../lib/gcc/nios2-elf/4.1.2/../../../../nios2-elf/lib/libc.a(lib_a-locale.o)
 .debug_pubnames
                0x00001170       0x1f /OPT/altera/12.1/nios2eds/bin/gnu/H-i686-pc-linux-gnu/bin/../lib/gcc/nios2-elf/4.1.2/../../../../nios2-elf/lib/libc.a(lib_a-lseekr.o)
 .debug_pubnames
                0x0000118f       0x2d /OPT/altera/12.1/nios2eds/bin/gnu/H-i686-pc-linux-gnu/bin/../lib/gcc/nios2-elf/4.1.2/../../../../nios2-elf/lib/libc.a(lib_a-mbrtowc.o)
 .debug_pubnames
                0x000011bc       0x20 /OPT/altera/12.1/nios2eds/bin/gnu/H-i686-pc-linux-gnu/bin/../lib/gcc/nios2-elf/4.1.2/../../../../nios2-elf/lib/libc.a(lib_a-mbtowc_r.o)
 .debug_pubnames
                0x000011dc       0x1d /OPT/altera/12.1/nios2eds/bin/gnu/H-i686-pc-linux-gnu/bin/../lib/gcc/nios2-elf/4.1.2/../../../../nios2-elf/lib/libc.a(lib_a-memchr.o)
 .debug_pubnames
                0x000011f9       0x1d /OPT/altera/12.1/nios2eds/bin/gnu/H-i686-pc-linux-gnu/bin/../lib/gcc/nios2-elf/4.1.2/../../../../nios2-elf/lib/libc.a(lib_a-memcmp.o)
 .debug_pubnames
                0x00001216      0x13a /OPT/altera/12.1/nios2eds/bin/gnu/H-i686-pc-linux-gnu/bin/../lib/gcc/nios2-elf/4.1.2/../../../../nios2-elf/lib/libc.a(lib_a-mprec.o)
 .debug_pubnames
                0x00001350       0x27 /OPT/altera/12.1/nios2eds/bin/gnu/H-i686-pc-linux-gnu/bin/../lib/gcc/nios2-elf/4.1.2/../../../../nios2-elf/lib/libc.a(lib_a-putc.o)
 .debug_pubnames
                0x00001377       0x1e /OPT/altera/12.1/nios2eds/bin/gnu/H-i686-pc-linux-gnu/bin/../lib/gcc/nios2-elf/4.1.2/../../../../nios2-elf/lib/libc.a(lib_a-readr.o)
 .debug_pubnames
                0x00001395       0x21 /OPT/altera/12.1/nios2eds/bin/gnu/H-i686-pc-linux-gnu/bin/../lib/gcc/nios2-elf/4.1.2/../../../../nios2-elf/lib/libc.a(lib_a-reallocr.o)
 .debug_pubnames
                0x000013b6       0x1f /OPT/altera/12.1/nios2eds/bin/gnu/H-i686-pc-linux-gnu/bin/../lib/gcc/nios2-elf/4.1.2/../../../../nios2-elf/lib/libc.a(lib_a-s_isinfd.o)
 .debug_pubnames
                0x000013d5       0x1f /OPT/altera/12.1/nios2eds/bin/gnu/H-i686-pc-linux-gnu/bin/../lib/gcc/nios2-elf/4.1.2/../../../../nios2-elf/lib/libc.a(lib_a-s_isnand.o)
 .debug_pubnames
                0x000013f4       0x1d /OPT/altera/12.1/nios2eds/bin/gnu/H-i686-pc-linux-gnu/bin/../lib/gcc/nios2-elf/4.1.2/../../../../nios2-elf/lib/libc.a(lib_a-sccl.o)
 .debug_pubnames
                0x00001411       0x1b /OPT/altera/12.1/nios2eds/bin/gnu/H-i686-pc-linux-gnu/bin/../lib/gcc/nios2-elf/4.1.2/../../../../nios2-elf/lib/libc.a(lib_a-sf_nan.o)
 .debug_pubnames
                0x0000142c       0x36 /OPT/altera/12.1/nios2eds/bin/gnu/H-i686-pc-linux-gnu/bin/../lib/gcc/nios2-elf/4.1.2/../../../../nios2-elf/lib/libc.a(lib_a-strtod.o)
 .debug_pubnames
                0x00001462       0x21 /OPT/altera/12.1/nios2eds/bin/gnu/H-i686-pc-linux-gnu/bin/../lib/gcc/nios2-elf/4.1.2/../../../../nios2-elf/lib/libc.a(lib_a-strtoll_r.o)
 .debug_pubnames
                0x00001483       0x2d /OPT/altera/12.1/nios2eds/bin/gnu/H-i686-pc-linux-gnu/bin/../lib/gcc/nios2-elf/4.1.2/../../../../nios2-elf/lib/libc.a(lib_a-strtoul.o)
 .debug_pubnames
                0x000014b0       0x22 /OPT/altera/12.1/nios2eds/bin/gnu/H-i686-pc-linux-gnu/bin/../lib/gcc/nios2-elf/4.1.2/../../../../nios2-elf/lib/libc.a(lib_a-strtoull_r.o)
 .debug_pubnames
                0x000014d2       0x39 /OPT/altera/12.1/nios2eds/bin/gnu/H-i686-pc-linux-gnu/bin/../lib/gcc/nios2-elf/4.1.2/../../../../nios2-elf/lib/libc.a(lib_a-ungetc.o)
 .debug_pubnames
                0x0000150b       0x2c /OPT/altera/12.1/nios2eds/bin/gnu/H-i686-pc-linux-gnu/bin/../lib/gcc/nios2-elf/4.1.2/../../../../nios2-elf/lib/libc.a(lib_a-wbuf.o)
 .debug_pubnames
                0x00001537       0x20 /OPT/altera/12.1/nios2eds/bin/gnu/H-i686-pc-linux-gnu/bin/../lib/gcc/nios2-elf/4.1.2/../../../../nios2-elf/lib/libc.a(lib_a-callocr.o)
 .debug_pubnames
                0x00001557       0x3e /OPT/altera/12.1/nios2eds/bin/gnu/H-i686-pc-linux-gnu/bin/../lib/gcc/nios2-elf/4.1.2/../../../../nios2-elf/lib/libc.a(lib_a-gdtoa-gethex.o)
 .debug_pubnames
                0x00001595       0x1f /OPT/altera/12.1/nios2eds/bin/gnu/H-i686-pc-linux-gnu/bin/../lib/gcc/nios2-elf/4.1.2/../../../../nios2-elf/lib/libc.a(lib_a-gdtoa-hexnan.o)
 .debug_pubnames
                0x000015b4       0x1f /OPT/altera/12.1/nios2eds/bin/gnu/H-i686-pc-linux-gnu/bin/../lib/gcc/nios2-elf/4.1.2/libgcc.a(_muldi3.o)
 .debug_pubnames
                0x000015d3       0x23 /OPT/altera/12.1/nios2eds/bin/gnu/H-i686-pc-linux-gnu/bin/../lib/gcc/nios2-elf/4.1.2/libgcc.a(_fixunsdfsi.o)
 .debug_pubnames
                0x000015f6       0x20 /OPT/altera/12.1/nios2eds/bin/gnu/H-i686-pc-linux-gnu/bin/../lib/gcc/nios2-elf/4.1.2/libgcc.a(_udivdi3.o)
 .debug_pubnames
                0x00001616       0x20 /OPT/altera/12.1/nios2eds/bin/gnu/H-i686-pc-linux-gnu/bin/../lib/gcc/nios2-elf/4.1.2/libgcc.a(_umoddi3.o)
 .debug_pubnames
                0x00001636       0x1e /OPT/altera/12.1/nios2eds/bin/gnu/H-i686-pc-linux-gnu/bin/../lib/gcc/nios2-elf/4.1.2/libgcc.a(_ne_sf.o)
 .debug_pubnames
                0x00001654       0x1e /OPT/altera/12.1/nios2eds/bin/gnu/H-i686-pc-linux-gnu/bin/../lib/gcc/nios2-elf/4.1.2/libgcc.a(_gt_sf.o)
 .debug_pubnames
                0x00001672       0x1e /OPT/altera/12.1/nios2eds/bin/gnu/H-i686-pc-linux-gnu/bin/../lib/gcc/nios2-elf/4.1.2/libgcc.a(_lt_sf.o)
 .debug_pubnames
                0x00001690       0x2c /OPT/altera/12.1/nios2eds/bin/gnu/H-i686-pc-linux-gnu/bin/../lib/gcc/nios2-elf/4.1.2/libgcc.a(_addsub_df.o)
 .debug_pubnames
                0x000016bc       0x1f /OPT/altera/12.1/nios2eds/bin/gnu/H-i686-pc-linux-gnu/bin/../lib/gcc/nios2-elf/4.1.2/libgcc.a(_mul_df.o)
 .debug_pubnames
                0x000016db       0x1f /OPT/altera/12.1/nios2eds/bin/gnu/H-i686-pc-linux-gnu/bin/../lib/gcc/nios2-elf/4.1.2/libgcc.a(_div_df.o)
 .debug_pubnames
                0x000016fa       0x1e /OPT/altera/12.1/nios2eds/bin/gnu/H-i686-pc-linux-gnu/bin/../lib/gcc/nios2-elf/4.1.2/libgcc.a(_eq_df.o)
 .debug_pubnames
                0x00001718       0x1e /OPT/altera/12.1/nios2eds/bin/gnu/H-i686-pc-linux-gnu/bin/../lib/gcc/nios2-elf/4.1.2/libgcc.a(_ne_df.o)
 .debug_pubnames
                0x00001736       0x1e /OPT/altera/12.1/nios2eds/bin/gnu/H-i686-pc-linux-gnu/bin/../lib/gcc/nios2-elf/4.1.2/libgcc.a(_gt_df.o)
 .debug_pubnames
                0x00001754       0x1e /OPT/altera/12.1/nios2eds/bin/gnu/H-i686-pc-linux-gnu/bin/../lib/gcc/nios2-elf/4.1.2/libgcc.a(_ge_df.o)
 .debug_pubnames
                0x00001772       0x1e /OPT/altera/12.1/nios2eds/bin/gnu/H-i686-pc-linux-gnu/bin/../lib/gcc/nios2-elf/4.1.2/libgcc.a(_lt_df.o)
 .debug_pubnames
                0x00001790       0x1e /OPT/altera/12.1/nios2eds/bin/gnu/H-i686-pc-linux-gnu/bin/../lib/gcc/nios2-elf/4.1.2/libgcc.a(_le_df.o)
 .debug_pubnames
                0x000017ae       0x22 /OPT/altera/12.1/nios2eds/bin/gnu/H-i686-pc-linux-gnu/bin/../lib/gcc/nios2-elf/4.1.2/libgcc.a(_si_to_df.o)
 .debug_pubnames
                0x000017d0       0x20 /OPT/altera/12.1/nios2eds/bin/gnu/H-i686-pc-linux-gnu/bin/../lib/gcc/nios2-elf/4.1.2/libgcc.a(_df_to_si.o)
 .debug_pubnames
                0x000017f0       0x23 /OPT/altera/12.1/nios2eds/bin/gnu/H-i686-pc-linux-gnu/bin/../lib/gcc/nios2-elf/4.1.2/libgcc.a(_df_to_sf.o)
 .debug_pubnames
                0x00001813       0x22 /OPT/altera/12.1/nios2eds/bin/gnu/H-i686-pc-linux-gnu/bin/../lib/gcc/nios2-elf/4.1.2/libgcc.a(_thenan_df.o)
 .debug_pubnames
                0x00001835       0x24 /OPT/altera/12.1/nios2eds/bin/gnu/H-i686-pc-linux-gnu/bin/../lib/gcc/nios2-elf/4.1.2/libgcc.a(_usi_to_df.o)
 .debug_pubnames
                0x00001859       0x20 /OPT/altera/12.1/nios2eds/bin/gnu/H-i686-pc-linux-gnu/bin/../lib/gcc/nios2-elf/4.1.2/libgcc.a(_clz.o)
 .debug_pubnames
                0x00001879       0x1f /OPT/altera/12.1/nios2eds/bin/gnu/H-i686-pc-linux-gnu/bin/../lib/gcc/nios2-elf/4.1.2/libgcc.a(_clzsi2.o)
 .debug_pubnames
                0x00001898       0x21 /OPT/altera/12.1/nios2eds/bin/gnu/H-i686-pc-linux-gnu/bin/../lib/gcc/nios2-elf/4.1.2/libgcc.a(_unpack_sf.o)
 .debug_pubnames
                0x000018b9       0x26 /OPT/altera/12.1/nios2eds/bin/gnu/H-i686-pc-linux-gnu/bin/../lib/gcc/nios2-elf/4.1.2/libgcc.a(_fpcmp_parts_sf.o)
 .debug_pubnames
                0x000018df       0x20 /OPT/altera/12.1/nios2eds/bin/gnu/H-i686-pc-linux-gnu/bin/../lib/gcc/nios2-elf/4.1.2/libgcc.a(_make_sf.o)
 .debug_pubnames
                0x000018ff       0x1f /OPT/altera/12.1/nios2eds/bin/gnu/H-i686-pc-linux-gnu/bin/../lib/gcc/nios2-elf/4.1.2/libgcc.a(_pack_df.o)
 .debug_pubnames
                0x0000191e       0x21 /OPT/altera/12.1/nios2eds/bin/gnu/H-i686-pc-linux-gnu/bin/../lib/gcc/nios2-elf/4.1.2/libgcc.a(_unpack_df.o)
 .debug_pubnames
                0x0000193f       0x26 /OPT/altera/12.1/nios2eds/bin/gnu/H-i686-pc-linux-gnu/bin/../lib/gcc/nios2-elf/4.1.2/libgcc.a(_fpcmp_parts_df.o)
 .debug_pubnames
                0x00001965       0x1f /OPT/altera/12.1/nios2eds/bin/gnu/H-i686-pc-linux-gnu/bin/../lib/gcc/nios2-elf/4.1.2/libgcc.a(_pack_sf.o)
 .debug_pubnames
                0x00001984       0x27 ../Webserver_bsp//libucosii_bsp.a(alt_dcache_flush.o)
 .debug_pubnames
                0x000019ab       0x58 ../Webserver_bsp//libucosii_bsp.a(alt_flash_dev.o)
 .debug_pubnames
                0x00001a03       0x1c ../Webserver_bsp//libucosii_bsp.a(alt_fstat.o)
 .debug_pubnames
                0x00001a1f       0x27 ../Webserver_bsp//libucosii_bsp.a(alt_irq_register.o)
 .debug_pubnames
                0x00001a46       0x3b ../Webserver_bsp//libucosii_bsp.a(alt_irq_vars.o)
 .debug_pubnames
                0x00001a81       0x1d ../Webserver_bsp//libucosii_bsp.a(alt_isatty.o)
 .debug_pubnames
                0x00001a9e       0x1c ../Webserver_bsp//libucosii_bsp.a(alt_lseek.o)
 .debug_pubnames
                0x00001aba       0x46 ../Webserver_bsp//libucosii_bsp.a(alt_main.o)
 .debug_pubnames
                0x00001b00       0x1b ../Webserver_bsp//libucosii_bsp.a(alt_open.o)
 .debug_pubnames
                0x00001b1b       0x25 ../Webserver_bsp//libucosii_bsp.a(alt_release_fd.o)
 .debug_pubnames
                0x00001b40       0x1b ../Webserver_bsp//libucosii_bsp.a(alt_sbrk.o)
 .debug_pubnames
                0x00001b5b       0x68 ../Webserver_bsp//libucosii_bsp.a(alt_tick.o)
 .debug_pubnames
                0x00001bc3       0x1d ../Webserver_bsp//libucosii_bsp.a(alt_usleep.o)
 .debug_pubnames
                0x00001be0       0x41 ../Webserver_bsp//libucosii_bsp.a(alt_env_lock.o)
 .debug_pubnames
                0x00001c21       0x48 ../Webserver_bsp//libucosii_bsp.a(alt_malloc_lock.o)
 .debug_pubnames
                0x00001c69      0x3f8 ../Webserver_bsp//libucosii_bsp.a(os_core.o)
 .debug_pubnames
                0x00002061      0x3c5 ../Webserver_bsp//libucosii_bsp.a(os_dbg.o)
 .debug_pubnames
                0x00002426       0xd0 ../Webserver_bsp//libucosii_bsp.a(os_flag.o)
 .debug_pubnames
                0x000024f6       0x96 ../Webserver_bsp//libucosii_bsp.a(os_mbox.o)
 .debug_pubnames
                0x0000258c       0x7c ../Webserver_bsp//libucosii_bsp.a(os_mem.o)
 .debug_pubnames
                0x00002608       0xa9 ../Webserver_bsp//libucosii_bsp.a(os_q.o)
 .debug_pubnames
                0x000026b1       0x8a ../Webserver_bsp//libucosii_bsp.a(os_sem.o)
 .debug_pubnames
                0x0000273b       0xe5 ../Webserver_bsp//libucosii_bsp.a(os_task.o)
 .debug_pubnames
                0x00002820       0x62 ../Webserver_bsp//libucosii_bsp.a(os_time.o)
 .debug_pubnames
                0x00002882       0x34 ../Webserver_bsp//libucosii_bsp.a(alt_sys_init.o)
 .debug_pubnames
                0x000028b6       0xa5 ../Webserver_bsp//libucosii_bsp.a(altera_avalon_jtag_uart_fd.o)
 .debug_pubnames
                0x0000295b       0x55 ../Webserver_bsp//libucosii_bsp.a(altera_avalon_jtag_uart_init.o)
 .debug_pubnames
                0x000029b0       0x34 ../Webserver_bsp//libucosii_bsp.a(altera_avalon_jtag_uart_ioctl.o)
 .debug_pubnames
                0x000029e4       0x33 ../Webserver_bsp//libucosii_bsp.a(altera_avalon_jtag_uart_read.o)
 .debug_pubnames
                0x00002a17       0x34 ../Webserver_bsp//libucosii_bsp.a(altera_avalon_jtag_uart_write.o)
 .debug_pubnames
                0x00002a4b       0x2f ../Webserver_bsp//libucosii_bsp.a(altera_avalon_timer_sc.o)
 .debug_pubnames
                0x00002a7a       0xa3 ../Webserver_bsp//libucosii_bsp.a(altera_ro_zipfs.o)
 .debug_pubnames
                0x00002b1d      0x1cd ../Webserver_bsp//libucosii_bsp.a(altera_up_avalon_character_lcd.o)
 .debug_pubnames
                0x00002cea       0x1c ../Webserver_bsp//libucosii_bsp.a(alt_iniche_close.o)
 .debug_pubnames
                0x00002d06       0x42 ../Webserver_bsp//libucosii_bsp.a(alt_iniche_dev.o)
 .debug_pubnames
                0x00002d48       0x1b ../Webserver_bsp//libucosii_bsp.a(alt_iniche_read.o)
 .debug_pubnames
                0x00002d63       0x1c ../Webserver_bsp//libucosii_bsp.a(alt_iniche_write.o)
 .debug_pubnames
                0x00002d7f       0x90 ../Webserver_bsp//libucosii_bsp.a(ipnet.o)
 .debug_pubnames
                0x00002e0f       0x81 ../Webserver_bsp//libucosii_bsp.a(ipstart.o)
 .debug_pubnames
                0x00002e90      0x108 ../Webserver_bsp//libucosii_bsp.a(igmp_cmn.o)
 .debug_pubnames
                0x00002f98       0xc4 ../Webserver_bsp//libucosii_bsp.a(bsdsock.o)
 .debug_pubnames
                0x0000305c       0x27 ../Webserver_bsp//libucosii_bsp.a(cksum.o)
 .debug_pubnames
                0x00003083       0xcc ../Webserver_bsp//libucosii_bsp.a(in_utils.o)
 .debug_pubnames
                0x0000314f       0xb2 ../Webserver_bsp//libucosii_bsp.a(netmain.o)
 .debug_pubnames
                0x00003201       0xa6 ../Webserver_bsp//libucosii_bsp.a(parseip.o)
 .debug_pubnames
                0x000032a7       0x97 ../Webserver_bsp//libucosii_bsp.a(tk_crnos.o)
 .debug_pubnames
                0x0000333e      0x252 ../Webserver_bsp//libucosii_bsp.a(dhcpclnt.o)
 .debug_pubnames
                0x00003590       0x1f ../Webserver_bsp//libucosii_bsp.a(dhcputil.o)
 .debug_pubnames
                0x000035af       0xe2 ../Webserver_bsp//libucosii_bsp.a(pktalloc.o)
 .debug_pubnames
                0x00003691       0x2d ../Webserver_bsp//libucosii_bsp.a(q.o)
 .debug_pubnames
                0x000036be       0x3a ../Webserver_bsp//libucosii_bsp.a(udp_open.o)
 .debug_pubnames
                0x000036f8       0xc5 ../Webserver_bsp//libucosii_bsp.a(brdutils.o)
 .debug_pubnames
                0x000037bd      0x10c ../Webserver_bsp//libucosii_bsp.a(osportco.o)
 .debug_pubnames
                0x000038c9       0xf5 ../Webserver_bsp//libucosii_bsp.a(targnios.o)
 .debug_pubnames
                0x000039be      0x190 ../Webserver_bsp//libucosii_bsp.a(nptcp.o)
 .debug_pubnames
                0x00003b4e       0x46 ../Webserver_bsp//libucosii_bsp.a(rawsock.o)
 .debug_pubnames
                0x00003b94      0x108 ../Webserver_bsp//libucosii_bsp.a(sockcall.o)
 .debug_pubnames
                0x00003c9c       0xfc ../Webserver_bsp//libucosii_bsp.a(socket.o)
 .debug_pubnames
                0x00003d98      0x178 ../Webserver_bsp//libucosii_bsp.a(socket2.o)
 .debug_pubnames
                0x00003f10       0x92 ../Webserver_bsp//libucosii_bsp.a(soselect.o)
 .debug_pubnames
                0x00003fa2       0xc2 ../Webserver_bsp//libucosii_bsp.a(tcp_in.o)
 .debug_pubnames
                0x00004064       0x57 ../Webserver_bsp//libucosii_bsp.a(tcp_out.o)
 .debug_pubnames
                0x000040bb       0xb9 ../Webserver_bsp//libucosii_bsp.a(tcp_subr.o)
 .debug_pubnames
                0x00004174       0x96 ../Webserver_bsp//libucosii_bsp.a(tcp_timr.o)
 .debug_pubnames
                0x0000420a       0x79 ../Webserver_bsp//libucosii_bsp.a(tcp_usr.o)
 .debug_pubnames
                0x00004283       0x1e ../Webserver_bsp//libucosii_bsp.a(tcpport.o)
 .debug_pubnames
                0x000042a1       0x76 ../Webserver_bsp//libucosii_bsp.a(udpsock.o)
 .debug_pubnames
                0x00004317       0x26 ../Webserver_bsp//libucosii_bsp.a(alt_alarm_start.o)
 .debug_pubnames
                0x0000433d       0x25 ../Webserver_bsp//libucosii_bsp.a(alt_busy_sleep.o)
 .debug_pubnames
                0x00004362       0x20 ../Webserver_bsp//libucosii_bsp.a(alt_close.o)
 .debug_pubnames
                0x00004382       0x78 ../Webserver_bsp//libucosii_bsp.a(alt_dev.o)
 .debug_pubnames
                0x000043fa       0x2b ../Webserver_bsp//libucosii_bsp.a(alt_dev_llist_insert.o)
 .debug_pubnames
                0x00004425       0x20 ../Webserver_bsp//libucosii_bsp.a(alt_do_ctors.o)
 .debug_pubnames
                0x00004445       0x20 ../Webserver_bsp//libucosii_bsp.a(alt_do_dtors.o)
 .debug_pubnames
                0x00004465       0x20 ../Webserver_bsp//libucosii_bsp.a(alt_errno.o)
 .debug_pubnames
                0x00004485       0x23 ../Webserver_bsp//libucosii_bsp.a(alt_find_dev.o)
 .debug_pubnames
                0x000044a8       0x24 ../Webserver_bsp//libucosii_bsp.a(alt_find_file.o)
 .debug_pubnames
                0x000044cc       0x21 ../Webserver_bsp//libucosii_bsp.a(alt_fs_reg.o)
 .debug_pubnames
                0x000044ed       0x21 ../Webserver_bsp//libucosii_bsp.a(alt_get_fd.o)
 .debug_pubnames
                0x0000450e       0x6e ../Webserver_bsp//libucosii_bsp.a(alt_iic.o)
 .debug_pubnames
                0x0000457c       0x2b ../Webserver_bsp//libucosii_bsp.a(alt_iic_isr_register.o)
 .debug_pubnames
                0x000045a7       0x26 ../Webserver_bsp//libucosii_bsp.a(alt_io_redirect.o)
 .debug_pubnames
                0x000045cd       0x32 ../Webserver_bsp//libucosii_bsp.a(alt_irq_handler.o)
 .debug_pubnames
                0x000045ff       0x1f ../Webserver_bsp//libucosii_bsp.a(alt_read.o)
 .debug_pubnames
                0x0000461e       0x27 ../Webserver_bsp//libucosii_bsp.a(alt_remap_cached.o)
 .debug_pubnames
                0x00004645       0x29 ../Webserver_bsp//libucosii_bsp.a(alt_remap_uncached.o)
 .debug_pubnames
                0x0000466e       0x20 ../Webserver_bsp//libucosii_bsp.a(alt_write.o)
 .debug_pubnames
                0x0000468e       0x31 ../Webserver_bsp//libucosii_bsp.a(altera_nios2_qsys_irq.o)
 .debug_pubnames
                0x000046bf       0xcd ../Webserver_bsp//libucosii_bsp.a(os_cpu_c.o)
 .debug_pubnames
                0x0000478c       0xd4 ../Webserver_bsp//libucosii_bsp.a(allports.o)
 .debug_pubnames
                0x00004860       0x6f ../Webserver_bsp//libucosii_bsp.a(timeouts.o)
 .debug_pubnames
                0x000048cf       0x35 ../Webserver_bsp//libucosii_bsp.a(tk_misc.o)
 .debug_pubnames
                0x00004904       0x1c ../Webserver_bsp//libucosii_bsp.a(alt_iniche_fcntl.o)
 .debug_pubnames
                0x00004920      0x134 ../Webserver_bsp//libucosii_bsp.a(et_arp.o)
 .debug_pubnames
                0x00004a54       0x58 ../Webserver_bsp//libucosii_bsp.a(iface.o)
 .debug_pubnames
                0x00004aac       0xea ../Webserver_bsp//libucosii_bsp.a(ip.o)
 .debug_pubnames
                0x00004b96      0x22e ../Webserver_bsp//libucosii_bsp.a(ip_reasm.o)
 .debug_pubnames
                0x00004dc4       0x3c ../Webserver_bsp//libucosii_bsp.a(ipdemux.o)
 .debug_pubnames
                0x00004e00       0x43 ../Webserver_bsp//libucosii_bsp.a(ipmc.o)
 .debug_pubnames
                0x00004e43       0x99 ../Webserver_bsp//libucosii_bsp.a(ipport.o)
 .debug_pubnames
                0x00004edc       0x87 ../Webserver_bsp//libucosii_bsp.a(ipraw.o)
 .debug_pubnames
                0x00004f63       0x5d ../Webserver_bsp//libucosii_bsp.a(iproute.o)
 .debug_pubnames
                0x00004fc0       0x7f ../Webserver_bsp//libucosii_bsp.a(udp.o)
 .debug_pubnames
                0x0000503f       0x23 ../Webserver_bsp//libucosii_bsp.a(igmp.o)
 .debug_pubnames
                0x00005062       0x8d ../Webserver_bsp//libucosii_bsp.a(igmp2.o)
 .debug_pubnames
                0x000050ef       0x5f ../Webserver_bsp//libucosii_bsp.a(ipopt.o)
 .debug_pubnames
                0x0000514e       0x35 ../Webserver_bsp//libucosii_bsp.a(u_mctest.o)
 .debug_pubnames
                0x00005183       0x33 ../Webserver_bsp//libucosii_bsp.a(dhcsetup.o)
 .debug_pubnames
                0x000051b6       0xb1 ../Webserver_bsp//libucosii_bsp.a(memdev.o)
 .debug_pubnames
                0x00005267       0x20 ../Webserver_bsp//libucosii_bsp.a(tcpcksum.o)
 .debug_pubnames
                0x00005287       0xc8 ../Webserver_bsp//libucosii_bsp.a(in_pcb.o)
 .debug_pubnames
                0x0000534f      0x278 ../Webserver_bsp//libucosii_bsp.a(vfsfiles.o)
 .debug_pubnames
                0x000055c7       0x1f ../Webserver_bsp//libucosii_bsp.a(vfsport.o)
 .debug_pubnames
                0x000055e6       0x20 ../Webserver_bsp//libucosii_bsp.a(alt_fcntl.o)
 .debug_pubnames
                0x00005606       0x66 ../Webserver_bsp//libucosii_bsp.a(icmp.o)
 .debug_pubnames
                0x0000566c       0x2a /OPT/altera/12.1/nios2eds/bin/gnu/H-i686-pc-linux-gnu/bin/../lib/gcc/nios2-elf/4.1.2/../../../../nios2-elf/lib/libc.a(lib_a-atexit.o)
 .debug_pubnames
                0x00005696       0x1d /OPT/altera/12.1/nios2eds/bin/gnu/H-i686-pc-linux-gnu/bin/../lib/gcc/nios2-elf/4.1.2/../../../../nios2-elf/lib/libc.a(lib_a-calloc.o)
 .debug_pubnames
                0x000056b3       0x1b /OPT/altera/12.1/nios2eds/bin/gnu/H-i686-pc-linux-gnu/bin/../lib/gcc/nios2-elf/4.1.2/../../../../nios2-elf/lib/libc.a(lib_a-exit.o)
 .debug_pubnames
                0x000056ce       0x27 /OPT/altera/12.1/nios2eds/bin/gnu/H-i686-pc-linux-gnu/bin/../lib/gcc/nios2-elf/4.1.2/../../../../nios2-elf/lib/libc.a(lib_a-getc.o)
 .debug_pubnames
                0x000056f5       0x26 /OPT/altera/12.1/nios2eds/bin/gnu/H-i686-pc-linux-gnu/bin/../lib/gcc/nios2-elf/4.1.2/../../../../nios2-elf/lib/libc.a(lib_a-malloc.o)
 .debug_pubnames
                0x0000571b       0x2c /OPT/altera/12.1/nios2eds/bin/gnu/H-i686-pc-linux-gnu/bin/../lib/gcc/nios2-elf/4.1.2/../../../../nios2-elf/lib/libc.a(lib_a-rget.o)
 .debug_pubnames
                0x00005747       0x2d /OPT/altera/12.1/nios2eds/bin/gnu/H-i686-pc-linux-gnu/bin/../lib/gcc/nios2-elf/4.1.2/../../../../nios2-elf/lib/libc.a(lib_a-vprintf.o)
 .debug_pubnames
                0x00005774       0x2f /OPT/altera/12.1/nios2eds/bin/gnu/H-i686-pc-linux-gnu/bin/../lib/gcc/nios2-elf/4.1.2/../../../../nios2-elf/lib/libc.a(lib_a-vsprintf.o)
 .debug_pubnames
                0x000057a3       0x2a /OPT/altera/12.1/nios2eds/bin/gnu/H-i686-pc-linux-gnu/bin/../lib/gcc/nios2-elf/4.1.2/../../../../nios2-elf/lib/libc.a(lib_a-__atexit.o)
 .debug_pubnames
                0x000057cd       0x27 /OPT/altera/12.1/nios2eds/bin/gnu/H-i686-pc-linux-gnu/bin/../lib/gcc/nios2-elf/4.1.2/../../../../nios2-elf/lib/libc.a(lib_a-__call_atexit.o)
 .debug_pubnames
                0x000057f4       0x1c ../Webserver_bsp//libucosii_bsp.a(alt_exit.o)

.debug_info     0x00000000    0x899f1
 *(.debug_info .gnu.linkonce.wi.*)
 .debug_info    0x00000000       0xaa ../Webserver_bsp//obj/HAL/src/crt0.o
 .debug_info    0x000000aa      0xd0d obj/default/alt_error_handler.o
 .debug_info    0x00000db7     0x1288 obj/default/dm9000a.o
 .debug_info    0x0000203f     0x1ffa obj/default/http.o
 .debug_info    0x00004039     0x12ad obj/default/network_utilities.o
 .debug_info    0x000052e6      0xa87 obj/default/srec_flash.o
 .debug_info    0x00005d6d     0x1db3 obj/default/web_server.o
 .debug_info    0x00007b20      0x21c /OPT/altera/12.1/nios2eds/bin/gnu/H-i686-pc-linux-gnu/bin/../lib/gcc/nios2-elf/4.1.2/libgcc.a(lib2-divmod.o)
 .debug_info    0x00007d3c      0x960 /OPT/altera/12.1/nios2eds/bin/gnu/H-i686-pc-linux-gnu/bin/../lib/gcc/nios2-elf/4.1.2/../../../../nios2-elf/lib/libc.a(lib_a-atoi.o)
 .debug_info    0x0000869c       0xa0 /OPT/altera/12.1/nios2eds/bin/gnu/H-i686-pc-linux-gnu/bin/../lib/gcc/nios2-elf/4.1.2/../../../../nios2-elf/lib/libc.a(lib_a-ctype_.o)
 .debug_info    0x0000873c      0x994 /OPT/altera/12.1/nios2eds/bin/gnu/H-i686-pc-linux-gnu/bin/../lib/gcc/nios2-elf/4.1.2/../../../../nios2-elf/lib/libc.a(lib_a-fclose.o)
 .debug_info    0x000090d0      0x9fe /OPT/altera/12.1/nios2eds/bin/gnu/H-i686-pc-linux-gnu/bin/../lib/gcc/nios2-elf/4.1.2/../../../../nios2-elf/lib/libc.a(lib_a-fflush.o)
 .debug_info    0x00009ace      0x9ab /OPT/altera/12.1/nios2eds/bin/gnu/H-i686-pc-linux-gnu/bin/../lib/gcc/nios2-elf/4.1.2/../../../../nios2-elf/lib/libc.a(lib_a-fgetpos.o)
 .debug_info    0x0000a479      0xb72 /OPT/altera/12.1/nios2eds/bin/gnu/H-i686-pc-linux-gnu/bin/../lib/gcc/nios2-elf/4.1.2/../../../../nios2-elf/lib/libc.a(lib_a-findfp.o)
 .debug_info    0x0000afeb      0x9e0 /OPT/altera/12.1/nios2eds/bin/gnu/H-i686-pc-linux-gnu/bin/../lib/gcc/nios2-elf/4.1.2/../../../../nios2-elf/lib/libc.a(lib_a-fopen.o)
 .debug_info    0x0000b9cb      0x9e1 /OPT/altera/12.1/nios2eds/bin/gnu/H-i686-pc-linux-gnu/bin/../lib/gcc/nios2-elf/4.1.2/../../../../nios2-elf/lib/libc.a(lib_a-fprintf.o)
 .debug_info    0x0000c3ac      0xa77 /OPT/altera/12.1/nios2eds/bin/gnu/H-i686-pc-linux-gnu/bin/../lib/gcc/nios2-elf/4.1.2/../../../../nios2-elf/lib/libc.a(lib_a-fread.o)
 .debug_info    0x0000ce23      0xbc9 /OPT/altera/12.1/nios2eds/bin/gnu/H-i686-pc-linux-gnu/bin/../lib/gcc/nios2-elf/4.1.2/../../../../nios2-elf/lib/libc.a(lib_a-freer.o)
 .debug_info    0x0000d9ec      0xbdc /OPT/altera/12.1/nios2eds/bin/gnu/H-i686-pc-linux-gnu/bin/../lib/gcc/nios2-elf/4.1.2/../../../../nios2-elf/lib/libc.a(lib_a-fseek.o)
 .debug_info    0x0000e5c8      0xafc /OPT/altera/12.1/nios2eds/bin/gnu/H-i686-pc-linux-gnu/bin/../lib/gcc/nios2-elf/4.1.2/../../../../nios2-elf/lib/libc.a(lib_a-fstatr.o)
 .debug_info    0x0000f0c4      0x996 /OPT/altera/12.1/nios2eds/bin/gnu/H-i686-pc-linux-gnu/bin/../lib/gcc/nios2-elf/4.1.2/../../../../nios2-elf/lib/libc.a(lib_a-ftell.o)
 .debug_info    0x0000fa5a      0xaed /OPT/altera/12.1/nios2eds/bin/gnu/H-i686-pc-linux-gnu/bin/../lib/gcc/nios2-elf/4.1.2/../../../../nios2-elf/lib/libc.a(lib_a-fwalk.o)
 .debug_info    0x00010547      0xa83 /OPT/altera/12.1/nios2eds/bin/gnu/H-i686-pc-linux-gnu/bin/../lib/gcc/nios2-elf/4.1.2/../../../../nios2-elf/lib/libc.a(lib_a-fwrite.o)
 .debug_info    0x00010fca      0x93d /OPT/altera/12.1/nios2eds/bin/gnu/H-i686-pc-linux-gnu/bin/../lib/gcc/nios2-elf/4.1.2/../../../../nios2-elf/lib/libc.a(lib_a-impure.o)
 .debug_info    0x00011907       0x8c /OPT/altera/12.1/nios2eds/bin/gnu/H-i686-pc-linux-gnu/bin/../lib/gcc/nios2-elf/4.1.2/../../../../nios2-elf/lib/libc.a(lib_a-int_errno.o)
 .debug_info    0x00011993      0xb1a /OPT/altera/12.1/nios2eds/bin/gnu/H-i686-pc-linux-gnu/bin/../lib/gcc/nios2-elf/4.1.2/../../../../nios2-elf/lib/libc.a(lib_a-makebuf.o)
 .debug_info    0x000124ad      0xcd0 /OPT/altera/12.1/nios2eds/bin/gnu/H-i686-pc-linux-gnu/bin/../lib/gcc/nios2-elf/4.1.2/../../../../nios2-elf/lib/libc.a(lib_a-mallocr.o)
 .debug_info    0x0001317d      0x106 /OPT/altera/12.1/nios2eds/bin/gnu/H-i686-pc-linux-gnu/bin/../lib/gcc/nios2-elf/4.1.2/../../../../nios2-elf/lib/libc.a(lib_a-memcpy.o)
 .debug_info    0x00013283      0x13e /OPT/altera/12.1/nios2eds/bin/gnu/H-i686-pc-linux-gnu/bin/../lib/gcc/nios2-elf/4.1.2/../../../../nios2-elf/lib/libc.a(lib_a-memmove.o)
 .debug_info    0x000133c1      0x113 /OPT/altera/12.1/nios2eds/bin/gnu/H-i686-pc-linux-gnu/bin/../lib/gcc/nios2-elf/4.1.2/../../../../nios2-elf/lib/libc.a(lib_a-memset.o)
 .debug_info    0x000134d4      0x977 /OPT/altera/12.1/nios2eds/bin/gnu/H-i686-pc-linux-gnu/bin/../lib/gcc/nios2-elf/4.1.2/../../../../nios2-elf/lib/libc.a(lib_a-openr.o)
 .debug_info    0x00013e4b      0x97b /OPT/altera/12.1/nios2eds/bin/gnu/H-i686-pc-linux-gnu/bin/../lib/gcc/nios2-elf/4.1.2/../../../../nios2-elf/lib/libc.a(lib_a-perror.o)
 .debug_info    0x000147c6      0x9d1 /OPT/altera/12.1/nios2eds/bin/gnu/H-i686-pc-linux-gnu/bin/../lib/gcc/nios2-elf/4.1.2/../../../../nios2-elf/lib/libc.a(lib_a-printf.o)
 .debug_info    0x00015197      0xa25 /OPT/altera/12.1/nios2eds/bin/gnu/H-i686-pc-linux-gnu/bin/../lib/gcc/nios2-elf/4.1.2/../../../../nios2-elf/lib/libc.a(lib_a-puts.o)
 .debug_info    0x00015bbc      0x98b /OPT/altera/12.1/nios2eds/bin/gnu/H-i686-pc-linux-gnu/bin/../lib/gcc/nios2-elf/4.1.2/../../../../nios2-elf/lib/libc.a(lib_a-refill.o)
 .debug_info    0x00016547      0x962 /OPT/altera/12.1/nios2eds/bin/gnu/H-i686-pc-linux-gnu/bin/../lib/gcc/nios2-elf/4.1.2/../../../../nios2-elf/lib/libc.a(lib_a-sbrkr.o)
 .debug_info    0x00016ea9      0xa49 /OPT/altera/12.1/nios2eds/bin/gnu/H-i686-pc-linux-gnu/bin/../lib/gcc/nios2-elf/4.1.2/../../../../nios2-elf/lib/libc.a(lib_a-snprintf.o)
 .debug_info    0x000178f2      0xa16 /OPT/altera/12.1/nios2eds/bin/gnu/H-i686-pc-linux-gnu/bin/../lib/gcc/nios2-elf/4.1.2/../../../../nios2-elf/lib/libc.a(lib_a-sprintf.o)
 .debug_info    0x00018308      0xa6a /OPT/altera/12.1/nios2eds/bin/gnu/H-i686-pc-linux-gnu/bin/../lib/gcc/nios2-elf/4.1.2/../../../../nios2-elf/lib/libc.a(lib_a-sscanf.o)
 .debug_info    0x00018d72      0xaac /OPT/altera/12.1/nios2eds/bin/gnu/H-i686-pc-linux-gnu/bin/../lib/gcc/nios2-elf/4.1.2/../../../../nios2-elf/lib/libc.a(lib_a-stdio.o)
 .debug_info    0x0001981e      0x13a /OPT/altera/12.1/nios2eds/bin/gnu/H-i686-pc-linux-gnu/bin/../lib/gcc/nios2-elf/4.1.2/../../../../nios2-elf/lib/libc.a(lib_a-strcasecmp.o)
 .debug_info    0x00019958       0xed /OPT/altera/12.1/nios2eds/bin/gnu/H-i686-pc-linux-gnu/bin/../lib/gcc/nios2-elf/4.1.2/../../../../nios2-elf/lib/libc.a(lib_a-strcat.o)
 .debug_info    0x00019a45      0x118 /OPT/altera/12.1/nios2eds/bin/gnu/H-i686-pc-linux-gnu/bin/../lib/gcc/nios2-elf/4.1.2/../../../../nios2-elf/lib/libc.a(lib_a-strchr.o)
 .debug_info    0x00019b5d       0xdd /OPT/altera/12.1/nios2eds/bin/gnu/H-i686-pc-linux-gnu/bin/../lib/gcc/nios2-elf/4.1.2/../../../../nios2-elf/lib/libc.a(lib_a-strcmp.o)
 .debug_info    0x00019c3a      0x110 /OPT/altera/12.1/nios2eds/bin/gnu/H-i686-pc-linux-gnu/bin/../lib/gcc/nios2-elf/4.1.2/../../../../nios2-elf/lib/libc.a(lib_a-strcpy.o)
 .debug_info    0x00019d4a       0xbb /OPT/altera/12.1/nios2eds/bin/gnu/H-i686-pc-linux-gnu/bin/../lib/gcc/nios2-elf/4.1.2/../../../../nios2-elf/lib/libc.a(lib_a-strerror.o)
 .debug_info    0x00019e05       0xdb /OPT/altera/12.1/nios2eds/bin/gnu/H-i686-pc-linux-gnu/bin/../lib/gcc/nios2-elf/4.1.2/../../../../nios2-elf/lib/libc.a(lib_a-strlen.o)
 .debug_info    0x00019ee0       0xf5 /OPT/altera/12.1/nios2eds/bin/gnu/H-i686-pc-linux-gnu/bin/../lib/gcc/nios2-elf/4.1.2/../../../../nios2-elf/lib/libc.a(lib_a-strncmp.o)
 .debug_info    0x00019fd5      0x12a /OPT/altera/12.1/nios2eds/bin/gnu/H-i686-pc-linux-gnu/bin/../lib/gcc/nios2-elf/4.1.2/../../../../nios2-elf/lib/libc.a(lib_a-strncpy.o)
 .debug_info    0x0001a0ff      0x3d1 /OPT/altera/12.1/nios2eds/bin/gnu/H-i686-pc-linux-gnu/bin/../lib/gcc/nios2-elf/4.1.2/../../../../nios2-elf/lib/libc.a(lib_a-strstr.o)
 .debug_info    0x0001a4d0      0x949 /OPT/altera/12.1/nios2eds/bin/gnu/H-i686-pc-linux-gnu/bin/../lib/gcc/nios2-elf/4.1.2/../../../../nios2-elf/lib/libc.a(lib_a-strtok.o)
 .debug_info    0x0001ae19      0x15e /OPT/altera/12.1/nios2eds/bin/gnu/H-i686-pc-linux-gnu/bin/../lib/gcc/nios2-elf/4.1.2/../../../../nios2-elf/lib/libc.a(lib_a-strtok_r.o)
 .debug_info    0x0001af77      0xa2a /OPT/altera/12.1/nios2eds/bin/gnu/H-i686-pc-linux-gnu/bin/../lib/gcc/nios2-elf/4.1.2/../../../../nios2-elf/lib/libc.a(lib_a-strtol.o)
 .debug_info    0x0001b9a1       0x63 /OPT/altera/12.1/nios2eds/bin/gnu/H-i686-pc-linux-gnu/bin/../lib/gcc/nios2-elf/4.1.2/../../../../nios2-elf/lib/libc.a(lib_a-u_strerr.o)
 .debug_info    0x0001ba04     0x10d5 /OPT/altera/12.1/nios2eds/bin/gnu/H-i686-pc-linux-gnu/bin/../lib/gcc/nios2-elf/4.1.2/../../../../nios2-elf/lib/libc.a(lib_a-vfprintf.o)
 .debug_info    0x0001cad9      0xe8c /OPT/altera/12.1/nios2eds/bin/gnu/H-i686-pc-linux-gnu/bin/../lib/gcc/nios2-elf/4.1.2/../../../../nios2-elf/lib/libc.a(lib_a-vfscanf.o)
 .debug_info    0x0001d965      0x993 /OPT/altera/12.1/nios2eds/bin/gnu/H-i686-pc-linux-gnu/bin/../lib/gcc/nios2-elf/4.1.2/../../../../nios2-elf/lib/libc.a(lib_a-writer.o)
 .debug_info    0x0001e2f8      0x95d /OPT/altera/12.1/nios2eds/bin/gnu/H-i686-pc-linux-gnu/bin/../lib/gcc/nios2-elf/4.1.2/../../../../nios2-elf/lib/libc.a(lib_a-wsetup.o)
 .debug_info    0x0001ec55      0x958 /OPT/altera/12.1/nios2eds/bin/gnu/H-i686-pc-linux-gnu/bin/../lib/gcc/nios2-elf/4.1.2/../../../../nios2-elf/lib/libc.a(lib_a-closer.o)
 .debug_info    0x0001f5ad      0xd6f /OPT/altera/12.1/nios2eds/bin/gnu/H-i686-pc-linux-gnu/bin/../lib/gcc/nios2-elf/4.1.2/../../../../nios2-elf/lib/libc.a(lib_a-dtoa.o)
 .debug_info    0x0002031c      0x977 /OPT/altera/12.1/nios2eds/bin/gnu/H-i686-pc-linux-gnu/bin/../lib/gcc/nios2-elf/4.1.2/../../../../nios2-elf/lib/libc.a(lib_a-flags.o)
 .debug_info    0x00020c93      0x9bd /OPT/altera/12.1/nios2eds/bin/gnu/H-i686-pc-linux-gnu/bin/../lib/gcc/nios2-elf/4.1.2/../../../../nios2-elf/lib/libc.a(lib_a-fputc.o)
 .debug_info    0x00021650      0xa40 /OPT/altera/12.1/nios2eds/bin/gnu/H-i686-pc-linux-gnu/bin/../lib/gcc/nios2-elf/4.1.2/../../../../nios2-elf/lib/libc.a(lib_a-fputs.o)
 .debug_info    0x00022090      0xa88 /OPT/altera/12.1/nios2eds/bin/gnu/H-i686-pc-linux-gnu/bin/../lib/gcc/nios2-elf/4.1.2/../../../../nios2-elf/lib/libc.a(lib_a-fvwrite.o)
 .debug_info    0x00022b18      0x958 /OPT/altera/12.1/nios2eds/bin/gnu/H-i686-pc-linux-gnu/bin/../lib/gcc/nios2-elf/4.1.2/../../../../nios2-elf/lib/libc.a(lib_a-isattyr.o)
 .debug_info    0x00023470       0xed /OPT/altera/12.1/nios2eds/bin/gnu/H-i686-pc-linux-gnu/bin/../lib/gcc/nios2-elf/4.1.2/../../../../nios2-elf/lib/libc.a(lib_a-iswspace.o)
 .debug_info    0x0002355d      0xb97 /OPT/altera/12.1/nios2eds/bin/gnu/H-i686-pc-linux-gnu/bin/../lib/gcc/nios2-elf/4.1.2/../../../../nios2-elf/lib/libc.a(lib_a-locale.o)
 .debug_info    0x000240f4      0x981 /OPT/altera/12.1/nios2eds/bin/gnu/H-i686-pc-linux-gnu/bin/../lib/gcc/nios2-elf/4.1.2/../../../../nios2-elf/lib/libc.a(lib_a-lseekr.o)
 .debug_info    0x00024a75      0xa07 /OPT/altera/12.1/nios2eds/bin/gnu/H-i686-pc-linux-gnu/bin/../lib/gcc/nios2-elf/4.1.2/../../../../nios2-elf/lib/libc.a(lib_a-mbrtowc.o)
 .debug_info    0x0002547c      0x9a2 /OPT/altera/12.1/nios2eds/bin/gnu/H-i686-pc-linux-gnu/bin/../lib/gcc/nios2-elf/4.1.2/../../../../nios2-elf/lib/libc.a(lib_a-mbtowc_r.o)
 .debug_info    0x00025e1e      0x138 /OPT/altera/12.1/nios2eds/bin/gnu/H-i686-pc-linux-gnu/bin/../lib/gcc/nios2-elf/4.1.2/../../../../nios2-elf/lib/libc.a(lib_a-memchr.o)
 .debug_info    0x00025f56      0x115 /OPT/altera/12.1/nios2eds/bin/gnu/H-i686-pc-linux-gnu/bin/../lib/gcc/nios2-elf/4.1.2/../../../../nios2-elf/lib/libc.a(lib_a-memcmp.o)
 .debug_info    0x0002606b     0x1437 /OPT/altera/12.1/nios2eds/bin/gnu/H-i686-pc-linux-gnu/bin/../lib/gcc/nios2-elf/4.1.2/../../../../nios2-elf/lib/libc.a(lib_a-mprec.o)
 .debug_info    0x000274a2      0x9c1 /OPT/altera/12.1/nios2eds/bin/gnu/H-i686-pc-linux-gnu/bin/../lib/gcc/nios2-elf/4.1.2/../../../../nios2-elf/lib/libc.a(lib_a-putc.o)
 .debug_info    0x00027e63      0x98c /OPT/altera/12.1/nios2eds/bin/gnu/H-i686-pc-linux-gnu/bin/../lib/gcc/nios2-elf/4.1.2/../../../../nios2-elf/lib/libc.a(lib_a-readr.o)
 .debug_info    0x000287ef      0xbd7 /OPT/altera/12.1/nios2eds/bin/gnu/H-i686-pc-linux-gnu/bin/../lib/gcc/nios2-elf/4.1.2/../../../../nios2-elf/lib/libc.a(lib_a-reallocr.o)
 .debug_info    0x000293c6       0xd7 /OPT/altera/12.1/nios2eds/bin/gnu/H-i686-pc-linux-gnu/bin/../lib/gcc/nios2-elf/4.1.2/../../../../nios2-elf/lib/libc.a(lib_a-s_isinfd.o)
 .debug_info    0x0002949d       0xd5 /OPT/altera/12.1/nios2eds/bin/gnu/H-i686-pc-linux-gnu/bin/../lib/gcc/nios2-elf/4.1.2/../../../../nios2-elf/lib/libc.a(lib_a-s_isnand.o)
 .debug_info    0x00029572       0xfb /OPT/altera/12.1/nios2eds/bin/gnu/H-i686-pc-linux-gnu/bin/../lib/gcc/nios2-elf/4.1.2/../../../../nios2-elf/lib/libc.a(lib_a-sccl.o)
 .debug_info    0x0002966d       0xc8 /OPT/altera/12.1/nios2eds/bin/gnu/H-i686-pc-linux-gnu/bin/../lib/gcc/nios2-elf/4.1.2/../../../../nios2-elf/lib/libc.a(lib_a-sf_nan.o)
 .debug_info    0x00029735      0xecc /OPT/altera/12.1/nios2eds/bin/gnu/H-i686-pc-linux-gnu/bin/../lib/gcc/nios2-elf/4.1.2/../../../../nios2-elf/lib/libc.a(lib_a-strtod.o)
 .debug_info    0x0002a601      0x9d5 /OPT/altera/12.1/nios2eds/bin/gnu/H-i686-pc-linux-gnu/bin/../lib/gcc/nios2-elf/4.1.2/../../../../nios2-elf/lib/libc.a(lib_a-strtoll_r.o)
 .debug_info    0x0002afd6      0xa22 /OPT/altera/12.1/nios2eds/bin/gnu/H-i686-pc-linux-gnu/bin/../lib/gcc/nios2-elf/4.1.2/../../../../nios2-elf/lib/libc.a(lib_a-strtoul.o)
 .debug_info    0x0002b9f8      0x9cd /OPT/altera/12.1/nios2eds/bin/gnu/H-i686-pc-linux-gnu/bin/../lib/gcc/nios2-elf/4.1.2/../../../../nios2-elf/lib/libc.a(lib_a-strtoull_r.o)
 .debug_info    0x0002c3c5      0x9f6 /OPT/altera/12.1/nios2eds/bin/gnu/H-i686-pc-linux-gnu/bin/../lib/gcc/nios2-elf/4.1.2/../../../../nios2-elf/lib/libc.a(lib_a-ungetc.o)
 .debug_info    0x0002cdbb      0x9ae /OPT/altera/12.1/nios2eds/bin/gnu/H-i686-pc-linux-gnu/bin/../lib/gcc/nios2-elf/4.1.2/../../../../nios2-elf/lib/libc.a(lib_a-wbuf.o)
 .debug_info    0x0002d769      0xa1b /OPT/altera/12.1/nios2eds/bin/gnu/H-i686-pc-linux-gnu/bin/../lib/gcc/nios2-elf/4.1.2/../../../../nios2-elf/lib/libc.a(lib_a-callocr.o)
 .debug_info    0x0002e184      0xccb /OPT/altera/12.1/nios2eds/bin/gnu/H-i686-pc-linux-gnu/bin/../lib/gcc/nios2-elf/4.1.2/../../../../nios2-elf/lib/libc.a(lib_a-gdtoa-gethex.o)
 .debug_info    0x0002ee4f      0x23e /OPT/altera/12.1/nios2eds/bin/gnu/H-i686-pc-linux-gnu/bin/../lib/gcc/nios2-elf/4.1.2/../../../../nios2-elf/lib/libc.a(lib_a-gdtoa-hexnan.o)
 .debug_info    0x0002f08d      0x215 /OPT/altera/12.1/nios2eds/bin/gnu/H-i686-pc-linux-gnu/bin/../lib/gcc/nios2-elf/4.1.2/libgcc.a(_muldi3.o)
 .debug_info    0x0002f2a2       0xce /OPT/altera/12.1/nios2eds/bin/gnu/H-i686-pc-linux-gnu/bin/../lib/gcc/nios2-elf/4.1.2/libgcc.a(_fixunsdfsi.o)
 .debug_info    0x0002f370      0x724 /OPT/altera/12.1/nios2eds/bin/gnu/H-i686-pc-linux-gnu/bin/../lib/gcc/nios2-elf/4.1.2/libgcc.a(_udivdi3.o)
 .debug_info    0x0002fa94      0x751 /OPT/altera/12.1/nios2eds/bin/gnu/H-i686-pc-linux-gnu/bin/../lib/gcc/nios2-elf/4.1.2/libgcc.a(_umoddi3.o)
 .debug_info    0x000301e5      0x290 /OPT/altera/12.1/nios2eds/bin/gnu/H-i686-pc-linux-gnu/bin/../lib/gcc/nios2-elf/4.1.2/libgcc.a(_ne_sf.o)
 .debug_info    0x00030475      0x290 /OPT/altera/12.1/nios2eds/bin/gnu/H-i686-pc-linux-gnu/bin/../lib/gcc/nios2-elf/4.1.2/libgcc.a(_gt_sf.o)
 .debug_info    0x00030705      0x290 /OPT/altera/12.1/nios2eds/bin/gnu/H-i686-pc-linux-gnu/bin/../lib/gcc/nios2-elf/4.1.2/libgcc.a(_lt_sf.o)
 .debug_info    0x00030995      0x493 /OPT/altera/12.1/nios2eds/bin/gnu/H-i686-pc-linux-gnu/bin/../lib/gcc/nios2-elf/4.1.2/libgcc.a(_addsub_df.o)
 .debug_info    0x00030e28      0x488 /OPT/altera/12.1/nios2eds/bin/gnu/H-i686-pc-linux-gnu/bin/../lib/gcc/nios2-elf/4.1.2/libgcc.a(_mul_df.o)
 .debug_info    0x000312b0      0x39b /OPT/altera/12.1/nios2eds/bin/gnu/H-i686-pc-linux-gnu/bin/../lib/gcc/nios2-elf/4.1.2/libgcc.a(_div_df.o)
 .debug_info    0x0003164b      0x29d /OPT/altera/12.1/nios2eds/bin/gnu/H-i686-pc-linux-gnu/bin/../lib/gcc/nios2-elf/4.1.2/libgcc.a(_eq_df.o)
 .debug_info    0x000318e8      0x29d /OPT/altera/12.1/nios2eds/bin/gnu/H-i686-pc-linux-gnu/bin/../lib/gcc/nios2-elf/4.1.2/libgcc.a(_ne_df.o)
 .debug_info    0x00031b85      0x29d /OPT/altera/12.1/nios2eds/bin/gnu/H-i686-pc-linux-gnu/bin/../lib/gcc/nios2-elf/4.1.2/libgcc.a(_gt_df.o)
 .debug_info    0x00031e22      0x29d /OPT/altera/12.1/nios2eds/bin/gnu/H-i686-pc-linux-gnu/bin/../lib/gcc/nios2-elf/4.1.2/libgcc.a(_ge_df.o)
 .debug_info    0x000320bf      0x29d /OPT/altera/12.1/nios2eds/bin/gnu/H-i686-pc-linux-gnu/bin/../lib/gcc/nios2-elf/4.1.2/libgcc.a(_lt_df.o)
 .debug_info    0x0003235c      0x29d /OPT/altera/12.1/nios2eds/bin/gnu/H-i686-pc-linux-gnu/bin/../lib/gcc/nios2-elf/4.1.2/libgcc.a(_le_df.o)
 .debug_info    0x000325f9      0x218 /OPT/altera/12.1/nios2eds/bin/gnu/H-i686-pc-linux-gnu/bin/../lib/gcc/nios2-elf/4.1.2/libgcc.a(_si_to_df.o)
 .debug_info    0x00032811      0x2cd /OPT/altera/12.1/nios2eds/bin/gnu/H-i686-pc-linux-gnu/bin/../lib/gcc/nios2-elf/4.1.2/libgcc.a(_df_to_si.o)
 .debug_info    0x00032ade      0x261 /OPT/altera/12.1/nios2eds/bin/gnu/H-i686-pc-linux-gnu/bin/../lib/gcc/nios2-elf/4.1.2/libgcc.a(_df_to_sf.o)
 .debug_info    0x00032d3f      0x164 /OPT/altera/12.1/nios2eds/bin/gnu/H-i686-pc-linux-gnu/bin/../lib/gcc/nios2-elf/4.1.2/libgcc.a(_thenan_df.o)
 .debug_info    0x00032ea3      0x213 /OPT/altera/12.1/nios2eds/bin/gnu/H-i686-pc-linux-gnu/bin/../lib/gcc/nios2-elf/4.1.2/libgcc.a(_usi_to_df.o)
 .debug_info    0x000330b6       0xc9 /OPT/altera/12.1/nios2eds/bin/gnu/H-i686-pc-linux-gnu/bin/../lib/gcc/nios2-elf/4.1.2/libgcc.a(_clz.o)
 .debug_info    0x0003317f      0x130 /OPT/altera/12.1/nios2eds/bin/gnu/H-i686-pc-linux-gnu/bin/../lib/gcc/nios2-elf/4.1.2/libgcc.a(_clzsi2.o)
 .debug_info    0x000332af      0x25a /OPT/altera/12.1/nios2eds/bin/gnu/H-i686-pc-linux-gnu/bin/../lib/gcc/nios2-elf/4.1.2/libgcc.a(_unpack_sf.o)
 .debug_info    0x00033509      0x21f /OPT/altera/12.1/nios2eds/bin/gnu/H-i686-pc-linux-gnu/bin/../lib/gcc/nios2-elf/4.1.2/libgcc.a(_fpcmp_parts_sf.o)
 .debug_info    0x00033728      0x1d7 /OPT/altera/12.1/nios2eds/bin/gnu/H-i686-pc-linux-gnu/bin/../lib/gcc/nios2-elf/4.1.2/libgcc.a(_make_sf.o)
 .debug_info    0x000338ff      0x2fc /OPT/altera/12.1/nios2eds/bin/gnu/H-i686-pc-linux-gnu/bin/../lib/gcc/nios2-elf/4.1.2/libgcc.a(_pack_df.o)
 .debug_info    0x00033bfb      0x268 /OPT/altera/12.1/nios2eds/bin/gnu/H-i686-pc-linux-gnu/bin/../lib/gcc/nios2-elf/4.1.2/libgcc.a(_unpack_df.o)
 .debug_info    0x00033e63      0x21b /OPT/altera/12.1/nios2eds/bin/gnu/H-i686-pc-linux-gnu/bin/../lib/gcc/nios2-elf/4.1.2/libgcc.a(_fpcmp_parts_df.o)
 .debug_info    0x0003407e      0x2f2 /OPT/altera/12.1/nios2eds/bin/gnu/H-i686-pc-linux-gnu/bin/../lib/gcc/nios2-elf/4.1.2/libgcc.a(_pack_sf.o)
 .debug_info    0x00034370      0x1cf ../Webserver_bsp//libucosii_bsp.a(alt_dcache_flush.o)
 .debug_info    0x0003453f      0x618 ../Webserver_bsp//libucosii_bsp.a(alt_flash_dev.o)
 .debug_info    0x00034b57      0x6df ../Webserver_bsp//libucosii_bsp.a(alt_fstat.o)
 .debug_info    0x00035236      0x495 ../Webserver_bsp//libucosii_bsp.a(alt_irq_register.o)
 .debug_info    0x000356cb      0x192 ../Webserver_bsp//libucosii_bsp.a(alt_irq_vars.o)
 .debug_info    0x0003585d      0x6e5 ../Webserver_bsp//libucosii_bsp.a(alt_isatty.o)
 .debug_info    0x00035f42      0x519 ../Webserver_bsp//libucosii_bsp.a(alt_lseek.o)
 .debug_info    0x0003645b      0x408 ../Webserver_bsp//libucosii_bsp.a(alt_main.o)
 .debug_info    0x00036863      0x595 ../Webserver_bsp//libucosii_bsp.a(alt_open.o)
 .debug_info    0x00036df8      0x47a ../Webserver_bsp//libucosii_bsp.a(alt_release_fd.o)
 .debug_info    0x00037272      0x2e2 ../Webserver_bsp//libucosii_bsp.a(alt_sbrk.o)
 .debug_info    0x00037554      0x43c ../Webserver_bsp//libucosii_bsp.a(alt_tick.o)
 .debug_info    0x00037990      0x25f ../Webserver_bsp//libucosii_bsp.a(alt_usleep.o)
 .debug_info    0x00037bef     0x11fe ../Webserver_bsp//libucosii_bsp.a(alt_env_lock.o)
 .debug_info    0x00038ded     0x135a ../Webserver_bsp//libucosii_bsp.a(alt_malloc_lock.o)
 .debug_info    0x0003a147     0x1c14 ../Webserver_bsp//libucosii_bsp.a(os_core.o)
 .debug_info    0x0003bd5b     0x1159 ../Webserver_bsp//libucosii_bsp.a(os_dbg.o)
 .debug_info    0x0003ceb4     0x126f ../Webserver_bsp//libucosii_bsp.a(os_flag.o)
 .debug_info    0x0003e123      0xd6b ../Webserver_bsp//libucosii_bsp.a(os_mbox.o)
 .debug_info    0x0003ee8e      0x839 ../Webserver_bsp//libucosii_bsp.a(os_mem.o)
 .debug_info    0x0003f6c7     0x10a9 ../Webserver_bsp//libucosii_bsp.a(os_q.o)
 .debug_info    0x00040770      0xd11 ../Webserver_bsp//libucosii_bsp.a(os_sem.o)
 .debug_info    0x00041481     0x1387 ../Webserver_bsp//libucosii_bsp.a(os_task.o)
 .debug_info    0x00042808      0xa0b ../Webserver_bsp//libucosii_bsp.a(os_time.o)
 .debug_info    0x00043213      0xc0c ../Webserver_bsp//libucosii_bsp.a(alt_sys_init.o)
 .debug_info    0x00043e1f      0x9fd ../Webserver_bsp//libucosii_bsp.a(altera_avalon_jtag_uart_fd.o)
 .debug_info    0x0004481c      0x97b ../Webserver_bsp//libucosii_bsp.a(altera_avalon_jtag_uart_init.o)
 .debug_info    0x00045197      0x667 ../Webserver_bsp//libucosii_bsp.a(altera_avalon_jtag_uart_ioctl.o)
 .debug_info    0x000457fe      0x823 ../Webserver_bsp//libucosii_bsp.a(altera_avalon_jtag_uart_read.o)
 .debug_info    0x00046021      0x81a ../Webserver_bsp//libucosii_bsp.a(altera_avalon_jtag_uart_write.o)
 .debug_info    0x0004683b      0x3b6 ../Webserver_bsp//libucosii_bsp.a(altera_avalon_timer_sc.o)
 .debug_info    0x00046bf1      0xf49 ../Webserver_bsp//libucosii_bsp.a(altera_ro_zipfs.o)
 .debug_info    0x00047b3a      0x927 ../Webserver_bsp//libucosii_bsp.a(altera_up_avalon_character_lcd.o)
 .debug_info    0x00048461      0x1e1 ../Webserver_bsp//libucosii_bsp.a(alt_iniche_close.o)
 .debug_info    0x00048642      0xb88 ../Webserver_bsp//libucosii_bsp.a(alt_iniche_dev.o)
 .debug_info    0x000491ca      0x20b ../Webserver_bsp//libucosii_bsp.a(alt_iniche_read.o)
 .debug_info    0x000493d5      0x212 ../Webserver_bsp//libucosii_bsp.a(alt_iniche_write.o)
 .debug_info    0x000495e7      0xc74 ../Webserver_bsp//libucosii_bsp.a(ipnet.o)
 .debug_info    0x0004a25b      0xbc7 ../Webserver_bsp//libucosii_bsp.a(ipstart.o)
 .debug_info    0x0004ae22     0x155b ../Webserver_bsp//libucosii_bsp.a(igmp_cmn.o)
 .debug_info    0x0004c37d     0x148b ../Webserver_bsp//libucosii_bsp.a(bsdsock.o)
 .debug_info    0x0004d808      0x27d ../Webserver_bsp//libucosii_bsp.a(cksum.o)
 .debug_info    0x0004da85      0x76f ../Webserver_bsp//libucosii_bsp.a(in_utils.o)
 .debug_info    0x0004e1f4      0x589 ../Webserver_bsp//libucosii_bsp.a(netmain.o)
 .debug_info    0x0004e77d      0x715 ../Webserver_bsp//libucosii_bsp.a(parseip.o)
 .debug_info    0x0004ee92      0x996 ../Webserver_bsp//libucosii_bsp.a(tk_crnos.o)
 .debug_info    0x0004f828     0x1624 ../Webserver_bsp//libucosii_bsp.a(dhcpclnt.o)
 .debug_info    0x00050e4c      0x207 ../Webserver_bsp//libucosii_bsp.a(dhcputil.o)
 .debug_info    0x00051053      0xcd3 ../Webserver_bsp//libucosii_bsp.a(pktalloc.o)
 .debug_info    0x00051d26      0x317 ../Webserver_bsp//libucosii_bsp.a(q.o)
 .debug_info    0x0005203d      0xb52 ../Webserver_bsp//libucosii_bsp.a(udp_open.o)
 .debug_info    0x00052b8f       0xb8 ../Webserver_bsp//libucosii_bsp.a(asm_cksum.o)
 .debug_info    0x00052c47      0xed8 ../Webserver_bsp//libucosii_bsp.a(brdutils.o)
 .debug_info    0x00053b1f      0x70a ../Webserver_bsp//libucosii_bsp.a(osportco.o)
 .debug_info    0x00054229      0x687 ../Webserver_bsp//libucosii_bsp.a(targnios.o)
 .debug_info    0x000548b0     0x254e ../Webserver_bsp//libucosii_bsp.a(nptcp.o)
 .debug_info    0x00056dfe     0x1206 ../Webserver_bsp//libucosii_bsp.a(rawsock.o)
 .debug_info    0x00058004     0x1cc4 ../Webserver_bsp//libucosii_bsp.a(sockcall.o)
 .debug_info    0x00059cc8     0x1aca ../Webserver_bsp//libucosii_bsp.a(socket.o)
 .debug_info    0x0005b792     0x1590 ../Webserver_bsp//libucosii_bsp.a(socket2.o)
 .debug_info    0x0005cd22     0x12a9 ../Webserver_bsp//libucosii_bsp.a(soselect.o)
 .debug_info    0x0005dfcb     0x215b ../Webserver_bsp//libucosii_bsp.a(tcp_in.o)
 .debug_info    0x00060126     0x1e4a ../Webserver_bsp//libucosii_bsp.a(tcp_out.o)
 .debug_info    0x00061f70     0x1eb2 ../Webserver_bsp//libucosii_bsp.a(tcp_subr.o)
 .debug_info    0x00063e22     0x1ccd ../Webserver_bsp//libucosii_bsp.a(tcp_timr.o)
 .debug_info    0x00065aef     0x1c8a ../Webserver_bsp//libucosii_bsp.a(tcp_usr.o)
 .debug_info    0x00067779      0x1dd ../Webserver_bsp//libucosii_bsp.a(tcpport.o)
 .debug_info    0x00067956     0x1360 ../Webserver_bsp//libucosii_bsp.a(udpsock.o)
 .debug_info    0x00068cb6      0x46d ../Webserver_bsp//libucosii_bsp.a(alt_alarm_start.o)
 .debug_info    0x00069123      0x1d6 ../Webserver_bsp//libucosii_bsp.a(alt_busy_sleep.o)
 .debug_info    0x000692f9      0x4ea ../Webserver_bsp//libucosii_bsp.a(alt_close.o)
 .debug_info    0x000697e3      0x808 ../Webserver_bsp//libucosii_bsp.a(alt_dev.o)
 .debug_info    0x00069feb      0x2e2 ../Webserver_bsp//libucosii_bsp.a(alt_dev_llist_insert.o)
 .debug_info    0x0006a2cd      0x13a ../Webserver_bsp//libucosii_bsp.a(alt_do_ctors.o)
 .debug_info    0x0006a407      0x139 ../Webserver_bsp//libucosii_bsp.a(alt_do_dtors.o)
 .debug_info    0x0006a540      0x18f ../Webserver_bsp//libucosii_bsp.a(alt_errno.o)
 .debug_info    0x0006a6cf      0x497 ../Webserver_bsp//libucosii_bsp.a(alt_find_dev.o)
 .debug_info    0x0006ab66      0x49e ../Webserver_bsp//libucosii_bsp.a(alt_find_file.o)
 .debug_info    0x0006b004      0x4af ../Webserver_bsp//libucosii_bsp.a(alt_fs_reg.o)
 .debug_info    0x0006b4b3      0x630 ../Webserver_bsp//libucosii_bsp.a(alt_get_fd.o)
 .debug_info    0x0006bae3      0x4be ../Webserver_bsp//libucosii_bsp.a(alt_iic.o)
 .debug_info    0x0006bfa1      0x33f ../Webserver_bsp//libucosii_bsp.a(alt_iic_isr_register.o)
 .debug_info    0x0006c2e0      0x714 ../Webserver_bsp//libucosii_bsp.a(alt_io_redirect.o)
 .debug_info    0x0006c9f4       0xaf ../Webserver_bsp//libucosii_bsp.a(alt_irq_entry.o)
 .debug_info    0x0006caa3      0x2e5 ../Webserver_bsp//libucosii_bsp.a(alt_irq_handler.o)
 .debug_info    0x0006cd88      0x70d ../Webserver_bsp//libucosii_bsp.a(alt_read.o)
 .debug_info    0x0006d495      0x1bc ../Webserver_bsp//libucosii_bsp.a(alt_remap_cached.o)
 .debug_info    0x0006d651      0x1c0 ../Webserver_bsp//libucosii_bsp.a(alt_remap_uncached.o)
 .debug_info    0x0006d811      0x716 ../Webserver_bsp//libucosii_bsp.a(alt_write.o)
 .debug_info    0x0006df27      0x18e ../Webserver_bsp//libucosii_bsp.a(altera_nios2_qsys_irq.o)
 .debug_info    0x0006e0b5       0xae ../Webserver_bsp//libucosii_bsp.a(os_cpu_a.o)
 .debug_info    0x0006e163     0x12fe ../Webserver_bsp//libucosii_bsp.a(os_cpu_c.o)
 .debug_info    0x0006f461      0xdca ../Webserver_bsp//libucosii_bsp.a(allports.o)
 .debug_info    0x0007022b      0x3ec ../Webserver_bsp//libucosii_bsp.a(timeouts.o)
 .debug_info    0x00070617      0x24b ../Webserver_bsp//libucosii_bsp.a(tk_misc.o)
 .debug_info    0x00070862      0x238 ../Webserver_bsp//libucosii_bsp.a(alt_iniche_fcntl.o)
 .debug_info    0x00070a9a     0x12a4 ../Webserver_bsp//libucosii_bsp.a(et_arp.o)
 .debug_info    0x00071d3e      0xfc2 ../Webserver_bsp//libucosii_bsp.a(iface.o)
 .debug_info    0x00072d00     0x172f ../Webserver_bsp//libucosii_bsp.a(ip.o)
 .debug_info    0x0007442f     0x1893 ../Webserver_bsp//libucosii_bsp.a(ip_reasm.o)
 .debug_info    0x00075cc2      0xe14 ../Webserver_bsp//libucosii_bsp.a(ipdemux.o)
 .debug_info    0x00076ad6      0xa70 ../Webserver_bsp//libucosii_bsp.a(ipmc.o)
 .debug_info    0x00077546      0x30e ../Webserver_bsp//libucosii_bsp.a(ipport.o)
 .debug_info    0x00077854      0xf81 ../Webserver_bsp//libucosii_bsp.a(ipraw.o)
 .debug_info    0x000787d5      0xf2c ../Webserver_bsp//libucosii_bsp.a(iproute.o)
 .debug_info    0x00079701     0x12c3 ../Webserver_bsp//libucosii_bsp.a(udp.o)
 .debug_info    0x0007a9c4     0x115d ../Webserver_bsp//libucosii_bsp.a(igmp.o)
 .debug_info    0x0007bb21     0x1391 ../Webserver_bsp//libucosii_bsp.a(igmp2.o)
 .debug_info    0x0007ceb2     0x110c ../Webserver_bsp//libucosii_bsp.a(ipopt.o)
 .debug_info    0x0007dfbe      0xbe4 ../Webserver_bsp//libucosii_bsp.a(u_mctest.o)
 .debug_info    0x0007eba2      0xa82 ../Webserver_bsp//libucosii_bsp.a(dhcsetup.o)
 .debug_info    0x0007f624      0x76a ../Webserver_bsp//libucosii_bsp.a(memdev.o)
 .debug_info    0x0007fd8e      0x40f ../Webserver_bsp//libucosii_bsp.a(tcpcksum.o)
 .debug_info    0x0008019d     0x12de ../Webserver_bsp//libucosii_bsp.a(in_pcb.o)
 .debug_info    0x0008147b     0x100f ../Webserver_bsp//libucosii_bsp.a(vfsfiles.o)
 .debug_info    0x0008248a      0x1de ../Webserver_bsp//libucosii_bsp.a(vfsport.o)
 .debug_info    0x00082668       0xb5 ../Webserver_bsp//libucosii_bsp.a(alt_exception_entry.o)
 .debug_info    0x0008271d      0x72b ../Webserver_bsp//libucosii_bsp.a(alt_fcntl.o)
 .debug_info    0x00082e48     0x11b1 ../Webserver_bsp//libucosii_bsp.a(icmp.o)
 .debug_info    0x00083ff9      0x181 /OPT/altera/12.1/nios2eds/bin/gnu/H-i686-pc-linux-gnu/bin/../lib/gcc/nios2-elf/4.1.2/../../../../nios2-elf/lib/libc.a(lib_a-atexit.o)
 .debug_info    0x0008417a      0x954 /OPT/altera/12.1/nios2eds/bin/gnu/H-i686-pc-linux-gnu/bin/../lib/gcc/nios2-elf/4.1.2/../../../../nios2-elf/lib/libc.a(lib_a-calloc.o)
 .debug_info    0x00084ace      0x93f /OPT/altera/12.1/nios2eds/bin/gnu/H-i686-pc-linux-gnu/bin/../lib/gcc/nios2-elf/4.1.2/../../../../nios2-elf/lib/libc.a(lib_a-exit.o)
 .debug_info    0x0008540d      0x9a7 /OPT/altera/12.1/nios2eds/bin/gnu/H-i686-pc-linux-gnu/bin/../lib/gcc/nios2-elf/4.1.2/../../../../nios2-elf/lib/libc.a(lib_a-getc.o)
 .debug_info    0x00085db4      0x96e /OPT/altera/12.1/nios2eds/bin/gnu/H-i686-pc-linux-gnu/bin/../lib/gcc/nios2-elf/4.1.2/../../../../nios2-elf/lib/libc.a(lib_a-malloc.o)
 .debug_info    0x00086722      0x987 /OPT/altera/12.1/nios2eds/bin/gnu/H-i686-pc-linux-gnu/bin/../lib/gcc/nios2-elf/4.1.2/../../../../nios2-elf/lib/libc.a(lib_a-rget.o)
 .debug_info    0x000870a9      0x9aa /OPT/altera/12.1/nios2eds/bin/gnu/H-i686-pc-linux-gnu/bin/../lib/gcc/nios2-elf/4.1.2/../../../../nios2-elf/lib/libc.a(lib_a-vprintf.o)
 .debug_info    0x00087a53      0x9ed /OPT/altera/12.1/nios2eds/bin/gnu/H-i686-pc-linux-gnu/bin/../lib/gcc/nios2-elf/4.1.2/../../../../nios2-elf/lib/libc.a(lib_a-vsprintf.o)
 .debug_info    0x00088440      0x99c /OPT/altera/12.1/nios2eds/bin/gnu/H-i686-pc-linux-gnu/bin/../lib/gcc/nios2-elf/4.1.2/../../../../nios2-elf/lib/libc.a(lib_a-__atexit.o)
 .debug_info    0x00088ddc      0x9e2 /OPT/altera/12.1/nios2eds/bin/gnu/H-i686-pc-linux-gnu/bin/../lib/gcc/nios2-elf/4.1.2/../../../../nios2-elf/lib/libc.a(lib_a-__call_atexit.o)
 .debug_info    0x000897be      0x233 ../Webserver_bsp//libucosii_bsp.a(alt_exit.o)

.debug_abbrev   0x00000000    0x14bcb
 *(.debug_abbrev)
 .debug_abbrev  0x00000000       0x14 ../Webserver_bsp//obj/HAL/src/crt0.o
 .debug_abbrev  0x00000014      0x1bc obj/default/alt_error_handler.o
 .debug_abbrev  0x000001d0      0x231 obj/default/dm9000a.o
 .debug_abbrev  0x00000401      0x31e obj/default/http.o
 .debug_abbrev  0x0000071f      0x231 obj/default/network_utilities.o
 .debug_abbrev  0x00000950      0x1c4 obj/default/srec_flash.o
 .debug_abbrev  0x00000b14      0x2ad obj/default/web_server.o
 .debug_abbrev  0x00000dc1       0xe0 /OPT/altera/12.1/nios2eds/bin/gnu/H-i686-pc-linux-gnu/bin/../lib/gcc/nios2-elf/4.1.2/libgcc.a(lib2-divmod.o)
 .debug_abbrev  0x00000ea1      0x176 /OPT/altera/12.1/nios2eds/bin/gnu/H-i686-pc-linux-gnu/bin/../lib/gcc/nios2-elf/4.1.2/../../../../nios2-elf/lib/libc.a(lib_a-atoi.o)
 .debug_abbrev  0x00001017       0x61 /OPT/altera/12.1/nios2eds/bin/gnu/H-i686-pc-linux-gnu/bin/../lib/gcc/nios2-elf/4.1.2/../../../../nios2-elf/lib/libc.a(lib_a-ctype_.o)
 .debug_abbrev  0x00001078      0x1a7 /OPT/altera/12.1/nios2eds/bin/gnu/H-i686-pc-linux-gnu/bin/../lib/gcc/nios2-elf/4.1.2/../../../../nios2-elf/lib/libc.a(lib_a-fclose.o)
 .debug_abbrev  0x0000121f      0x1c6 /OPT/altera/12.1/nios2eds/bin/gnu/H-i686-pc-linux-gnu/bin/../lib/gcc/nios2-elf/4.1.2/../../../../nios2-elf/lib/libc.a(lib_a-fflush.o)
 .debug_abbrev  0x000013e5      0x189 /OPT/altera/12.1/nios2eds/bin/gnu/H-i686-pc-linux-gnu/bin/../lib/gcc/nios2-elf/4.1.2/../../../../nios2-elf/lib/libc.a(lib_a-fgetpos.o)
 .debug_abbrev  0x0000156e      0x24c /OPT/altera/12.1/nios2eds/bin/gnu/H-i686-pc-linux-gnu/bin/../lib/gcc/nios2-elf/4.1.2/../../../../nios2-elf/lib/libc.a(lib_a-findfp.o)
 .debug_abbrev  0x000017ba      0x1b6 /OPT/altera/12.1/nios2eds/bin/gnu/H-i686-pc-linux-gnu/bin/../lib/gcc/nios2-elf/4.1.2/../../../../nios2-elf/lib/libc.a(lib_a-fopen.o)
 .debug_abbrev  0x00001970      0x197 /OPT/altera/12.1/nios2eds/bin/gnu/H-i686-pc-linux-gnu/bin/../lib/gcc/nios2-elf/4.1.2/../../../../nios2-elf/lib/libc.a(lib_a-fprintf.o)
 .debug_abbrev  0x00001b07      0x20d /OPT/altera/12.1/nios2eds/bin/gnu/H-i686-pc-linux-gnu/bin/../lib/gcc/nios2-elf/4.1.2/../../../../nios2-elf/lib/libc.a(lib_a-fread.o)
 .debug_abbrev  0x00001d14      0x1d9 /OPT/altera/12.1/nios2eds/bin/gnu/H-i686-pc-linux-gnu/bin/../lib/gcc/nios2-elf/4.1.2/../../../../nios2-elf/lib/libc.a(lib_a-freer.o)
 .debug_abbrev  0x00001eed      0x208 /OPT/altera/12.1/nios2eds/bin/gnu/H-i686-pc-linux-gnu/bin/../lib/gcc/nios2-elf/4.1.2/../../../../nios2-elf/lib/libc.a(lib_a-fseek.o)
 .debug_abbrev  0x000020f5      0x18e /OPT/altera/12.1/nios2eds/bin/gnu/H-i686-pc-linux-gnu/bin/../lib/gcc/nios2-elf/4.1.2/../../../../nios2-elf/lib/libc.a(lib_a-fstatr.o)
 .debug_abbrev  0x00002283      0x198 /OPT/altera/12.1/nios2eds/bin/gnu/H-i686-pc-linux-gnu/bin/../lib/gcc/nios2-elf/4.1.2/../../../../nios2-elf/lib/libc.a(lib_a-ftell.o)
 .debug_abbrev  0x0000241b      0x1e3 /OPT/altera/12.1/nios2eds/bin/gnu/H-i686-pc-linux-gnu/bin/../lib/gcc/nios2-elf/4.1.2/../../../../nios2-elf/lib/libc.a(lib_a-fwalk.o)
 .debug_abbrev  0x000025fe      0x1b1 /OPT/altera/12.1/nios2eds/bin/gnu/H-i686-pc-linux-gnu/bin/../lib/gcc/nios2-elf/4.1.2/../../../../nios2-elf/lib/libc.a(lib_a-fwrite.o)
 .debug_abbrev  0x000027af      0x157 /OPT/altera/12.1/nios2eds/bin/gnu/H-i686-pc-linux-gnu/bin/../lib/gcc/nios2-elf/4.1.2/../../../../nios2-elf/lib/libc.a(lib_a-impure.o)
 .debug_abbrev  0x00002906       0x3b /OPT/altera/12.1/nios2eds/bin/gnu/H-i686-pc-linux-gnu/bin/../lib/gcc/nios2-elf/4.1.2/../../../../nios2-elf/lib/libc.a(lib_a-int_errno.o)
 .debug_abbrev  0x00002941      0x197 /OPT/altera/12.1/nios2eds/bin/gnu/H-i686-pc-linux-gnu/bin/../lib/gcc/nios2-elf/4.1.2/../../../../nios2-elf/lib/libc.a(lib_a-makebuf.o)
 .debug_abbrev  0x00002ad8      0x216 /OPT/altera/12.1/nios2eds/bin/gnu/H-i686-pc-linux-gnu/bin/../lib/gcc/nios2-elf/4.1.2/../../../../nios2-elf/lib/libc.a(lib_a-mallocr.o)
 .debug_abbrev  0x00002cee       0xb5 /OPT/altera/12.1/nios2eds/bin/gnu/H-i686-pc-linux-gnu/bin/../lib/gcc/nios2-elf/4.1.2/../../../../nios2-elf/lib/libc.a(lib_a-memcpy.o)
 .debug_abbrev  0x00002da3       0xb5 /OPT/altera/12.1/nios2eds/bin/gnu/H-i686-pc-linux-gnu/bin/../lib/gcc/nios2-elf/4.1.2/../../../../nios2-elf/lib/libc.a(lib_a-memmove.o)
 .debug_abbrev  0x00002e58       0xb8 /OPT/altera/12.1/nios2eds/bin/gnu/H-i686-pc-linux-gnu/bin/../lib/gcc/nios2-elf/4.1.2/../../../../nios2-elf/lib/libc.a(lib_a-memset.o)
 .debug_abbrev  0x00002f10      0x18e /OPT/altera/12.1/nios2eds/bin/gnu/H-i686-pc-linux-gnu/bin/../lib/gcc/nios2-elf/4.1.2/../../../../nios2-elf/lib/libc.a(lib_a-openr.o)
 .debug_abbrev  0x0000309e      0x194 /OPT/altera/12.1/nios2eds/bin/gnu/H-i686-pc-linux-gnu/bin/../lib/gcc/nios2-elf/4.1.2/../../../../nios2-elf/lib/libc.a(lib_a-perror.o)
 .debug_abbrev  0x00003232      0x191 /OPT/altera/12.1/nios2eds/bin/gnu/H-i686-pc-linux-gnu/bin/../lib/gcc/nios2-elf/4.1.2/../../../../nios2-elf/lib/libc.a(lib_a-printf.o)
 .debug_abbrev  0x000033c3      0x1ac /OPT/altera/12.1/nios2eds/bin/gnu/H-i686-pc-linux-gnu/bin/../lib/gcc/nios2-elf/4.1.2/../../../../nios2-elf/lib/libc.a(lib_a-puts.o)
 .debug_abbrev  0x0000356f      0x187 /OPT/altera/12.1/nios2eds/bin/gnu/H-i686-pc-linux-gnu/bin/../lib/gcc/nios2-elf/4.1.2/../../../../nios2-elf/lib/libc.a(lib_a-refill.o)
 .debug_abbrev  0x000036f6      0x18c /OPT/altera/12.1/nios2eds/bin/gnu/H-i686-pc-linux-gnu/bin/../lib/gcc/nios2-elf/4.1.2/../../../../nios2-elf/lib/libc.a(lib_a-sbrkr.o)
 .debug_abbrev  0x00003882      0x1a2 /OPT/altera/12.1/nios2eds/bin/gnu/H-i686-pc-linux-gnu/bin/../lib/gcc/nios2-elf/4.1.2/../../../../nios2-elf/lib/libc.a(lib_a-snprintf.o)
 .debug_abbrev  0x00003a24      0x191 /OPT/altera/12.1/nios2eds/bin/gnu/H-i686-pc-linux-gnu/bin/../lib/gcc/nios2-elf/4.1.2/../../../../nios2-elf/lib/libc.a(lib_a-sprintf.o)
 .debug_abbrev  0x00003bb5      0x1c6 /OPT/altera/12.1/nios2eds/bin/gnu/H-i686-pc-linux-gnu/bin/../lib/gcc/nios2-elf/4.1.2/../../../../nios2-elf/lib/libc.a(lib_a-sscanf.o)
 .debug_abbrev  0x00003d7b      0x1c9 /OPT/altera/12.1/nios2eds/bin/gnu/H-i686-pc-linux-gnu/bin/../lib/gcc/nios2-elf/4.1.2/../../../../nios2-elf/lib/libc.a(lib_a-stdio.o)
 .debug_abbrev  0x00003f44       0x96 /OPT/altera/12.1/nios2eds/bin/gnu/H-i686-pc-linux-gnu/bin/../lib/gcc/nios2-elf/4.1.2/../../../../nios2-elf/lib/libc.a(lib_a-strcasecmp.o)
 .debug_abbrev  0x00003fda       0x87 /OPT/altera/12.1/nios2eds/bin/gnu/H-i686-pc-linux-gnu/bin/../lib/gcc/nios2-elf/4.1.2/../../../../nios2-elf/lib/libc.a(lib_a-strcat.o)
 .debug_abbrev  0x00004061       0x80 /OPT/altera/12.1/nios2eds/bin/gnu/H-i686-pc-linux-gnu/bin/../lib/gcc/nios2-elf/4.1.2/../../../../nios2-elf/lib/libc.a(lib_a-strchr.o)
 .debug_abbrev  0x000040e1       0x80 /OPT/altera/12.1/nios2eds/bin/gnu/H-i686-pc-linux-gnu/bin/../lib/gcc/nios2-elf/4.1.2/../../../../nios2-elf/lib/libc.a(lib_a-strcmp.o)
 .debug_abbrev  0x00004161       0x8f /OPT/altera/12.1/nios2eds/bin/gnu/H-i686-pc-linux-gnu/bin/../lib/gcc/nios2-elf/4.1.2/../../../../nios2-elf/lib/libc.a(lib_a-strcpy.o)
 .debug_abbrev  0x000041f0       0x68 /OPT/altera/12.1/nios2eds/bin/gnu/H-i686-pc-linux-gnu/bin/../lib/gcc/nios2-elf/4.1.2/../../../../nios2-elf/lib/libc.a(lib_a-strerror.o)
 .debug_abbrev  0x00004258       0x8b /OPT/altera/12.1/nios2eds/bin/gnu/H-i686-pc-linux-gnu/bin/../lib/gcc/nios2-elf/4.1.2/../../../../nios2-elf/lib/libc.a(lib_a-strlen.o)
 .debug_abbrev  0x000042e3       0x8d /OPT/altera/12.1/nios2eds/bin/gnu/H-i686-pc-linux-gnu/bin/../lib/gcc/nios2-elf/4.1.2/../../../../nios2-elf/lib/libc.a(lib_a-strncmp.o)
 .debug_abbrev  0x00004370       0x9c /OPT/altera/12.1/nios2eds/bin/gnu/H-i686-pc-linux-gnu/bin/../lib/gcc/nios2-elf/4.1.2/../../../../nios2-elf/lib/libc.a(lib_a-strncpy.o)
 .debug_abbrev  0x0000440c      0x19a /OPT/altera/12.1/nios2eds/bin/gnu/H-i686-pc-linux-gnu/bin/../lib/gcc/nios2-elf/4.1.2/../../../../nios2-elf/lib/libc.a(lib_a-strstr.o)
 .debug_abbrev  0x000045a6      0x17f /OPT/altera/12.1/nios2eds/bin/gnu/H-i686-pc-linux-gnu/bin/../lib/gcc/nios2-elf/4.1.2/../../../../nios2-elf/lib/libc.a(lib_a-strtok.o)
 .debug_abbrev  0x00004725       0xcd /OPT/altera/12.1/nios2eds/bin/gnu/H-i686-pc-linux-gnu/bin/../lib/gcc/nios2-elf/4.1.2/../../../../nios2-elf/lib/libc.a(lib_a-strtok_r.o)
 .debug_abbrev  0x000047f2      0x1c7 /OPT/altera/12.1/nios2eds/bin/gnu/H-i686-pc-linux-gnu/bin/../lib/gcc/nios2-elf/4.1.2/../../../../nios2-elf/lib/libc.a(lib_a-strtol.o)
 .debug_abbrev  0x000049b9       0x5b /OPT/altera/12.1/nios2eds/bin/gnu/H-i686-pc-linux-gnu/bin/../lib/gcc/nios2-elf/4.1.2/../../../../nios2-elf/lib/libc.a(lib_a-u_strerr.o)
 .debug_abbrev  0x00004a14      0x30a /OPT/altera/12.1/nios2eds/bin/gnu/H-i686-pc-linux-gnu/bin/../lib/gcc/nios2-elf/4.1.2/../../../../nios2-elf/lib/libc.a(lib_a-vfprintf.o)
 .debug_abbrev  0x00004d1e      0x286 /OPT/altera/12.1/nios2eds/bin/gnu/H-i686-pc-linux-gnu/bin/../lib/gcc/nios2-elf/4.1.2/../../../../nios2-elf/lib/libc.a(lib_a-vfscanf.o)
 .debug_abbrev  0x00004fa4      0x184 /OPT/altera/12.1/nios2eds/bin/gnu/H-i686-pc-linux-gnu/bin/../lib/gcc/nios2-elf/4.1.2/../../../../nios2-elf/lib/libc.a(lib_a-writer.o)
 .debug_abbrev  0x00005128      0x170 /OPT/altera/12.1/nios2eds/bin/gnu/H-i686-pc-linux-gnu/bin/../lib/gcc/nios2-elf/4.1.2/../../../../nios2-elf/lib/libc.a(lib_a-wsetup.o)
 .debug_abbrev  0x00005298      0x17f /OPT/altera/12.1/nios2eds/bin/gnu/H-i686-pc-linux-gnu/bin/../lib/gcc/nios2-elf/4.1.2/../../../../nios2-elf/lib/libc.a(lib_a-closer.o)
 .debug_abbrev  0x00005417      0x232 /OPT/altera/12.1/nios2eds/bin/gnu/H-i686-pc-linux-gnu/bin/../lib/gcc/nios2-elf/4.1.2/../../../../nios2-elf/lib/libc.a(lib_a-dtoa.o)
 .debug_abbrev  0x00005649      0x17d /OPT/altera/12.1/nios2eds/bin/gnu/H-i686-pc-linux-gnu/bin/../lib/gcc/nios2-elf/4.1.2/../../../../nios2-elf/lib/libc.a(lib_a-flags.o)
 .debug_abbrev  0x000057c6      0x18c /OPT/altera/12.1/nios2eds/bin/gnu/H-i686-pc-linux-gnu/bin/../lib/gcc/nios2-elf/4.1.2/../../../../nios2-elf/lib/libc.a(lib_a-fputc.o)
 .debug_abbrev  0x00005952      0x1aa /OPT/altera/12.1/nios2eds/bin/gnu/H-i686-pc-linux-gnu/bin/../lib/gcc/nios2-elf/4.1.2/../../../../nios2-elf/lib/libc.a(lib_a-fputs.o)
 .debug_abbrev  0x00005afc      0x1a3 /OPT/altera/12.1/nios2eds/bin/gnu/H-i686-pc-linux-gnu/bin/../lib/gcc/nios2-elf/4.1.2/../../../../nios2-elf/lib/libc.a(lib_a-fvwrite.o)
 .debug_abbrev  0x00005c9f      0x17f /OPT/altera/12.1/nios2eds/bin/gnu/H-i686-pc-linux-gnu/bin/../lib/gcc/nios2-elf/4.1.2/../../../../nios2-elf/lib/libc.a(lib_a-isattyr.o)
 .debug_abbrev  0x00005e1e       0x9f /OPT/altera/12.1/nios2eds/bin/gnu/H-i686-pc-linux-gnu/bin/../lib/gcc/nios2-elf/4.1.2/../../../../nios2-elf/lib/libc.a(lib_a-iswspace.o)
 .debug_abbrev  0x00005ebd      0x1ed /OPT/altera/12.1/nios2eds/bin/gnu/H-i686-pc-linux-gnu/bin/../lib/gcc/nios2-elf/4.1.2/../../../../nios2-elf/lib/libc.a(lib_a-locale.o)
 .debug_abbrev  0x000060aa      0x18e /OPT/altera/12.1/nios2eds/bin/gnu/H-i686-pc-linux-gnu/bin/../lib/gcc/nios2-elf/4.1.2/../../../../nios2-elf/lib/libc.a(lib_a-lseekr.o)
 .debug_abbrev  0x00006238      0x17f /OPT/altera/12.1/nios2eds/bin/gnu/H-i686-pc-linux-gnu/bin/../lib/gcc/nios2-elf/4.1.2/../../../../nios2-elf/lib/libc.a(lib_a-mbrtowc.o)
 .debug_abbrev  0x000063b7      0x18a /OPT/altera/12.1/nios2eds/bin/gnu/H-i686-pc-linux-gnu/bin/../lib/gcc/nios2-elf/4.1.2/../../../../nios2-elf/lib/libc.a(lib_a-mbtowc_r.o)
 .debug_abbrev  0x00006541       0xb5 /OPT/altera/12.1/nios2eds/bin/gnu/H-i686-pc-linux-gnu/bin/../lib/gcc/nios2-elf/4.1.2/../../../../nios2-elf/lib/libc.a(lib_a-memchr.o)
 .debug_abbrev  0x000065f6       0x7c /OPT/altera/12.1/nios2eds/bin/gnu/H-i686-pc-linux-gnu/bin/../lib/gcc/nios2-elf/4.1.2/../../../../nios2-elf/lib/libc.a(lib_a-memcmp.o)
 .debug_abbrev  0x00006672      0x297 /OPT/altera/12.1/nios2eds/bin/gnu/H-i686-pc-linux-gnu/bin/../lib/gcc/nios2-elf/4.1.2/../../../../nios2-elf/lib/libc.a(lib_a-mprec.o)
 .debug_abbrev  0x00006909      0x17f /OPT/altera/12.1/nios2eds/bin/gnu/H-i686-pc-linux-gnu/bin/../lib/gcc/nios2-elf/4.1.2/../../../../nios2-elf/lib/libc.a(lib_a-putc.o)
 .debug_abbrev  0x00006a88      0x17f /OPT/altera/12.1/nios2eds/bin/gnu/H-i686-pc-linux-gnu/bin/../lib/gcc/nios2-elf/4.1.2/../../../../nios2-elf/lib/libc.a(lib_a-readr.o)
 .debug_abbrev  0x00006c07      0x1c3 /OPT/altera/12.1/nios2eds/bin/gnu/H-i686-pc-linux-gnu/bin/../lib/gcc/nios2-elf/4.1.2/../../../../nios2-elf/lib/libc.a(lib_a-reallocr.o)
 .debug_abbrev  0x00006dca       0x79 /OPT/altera/12.1/nios2eds/bin/gnu/H-i686-pc-linux-gnu/bin/../lib/gcc/nios2-elf/4.1.2/../../../../nios2-elf/lib/libc.a(lib_a-s_isinfd.o)
 .debug_abbrev  0x00006e43       0x79 /OPT/altera/12.1/nios2eds/bin/gnu/H-i686-pc-linux-gnu/bin/../lib/gcc/nios2-elf/4.1.2/../../../../nios2-elf/lib/libc.a(lib_a-s_isnand.o)
 .debug_abbrev  0x00006ebc       0x93 /OPT/altera/12.1/nios2eds/bin/gnu/H-i686-pc-linux-gnu/bin/../lib/gcc/nios2-elf/4.1.2/../../../../nios2-elf/lib/libc.a(lib_a-sccl.o)
 .debug_abbrev  0x00006f4f       0x6d /OPT/altera/12.1/nios2eds/bin/gnu/H-i686-pc-linux-gnu/bin/../lib/gcc/nios2-elf/4.1.2/../../../../nios2-elf/lib/libc.a(lib_a-sf_nan.o)
 .debug_abbrev  0x00006fbc      0x2e8 /OPT/altera/12.1/nios2eds/bin/gnu/H-i686-pc-linux-gnu/bin/../lib/gcc/nios2-elf/4.1.2/../../../../nios2-elf/lib/libc.a(lib_a-strtod.o)
 .debug_abbrev  0x000072a4      0x18e /OPT/altera/12.1/nios2eds/bin/gnu/H-i686-pc-linux-gnu/bin/../lib/gcc/nios2-elf/4.1.2/../../../../nios2-elf/lib/libc.a(lib_a-strtoll_r.o)
 .debug_abbrev  0x00007432      0x1c5 /OPT/altera/12.1/nios2eds/bin/gnu/H-i686-pc-linux-gnu/bin/../lib/gcc/nios2-elf/4.1.2/../../../../nios2-elf/lib/libc.a(lib_a-strtoul.o)
 .debug_abbrev  0x000075f7      0x18c /OPT/altera/12.1/nios2eds/bin/gnu/H-i686-pc-linux-gnu/bin/../lib/gcc/nios2-elf/4.1.2/../../../../nios2-elf/lib/libc.a(lib_a-strtoull_r.o)
 .debug_abbrev  0x00007783      0x1a7 /OPT/altera/12.1/nios2eds/bin/gnu/H-i686-pc-linux-gnu/bin/../lib/gcc/nios2-elf/4.1.2/../../../../nios2-elf/lib/libc.a(lib_a-ungetc.o)
 .debug_abbrev  0x0000792a      0x198 /OPT/altera/12.1/nios2eds/bin/gnu/H-i686-pc-linux-gnu/bin/../lib/gcc/nios2-elf/4.1.2/../../../../nios2-elf/lib/libc.a(lib_a-wbuf.o)
 .debug_abbrev  0x00007ac2      0x1b8 /OPT/altera/12.1/nios2eds/bin/gnu/H-i686-pc-linux-gnu/bin/../lib/gcc/nios2-elf/4.1.2/../../../../nios2-elf/lib/libc.a(lib_a-callocr.o)
 .debug_abbrev  0x00007c7a      0x273 /OPT/altera/12.1/nios2eds/bin/gnu/H-i686-pc-linux-gnu/bin/../lib/gcc/nios2-elf/4.1.2/../../../../nios2-elf/lib/libc.a(lib_a-gdtoa-gethex.o)
 .debug_abbrev  0x00007eed      0x117 /OPT/altera/12.1/nios2eds/bin/gnu/H-i686-pc-linux-gnu/bin/../lib/gcc/nios2-elf/4.1.2/../../../../nios2-elf/lib/libc.a(lib_a-gdtoa-hexnan.o)
 .debug_abbrev  0x00008004       0xee /OPT/altera/12.1/nios2eds/bin/gnu/H-i686-pc-linux-gnu/bin/../lib/gcc/nios2-elf/4.1.2/libgcc.a(_muldi3.o)
 .debug_abbrev  0x000080f2       0x5d /OPT/altera/12.1/nios2eds/bin/gnu/H-i686-pc-linux-gnu/bin/../lib/gcc/nios2-elf/4.1.2/libgcc.a(_fixunsdfsi.o)
 .debug_abbrev  0x0000814f      0x16b /OPT/altera/12.1/nios2eds/bin/gnu/H-i686-pc-linux-gnu/bin/../lib/gcc/nios2-elf/4.1.2/libgcc.a(_udivdi3.o)
 .debug_abbrev  0x000082ba      0x18e /OPT/altera/12.1/nios2eds/bin/gnu/H-i686-pc-linux-gnu/bin/../lib/gcc/nios2-elf/4.1.2/libgcc.a(_umoddi3.o)
 .debug_abbrev  0x00008448      0x151 /OPT/altera/12.1/nios2eds/bin/gnu/H-i686-pc-linux-gnu/bin/../lib/gcc/nios2-elf/4.1.2/libgcc.a(_ne_sf.o)
 .debug_abbrev  0x00008599      0x151 /OPT/altera/12.1/nios2eds/bin/gnu/H-i686-pc-linux-gnu/bin/../lib/gcc/nios2-elf/4.1.2/libgcc.a(_gt_sf.o)
 .debug_abbrev  0x000086ea      0x151 /OPT/altera/12.1/nios2eds/bin/gnu/H-i686-pc-linux-gnu/bin/../lib/gcc/nios2-elf/4.1.2/libgcc.a(_lt_sf.o)
 .debug_abbrev  0x0000883b      0x1d2 /OPT/altera/12.1/nios2eds/bin/gnu/H-i686-pc-linux-gnu/bin/../lib/gcc/nios2-elf/4.1.2/libgcc.a(_addsub_df.o)
 .debug_abbrev  0x00008a0d      0x204 /OPT/altera/12.1/nios2eds/bin/gnu/H-i686-pc-linux-gnu/bin/../lib/gcc/nios2-elf/4.1.2/libgcc.a(_mul_df.o)
 .debug_abbrev  0x00008c11      0x1e3 /OPT/altera/12.1/nios2eds/bin/gnu/H-i686-pc-linux-gnu/bin/../lib/gcc/nios2-elf/4.1.2/libgcc.a(_div_df.o)
 .debug_abbrev  0x00008df4      0x151 /OPT/altera/12.1/nios2eds/bin/gnu/H-i686-pc-linux-gnu/bin/../lib/gcc/nios2-elf/4.1.2/libgcc.a(_eq_df.o)
 .debug_abbrev  0x00008f45      0x151 /OPT/altera/12.1/nios2eds/bin/gnu/H-i686-pc-linux-gnu/bin/../lib/gcc/nios2-elf/4.1.2/libgcc.a(_ne_df.o)
 .debug_abbrev  0x00009096      0x151 /OPT/altera/12.1/nios2eds/bin/gnu/H-i686-pc-linux-gnu/bin/../lib/gcc/nios2-elf/4.1.2/libgcc.a(_gt_df.o)
 .debug_abbrev  0x000091e7      0x151 /OPT/altera/12.1/nios2eds/bin/gnu/H-i686-pc-linux-gnu/bin/../lib/gcc/nios2-elf/4.1.2/libgcc.a(_ge_df.o)
 .debug_abbrev  0x00009338      0x151 /OPT/altera/12.1/nios2eds/bin/gnu/H-i686-pc-linux-gnu/bin/../lib/gcc/nios2-elf/4.1.2/libgcc.a(_lt_df.o)
 .debug_abbrev  0x00009489      0x151 /OPT/altera/12.1/nios2eds/bin/gnu/H-i686-pc-linux-gnu/bin/../lib/gcc/nios2-elf/4.1.2/libgcc.a(_le_df.o)
 .debug_abbrev  0x000095da      0x13f /OPT/altera/12.1/nios2eds/bin/gnu/H-i686-pc-linux-gnu/bin/../lib/gcc/nios2-elf/4.1.2/libgcc.a(_si_to_df.o)
 .debug_abbrev  0x00009719      0x176 /OPT/altera/12.1/nios2eds/bin/gnu/H-i686-pc-linux-gnu/bin/../lib/gcc/nios2-elf/4.1.2/libgcc.a(_df_to_si.o)
 .debug_abbrev  0x0000988f      0x137 /OPT/altera/12.1/nios2eds/bin/gnu/H-i686-pc-linux-gnu/bin/../lib/gcc/nios2-elf/4.1.2/libgcc.a(_df_to_sf.o)
 .debug_abbrev  0x000099c6       0xba /OPT/altera/12.1/nios2eds/bin/gnu/H-i686-pc-linux-gnu/bin/../lib/gcc/nios2-elf/4.1.2/libgcc.a(_thenan_df.o)
 .debug_abbrev  0x00009a80      0x155 /OPT/altera/12.1/nios2eds/bin/gnu/H-i686-pc-linux-gnu/bin/../lib/gcc/nios2-elf/4.1.2/libgcc.a(_usi_to_df.o)
 .debug_abbrev  0x00009bd5       0x61 /OPT/altera/12.1/nios2eds/bin/gnu/H-i686-pc-linux-gnu/bin/../lib/gcc/nios2-elf/4.1.2/libgcc.a(_clz.o)
 .debug_abbrev  0x00009c36       0xb9 /OPT/altera/12.1/nios2eds/bin/gnu/H-i686-pc-linux-gnu/bin/../lib/gcc/nios2-elf/4.1.2/libgcc.a(_clzsi2.o)
 .debug_abbrev  0x00009cef      0x158 /OPT/altera/12.1/nios2eds/bin/gnu/H-i686-pc-linux-gnu/bin/../lib/gcc/nios2-elf/4.1.2/libgcc.a(_unpack_sf.o)
 .debug_abbrev  0x00009e47      0x132 /OPT/altera/12.1/nios2eds/bin/gnu/H-i686-pc-linux-gnu/bin/../lib/gcc/nios2-elf/4.1.2/libgcc.a(_fpcmp_parts_sf.o)
 .debug_abbrev  0x00009f79      0x100 /OPT/altera/12.1/nios2eds/bin/gnu/H-i686-pc-linux-gnu/bin/../lib/gcc/nios2-elf/4.1.2/libgcc.a(_make_sf.o)
 .debug_abbrev  0x0000a079      0x1b1 /OPT/altera/12.1/nios2eds/bin/gnu/H-i686-pc-linux-gnu/bin/../lib/gcc/nios2-elf/4.1.2/libgcc.a(_pack_df.o)
 .debug_abbrev  0x0000a22a      0x149 /OPT/altera/12.1/nios2eds/bin/gnu/H-i686-pc-linux-gnu/bin/../lib/gcc/nios2-elf/4.1.2/libgcc.a(_unpack_df.o)
 .debug_abbrev  0x0000a373      0x132 /OPT/altera/12.1/nios2eds/bin/gnu/H-i686-pc-linux-gnu/bin/../lib/gcc/nios2-elf/4.1.2/libgcc.a(_fpcmp_parts_df.o)
 .debug_abbrev  0x0000a4a5      0x1aa /OPT/altera/12.1/nios2eds/bin/gnu/H-i686-pc-linux-gnu/bin/../lib/gcc/nios2-elf/4.1.2/libgcc.a(_pack_sf.o)
 .debug_abbrev  0x0000a64f       0x7a ../Webserver_bsp//libucosii_bsp.a(alt_dcache_flush.o)
 .debug_abbrev  0x0000a6c9      0x128 ../Webserver_bsp//libucosii_bsp.a(alt_flash_dev.o)
 .debug_abbrev  0x0000a7f1      0x102 ../Webserver_bsp//libucosii_bsp.a(alt_fstat.o)
 .debug_abbrev  0x0000a8f3      0x180 ../Webserver_bsp//libucosii_bsp.a(alt_irq_register.o)
 .debug_abbrev  0x0000aa73       0x44 ../Webserver_bsp//libucosii_bsp.a(alt_irq_vars.o)
 .debug_abbrev  0x0000aab7      0x102 ../Webserver_bsp//libucosii_bsp.a(alt_isatty.o)
 .debug_abbrev  0x0000abb9      0x102 ../Webserver_bsp//libucosii_bsp.a(alt_lseek.o)
 .debug_abbrev  0x0000acbb      0x120 ../Webserver_bsp//libucosii_bsp.a(alt_main.o)
 .debug_abbrev  0x0000addb      0x119 ../Webserver_bsp//libucosii_bsp.a(alt_open.o)
 .debug_abbrev  0x0000aef4       0xd3 ../Webserver_bsp//libucosii_bsp.a(alt_release_fd.o)
 .debug_abbrev  0x0000afc7      0x115 ../Webserver_bsp//libucosii_bsp.a(alt_sbrk.o)
 .debug_abbrev  0x0000b0dc      0x150 ../Webserver_bsp//libucosii_bsp.a(alt_tick.o)
 .debug_abbrev  0x0000b22c       0xb7 ../Webserver_bsp//libucosii_bsp.a(alt_usleep.o)
 .debug_abbrev  0x0000b2e3      0x1b3 ../Webserver_bsp//libucosii_bsp.a(alt_env_lock.o)
 .debug_abbrev  0x0000b496      0x234 ../Webserver_bsp//libucosii_bsp.a(alt_malloc_lock.o)
 .debug_abbrev  0x0000b6ca      0x2aa ../Webserver_bsp//libucosii_bsp.a(os_core.o)
 .debug_abbrev  0x0000b974      0x114 ../Webserver_bsp//libucosii_bsp.a(os_dbg.o)
 .debug_abbrev  0x0000ba88      0x21b ../Webserver_bsp//libucosii_bsp.a(os_flag.o)
 .debug_abbrev  0x0000bca3      0x1f6 ../Webserver_bsp//libucosii_bsp.a(os_mbox.o)
 .debug_abbrev  0x0000be99      0x235 ../Webserver_bsp//libucosii_bsp.a(os_mem.o)
 .debug_abbrev  0x0000c0ce      0x20d ../Webserver_bsp//libucosii_bsp.a(os_q.o)
 .debug_abbrev  0x0000c2db      0x20d ../Webserver_bsp//libucosii_bsp.a(os_sem.o)
 .debug_abbrev  0x0000c4e8      0x20e ../Webserver_bsp//libucosii_bsp.a(os_task.o)
 .debug_abbrev  0x0000c6f6      0x1de ../Webserver_bsp//libucosii_bsp.a(os_time.o)
 .debug_abbrev  0x0000c8d4      0x1b5 ../Webserver_bsp//libucosii_bsp.a(alt_sys_init.o)
 .debug_abbrev  0x0000ca89      0x13c ../Webserver_bsp//libucosii_bsp.a(altera_avalon_jtag_uart_fd.o)
 .debug_abbrev  0x0000cbc5      0x21e ../Webserver_bsp//libucosii_bsp.a(altera_avalon_jtag_uart_init.o)
 .debug_abbrev  0x0000cde3      0x135 ../Webserver_bsp//libucosii_bsp.a(altera_avalon_jtag_uart_ioctl.o)
 .debug_abbrev  0x0000cf18      0x1ee ../Webserver_bsp//libucosii_bsp.a(altera_avalon_jtag_uart_read.o)
 .debug_abbrev  0x0000d106      0x1ea ../Webserver_bsp//libucosii_bsp.a(altera_avalon_jtag_uart_write.o)
 .debug_abbrev  0x0000d2f0      0x137 ../Webserver_bsp//libucosii_bsp.a(altera_avalon_timer_sc.o)
 .debug_abbrev  0x0000d427      0x20a ../Webserver_bsp//libucosii_bsp.a(altera_ro_zipfs.o)
 .debug_abbrev  0x0000d631      0x127 ../Webserver_bsp//libucosii_bsp.a(altera_up_avalon_character_lcd.o)
 .debug_abbrev  0x0000d758       0x77 ../Webserver_bsp//libucosii_bsp.a(alt_iniche_close.o)
 .debug_abbrev  0x0000d7cf      0x11f ../Webserver_bsp//libucosii_bsp.a(alt_iniche_dev.o)
 .debug_abbrev  0x0000d8ee       0x7e ../Webserver_bsp//libucosii_bsp.a(alt_iniche_read.o)
 .debug_abbrev  0x0000d96c       0x85 ../Webserver_bsp//libucosii_bsp.a(alt_iniche_write.o)
 .debug_abbrev  0x0000d9f1      0x184 ../Webserver_bsp//libucosii_bsp.a(ipnet.o)
 .debug_abbrev  0x0000db75      0x18b ../Webserver_bsp//libucosii_bsp.a(ipstart.o)
 .debug_abbrev  0x0000dd00      0x191 ../Webserver_bsp//libucosii_bsp.a(igmp_cmn.o)
 .debug_abbrev  0x0000de91      0x1a3 ../Webserver_bsp//libucosii_bsp.a(bsdsock.o)
 .debug_abbrev  0x0000e034       0x96 ../Webserver_bsp//libucosii_bsp.a(cksum.o)
 .debug_abbrev  0x0000e0ca      0x18b ../Webserver_bsp//libucosii_bsp.a(in_utils.o)
 .debug_abbrev  0x0000e255      0x152 ../Webserver_bsp//libucosii_bsp.a(netmain.o)
 .debug_abbrev  0x0000e3a7      0x154 ../Webserver_bsp//libucosii_bsp.a(parseip.o)
 .debug_abbrev  0x0000e4fb      0x144 ../Webserver_bsp//libucosii_bsp.a(tk_crnos.o)
 .debug_abbrev  0x0000e63f      0x217 ../Webserver_bsp//libucosii_bsp.a(dhcpclnt.o)
 .debug_abbrev  0x0000e856       0x8f ../Webserver_bsp//libucosii_bsp.a(dhcputil.o)
 .debug_abbrev  0x0000e8e5      0x196 ../Webserver_bsp//libucosii_bsp.a(pktalloc.o)
 .debug_abbrev  0x0000ea7b       0xcb ../Webserver_bsp//libucosii_bsp.a(q.o)
 .debug_abbrev  0x0000eb46      0x144 ../Webserver_bsp//libucosii_bsp.a(udp_open.o)
 .debug_abbrev  0x0000ec8a       0x14 ../Webserver_bsp//libucosii_bsp.a(asm_cksum.o)
 .debug_abbrev  0x0000ec9e      0x242 ../Webserver_bsp//libucosii_bsp.a(brdutils.o)
 .debug_abbrev  0x0000eee0      0x194 ../Webserver_bsp//libucosii_bsp.a(osportco.o)
 .debug_abbrev  0x0000f074      0x199 ../Webserver_bsp//libucosii_bsp.a(targnios.o)
 .debug_abbrev  0x0000f20d      0x1dc ../Webserver_bsp//libucosii_bsp.a(nptcp.o)
 .debug_abbrev  0x0000f3e9      0x136 ../Webserver_bsp//libucosii_bsp.a(rawsock.o)
 .debug_abbrev  0x0000f51f      0x1de ../Webserver_bsp//libucosii_bsp.a(sockcall.o)
 .debug_abbrev  0x0000f6fd      0x1ef ../Webserver_bsp//libucosii_bsp.a(socket.o)
 .debug_abbrev  0x0000f8ec      0x1ac ../Webserver_bsp//libucosii_bsp.a(socket2.o)
 .debug_abbrev  0x0000fa98      0x17f ../Webserver_bsp//libucosii_bsp.a(soselect.o)
 .debug_abbrev  0x0000fc17      0x1ca ../Webserver_bsp//libucosii_bsp.a(tcp_in.o)
 .debug_abbrev  0x0000fde1      0x1a4 ../Webserver_bsp//libucosii_bsp.a(tcp_out.o)
 .debug_abbrev  0x0000ff85      0x1c3 ../Webserver_bsp//libucosii_bsp.a(tcp_subr.o)
 .debug_abbrev  0x00010148      0x19e ../Webserver_bsp//libucosii_bsp.a(tcp_timr.o)
 .debug_abbrev  0x000102e6      0x175 ../Webserver_bsp//libucosii_bsp.a(tcp_usr.o)
 .debug_abbrev  0x0001045b       0x77 ../Webserver_bsp//libucosii_bsp.a(tcpport.o)
 .debug_abbrev  0x000104d2      0x190 ../Webserver_bsp//libucosii_bsp.a(udpsock.o)
 .debug_abbrev  0x00010662      0x172 ../Webserver_bsp//libucosii_bsp.a(alt_alarm_start.o)
 .debug_abbrev  0x000107d4       0x6c ../Webserver_bsp//libucosii_bsp.a(alt_busy_sleep.o)
 .debug_abbrev  0x00010840      0x102 ../Webserver_bsp//libucosii_bsp.a(alt_close.o)
 .debug_abbrev  0x00010942      0x10a ../Webserver_bsp//libucosii_bsp.a(alt_dev.o)
 .debug_abbrev  0x00010a4c       0xf6 ../Webserver_bsp//libucosii_bsp.a(alt_dev_llist_insert.o)
 .debug_abbrev  0x00010b42       0x76 ../Webserver_bsp//libucosii_bsp.a(alt_do_ctors.o)
 .debug_abbrev  0x00010bb8       0x76 ../Webserver_bsp//libucosii_bsp.a(alt_do_dtors.o)
 .debug_abbrev  0x00010c2e       0x5e ../Webserver_bsp//libucosii_bsp.a(alt_errno.o)
 .debug_abbrev  0x00010c8c       0xd6 ../Webserver_bsp//libucosii_bsp.a(alt_find_dev.o)
 .debug_abbrev  0x00010d62       0xd6 ../Webserver_bsp//libucosii_bsp.a(alt_find_file.o)
 .debug_abbrev  0x00010e38       0xf4 ../Webserver_bsp//libucosii_bsp.a(alt_fs_reg.o)
 .debug_abbrev  0x00010f2c      0x173 ../Webserver_bsp//libucosii_bsp.a(alt_get_fd.o)
 .debug_abbrev  0x0001109f      0x134 ../Webserver_bsp//libucosii_bsp.a(alt_iic.o)
 .debug_abbrev  0x000111d3      0x14e ../Webserver_bsp//libucosii_bsp.a(alt_iic_isr_register.o)
 .debug_abbrev  0x00011321       0xf7 ../Webserver_bsp//libucosii_bsp.a(alt_io_redirect.o)
 .debug_abbrev  0x00011418       0x12 ../Webserver_bsp//libucosii_bsp.a(alt_irq_entry.o)
 .debug_abbrev  0x0001142a      0x124 ../Webserver_bsp//libucosii_bsp.a(alt_irq_handler.o)
 .debug_abbrev  0x0001154e      0x102 ../Webserver_bsp//libucosii_bsp.a(alt_read.o)
 .debug_abbrev  0x00011650       0x74 ../Webserver_bsp//libucosii_bsp.a(alt_remap_cached.o)
 .debug_abbrev  0x000116c4       0x74 ../Webserver_bsp//libucosii_bsp.a(alt_remap_uncached.o)
 .debug_abbrev  0x00011738      0x107 ../Webserver_bsp//libucosii_bsp.a(alt_write.o)
 .debug_abbrev  0x0001183f       0x3f ../Webserver_bsp//libucosii_bsp.a(altera_nios2_qsys_irq.o)
 .debug_abbrev  0x0001187e       0x14 ../Webserver_bsp//libucosii_bsp.a(os_cpu_a.o)
 .debug_abbrev  0x00011892      0x1d0 ../Webserver_bsp//libucosii_bsp.a(os_cpu_c.o)
 .debug_abbrev  0x00011a62      0x173 ../Webserver_bsp//libucosii_bsp.a(allports.o)
 .debug_abbrev  0x00011bd5      0x151 ../Webserver_bsp//libucosii_bsp.a(timeouts.o)
 .debug_abbrev  0x00011d26       0xa4 ../Webserver_bsp//libucosii_bsp.a(tk_misc.o)
 .debug_abbrev  0x00011dca       0x92 ../Webserver_bsp//libucosii_bsp.a(alt_iniche_fcntl.o)
 .debug_abbrev  0x00011e5c      0x1eb ../Webserver_bsp//libucosii_bsp.a(et_arp.o)
 .debug_abbrev  0x00012047      0x13d ../Webserver_bsp//libucosii_bsp.a(iface.o)
 .debug_abbrev  0x00012184      0x1ed ../Webserver_bsp//libucosii_bsp.a(ip.o)
 .debug_abbrev  0x00012371      0x1ca ../Webserver_bsp//libucosii_bsp.a(ip_reasm.o)
 .debug_abbrev  0x0001253b      0x166 ../Webserver_bsp//libucosii_bsp.a(ipdemux.o)
 .debug_abbrev  0x000126a1      0x114 ../Webserver_bsp//libucosii_bsp.a(ipmc.o)
 .debug_abbrev  0x000127b5       0xe9 ../Webserver_bsp//libucosii_bsp.a(ipport.o)
 .debug_abbrev  0x0001289e      0x19c ../Webserver_bsp//libucosii_bsp.a(ipraw.o)
 .debug_abbrev  0x00012a3a      0x156 ../Webserver_bsp//libucosii_bsp.a(iproute.o)
 .debug_abbrev  0x00012b90      0x1c0 ../Webserver_bsp//libucosii_bsp.a(udp.o)
 .debug_abbrev  0x00012d50      0x10e ../Webserver_bsp//libucosii_bsp.a(igmp.o)
 .debug_abbrev  0x00012e5e      0x17a ../Webserver_bsp//libucosii_bsp.a(igmp2.o)
 .debug_abbrev  0x00012fd8      0x189 ../Webserver_bsp//libucosii_bsp.a(ipopt.o)
 .debug_abbrev  0x00013161      0x15a ../Webserver_bsp//libucosii_bsp.a(u_mctest.o)
 .debug_abbrev  0x000132bb      0x12e ../Webserver_bsp//libucosii_bsp.a(dhcsetup.o)
 .debug_abbrev  0x000133e9      0x175 ../Webserver_bsp//libucosii_bsp.a(memdev.o)
 .debug_abbrev  0x0001355e       0xad ../Webserver_bsp//libucosii_bsp.a(tcpcksum.o)
 .debug_abbrev  0x0001360b      0x19f ../Webserver_bsp//libucosii_bsp.a(in_pcb.o)
 .debug_abbrev  0x000137aa      0x1b6 ../Webserver_bsp//libucosii_bsp.a(vfsfiles.o)
 .debug_abbrev  0x00013960       0x77 ../Webserver_bsp//libucosii_bsp.a(vfsport.o)
 .debug_abbrev  0x000139d7       0x12 ../Webserver_bsp//libucosii_bsp.a(alt_exception_entry.o)
 .debug_abbrev  0x000139e9      0x107 ../Webserver_bsp//libucosii_bsp.a(alt_fcntl.o)
 .debug_abbrev  0x00013af0      0x15d ../Webserver_bsp//libucosii_bsp.a(icmp.o)
 .debug_abbrev  0x00013c4d       0xb7 /OPT/altera/12.1/nios2eds/bin/gnu/H-i686-pc-linux-gnu/bin/../lib/gcc/nios2-elf/4.1.2/../../../../nios2-elf/lib/libc.a(lib_a-atexit.o)
 .debug_abbrev  0x00013d04      0x17f /OPT/altera/12.1/nios2eds/bin/gnu/H-i686-pc-linux-gnu/bin/../lib/gcc/nios2-elf/4.1.2/../../../../nios2-elf/lib/libc.a(lib_a-calloc.o)
 .debug_abbrev  0x00013e83      0x16e /OPT/altera/12.1/nios2eds/bin/gnu/H-i686-pc-linux-gnu/bin/../lib/gcc/nios2-elf/4.1.2/../../../../nios2-elf/lib/libc.a(lib_a-exit.o)
 .debug_abbrev  0x00013ff1      0x17f /OPT/altera/12.1/nios2eds/bin/gnu/H-i686-pc-linux-gnu/bin/../lib/gcc/nios2-elf/4.1.2/../../../../nios2-elf/lib/libc.a(lib_a-getc.o)
 .debug_abbrev  0x00014170      0x187 /OPT/altera/12.1/nios2eds/bin/gnu/H-i686-pc-linux-gnu/bin/../lib/gcc/nios2-elf/4.1.2/../../../../nios2-elf/lib/libc.a(lib_a-malloc.o)
 .debug_abbrev  0x000142f7      0x189 /OPT/altera/12.1/nios2eds/bin/gnu/H-i686-pc-linux-gnu/bin/../lib/gcc/nios2-elf/4.1.2/../../../../nios2-elf/lib/libc.a(lib_a-rget.o)
 .debug_abbrev  0x00014480      0x170 /OPT/altera/12.1/nios2eds/bin/gnu/H-i686-pc-linux-gnu/bin/../lib/gcc/nios2-elf/4.1.2/../../../../nios2-elf/lib/libc.a(lib_a-vprintf.o)
 .debug_abbrev  0x000145f0      0x1a5 /OPT/altera/12.1/nios2eds/bin/gnu/H-i686-pc-linux-gnu/bin/../lib/gcc/nios2-elf/4.1.2/../../../../nios2-elf/lib/libc.a(lib_a-vsprintf.o)
 .debug_abbrev  0x00014795      0x1ae /OPT/altera/12.1/nios2eds/bin/gnu/H-i686-pc-linux-gnu/bin/../lib/gcc/nios2-elf/4.1.2/../../../../nios2-elf/lib/libc.a(lib_a-__atexit.o)
 .debug_abbrev  0x00014943      0x1de /OPT/altera/12.1/nios2eds/bin/gnu/H-i686-pc-linux-gnu/bin/../lib/gcc/nios2-elf/4.1.2/../../../../nios2-elf/lib/libc.a(lib_a-__call_atexit.o)
 .debug_abbrev  0x00014b21       0xaa ../Webserver_bsp//libucosii_bsp.a(alt_exit.o)

.debug_line     0x00000000    0x484ae
 *(.debug_line)
 .debug_line    0x00000000       0x57 ../Webserver_bsp//obj/HAL/src/crt0.o
 .debug_line    0x00000057      0x4d2 obj/default/alt_error_handler.o
 .debug_line    0x00000529      0xac9 obj/default/dm9000a.o
 .debug_line    0x00000ff2     0x1388 obj/default/http.o
 .debug_line    0x0000237a      0x836 obj/default/network_utilities.o
 .debug_line    0x00002bb0      0x6b3 obj/default/srec_flash.o
 .debug_line    0x00003263      0x6d7 obj/default/web_server.o
 .debug_line    0x0000393a      0x2c6 /OPT/altera/12.1/nios2eds/bin/gnu/H-i686-pc-linux-gnu/bin/../lib/gcc/nios2-elf/4.1.2/libgcc.a(lib2-divmod.o)
 .debug_line    0x00003c00      0x20a /OPT/altera/12.1/nios2eds/bin/gnu/H-i686-pc-linux-gnu/bin/../lib/gcc/nios2-elf/4.1.2/../../../../nios2-elf/lib/libc.a(lib_a-atoi.o)
 .debug_line    0x00003e0a       0x7e /OPT/altera/12.1/nios2eds/bin/gnu/H-i686-pc-linux-gnu/bin/../lib/gcc/nios2-elf/4.1.2/../../../../nios2-elf/lib/libc.a(lib_a-ctype_.o)
 .debug_line    0x00003e88      0x2e8 /OPT/altera/12.1/nios2eds/bin/gnu/H-i686-pc-linux-gnu/bin/../lib/gcc/nios2-elf/4.1.2/../../../../nios2-elf/lib/libc.a(lib_a-fclose.o)
 .debug_line    0x00004170      0x40d /OPT/altera/12.1/nios2eds/bin/gnu/H-i686-pc-linux-gnu/bin/../lib/gcc/nios2-elf/4.1.2/../../../../nios2-elf/lib/libc.a(lib_a-fflush.o)
 .debug_line    0x0000457d      0x259 /OPT/altera/12.1/nios2eds/bin/gnu/H-i686-pc-linux-gnu/bin/../lib/gcc/nios2-elf/4.1.2/../../../../nios2-elf/lib/libc.a(lib_a-fgetpos.o)
 .debug_line    0x000047d6      0x601 /OPT/altera/12.1/nios2eds/bin/gnu/H-i686-pc-linux-gnu/bin/../lib/gcc/nios2-elf/4.1.2/../../../../nios2-elf/lib/libc.a(lib_a-findfp.o)
 .debug_line    0x00004dd7      0x342 /OPT/altera/12.1/nios2eds/bin/gnu/H-i686-pc-linux-gnu/bin/../lib/gcc/nios2-elf/4.1.2/../../../../nios2-elf/lib/libc.a(lib_a-fopen.o)
 .debug_line    0x00005119      0x284 /OPT/altera/12.1/nios2eds/bin/gnu/H-i686-pc-linux-gnu/bin/../lib/gcc/nios2-elf/4.1.2/../../../../nios2-elf/lib/libc.a(lib_a-fprintf.o)
 .debug_line    0x0000539d      0x456 /OPT/altera/12.1/nios2eds/bin/gnu/H-i686-pc-linux-gnu/bin/../lib/gcc/nios2-elf/4.1.2/../../../../nios2-elf/lib/libc.a(lib_a-fread.o)
 .debug_line    0x000057f3      0x5eb /OPT/altera/12.1/nios2eds/bin/gnu/H-i686-pc-linux-gnu/bin/../lib/gcc/nios2-elf/4.1.2/../../../../nios2-elf/lib/libc.a(lib_a-freer.o)
 .debug_line    0x00005dde      0x5ab /OPT/altera/12.1/nios2eds/bin/gnu/H-i686-pc-linux-gnu/bin/../lib/gcc/nios2-elf/4.1.2/../../../../nios2-elf/lib/libc.a(lib_a-fseek.o)
 .debug_line    0x00006389      0x264 /OPT/altera/12.1/nios2eds/bin/gnu/H-i686-pc-linux-gnu/bin/../lib/gcc/nios2-elf/4.1.2/../../../../nios2-elf/lib/libc.a(lib_a-fstatr.o)
 .debug_line    0x000065ed      0x2ea /OPT/altera/12.1/nios2eds/bin/gnu/H-i686-pc-linux-gnu/bin/../lib/gcc/nios2-elf/4.1.2/../../../../nios2-elf/lib/libc.a(lib_a-ftell.o)
 .debug_line    0x000068d7      0x34a /OPT/altera/12.1/nios2eds/bin/gnu/H-i686-pc-linux-gnu/bin/../lib/gcc/nios2-elf/4.1.2/../../../../nios2-elf/lib/libc.a(lib_a-fwalk.o)
 .debug_line    0x00006c21      0x2d9 /OPT/altera/12.1/nios2eds/bin/gnu/H-i686-pc-linux-gnu/bin/../lib/gcc/nios2-elf/4.1.2/../../../../nios2-elf/lib/libc.a(lib_a-fwrite.o)
 .debug_line    0x00006efa      0x22d /OPT/altera/12.1/nios2eds/bin/gnu/H-i686-pc-linux-gnu/bin/../lib/gcc/nios2-elf/4.1.2/../../../../nios2-elf/lib/libc.a(lib_a-impure.o)
 .debug_line    0x00007127      0x1df /OPT/altera/12.1/nios2eds/bin/gnu/H-i686-pc-linux-gnu/bin/../lib/gcc/nios2-elf/4.1.2/../../../../nios2-elf/lib/libc.a(lib_a-int_errno.o)
 .debug_line    0x00007306      0x3c3 /OPT/altera/12.1/nios2eds/bin/gnu/H-i686-pc-linux-gnu/bin/../lib/gcc/nios2-elf/4.1.2/../../../../nios2-elf/lib/libc.a(lib_a-makebuf.o)
 .debug_line    0x000076c9      0x80a /OPT/altera/12.1/nios2eds/bin/gnu/H-i686-pc-linux-gnu/bin/../lib/gcc/nios2-elf/4.1.2/../../../../nios2-elf/lib/libc.a(lib_a-mallocr.o)
 .debug_line    0x00007ed3      0x1ac /OPT/altera/12.1/nios2eds/bin/gnu/H-i686-pc-linux-gnu/bin/../lib/gcc/nios2-elf/4.1.2/../../../../nios2-elf/lib/libc.a(lib_a-memcpy.o)
 .debug_line    0x0000807f      0x30a /OPT/altera/12.1/nios2eds/bin/gnu/H-i686-pc-linux-gnu/bin/../lib/gcc/nios2-elf/4.1.2/../../../../nios2-elf/lib/libc.a(lib_a-memmove.o)
 .debug_line    0x00008389      0x301 /OPT/altera/12.1/nios2eds/bin/gnu/H-i686-pc-linux-gnu/bin/../lib/gcc/nios2-elf/4.1.2/../../../../nios2-elf/lib/libc.a(lib_a-memset.o)
 .debug_line    0x0000868a      0x27b /OPT/altera/12.1/nios2eds/bin/gnu/H-i686-pc-linux-gnu/bin/../lib/gcc/nios2-elf/4.1.2/../../../../nios2-elf/lib/libc.a(lib_a-openr.o)
 .debug_line    0x00008905      0x2a4 /OPT/altera/12.1/nios2eds/bin/gnu/H-i686-pc-linux-gnu/bin/../lib/gcc/nios2-elf/4.1.2/../../../../nios2-elf/lib/libc.a(lib_a-perror.o)
 .debug_line    0x00008ba9      0x29b /OPT/altera/12.1/nios2eds/bin/gnu/H-i686-pc-linux-gnu/bin/../lib/gcc/nios2-elf/4.1.2/../../../../nios2-elf/lib/libc.a(lib_a-printf.o)
 .debug_line    0x00008e44      0x2f7 /OPT/altera/12.1/nios2eds/bin/gnu/H-i686-pc-linux-gnu/bin/../lib/gcc/nios2-elf/4.1.2/../../../../nios2-elf/lib/libc.a(lib_a-puts.o)
 .debug_line    0x0000913b      0x3c4 /OPT/altera/12.1/nios2eds/bin/gnu/H-i686-pc-linux-gnu/bin/../lib/gcc/nios2-elf/4.1.2/../../../../nios2-elf/lib/libc.a(lib_a-refill.o)
 .debug_line    0x000094ff      0x299 /OPT/altera/12.1/nios2eds/bin/gnu/H-i686-pc-linux-gnu/bin/../lib/gcc/nios2-elf/4.1.2/../../../../nios2-elf/lib/libc.a(lib_a-sbrkr.o)
 .debug_line    0x00009798      0x3a7 /OPT/altera/12.1/nios2eds/bin/gnu/H-i686-pc-linux-gnu/bin/../lib/gcc/nios2-elf/4.1.2/../../../../nios2-elf/lib/libc.a(lib_a-snprintf.o)
 .debug_line    0x00009b3f      0x322 /OPT/altera/12.1/nios2eds/bin/gnu/H-i686-pc-linux-gnu/bin/../lib/gcc/nios2-elf/4.1.2/../../../../nios2-elf/lib/libc.a(lib_a-sprintf.o)
 .debug_line    0x00009e61      0x361 /OPT/altera/12.1/nios2eds/bin/gnu/H-i686-pc-linux-gnu/bin/../lib/gcc/nios2-elf/4.1.2/../../../../nios2-elf/lib/libc.a(lib_a-sscanf.o)
 .debug_line    0x0000a1c2      0x38c /OPT/altera/12.1/nios2eds/bin/gnu/H-i686-pc-linux-gnu/bin/../lib/gcc/nios2-elf/4.1.2/../../../../nios2-elf/lib/libc.a(lib_a-stdio.o)
 .debug_line    0x0000a54e      0x20f /OPT/altera/12.1/nios2eds/bin/gnu/H-i686-pc-linux-gnu/bin/../lib/gcc/nios2-elf/4.1.2/../../../../nios2-elf/lib/libc.a(lib_a-strcasecmp.o)
 .debug_line    0x0000a75d      0x28f /OPT/altera/12.1/nios2eds/bin/gnu/H-i686-pc-linux-gnu/bin/../lib/gcc/nios2-elf/4.1.2/../../../../nios2-elf/lib/libc.a(lib_a-strcat.o)
 .debug_line    0x0000a9ec      0x2c7 /OPT/altera/12.1/nios2eds/bin/gnu/H-i686-pc-linux-gnu/bin/../lib/gcc/nios2-elf/4.1.2/../../../../nios2-elf/lib/libc.a(lib_a-strchr.o)
 .debug_line    0x0000acb3      0x2d5 /OPT/altera/12.1/nios2eds/bin/gnu/H-i686-pc-linux-gnu/bin/../lib/gcc/nios2-elf/4.1.2/../../../../nios2-elf/lib/libc.a(lib_a-strcmp.o)
 .debug_line    0x0000af88      0x287 /OPT/altera/12.1/nios2eds/bin/gnu/H-i686-pc-linux-gnu/bin/../lib/gcc/nios2-elf/4.1.2/../../../../nios2-elf/lib/libc.a(lib_a-strcpy.o)
 .debug_line    0x0000b20f      0x4e1 /OPT/altera/12.1/nios2eds/bin/gnu/H-i686-pc-linux-gnu/bin/../lib/gcc/nios2-elf/4.1.2/../../../../nios2-elf/lib/libc.a(lib_a-strerror.o)
 .debug_line    0x0000b6f0      0x26d /OPT/altera/12.1/nios2eds/bin/gnu/H-i686-pc-linux-gnu/bin/../lib/gcc/nios2-elf/4.1.2/../../../../nios2-elf/lib/libc.a(lib_a-strlen.o)
 .debug_line    0x0000b95d      0x2fe /OPT/altera/12.1/nios2eds/bin/gnu/H-i686-pc-linux-gnu/bin/../lib/gcc/nios2-elf/4.1.2/../../../../nios2-elf/lib/libc.a(lib_a-strncmp.o)
 .debug_line    0x0000bc5b      0x2d0 /OPT/altera/12.1/nios2eds/bin/gnu/H-i686-pc-linux-gnu/bin/../lib/gcc/nios2-elf/4.1.2/../../../../nios2-elf/lib/libc.a(lib_a-strncpy.o)
 .debug_line    0x0000bf2b      0x6cd /OPT/altera/12.1/nios2eds/bin/gnu/H-i686-pc-linux-gnu/bin/../lib/gcc/nios2-elf/4.1.2/../../../../nios2-elf/lib/libc.a(lib_a-strstr.o)
 .debug_line    0x0000c5f8      0x250 /OPT/altera/12.1/nios2eds/bin/gnu/H-i686-pc-linux-gnu/bin/../lib/gcc/nios2-elf/4.1.2/../../../../nios2-elf/lib/libc.a(lib_a-strtok.o)
 .debug_line    0x0000c848      0x30b /OPT/altera/12.1/nios2eds/bin/gnu/H-i686-pc-linux-gnu/bin/../lib/gcc/nios2-elf/4.1.2/../../../../nios2-elf/lib/libc.a(lib_a-strtok_r.o)
 .debug_line    0x0000cb53      0x403 /OPT/altera/12.1/nios2eds/bin/gnu/H-i686-pc-linux-gnu/bin/../lib/gcc/nios2-elf/4.1.2/../../../../nios2-elf/lib/libc.a(lib_a-strtol.o)
 .debug_line    0x0000cf56       0x91 /OPT/altera/12.1/nios2eds/bin/gnu/H-i686-pc-linux-gnu/bin/../lib/gcc/nios2-elf/4.1.2/../../../../nios2-elf/lib/libc.a(lib_a-u_strerr.o)
 .debug_line    0x0000cfe7     0x110c /OPT/altera/12.1/nios2eds/bin/gnu/H-i686-pc-linux-gnu/bin/../lib/gcc/nios2-elf/4.1.2/../../../../nios2-elf/lib/libc.a(lib_a-vfprintf.o)
 .debug_line    0x0000e0f3     0x103d /OPT/altera/12.1/nios2eds/bin/gnu/H-i686-pc-linux-gnu/bin/../lib/gcc/nios2-elf/4.1.2/../../../../nios2-elf/lib/libc.a(lib_a-vfscanf.o)
 .debug_line    0x0000f130      0x29a /OPT/altera/12.1/nios2eds/bin/gnu/H-i686-pc-linux-gnu/bin/../lib/gcc/nios2-elf/4.1.2/../../../../nios2-elf/lib/libc.a(lib_a-writer.o)
 .debug_line    0x0000f3ca      0x2f0 /OPT/altera/12.1/nios2eds/bin/gnu/H-i686-pc-linux-gnu/bin/../lib/gcc/nios2-elf/4.1.2/../../../../nios2-elf/lib/libc.a(lib_a-wsetup.o)
 .debug_line    0x0000f6ba      0x29a /OPT/altera/12.1/nios2eds/bin/gnu/H-i686-pc-linux-gnu/bin/../lib/gcc/nios2-elf/4.1.2/../../../../nios2-elf/lib/libc.a(lib_a-closer.o)
 .debug_line    0x0000f954     0x12c6 /OPT/altera/12.1/nios2eds/bin/gnu/H-i686-pc-linux-gnu/bin/../lib/gcc/nios2-elf/4.1.2/../../../../nios2-elf/lib/libc.a(lib_a-dtoa.o)
 .debug_line    0x00010c1a      0x296 /OPT/altera/12.1/nios2eds/bin/gnu/H-i686-pc-linux-gnu/bin/../lib/gcc/nios2-elf/4.1.2/../../../../nios2-elf/lib/libc.a(lib_a-flags.o)
 .debug_line    0x00010eb0      0x285 /OPT/altera/12.1/nios2eds/bin/gnu/H-i686-pc-linux-gnu/bin/../lib/gcc/nios2-elf/4.1.2/../../../../nios2-elf/lib/libc.a(lib_a-fputc.o)
 .debug_line    0x00011135      0x2c8 /OPT/altera/12.1/nios2eds/bin/gnu/H-i686-pc-linux-gnu/bin/../lib/gcc/nios2-elf/4.1.2/../../../../nios2-elf/lib/libc.a(lib_a-fputs.o)
 .debug_line    0x000113fd      0x641 /OPT/altera/12.1/nios2eds/bin/gnu/H-i686-pc-linux-gnu/bin/../lib/gcc/nios2-elf/4.1.2/../../../../nios2-elf/lib/libc.a(lib_a-fvwrite.o)
 .debug_line    0x00011a3e      0x29b /OPT/altera/12.1/nios2eds/bin/gnu/H-i686-pc-linux-gnu/bin/../lib/gcc/nios2-elf/4.1.2/../../../../nios2-elf/lib/libc.a(lib_a-isattyr.o)
 .debug_line    0x00011cd9      0x1fb /OPT/altera/12.1/nios2eds/bin/gnu/H-i686-pc-linux-gnu/bin/../lib/gcc/nios2-elf/4.1.2/../../../../nios2-elf/lib/libc.a(lib_a-iswspace.o)
 .debug_line    0x00011ed4      0x2c8 /OPT/altera/12.1/nios2eds/bin/gnu/H-i686-pc-linux-gnu/bin/../lib/gcc/nios2-elf/4.1.2/../../../../nios2-elf/lib/libc.a(lib_a-locale.o)
 .debug_line    0x0001219c      0x29a /OPT/altera/12.1/nios2eds/bin/gnu/H-i686-pc-linux-gnu/bin/../lib/gcc/nios2-elf/4.1.2/../../../../nios2-elf/lib/libc.a(lib_a-lseekr.o)
 .debug_line    0x00012436      0x2c6 /OPT/altera/12.1/nios2eds/bin/gnu/H-i686-pc-linux-gnu/bin/../lib/gcc/nios2-elf/4.1.2/../../../../nios2-elf/lib/libc.a(lib_a-mbrtowc.o)
 .debug_line    0x000126fc      0x236 /OPT/altera/12.1/nios2eds/bin/gnu/H-i686-pc-linux-gnu/bin/../lib/gcc/nios2-elf/4.1.2/../../../../nios2-elf/lib/libc.a(lib_a-mbtowc_r.o)
 .debug_line    0x00012932      0x303 /OPT/altera/12.1/nios2eds/bin/gnu/H-i686-pc-linux-gnu/bin/../lib/gcc/nios2-elf/4.1.2/../../../../nios2-elf/lib/libc.a(lib_a-memchr.o)
 .debug_line    0x00012c35      0x29f /OPT/altera/12.1/nios2eds/bin/gnu/H-i686-pc-linux-gnu/bin/../lib/gcc/nios2-elf/4.1.2/../../../../nios2-elf/lib/libc.a(lib_a-memcmp.o)
 .debug_line    0x00012ed4     0x1243 /OPT/altera/12.1/nios2eds/bin/gnu/H-i686-pc-linux-gnu/bin/../lib/gcc/nios2-elf/4.1.2/../../../../nios2-elf/lib/libc.a(lib_a-mprec.o)
 .debug_line    0x00014117      0x2c4 /OPT/altera/12.1/nios2eds/bin/gnu/H-i686-pc-linux-gnu/bin/../lib/gcc/nios2-elf/4.1.2/../../../../nios2-elf/lib/libc.a(lib_a-putc.o)
 .debug_line    0x000143db      0x299 /OPT/altera/12.1/nios2eds/bin/gnu/H-i686-pc-linux-gnu/bin/../lib/gcc/nios2-elf/4.1.2/../../../../nios2-elf/lib/libc.a(lib_a-readr.o)
 .debug_line    0x00014674      0x58a /OPT/altera/12.1/nios2eds/bin/gnu/H-i686-pc-linux-gnu/bin/../lib/gcc/nios2-elf/4.1.2/../../../../nios2-elf/lib/libc.a(lib_a-reallocr.o)
 .debug_line    0x00014bfe      0x222 /OPT/altera/12.1/nios2eds/bin/gnu/H-i686-pc-linux-gnu/bin/../lib/gcc/nios2-elf/4.1.2/../../../../nios2-elf/lib/libc.a(lib_a-s_isinfd.o)
 .debug_line    0x00014e20      0x21a /OPT/altera/12.1/nios2eds/bin/gnu/H-i686-pc-linux-gnu/bin/../lib/gcc/nios2-elf/4.1.2/../../../../nios2-elf/lib/libc.a(lib_a-s_isnand.o)
 .debug_line    0x0001503a      0x2c9 /OPT/altera/12.1/nios2eds/bin/gnu/H-i686-pc-linux-gnu/bin/../lib/gcc/nios2-elf/4.1.2/../../../../nios2-elf/lib/libc.a(lib_a-sccl.o)
 .debug_line    0x00015303      0x208 /OPT/altera/12.1/nios2eds/bin/gnu/H-i686-pc-linux-gnu/bin/../lib/gcc/nios2-elf/4.1.2/../../../../nios2-elf/lib/libc.a(lib_a-sf_nan.o)
 .debug_line    0x0001550b      0xfe4 /OPT/altera/12.1/nios2eds/bin/gnu/H-i686-pc-linux-gnu/bin/../lib/gcc/nios2-elf/4.1.2/../../../../nios2-elf/lib/libc.a(lib_a-strtod.o)
 .debug_line    0x000164ef      0x406 /OPT/altera/12.1/nios2eds/bin/gnu/H-i686-pc-linux-gnu/bin/../lib/gcc/nios2-elf/4.1.2/../../../../nios2-elf/lib/libc.a(lib_a-strtoll_r.o)
 .debug_line    0x000168f5      0x3ba /OPT/altera/12.1/nios2eds/bin/gnu/H-i686-pc-linux-gnu/bin/../lib/gcc/nios2-elf/4.1.2/../../../../nios2-elf/lib/libc.a(lib_a-strtoul.o)
 .debug_line    0x00016caf      0x3af /OPT/altera/12.1/nios2eds/bin/gnu/H-i686-pc-linux-gnu/bin/../lib/gcc/nios2-elf/4.1.2/../../../../nios2-elf/lib/libc.a(lib_a-strtoull_r.o)
 .debug_line    0x0001705e      0x49f /OPT/altera/12.1/nios2eds/bin/gnu/H-i686-pc-linux-gnu/bin/../lib/gcc/nios2-elf/4.1.2/../../../../nios2-elf/lib/libc.a(lib_a-ungetc.o)
 .debug_line    0x000174fd      0x350 /OPT/altera/12.1/nios2eds/bin/gnu/H-i686-pc-linux-gnu/bin/../lib/gcc/nios2-elf/4.1.2/../../../../nios2-elf/lib/libc.a(lib_a-wbuf.o)
 .debug_line    0x0001784d      0x25c /OPT/altera/12.1/nios2eds/bin/gnu/H-i686-pc-linux-gnu/bin/../lib/gcc/nios2-elf/4.1.2/../../../../nios2-elf/lib/libc.a(lib_a-callocr.o)
 .debug_line    0x00017aa9      0x8c5 /OPT/altera/12.1/nios2eds/bin/gnu/H-i686-pc-linux-gnu/bin/../lib/gcc/nios2-elf/4.1.2/../../../../nios2-elf/lib/libc.a(lib_a-gdtoa-gethex.o)
 .debug_line    0x0001836e      0x47b /OPT/altera/12.1/nios2eds/bin/gnu/H-i686-pc-linux-gnu/bin/../lib/gcc/nios2-elf/4.1.2/../../../../nios2-elf/lib/libc.a(lib_a-gdtoa-hexnan.o)
 .debug_line    0x000187e9      0x196 /OPT/altera/12.1/nios2eds/bin/gnu/H-i686-pc-linux-gnu/bin/../lib/gcc/nios2-elf/4.1.2/libgcc.a(_muldi3.o)
 .debug_line    0x0001897f      0x176 /OPT/altera/12.1/nios2eds/bin/gnu/H-i686-pc-linux-gnu/bin/../lib/gcc/nios2-elf/4.1.2/libgcc.a(_fixunsdfsi.o)
 .debug_line    0x00018af5      0x369 /OPT/altera/12.1/nios2eds/bin/gnu/H-i686-pc-linux-gnu/bin/../lib/gcc/nios2-elf/4.1.2/libgcc.a(_udivdi3.o)
 .debug_line    0x00018e5e      0x3f4 /OPT/altera/12.1/nios2eds/bin/gnu/H-i686-pc-linux-gnu/bin/../lib/gcc/nios2-elf/4.1.2/libgcc.a(_umoddi3.o)
 .debug_line    0x00019252      0x121 /OPT/altera/12.1/nios2eds/bin/gnu/H-i686-pc-linux-gnu/bin/../lib/gcc/nios2-elf/4.1.2/libgcc.a(_ne_sf.o)
 .debug_line    0x00019373      0x121 /OPT/altera/12.1/nios2eds/bin/gnu/H-i686-pc-linux-gnu/bin/../lib/gcc/nios2-elf/4.1.2/libgcc.a(_gt_sf.o)
 .debug_line    0x00019494      0x121 /OPT/altera/12.1/nios2eds/bin/gnu/H-i686-pc-linux-gnu/bin/../lib/gcc/nios2-elf/4.1.2/libgcc.a(_lt_sf.o)
 .debug_line    0x000195b5      0x430 /OPT/altera/12.1/nios2eds/bin/gnu/H-i686-pc-linux-gnu/bin/../lib/gcc/nios2-elf/4.1.2/libgcc.a(_addsub_df.o)
 .debug_line    0x000199e5      0x3e5 /OPT/altera/12.1/nios2eds/bin/gnu/H-i686-pc-linux-gnu/bin/../lib/gcc/nios2-elf/4.1.2/libgcc.a(_mul_df.o)
 .debug_line    0x00019dca      0x301 /OPT/altera/12.1/nios2eds/bin/gnu/H-i686-pc-linux-gnu/bin/../lib/gcc/nios2-elf/4.1.2/libgcc.a(_div_df.o)
 .debug_line    0x0001a0cb      0x129 /OPT/altera/12.1/nios2eds/bin/gnu/H-i686-pc-linux-gnu/bin/../lib/gcc/nios2-elf/4.1.2/libgcc.a(_eq_df.o)
 .debug_line    0x0001a1f4      0x129 /OPT/altera/12.1/nios2eds/bin/gnu/H-i686-pc-linux-gnu/bin/../lib/gcc/nios2-elf/4.1.2/libgcc.a(_ne_df.o)
 .debug_line    0x0001a31d      0x129 /OPT/altera/12.1/nios2eds/bin/gnu/H-i686-pc-linux-gnu/bin/../lib/gcc/nios2-elf/4.1.2/libgcc.a(_gt_df.o)
 .debug_line    0x0001a446      0x129 /OPT/altera/12.1/nios2eds/bin/gnu/H-i686-pc-linux-gnu/bin/../lib/gcc/nios2-elf/4.1.2/libgcc.a(_ge_df.o)
 .debug_line    0x0001a56f      0x129 /OPT/altera/12.1/nios2eds/bin/gnu/H-i686-pc-linux-gnu/bin/../lib/gcc/nios2-elf/4.1.2/libgcc.a(_lt_df.o)
 .debug_line    0x0001a698      0x129 /OPT/altera/12.1/nios2eds/bin/gnu/H-i686-pc-linux-gnu/bin/../lib/gcc/nios2-elf/4.1.2/libgcc.a(_le_df.o)
 .debug_line    0x0001a7c1      0x175 /OPT/altera/12.1/nios2eds/bin/gnu/H-i686-pc-linux-gnu/bin/../lib/gcc/nios2-elf/4.1.2/libgcc.a(_si_to_df.o)
 .debug_line    0x0001a936      0x149 /OPT/altera/12.1/nios2eds/bin/gnu/H-i686-pc-linux-gnu/bin/../lib/gcc/nios2-elf/4.1.2/libgcc.a(_df_to_si.o)
 .debug_line    0x0001aa7f      0x121 /OPT/altera/12.1/nios2eds/bin/gnu/H-i686-pc-linux-gnu/bin/../lib/gcc/nios2-elf/4.1.2/libgcc.a(_df_to_sf.o)
 .debug_line    0x0001aba0       0x94 /OPT/altera/12.1/nios2eds/bin/gnu/H-i686-pc-linux-gnu/bin/../lib/gcc/nios2-elf/4.1.2/libgcc.a(_thenan_df.o)
 .debug_line    0x0001ac34      0x189 /OPT/altera/12.1/nios2eds/bin/gnu/H-i686-pc-linux-gnu/bin/../lib/gcc/nios2-elf/4.1.2/libgcc.a(_usi_to_df.o)
 .debug_line    0x0001adbd      0x121 /OPT/altera/12.1/nios2eds/bin/gnu/H-i686-pc-linux-gnu/bin/../lib/gcc/nios2-elf/4.1.2/libgcc.a(_clz.o)
 .debug_line    0x0001aede      0x17c /OPT/altera/12.1/nios2eds/bin/gnu/H-i686-pc-linux-gnu/bin/../lib/gcc/nios2-elf/4.1.2/libgcc.a(_clzsi2.o)
 .debug_line    0x0001b05a      0x197 /OPT/altera/12.1/nios2eds/bin/gnu/H-i686-pc-linux-gnu/bin/../lib/gcc/nios2-elf/4.1.2/libgcc.a(_unpack_sf.o)
 .debug_line    0x0001b1f1      0x177 /OPT/altera/12.1/nios2eds/bin/gnu/H-i686-pc-linux-gnu/bin/../lib/gcc/nios2-elf/4.1.2/libgcc.a(_fpcmp_parts_sf.o)
 .debug_line    0x0001b368       0xe1 /OPT/altera/12.1/nios2eds/bin/gnu/H-i686-pc-linux-gnu/bin/../lib/gcc/nios2-elf/4.1.2/libgcc.a(_make_sf.o)
 .debug_line    0x0001b449      0x222 /OPT/altera/12.1/nios2eds/bin/gnu/H-i686-pc-linux-gnu/bin/../lib/gcc/nios2-elf/4.1.2/libgcc.a(_pack_df.o)
 .debug_line    0x0001b66b      0x1e4 /OPT/altera/12.1/nios2eds/bin/gnu/H-i686-pc-linux-gnu/bin/../lib/gcc/nios2-elf/4.1.2/libgcc.a(_unpack_df.o)
 .debug_line    0x0001b84f      0x187 /OPT/altera/12.1/nios2eds/bin/gnu/H-i686-pc-linux-gnu/bin/../lib/gcc/nios2-elf/4.1.2/libgcc.a(_fpcmp_parts_df.o)
 .debug_line    0x0001b9d6      0x1ca /OPT/altera/12.1/nios2eds/bin/gnu/H-i686-pc-linux-gnu/bin/../lib/gcc/nios2-elf/4.1.2/libgcc.a(_pack_sf.o)
 .debug_line    0x0001bba0      0x1e9 ../Webserver_bsp//libucosii_bsp.a(alt_dcache_flush.o)
 .debug_line    0x0001bd89      0x2d0 ../Webserver_bsp//libucosii_bsp.a(alt_flash_dev.o)
 .debug_line    0x0001c059      0x309 ../Webserver_bsp//libucosii_bsp.a(alt_fstat.o)
 .debug_line    0x0001c362      0x375 ../Webserver_bsp//libucosii_bsp.a(alt_irq_register.o)
 .debug_line    0x0001c6d7       0x72 ../Webserver_bsp//libucosii_bsp.a(alt_irq_vars.o)
 .debug_line    0x0001c749      0x30a ../Webserver_bsp//libucosii_bsp.a(alt_isatty.o)
 .debug_line    0x0001ca53      0x309 ../Webserver_bsp//libucosii_bsp.a(alt_lseek.o)
 .debug_line    0x0001cd5c      0x351 ../Webserver_bsp//libucosii_bsp.a(alt_main.o)
 .debug_line    0x0001d0ad      0x367 ../Webserver_bsp//libucosii_bsp.a(alt_open.o)
 .debug_line    0x0001d414      0x281 ../Webserver_bsp//libucosii_bsp.a(alt_release_fd.o)
 .debug_line    0x0001d695      0x269 ../Webserver_bsp//libucosii_bsp.a(alt_sbrk.o)
 .debug_line    0x0001d8fe      0x31e ../Webserver_bsp//libucosii_bsp.a(alt_tick.o)
 .debug_line    0x0001dc1c      0x2b5 ../Webserver_bsp//libucosii_bsp.a(alt_usleep.o)
 .debug_line    0x0001ded1      0x2c7 ../Webserver_bsp//libucosii_bsp.a(alt_env_lock.o)
 .debug_line    0x0001e198      0x383 ../Webserver_bsp//libucosii_bsp.a(alt_malloc_lock.o)
 .debug_line    0x0001e51b     0x166b ../Webserver_bsp//libucosii_bsp.a(os_core.o)
 .debug_line    0x0001fb86      0x390 ../Webserver_bsp//libucosii_bsp.a(os_dbg.o)
 .debug_line    0x0001ff16     0x11ef ../Webserver_bsp//libucosii_bsp.a(os_flag.o)
 .debug_line    0x00021105      0xabe ../Webserver_bsp//libucosii_bsp.a(os_mbox.o)
 .debug_line    0x00021bc3      0x792 ../Webserver_bsp//libucosii_bsp.a(os_mem.o)
 .debug_line    0x00022355      0xe73 ../Webserver_bsp//libucosii_bsp.a(os_q.o)
 .debug_line    0x000231c8      0xa2b ../Webserver_bsp//libucosii_bsp.a(os_sem.o)
 .debug_line    0x00023bf3     0x1134 ../Webserver_bsp//libucosii_bsp.a(os_task.o)
 .debug_line    0x00024d27      0x537 ../Webserver_bsp//libucosii_bsp.a(os_time.o)
 .debug_line    0x0002525e      0x3af ../Webserver_bsp//libucosii_bsp.a(alt_sys_init.o)
 .debug_line    0x0002560d      0x321 ../Webserver_bsp//libucosii_bsp.a(altera_avalon_jtag_uart_fd.o)
 .debug_line    0x0002592e      0x5a0 ../Webserver_bsp//libucosii_bsp.a(altera_avalon_jtag_uart_init.o)
 .debug_line    0x00025ece      0x35e ../Webserver_bsp//libucosii_bsp.a(altera_avalon_jtag_uart_ioctl.o)
 .debug_line    0x0002622c      0x49c ../Webserver_bsp//libucosii_bsp.a(altera_avalon_jtag_uart_read.o)
 .debug_line    0x000266c8      0x4aa ../Webserver_bsp//libucosii_bsp.a(altera_avalon_jtag_uart_write.o)
 .debug_line    0x00026b72      0x2bb ../Webserver_bsp//libucosii_bsp.a(altera_avalon_timer_sc.o)
 .debug_line    0x00026e2d      0x82a ../Webserver_bsp//libucosii_bsp.a(altera_ro_zipfs.o)
 .debug_line    0x00027657      0x4cd ../Webserver_bsp//libucosii_bsp.a(altera_up_avalon_character_lcd.o)
 .debug_line    0x00027b24      0x34f ../Webserver_bsp//libucosii_bsp.a(alt_iniche_close.o)
 .debug_line    0x00027e73      0x3f2 ../Webserver_bsp//libucosii_bsp.a(alt_iniche_dev.o)
 .debug_line    0x00028265      0x34e ../Webserver_bsp//libucosii_bsp.a(alt_iniche_read.o)
 .debug_line    0x000285b3      0x35f ../Webserver_bsp//libucosii_bsp.a(alt_iniche_write.o)
 .debug_line    0x00028912      0x7ae ../Webserver_bsp//libucosii_bsp.a(ipnet.o)
 .debug_line    0x000290c0      0x4ef ../Webserver_bsp//libucosii_bsp.a(ipstart.o)
 .debug_line    0x000295af      0x924 ../Webserver_bsp//libucosii_bsp.a(igmp_cmn.o)
 .debug_line    0x00029ed3      0x6cf ../Webserver_bsp//libucosii_bsp.a(bsdsock.o)
 .debug_line    0x0002a5a2      0x312 ../Webserver_bsp//libucosii_bsp.a(cksum.o)
 .debug_line    0x0002a8b4      0x7b1 ../Webserver_bsp//libucosii_bsp.a(in_utils.o)
 .debug_line    0x0002b065      0x447 ../Webserver_bsp//libucosii_bsp.a(netmain.o)
 .debug_line    0x0002b4ac      0x655 ../Webserver_bsp//libucosii_bsp.a(parseip.o)
 .debug_line    0x0002bb01      0x5b0 ../Webserver_bsp//libucosii_bsp.a(tk_crnos.o)
 .debug_line    0x0002c0b1     0x1071 ../Webserver_bsp//libucosii_bsp.a(dhcpclnt.o)
 .debug_line    0x0002d122      0x307 ../Webserver_bsp//libucosii_bsp.a(dhcputil.o)
 .debug_line    0x0002d429      0x651 ../Webserver_bsp//libucosii_bsp.a(pktalloc.o)
 .debug_line    0x0002da7a      0x3e3 ../Webserver_bsp//libucosii_bsp.a(q.o)
 .debug_line    0x0002de5d      0x476 ../Webserver_bsp//libucosii_bsp.a(udp_open.o)
 .debug_line    0x0002e2d3       0xaf ../Webserver_bsp//libucosii_bsp.a(asm_cksum.o)
 .debug_line    0x0002e382      0x47a ../Webserver_bsp//libucosii_bsp.a(brdutils.o)
 .debug_line    0x0002e7fc      0x507 ../Webserver_bsp//libucosii_bsp.a(osportco.o)
 .debug_line    0x0002ed03      0x646 ../Webserver_bsp//libucosii_bsp.a(targnios.o)
 .debug_line    0x0002f349      0xf2b ../Webserver_bsp//libucosii_bsp.a(nptcp.o)
 .debug_line    0x00030274      0x850 ../Webserver_bsp//libucosii_bsp.a(rawsock.o)
 .debug_line    0x00030ac4      0xe3e ../Webserver_bsp//libucosii_bsp.a(sockcall.o)
 .debug_line    0x00031902     0x12c0 ../Webserver_bsp//libucosii_bsp.a(socket.o)
 .debug_line    0x00032bc2      0xbf4 ../Webserver_bsp//libucosii_bsp.a(socket2.o)
 .debug_line    0x000337b6      0x735 ../Webserver_bsp//libucosii_bsp.a(soselect.o)
 .debug_line    0x00033eeb     0x15f6 ../Webserver_bsp//libucosii_bsp.a(tcp_in.o)
 .debug_line    0x000354e1      0xa61 ../Webserver_bsp//libucosii_bsp.a(tcp_out.o)
 .debug_line    0x00035f42      0x7cb ../Webserver_bsp//libucosii_bsp.a(tcp_subr.o)
 .debug_line    0x0003670d      0x61b ../Webserver_bsp//libucosii_bsp.a(tcp_timr.o)
 .debug_line    0x00036d28      0x8aa ../Webserver_bsp//libucosii_bsp.a(tcp_usr.o)
 .debug_line    0x000375d2      0x347 ../Webserver_bsp//libucosii_bsp.a(tcpport.o)
 .debug_line    0x00037919      0x961 ../Webserver_bsp//libucosii_bsp.a(udpsock.o)
 .debug_line    0x0003827a      0x2e4 ../Webserver_bsp//libucosii_bsp.a(alt_alarm_start.o)
 .debug_line    0x0003855e      0x268 ../Webserver_bsp//libucosii_bsp.a(alt_busy_sleep.o)
 .debug_line    0x000387c6      0x301 ../Webserver_bsp//libucosii_bsp.a(alt_close.o)
 .debug_line    0x00038ac7      0x2c2 ../Webserver_bsp//libucosii_bsp.a(alt_dev.o)
 .debug_line    0x00038d89      0x262 ../Webserver_bsp//libucosii_bsp.a(alt_dev_llist_insert.o)
 .debug_line    0x00038feb       0x83 ../Webserver_bsp//libucosii_bsp.a(alt_do_ctors.o)
 .debug_line    0x0003906e       0x83 ../Webserver_bsp//libucosii_bsp.a(alt_do_dtors.o)
 .debug_line    0x000390f1      0x1b2 ../Webserver_bsp//libucosii_bsp.a(alt_errno.o)
 .debug_line    0x000392a3      0x2e2 ../Webserver_bsp//libucosii_bsp.a(alt_find_dev.o)
 .debug_line    0x00039585      0x2f3 ../Webserver_bsp//libucosii_bsp.a(alt_find_file.o)
 .debug_line    0x00039878      0x2ab ../Webserver_bsp//libucosii_bsp.a(alt_fs_reg.o)
 .debug_line    0x00039b23      0x323 ../Webserver_bsp//libucosii_bsp.a(alt_get_fd.o)
 .debug_line    0x00039e46      0x2d0 ../Webserver_bsp//libucosii_bsp.a(alt_iic.o)
 .debug_line    0x0003a116      0x251 ../Webserver_bsp//libucosii_bsp.a(alt_iic_isr_register.o)
 .debug_line    0x0003a367      0x32b ../Webserver_bsp//libucosii_bsp.a(alt_io_redirect.o)
 .debug_line    0x0003a692       0x6b ../Webserver_bsp//libucosii_bsp.a(alt_irq_entry.o)
 .debug_line    0x0003a6fd      0x2cc ../Webserver_bsp//libucosii_bsp.a(alt_irq_handler.o)
 .debug_line    0x0003a9c9      0x330 ../Webserver_bsp//libucosii_bsp.a(alt_read.o)
 .debug_line    0x0003acf9      0x1c1 ../Webserver_bsp//libucosii_bsp.a(alt_remap_cached.o)
 .debug_line    0x0003aeba      0x1cb ../Webserver_bsp//libucosii_bsp.a(alt_remap_uncached.o)
 .debug_line    0x0003b085      0x331 ../Webserver_bsp//libucosii_bsp.a(alt_write.o)
 .debug_line    0x0003b3b6      0x1d6 ../Webserver_bsp//libucosii_bsp.a(altera_nios2_qsys_irq.o)
 .debug_line    0x0003b58c       0x86 ../Webserver_bsp//libucosii_bsp.a(os_cpu_a.o)
 .debug_line    0x0003b612      0x338 ../Webserver_bsp//libucosii_bsp.a(os_cpu_c.o)
 .debug_line    0x0003b94a      0x527 ../Webserver_bsp//libucosii_bsp.a(allports.o)
 .debug_line    0x0003be71      0x48b ../Webserver_bsp//libucosii_bsp.a(timeouts.o)
 .debug_line    0x0003c2fc      0x378 ../Webserver_bsp//libucosii_bsp.a(tk_misc.o)
 .debug_line    0x0003c674      0x397 ../Webserver_bsp//libucosii_bsp.a(alt_iniche_fcntl.o)
 .debug_line    0x0003ca0b      0xcaa ../Webserver_bsp//libucosii_bsp.a(et_arp.o)
 .debug_line    0x0003d6b5      0x481 ../Webserver_bsp//libucosii_bsp.a(iface.o)
 .debug_line    0x0003db36      0xf9d ../Webserver_bsp//libucosii_bsp.a(ip.o)
 .debug_line    0x0003ead3      0xf84 ../Webserver_bsp//libucosii_bsp.a(ip_reasm.o)
 .debug_line    0x0003fa57      0x78e ../Webserver_bsp//libucosii_bsp.a(ipdemux.o)
 .debug_line    0x000401e5      0x470 ../Webserver_bsp//libucosii_bsp.a(ipmc.o)
 .debug_line    0x00040655      0x340 ../Webserver_bsp//libucosii_bsp.a(ipport.o)
 .debug_line    0x00040995      0x5c1 ../Webserver_bsp//libucosii_bsp.a(ipraw.o)
 .debug_line    0x00040f56      0x5c3 ../Webserver_bsp//libucosii_bsp.a(iproute.o)
 .debug_line    0x00041519      0x7fe ../Webserver_bsp//libucosii_bsp.a(udp.o)
 .debug_line    0x00041d17      0x442 ../Webserver_bsp//libucosii_bsp.a(igmp.o)
 .debug_line    0x00042159      0x635 ../Webserver_bsp//libucosii_bsp.a(igmp2.o)
 .debug_line    0x0004278e      0x719 ../Webserver_bsp//libucosii_bsp.a(ipopt.o)
 .debug_line    0x00042ea7      0x603 ../Webserver_bsp//libucosii_bsp.a(u_mctest.o)
 .debug_line    0x000434aa      0x447 ../Webserver_bsp//libucosii_bsp.a(dhcsetup.o)
 .debug_line    0x000438f1      0x451 ../Webserver_bsp//libucosii_bsp.a(memdev.o)
 .debug_line    0x00043d42      0x3c1 ../Webserver_bsp//libucosii_bsp.a(tcpcksum.o)
 .debug_line    0x00044103      0x775 ../Webserver_bsp//libucosii_bsp.a(in_pcb.o)
 .debug_line    0x00044878      0xfff ../Webserver_bsp//libucosii_bsp.a(vfsfiles.o)
 .debug_line    0x00045877      0x2cc ../Webserver_bsp//libucosii_bsp.a(vfsport.o)
 .debug_line    0x00045b43       0xab ../Webserver_bsp//libucosii_bsp.a(alt_exception_entry.o)
 .debug_line    0x00045bee      0x360 ../Webserver_bsp//libucosii_bsp.a(alt_fcntl.o)
 .debug_line    0x00045f4e      0x960 ../Webserver_bsp//libucosii_bsp.a(icmp.o)
 .debug_line    0x000468ae      0x200 /OPT/altera/12.1/nios2eds/bin/gnu/H-i686-pc-linux-gnu/bin/../lib/gcc/nios2-elf/4.1.2/../../../../nios2-elf/lib/libc.a(lib_a-atexit.o)
 .debug_line    0x00046aae      0x20c /OPT/altera/12.1/nios2eds/bin/gnu/H-i686-pc-linux-gnu/bin/../lib/gcc/nios2-elf/4.1.2/../../../../nios2-elf/lib/libc.a(lib_a-calloc.o)
 .debug_line    0x00046cba      0x238 /OPT/altera/12.1/nios2eds/bin/gnu/H-i686-pc-linux-gnu/bin/../lib/gcc/nios2-elf/4.1.2/../../../../nios2-elf/lib/libc.a(lib_a-exit.o)
 .debug_line    0x00046ef2      0x2a4 /OPT/altera/12.1/nios2eds/bin/gnu/H-i686-pc-linux-gnu/bin/../lib/gcc/nios2-elf/4.1.2/../../../../nios2-elf/lib/libc.a(lib_a-getc.o)
 .debug_line    0x00047196      0x24b /OPT/altera/12.1/nios2eds/bin/gnu/H-i686-pc-linux-gnu/bin/../lib/gcc/nios2-elf/4.1.2/../../../../nios2-elf/lib/libc.a(lib_a-malloc.o)
 .debug_line    0x000473e1      0x28d /OPT/altera/12.1/nios2eds/bin/gnu/H-i686-pc-linux-gnu/bin/../lib/gcc/nios2-elf/4.1.2/../../../../nios2-elf/lib/libc.a(lib_a-rget.o)
 .debug_line    0x0004766e      0x26f /OPT/altera/12.1/nios2eds/bin/gnu/H-i686-pc-linux-gnu/bin/../lib/gcc/nios2-elf/4.1.2/../../../../nios2-elf/lib/libc.a(lib_a-vprintf.o)
 .debug_line    0x000478dd      0x2d9 /OPT/altera/12.1/nios2eds/bin/gnu/H-i686-pc-linux-gnu/bin/../lib/gcc/nios2-elf/4.1.2/../../../../nios2-elf/lib/libc.a(lib_a-vsprintf.o)
 .debug_line    0x00047bb6      0x313 /OPT/altera/12.1/nios2eds/bin/gnu/H-i686-pc-linux-gnu/bin/../lib/gcc/nios2-elf/4.1.2/../../../../nios2-elf/lib/libc.a(lib_a-__atexit.o)
 .debug_line    0x00047ec9      0x367 /OPT/altera/12.1/nios2eds/bin/gnu/H-i686-pc-linux-gnu/bin/../lib/gcc/nios2-elf/4.1.2/../../../../nios2-elf/lib/libc.a(lib_a-__call_atexit.o)
 .debug_line    0x00048230      0x27e ../Webserver_bsp//libucosii_bsp.a(alt_exit.o)

.debug_frame    0x00000000     0x6b5c
 *(.debug_frame)
 .debug_frame   0x00000000       0x2c obj/default/alt_error_handler.o
 .debug_frame   0x0000002c      0x198 obj/default/dm9000a.o
 .debug_frame   0x000001c4      0x2c0 obj/default/http.o
 .debug_frame   0x00000484       0xf0 obj/default/network_utilities.o
 .debug_frame   0x00000574       0x70 obj/default/srec_flash.o
 .debug_frame   0x000005e4       0xd4 obj/default/web_server.o
 .debug_frame   0x000006b8       0x70 /OPT/altera/12.1/nios2eds/bin/gnu/H-i686-pc-linux-gnu/bin/../lib/gcc/nios2-elf/4.1.2/libgcc.a(lib2-divmod.o)
 .debug_frame   0x00000728       0x30 /OPT/altera/12.1/nios2eds/bin/gnu/H-i686-pc-linux-gnu/bin/../lib/gcc/nios2-elf/4.1.2/../../../../nios2-elf/lib/libc.a(lib_a-atoi.o)
 .debug_frame   0x00000758       0x3c /OPT/altera/12.1/nios2eds/bin/gnu/H-i686-pc-linux-gnu/bin/../lib/gcc/nios2-elf/4.1.2/../../../../nios2-elf/lib/libc.a(lib_a-fclose.o)
 .debug_frame   0x00000794       0x40 /OPT/altera/12.1/nios2eds/bin/gnu/H-i686-pc-linux-gnu/bin/../lib/gcc/nios2-elf/4.1.2/../../../../nios2-elf/lib/libc.a(lib_a-fflush.o)
 .debug_frame   0x000007d4       0x38 /OPT/altera/12.1/nios2eds/bin/gnu/H-i686-pc-linux-gnu/bin/../lib/gcc/nios2-elf/4.1.2/../../../../nios2-elf/lib/libc.a(lib_a-fgetpos.o)
 .debug_frame   0x0000080c      0x118 /OPT/altera/12.1/nios2eds/bin/gnu/H-i686-pc-linux-gnu/bin/../lib/gcc/nios2-elf/4.1.2/../../../../nios2-elf/lib/libc.a(lib_a-findfp.o)
 .debug_frame   0x00000924       0x40 /OPT/altera/12.1/nios2eds/bin/gnu/H-i686-pc-linux-gnu/bin/../lib/gcc/nios2-elf/4.1.2/../../../../nios2-elf/lib/libc.a(lib_a-fopen.o)
 .debug_frame   0x00000964       0x40 /OPT/altera/12.1/nios2eds/bin/gnu/H-i686-pc-linux-gnu/bin/../lib/gcc/nios2-elf/4.1.2/../../../../nios2-elf/lib/libc.a(lib_a-fprintf.o)
 .debug_frame   0x000009a4       0x54 /OPT/altera/12.1/nios2eds/bin/gnu/H-i686-pc-linux-gnu/bin/../lib/gcc/nios2-elf/4.1.2/../../../../nios2-elf/lib/libc.a(lib_a-fread.o)
 .debug_frame   0x000009f8       0x4c /OPT/altera/12.1/nios2eds/bin/gnu/H-i686-pc-linux-gnu/bin/../lib/gcc/nios2-elf/4.1.2/../../../../nios2-elf/lib/libc.a(lib_a-freer.o)
 .debug_frame   0x00000a44       0x48 /OPT/altera/12.1/nios2eds/bin/gnu/H-i686-pc-linux-gnu/bin/../lib/gcc/nios2-elf/4.1.2/../../../../nios2-elf/lib/libc.a(lib_a-fseek.o)
 .debug_frame   0x00000a8c       0x2c /OPT/altera/12.1/nios2eds/bin/gnu/H-i686-pc-linux-gnu/bin/../lib/gcc/nios2-elf/4.1.2/../../../../nios2-elf/lib/libc.a(lib_a-fstatr.o)
 .debug_frame   0x00000ab8       0x3c /OPT/altera/12.1/nios2eds/bin/gnu/H-i686-pc-linux-gnu/bin/../lib/gcc/nios2-elf/4.1.2/../../../../nios2-elf/lib/libc.a(lib_a-ftell.o)
 .debug_frame   0x00000af4       0x60 /OPT/altera/12.1/nios2eds/bin/gnu/H-i686-pc-linux-gnu/bin/../lib/gcc/nios2-elf/4.1.2/../../../../nios2-elf/lib/libc.a(lib_a-fwalk.o)
 .debug_frame   0x00000b54       0x48 /OPT/altera/12.1/nios2eds/bin/gnu/H-i686-pc-linux-gnu/bin/../lib/gcc/nios2-elf/4.1.2/../../../../nios2-elf/lib/libc.a(lib_a-fwrite.o)
 .debug_frame   0x00000b9c       0x2c /OPT/altera/12.1/nios2eds/bin/gnu/H-i686-pc-linux-gnu/bin/../lib/gcc/nios2-elf/4.1.2/../../../../nios2-elf/lib/libc.a(lib_a-makebuf.o)
 .debug_frame   0x00000bc8       0x38 /OPT/altera/12.1/nios2eds/bin/gnu/H-i686-pc-linux-gnu/bin/../lib/gcc/nios2-elf/4.1.2/../../../../nios2-elf/lib/libc.a(lib_a-mallocr.o)
 .debug_frame   0x00000c00       0x20 /OPT/altera/12.1/nios2eds/bin/gnu/H-i686-pc-linux-gnu/bin/../lib/gcc/nios2-elf/4.1.2/../../../../nios2-elf/lib/libc.a(lib_a-memcpy.o)
 .debug_frame   0x00000c20       0x20 /OPT/altera/12.1/nios2eds/bin/gnu/H-i686-pc-linux-gnu/bin/../lib/gcc/nios2-elf/4.1.2/../../../../nios2-elf/lib/libc.a(lib_a-memmove.o)
 .debug_frame   0x00000c40       0x20 /OPT/altera/12.1/nios2eds/bin/gnu/H-i686-pc-linux-gnu/bin/../lib/gcc/nios2-elf/4.1.2/../../../../nios2-elf/lib/libc.a(lib_a-memset.o)
 .debug_frame   0x00000c60       0x2c /OPT/altera/12.1/nios2eds/bin/gnu/H-i686-pc-linux-gnu/bin/../lib/gcc/nios2-elf/4.1.2/../../../../nios2-elf/lib/libc.a(lib_a-openr.o)
 .debug_frame   0x00000c8c       0x38 /OPT/altera/12.1/nios2eds/bin/gnu/H-i686-pc-linux-gnu/bin/../lib/gcc/nios2-elf/4.1.2/../../../../nios2-elf/lib/libc.a(lib_a-perror.o)
 .debug_frame   0x00000cc4       0x40 /OPT/altera/12.1/nios2eds/bin/gnu/H-i686-pc-linux-gnu/bin/../lib/gcc/nios2-elf/4.1.2/../../../../nios2-elf/lib/libc.a(lib_a-printf.o)
 .debug_frame   0x00000d04       0x3c /OPT/altera/12.1/nios2eds/bin/gnu/H-i686-pc-linux-gnu/bin/../lib/gcc/nios2-elf/4.1.2/../../../../nios2-elf/lib/libc.a(lib_a-puts.o)
 .debug_frame   0x00000d40       0x3c /OPT/altera/12.1/nios2eds/bin/gnu/H-i686-pc-linux-gnu/bin/../lib/gcc/nios2-elf/4.1.2/../../../../nios2-elf/lib/libc.a(lib_a-refill.o)
 .debug_frame   0x00000d7c       0x2c /OPT/altera/12.1/nios2eds/bin/gnu/H-i686-pc-linux-gnu/bin/../lib/gcc/nios2-elf/4.1.2/../../../../nios2-elf/lib/libc.a(lib_a-sbrkr.o)
 .debug_frame   0x00000da8       0x48 /OPT/altera/12.1/nios2eds/bin/gnu/H-i686-pc-linux-gnu/bin/../lib/gcc/nios2-elf/4.1.2/../../../../nios2-elf/lib/libc.a(lib_a-snprintf.o)
 .debug_frame   0x00000df0       0x40 /OPT/altera/12.1/nios2eds/bin/gnu/H-i686-pc-linux-gnu/bin/../lib/gcc/nios2-elf/4.1.2/../../../../nios2-elf/lib/libc.a(lib_a-sprintf.o)
 .debug_frame   0x00000e30       0x54 /OPT/altera/12.1/nios2eds/bin/gnu/H-i686-pc-linux-gnu/bin/../lib/gcc/nios2-elf/4.1.2/../../../../nios2-elf/lib/libc.a(lib_a-sscanf.o)
 .debug_frame   0x00000e84       0x78 /OPT/altera/12.1/nios2eds/bin/gnu/H-i686-pc-linux-gnu/bin/../lib/gcc/nios2-elf/4.1.2/../../../../nios2-elf/lib/libc.a(lib_a-stdio.o)
 .debug_frame   0x00000efc       0x20 /OPT/altera/12.1/nios2eds/bin/gnu/H-i686-pc-linux-gnu/bin/../lib/gcc/nios2-elf/4.1.2/../../../../nios2-elf/lib/libc.a(lib_a-strcasecmp.o)
 .debug_frame   0x00000f1c       0x28 /OPT/altera/12.1/nios2eds/bin/gnu/H-i686-pc-linux-gnu/bin/../lib/gcc/nios2-elf/4.1.2/../../../../nios2-elf/lib/libc.a(lib_a-strcat.o)
 .debug_frame   0x00000f44       0x20 /OPT/altera/12.1/nios2eds/bin/gnu/H-i686-pc-linux-gnu/bin/../lib/gcc/nios2-elf/4.1.2/../../../../nios2-elf/lib/libc.a(lib_a-strchr.o)
 .debug_frame   0x00000f64       0x20 /OPT/altera/12.1/nios2eds/bin/gnu/H-i686-pc-linux-gnu/bin/../lib/gcc/nios2-elf/4.1.2/../../../../nios2-elf/lib/libc.a(lib_a-strcmp.o)
 .debug_frame   0x00000f84       0x20 /OPT/altera/12.1/nios2eds/bin/gnu/H-i686-pc-linux-gnu/bin/../lib/gcc/nios2-elf/4.1.2/../../../../nios2-elf/lib/libc.a(lib_a-strcpy.o)
 .debug_frame   0x00000fa4       0x28 /OPT/altera/12.1/nios2eds/bin/gnu/H-i686-pc-linux-gnu/bin/../lib/gcc/nios2-elf/4.1.2/../../../../nios2-elf/lib/libc.a(lib_a-strerror.o)
 .debug_frame   0x00000fcc       0x20 /OPT/altera/12.1/nios2eds/bin/gnu/H-i686-pc-linux-gnu/bin/../lib/gcc/nios2-elf/4.1.2/../../../../nios2-elf/lib/libc.a(lib_a-strlen.o)
 .debug_frame   0x00000fec       0x20 /OPT/altera/12.1/nios2eds/bin/gnu/H-i686-pc-linux-gnu/bin/../lib/gcc/nios2-elf/4.1.2/../../../../nios2-elf/lib/libc.a(lib_a-strncmp.o)
 .debug_frame   0x0000100c       0x20 /OPT/altera/12.1/nios2eds/bin/gnu/H-i686-pc-linux-gnu/bin/../lib/gcc/nios2-elf/4.1.2/../../../../nios2-elf/lib/libc.a(lib_a-strncpy.o)
 .debug_frame   0x0000102c       0x4c /OPT/altera/12.1/nios2eds/bin/gnu/H-i686-pc-linux-gnu/bin/../lib/gcc/nios2-elf/4.1.2/../../../../nios2-elf/lib/libc.a(lib_a-strstr.o)
 .debug_frame   0x00001078       0x20 /OPT/altera/12.1/nios2eds/bin/gnu/H-i686-pc-linux-gnu/bin/../lib/gcc/nios2-elf/4.1.2/../../../../nios2-elf/lib/libc.a(lib_a-strtok.o)
 .debug_frame   0x00001098       0x30 /OPT/altera/12.1/nios2eds/bin/gnu/H-i686-pc-linux-gnu/bin/../lib/gcc/nios2-elf/4.1.2/../../../../nios2-elf/lib/libc.a(lib_a-strtok_r.o)
 .debug_frame   0x000010c8       0x4c /OPT/altera/12.1/nios2eds/bin/gnu/H-i686-pc-linux-gnu/bin/../lib/gcc/nios2-elf/4.1.2/../../../../nios2-elf/lib/libc.a(lib_a-strtol.o)
 .debug_frame   0x00001114       0x20 /OPT/altera/12.1/nios2eds/bin/gnu/H-i686-pc-linux-gnu/bin/../lib/gcc/nios2-elf/4.1.2/../../../../nios2-elf/lib/libc.a(lib_a-u_strerr.o)
 .debug_frame   0x00001134       0x64 /OPT/altera/12.1/nios2eds/bin/gnu/H-i686-pc-linux-gnu/bin/../lib/gcc/nios2-elf/4.1.2/../../../../nios2-elf/lib/libc.a(lib_a-vfprintf.o)
 .debug_frame   0x00001198       0x8c /OPT/altera/12.1/nios2eds/bin/gnu/H-i686-pc-linux-gnu/bin/../lib/gcc/nios2-elf/4.1.2/../../../../nios2-elf/lib/libc.a(lib_a-vfscanf.o)
 .debug_frame   0x00001224       0x2c /OPT/altera/12.1/nios2eds/bin/gnu/H-i686-pc-linux-gnu/bin/../lib/gcc/nios2-elf/4.1.2/../../../../nios2-elf/lib/libc.a(lib_a-writer.o)
 .debug_frame   0x00001250       0x2c /OPT/altera/12.1/nios2eds/bin/gnu/H-i686-pc-linux-gnu/bin/../lib/gcc/nios2-elf/4.1.2/../../../../nios2-elf/lib/libc.a(lib_a-wsetup.o)
 .debug_frame   0x0000127c       0x2c /OPT/altera/12.1/nios2eds/bin/gnu/H-i686-pc-linux-gnu/bin/../lib/gcc/nios2-elf/4.1.2/../../../../nios2-elf/lib/libc.a(lib_a-closer.o)
 .debug_frame   0x000012a8       0x64 /OPT/altera/12.1/nios2eds/bin/gnu/H-i686-pc-linux-gnu/bin/../lib/gcc/nios2-elf/4.1.2/../../../../nios2-elf/lib/libc.a(lib_a-dtoa.o)
 .debug_frame   0x0000130c       0x20 /OPT/altera/12.1/nios2eds/bin/gnu/H-i686-pc-linux-gnu/bin/../lib/gcc/nios2-elf/4.1.2/../../../../nios2-elf/lib/libc.a(lib_a-flags.o)
 .debug_frame   0x0000132c       0x4c /OPT/altera/12.1/nios2eds/bin/gnu/H-i686-pc-linux-gnu/bin/../lib/gcc/nios2-elf/4.1.2/../../../../nios2-elf/lib/libc.a(lib_a-fputc.o)
 .debug_frame   0x00001378       0x3c /OPT/altera/12.1/nios2eds/bin/gnu/H-i686-pc-linux-gnu/bin/../lib/gcc/nios2-elf/4.1.2/../../../../nios2-elf/lib/libc.a(lib_a-fputs.o)
 .debug_frame   0x000013b4       0x38 /OPT/altera/12.1/nios2eds/bin/gnu/H-i686-pc-linux-gnu/bin/../lib/gcc/nios2-elf/4.1.2/../../../../nios2-elf/lib/libc.a(lib_a-fvwrite.o)
 .debug_frame   0x000013ec       0x2c /OPT/altera/12.1/nios2eds/bin/gnu/H-i686-pc-linux-gnu/bin/../lib/gcc/nios2-elf/4.1.2/../../../../nios2-elf/lib/libc.a(lib_a-isattyr.o)
 .debug_frame   0x00001418       0x20 /OPT/altera/12.1/nios2eds/bin/gnu/H-i686-pc-linux-gnu/bin/../lib/gcc/nios2-elf/4.1.2/../../../../nios2-elf/lib/libc.a(lib_a-iswspace.o)
 .debug_frame   0x00001438       0x70 /OPT/altera/12.1/nios2eds/bin/gnu/H-i686-pc-linux-gnu/bin/../lib/gcc/nios2-elf/4.1.2/../../../../nios2-elf/lib/libc.a(lib_a-locale.o)
 .debug_frame   0x000014a8       0x2c /OPT/altera/12.1/nios2eds/bin/gnu/H-i686-pc-linux-gnu/bin/../lib/gcc/nios2-elf/4.1.2/../../../../nios2-elf/lib/libc.a(lib_a-lseekr.o)
 .debug_frame   0x000014d4       0x44 /OPT/altera/12.1/nios2eds/bin/gnu/H-i686-pc-linux-gnu/bin/../lib/gcc/nios2-elf/4.1.2/../../../../nios2-elf/lib/libc.a(lib_a-mbrtowc.o)
 .debug_frame   0x00001518       0x24 /OPT/altera/12.1/nios2eds/bin/gnu/H-i686-pc-linux-gnu/bin/../lib/gcc/nios2-elf/4.1.2/../../../../nios2-elf/lib/libc.a(lib_a-mbtowc_r.o)
 .debug_frame   0x0000153c       0x20 /OPT/altera/12.1/nios2eds/bin/gnu/H-i686-pc-linux-gnu/bin/../lib/gcc/nios2-elf/4.1.2/../../../../nios2-elf/lib/libc.a(lib_a-memchr.o)
 .debug_frame   0x0000155c       0x20 /OPT/altera/12.1/nios2eds/bin/gnu/H-i686-pc-linux-gnu/bin/../lib/gcc/nios2-elf/4.1.2/../../../../nios2-elf/lib/libc.a(lib_a-memcmp.o)
 .debug_frame   0x0000157c      0x218 /OPT/altera/12.1/nios2eds/bin/gnu/H-i686-pc-linux-gnu/bin/../lib/gcc/nios2-elf/4.1.2/../../../../nios2-elf/lib/libc.a(lib_a-mprec.o)
 .debug_frame   0x00001794       0x4c /OPT/altera/12.1/nios2eds/bin/gnu/H-i686-pc-linux-gnu/bin/../lib/gcc/nios2-elf/4.1.2/../../../../nios2-elf/lib/libc.a(lib_a-putc.o)
 .debug_frame   0x000017e0       0x2c /OPT/altera/12.1/nios2eds/bin/gnu/H-i686-pc-linux-gnu/bin/../lib/gcc/nios2-elf/4.1.2/../../../../nios2-elf/lib/libc.a(lib_a-readr.o)
 .debug_frame   0x0000180c       0x38 /OPT/altera/12.1/nios2eds/bin/gnu/H-i686-pc-linux-gnu/bin/../lib/gcc/nios2-elf/4.1.2/../../../../nios2-elf/lib/libc.a(lib_a-reallocr.o)
 .debug_frame   0x00001844       0x20 /OPT/altera/12.1/nios2eds/bin/gnu/H-i686-pc-linux-gnu/bin/../lib/gcc/nios2-elf/4.1.2/../../../../nios2-elf/lib/libc.a(lib_a-s_isinfd.o)
 .debug_frame   0x00001864       0x20 /OPT/altera/12.1/nios2eds/bin/gnu/H-i686-pc-linux-gnu/bin/../lib/gcc/nios2-elf/4.1.2/../../../../nios2-elf/lib/libc.a(lib_a-s_isnand.o)
 .debug_frame   0x00001884       0x20 /OPT/altera/12.1/nios2eds/bin/gnu/H-i686-pc-linux-gnu/bin/../lib/gcc/nios2-elf/4.1.2/../../../../nios2-elf/lib/libc.a(lib_a-sccl.o)
 .debug_frame   0x000018a4       0x20 /OPT/altera/12.1/nios2eds/bin/gnu/H-i686-pc-linux-gnu/bin/../lib/gcc/nios2-elf/4.1.2/../../../../nios2-elf/lib/libc.a(lib_a-sf_nan.o)
 .debug_frame   0x000018c4       0x80 /OPT/altera/12.1/nios2eds/bin/gnu/H-i686-pc-linux-gnu/bin/../lib/gcc/nios2-elf/4.1.2/../../../../nios2-elf/lib/libc.a(lib_a-strtod.o)
 .debug_frame   0x00001944       0x3c /OPT/altera/12.1/nios2eds/bin/gnu/H-i686-pc-linux-gnu/bin/../lib/gcc/nios2-elf/4.1.2/../../../../nios2-elf/lib/libc.a(lib_a-strtoll_r.o)
 .debug_frame   0x00001980       0x4c /OPT/altera/12.1/nios2eds/bin/gnu/H-i686-pc-linux-gnu/bin/../lib/gcc/nios2-elf/4.1.2/../../../../nios2-elf/lib/libc.a(lib_a-strtoul.o)
 .debug_frame   0x000019cc       0x3c /OPT/altera/12.1/nios2eds/bin/gnu/H-i686-pc-linux-gnu/bin/../lib/gcc/nios2-elf/4.1.2/../../../../nios2-elf/lib/libc.a(lib_a-strtoull_r.o)
 .debug_frame   0x00001a08       0x60 /OPT/altera/12.1/nios2eds/bin/gnu/H-i686-pc-linux-gnu/bin/../lib/gcc/nios2-elf/4.1.2/../../../../nios2-elf/lib/libc.a(lib_a-ungetc.o)
 .debug_frame   0x00001a68       0x3c /OPT/altera/12.1/nios2eds/bin/gnu/H-i686-pc-linux-gnu/bin/../lib/gcc/nios2-elf/4.1.2/../../../../nios2-elf/lib/libc.a(lib_a-wbuf.o)
 .debug_frame   0x00001aa4       0x28 /OPT/altera/12.1/nios2eds/bin/gnu/H-i686-pc-linux-gnu/bin/../lib/gcc/nios2-elf/4.1.2/../../../../nios2-elf/lib/libc.a(lib_a-callocr.o)
 .debug_frame   0x00001acc       0x74 /OPT/altera/12.1/nios2eds/bin/gnu/H-i686-pc-linux-gnu/bin/../lib/gcc/nios2-elf/4.1.2/../../../../nios2-elf/lib/libc.a(lib_a-gdtoa-gethex.o)
 .debug_frame   0x00001b40       0x4c /OPT/altera/12.1/nios2eds/bin/gnu/H-i686-pc-linux-gnu/bin/../lib/gcc/nios2-elf/4.1.2/../../../../nios2-elf/lib/libc.a(lib_a-gdtoa-hexnan.o)
 .debug_frame   0x00001b8c       0x2c /OPT/altera/12.1/nios2eds/bin/gnu/H-i686-pc-linux-gnu/bin/../lib/gcc/nios2-elf/4.1.2/libgcc.a(_muldi3.o)
 .debug_frame   0x00001bb8       0x30 /OPT/altera/12.1/nios2eds/bin/gnu/H-i686-pc-linux-gnu/bin/../lib/gcc/nios2-elf/4.1.2/libgcc.a(_fixunsdfsi.o)
 .debug_frame   0x00001be8       0x38 /OPT/altera/12.1/nios2eds/bin/gnu/H-i686-pc-linux-gnu/bin/../lib/gcc/nios2-elf/4.1.2/libgcc.a(_udivdi3.o)
 .debug_frame   0x00001c20       0x38 /OPT/altera/12.1/nios2eds/bin/gnu/H-i686-pc-linux-gnu/bin/../lib/gcc/nios2-elf/4.1.2/libgcc.a(_umoddi3.o)
 .debug_frame   0x00001c58       0x2c /OPT/altera/12.1/nios2eds/bin/gnu/H-i686-pc-linux-gnu/bin/../lib/gcc/nios2-elf/4.1.2/libgcc.a(_ne_sf.o)
 .debug_frame   0x00001c84       0x2c /OPT/altera/12.1/nios2eds/bin/gnu/H-i686-pc-linux-gnu/bin/../lib/gcc/nios2-elf/4.1.2/libgcc.a(_gt_sf.o)
 .debug_frame   0x00001cb0       0x2c /OPT/altera/12.1/nios2eds/bin/gnu/H-i686-pc-linux-gnu/bin/../lib/gcc/nios2-elf/4.1.2/libgcc.a(_lt_sf.o)
 .debug_frame   0x00001cdc       0x70 /OPT/altera/12.1/nios2eds/bin/gnu/H-i686-pc-linux-gnu/bin/../lib/gcc/nios2-elf/4.1.2/libgcc.a(_addsub_df.o)
 .debug_frame   0x00001d4c       0x3c /OPT/altera/12.1/nios2eds/bin/gnu/H-i686-pc-linux-gnu/bin/../lib/gcc/nios2-elf/4.1.2/libgcc.a(_mul_df.o)
 .debug_frame   0x00001d88       0x30 /OPT/altera/12.1/nios2eds/bin/gnu/H-i686-pc-linux-gnu/bin/../lib/gcc/nios2-elf/4.1.2/libgcc.a(_div_df.o)
 .debug_frame   0x00001db8       0x2c /OPT/altera/12.1/nios2eds/bin/gnu/H-i686-pc-linux-gnu/bin/../lib/gcc/nios2-elf/4.1.2/libgcc.a(_eq_df.o)
 .debug_frame   0x00001de4       0x2c /OPT/altera/12.1/nios2eds/bin/gnu/H-i686-pc-linux-gnu/bin/../lib/gcc/nios2-elf/4.1.2/libgcc.a(_ne_df.o)
 .debug_frame   0x00001e10       0x2c /OPT/altera/12.1/nios2eds/bin/gnu/H-i686-pc-linux-gnu/bin/../lib/gcc/nios2-elf/4.1.2/libgcc.a(_gt_df.o)
 .debug_frame   0x00001e3c       0x2c /OPT/altera/12.1/nios2eds/bin/gnu/H-i686-pc-linux-gnu/bin/../lib/gcc/nios2-elf/4.1.2/libgcc.a(_ge_df.o)
 .debug_frame   0x00001e68       0x2c /OPT/altera/12.1/nios2eds/bin/gnu/H-i686-pc-linux-gnu/bin/../lib/gcc/nios2-elf/4.1.2/libgcc.a(_lt_df.o)
 .debug_frame   0x00001e94       0x2c /OPT/altera/12.1/nios2eds/bin/gnu/H-i686-pc-linux-gnu/bin/../lib/gcc/nios2-elf/4.1.2/libgcc.a(_le_df.o)
 .debug_frame   0x00001ec0       0x30 /OPT/altera/12.1/nios2eds/bin/gnu/H-i686-pc-linux-gnu/bin/../lib/gcc/nios2-elf/4.1.2/libgcc.a(_si_to_df.o)
 .debug_frame   0x00001ef0       0x28 /OPT/altera/12.1/nios2eds/bin/gnu/H-i686-pc-linux-gnu/bin/../lib/gcc/nios2-elf/4.1.2/libgcc.a(_df_to_si.o)
 .debug_frame   0x00001f18       0x28 /OPT/altera/12.1/nios2eds/bin/gnu/H-i686-pc-linux-gnu/bin/../lib/gcc/nios2-elf/4.1.2/libgcc.a(_df_to_sf.o)
 .debug_frame   0x00001f40       0x38 /OPT/altera/12.1/nios2eds/bin/gnu/H-i686-pc-linux-gnu/bin/../lib/gcc/nios2-elf/4.1.2/libgcc.a(_usi_to_df.o)
 .debug_frame   0x00001f78       0x20 /OPT/altera/12.1/nios2eds/bin/gnu/H-i686-pc-linux-gnu/bin/../lib/gcc/nios2-elf/4.1.2/libgcc.a(_clzsi2.o)
 .debug_frame   0x00001f98       0x20 /OPT/altera/12.1/nios2eds/bin/gnu/H-i686-pc-linux-gnu/bin/../lib/gcc/nios2-elf/4.1.2/libgcc.a(_unpack_sf.o)
 .debug_frame   0x00001fb8       0x20 /OPT/altera/12.1/nios2eds/bin/gnu/H-i686-pc-linux-gnu/bin/../lib/gcc/nios2-elf/4.1.2/libgcc.a(_fpcmp_parts_sf.o)
 .debug_frame   0x00001fd8       0x28 /OPT/altera/12.1/nios2eds/bin/gnu/H-i686-pc-linux-gnu/bin/../lib/gcc/nios2-elf/4.1.2/libgcc.a(_make_sf.o)
 .debug_frame   0x00002000       0x2c /OPT/altera/12.1/nios2eds/bin/gnu/H-i686-pc-linux-gnu/bin/../lib/gcc/nios2-elf/4.1.2/libgcc.a(_pack_df.o)
 .debug_frame   0x0000202c       0x20 /OPT/altera/12.1/nios2eds/bin/gnu/H-i686-pc-linux-gnu/bin/../lib/gcc/nios2-elf/4.1.2/libgcc.a(_unpack_df.o)
 .debug_frame   0x0000204c       0x20 /OPT/altera/12.1/nios2eds/bin/gnu/H-i686-pc-linux-gnu/bin/../lib/gcc/nios2-elf/4.1.2/libgcc.a(_fpcmp_parts_df.o)
 .debug_frame   0x0000206c       0x20 /OPT/altera/12.1/nios2eds/bin/gnu/H-i686-pc-linux-gnu/bin/../lib/gcc/nios2-elf/4.1.2/libgcc.a(_pack_sf.o)
 .debug_frame   0x0000208c       0x2c ../Webserver_bsp//libucosii_bsp.a(alt_dcache_flush.o)
 .debug_frame   0x000020b8       0x48 ../Webserver_bsp//libucosii_bsp.a(alt_flash_dev.o)
 .debug_frame   0x00002100       0x48 ../Webserver_bsp//libucosii_bsp.a(alt_fstat.o)
 .debug_frame   0x00002148       0x2c ../Webserver_bsp//libucosii_bsp.a(alt_irq_register.o)
 .debug_frame   0x00002174       0x48 ../Webserver_bsp//libucosii_bsp.a(alt_isatty.o)
 .debug_frame   0x000021bc       0x48 ../Webserver_bsp//libucosii_bsp.a(alt_lseek.o)
 .debug_frame   0x00002204       0x2c ../Webserver_bsp//libucosii_bsp.a(alt_main.o)
 .debug_frame   0x00002230       0x64 ../Webserver_bsp//libucosii_bsp.a(alt_open.o)
 .debug_frame   0x00002294       0x2c ../Webserver_bsp//libucosii_bsp.a(alt_release_fd.o)
 .debug_frame   0x000022c0       0x2c ../Webserver_bsp//libucosii_bsp.a(alt_sbrk.o)
 .debug_frame   0x000022ec       0x48 ../Webserver_bsp//libucosii_bsp.a(alt_tick.o)
 .debug_frame   0x00002334       0x30 ../Webserver_bsp//libucosii_bsp.a(alt_usleep.o)
 .debug_frame   0x00002364       0x4c ../Webserver_bsp//libucosii_bsp.a(alt_env_lock.o)
 .debug_frame   0x000023b0       0x4c ../Webserver_bsp//libucosii_bsp.a(alt_malloc_lock.o)
 .debug_frame   0x000023fc      0x3e4 ../Webserver_bsp//libucosii_bsp.a(os_core.o)
 .debug_frame   0x000027e0       0x2c ../Webserver_bsp//libucosii_bsp.a(os_dbg.o)
 .debug_frame   0x0000280c      0x180 ../Webserver_bsp//libucosii_bsp.a(os_flag.o)
 .debug_frame   0x0000298c       0xf0 ../Webserver_bsp//libucosii_bsp.a(os_mbox.o)
 .debug_frame   0x00002a7c       0xd4 ../Webserver_bsp//libucosii_bsp.a(os_mem.o)
 .debug_frame   0x00002b50      0x144 ../Webserver_bsp//libucosii_bsp.a(os_q.o)
 .debug_frame   0x00002c94       0xf0 ../Webserver_bsp//libucosii_bsp.a(os_sem.o)
 .debug_frame   0x00002d84      0x160 ../Webserver_bsp//libucosii_bsp.a(os_task.o)
 .debug_frame   0x00002ee4       0xa0 ../Webserver_bsp//libucosii_bsp.a(os_time.o)
 .debug_frame   0x00002f84       0x64 ../Webserver_bsp//libucosii_bsp.a(alt_sys_init.o)
 .debug_frame   0x00002fe8       0x80 ../Webserver_bsp//libucosii_bsp.a(altera_avalon_jtag_uart_fd.o)
 .debug_frame   0x00003068       0x80 ../Webserver_bsp//libucosii_bsp.a(altera_avalon_jtag_uart_init.o)
 .debug_frame   0x000030e8       0x2c ../Webserver_bsp//libucosii_bsp.a(altera_avalon_jtag_uart_ioctl.o)
 .debug_frame   0x00003114       0x2c ../Webserver_bsp//libucosii_bsp.a(altera_avalon_jtag_uart_read.o)
 .debug_frame   0x00003140       0x2c ../Webserver_bsp//libucosii_bsp.a(altera_avalon_jtag_uart_write.o)
 .debug_frame   0x0000316c       0x48 ../Webserver_bsp//libucosii_bsp.a(altera_avalon_timer_sc.o)
 .debug_frame   0x000031b4      0x1b4 ../Webserver_bsp//libucosii_bsp.a(altera_ro_zipfs.o)
 .debug_frame   0x00003368      0x17c ../Webserver_bsp//libucosii_bsp.a(altera_up_avalon_character_lcd.o)
 .debug_frame   0x000034e4       0x2c ../Webserver_bsp//libucosii_bsp.a(alt_iniche_close.o)
 .debug_frame   0x00003510       0x2c ../Webserver_bsp//libucosii_bsp.a(alt_iniche_dev.o)
 .debug_frame   0x0000353c       0x2c ../Webserver_bsp//libucosii_bsp.a(alt_iniche_read.o)
 .debug_frame   0x00003568       0x2c ../Webserver_bsp//libucosii_bsp.a(alt_iniche_write.o)
 .debug_frame   0x00003594       0xb8 ../Webserver_bsp//libucosii_bsp.a(ipnet.o)
 .debug_frame   0x0000364c       0x80 ../Webserver_bsp//libucosii_bsp.a(ipstart.o)
 .debug_frame   0x000036cc       0xf4 ../Webserver_bsp//libucosii_bsp.a(igmp_cmn.o)
 .debug_frame   0x000037c0      0x128 ../Webserver_bsp//libucosii_bsp.a(bsdsock.o)
 .debug_frame   0x000038e8       0x48 ../Webserver_bsp//libucosii_bsp.a(cksum.o)
 .debug_frame   0x00003930      0x164 ../Webserver_bsp//libucosii_bsp.a(in_utils.o)
 .debug_frame   0x00003a94       0x64 ../Webserver_bsp//libucosii_bsp.a(netmain.o)
 .debug_frame   0x00003af8      0x10c ../Webserver_bsp//libucosii_bsp.a(parseip.o)
 .debug_frame   0x00003c04       0xd4 ../Webserver_bsp//libucosii_bsp.a(tk_crnos.o)
 .debug_frame   0x00003cd8      0x24c ../Webserver_bsp//libucosii_bsp.a(dhcpclnt.o)
 .debug_frame   0x00003f24       0x2c ../Webserver_bsp//libucosii_bsp.a(dhcputil.o)
 .debug_frame   0x00003f50       0xb8 ../Webserver_bsp//libucosii_bsp.a(pktalloc.o)
 .debug_frame   0x00004008       0x64 ../Webserver_bsp//libucosii_bsp.a(q.o)
 .debug_frame   0x0000406c       0x48 ../Webserver_bsp//libucosii_bsp.a(udp_open.o)
 .debug_frame   0x000040b4       0xf0 ../Webserver_bsp//libucosii_bsp.a(brdutils.o)
 .debug_frame   0x000041a4       0x9c ../Webserver_bsp//libucosii_bsp.a(osportco.o)
 .debug_frame   0x00004240      0x110 ../Webserver_bsp//libucosii_bsp.a(targnios.o)
 .debug_frame   0x00004350      0x208 ../Webserver_bsp//libucosii_bsp.a(nptcp.o)
 .debug_frame   0x00004558       0x68 ../Webserver_bsp//libucosii_bsp.a(rawsock.o)
 .debug_frame   0x000045c0      0x224 ../Webserver_bsp//libucosii_bsp.a(sockcall.o)
 .debug_frame   0x000047e4      0x1d0 ../Webserver_bsp//libucosii_bsp.a(socket.o)
 .debug_frame   0x000049b4      0x294 ../Webserver_bsp//libucosii_bsp.a(socket2.o)
 .debug_frame   0x00004c48      0x110 ../Webserver_bsp//libucosii_bsp.a(soselect.o)
 .debug_frame   0x00004d58       0xd8 ../Webserver_bsp//libucosii_bsp.a(tcp_in.o)
 .debug_frame   0x00004e30       0x68 ../Webserver_bsp//libucosii_bsp.a(tcp_out.o)
 .debug_frame   0x00004e98      0x10c ../Webserver_bsp//libucosii_bsp.a(tcp_subr.o)
 .debug_frame   0x00004fa4       0x64 ../Webserver_bsp//libucosii_bsp.a(tcp_timr.o)
 .debug_frame   0x00005008       0x80 ../Webserver_bsp//libucosii_bsp.a(tcp_usr.o)
 .debug_frame   0x00005088       0x2c ../Webserver_bsp//libucosii_bsp.a(tcpport.o)
 .debug_frame   0x000050b4       0xbc ../Webserver_bsp//libucosii_bsp.a(udpsock.o)
 .debug_frame   0x00005170       0x2c ../Webserver_bsp//libucosii_bsp.a(alt_alarm_start.o)
 .debug_frame   0x0000519c       0x2c ../Webserver_bsp//libucosii_bsp.a(alt_busy_sleep.o)
 .debug_frame   0x000051c8       0x48 ../Webserver_bsp//libucosii_bsp.a(alt_close.o)
 .debug_frame   0x00005210       0x2c ../Webserver_bsp//libucosii_bsp.a(alt_dev.o)
 .debug_frame   0x0000523c       0x48 ../Webserver_bsp//libucosii_bsp.a(alt_dev_llist_insert.o)
 .debug_frame   0x00005284       0x2c ../Webserver_bsp//libucosii_bsp.a(alt_do_ctors.o)
 .debug_frame   0x000052b0       0x2c ../Webserver_bsp//libucosii_bsp.a(alt_do_dtors.o)
 .debug_frame   0x000052dc       0x2c ../Webserver_bsp//libucosii_bsp.a(alt_find_dev.o)
 .debug_frame   0x00005308       0x2c ../Webserver_bsp//libucosii_bsp.a(alt_find_file.o)
 .debug_frame   0x00005334       0x2c ../Webserver_bsp//libucosii_bsp.a(alt_fs_reg.o)
 .debug_frame   0x00005360       0x2c ../Webserver_bsp//libucosii_bsp.a(alt_get_fd.o)
 .debug_frame   0x0000538c       0x80 ../Webserver_bsp//libucosii_bsp.a(alt_iic.o)
 .debug_frame   0x0000540c       0x2c ../Webserver_bsp//libucosii_bsp.a(alt_iic_isr_register.o)
 .debug_frame   0x00005438       0x48 ../Webserver_bsp//libucosii_bsp.a(alt_io_redirect.o)
 .debug_frame   0x00005480       0x2c ../Webserver_bsp//libucosii_bsp.a(alt_irq_handler.o)
 .debug_frame   0x000054ac       0x48 ../Webserver_bsp//libucosii_bsp.a(alt_read.o)
 .debug_frame   0x000054f4       0x2c ../Webserver_bsp//libucosii_bsp.a(alt_remap_cached.o)
 .debug_frame   0x00005520       0x2c ../Webserver_bsp//libucosii_bsp.a(alt_remap_uncached.o)
 .debug_frame   0x0000554c       0x48 ../Webserver_bsp//libucosii_bsp.a(alt_write.o)
 .debug_frame   0x00005594       0x2c ../Webserver_bsp//libucosii_bsp.a(altera_nios2_qsys_irq.o)
 .debug_frame   0x000055c0      0x128 ../Webserver_bsp//libucosii_bsp.a(os_cpu_c.o)
 .debug_frame   0x000056e8       0xe0 ../Webserver_bsp//libucosii_bsp.a(allports.o)
 .debug_frame   0x000057c8       0x84 ../Webserver_bsp//libucosii_bsp.a(timeouts.o)
 .debug_frame   0x0000584c       0x48 ../Webserver_bsp//libucosii_bsp.a(tk_misc.o)
 .debug_frame   0x00005894       0x2c ../Webserver_bsp//libucosii_bsp.a(alt_iniche_fcntl.o)
 .debug_frame   0x000058c0      0x160 ../Webserver_bsp//libucosii_bsp.a(et_arp.o)
 .debug_frame   0x00005a20       0x80 ../Webserver_bsp//libucosii_bsp.a(iface.o)
 .debug_frame   0x00005aa0      0x160 ../Webserver_bsp//libucosii_bsp.a(ip.o)
 .debug_frame   0x00005c00      0x1d4 ../Webserver_bsp//libucosii_bsp.a(ip_reasm.o)
 .debug_frame   0x00005dd4       0x68 ../Webserver_bsp//libucosii_bsp.a(ipdemux.o)
 .debug_frame   0x00005e3c       0x64 ../Webserver_bsp//libucosii_bsp.a(ipmc.o)
 .debug_frame   0x00005ea0       0x64 ../Webserver_bsp//libucosii_bsp.a(ipport.o)
 .debug_frame   0x00005f04       0xb8 ../Webserver_bsp//libucosii_bsp.a(ipraw.o)
 .debug_frame   0x00005fbc       0x64 ../Webserver_bsp//libucosii_bsp.a(iproute.o)
 .debug_frame   0x00006020       0xd4 ../Webserver_bsp//libucosii_bsp.a(udp.o)
 .debug_frame   0x000060f4       0x2c ../Webserver_bsp//libucosii_bsp.a(igmp.o)
 .debug_frame   0x00006120       0x9c ../Webserver_bsp//libucosii_bsp.a(igmp2.o)
 .debug_frame   0x000061bc       0x84 ../Webserver_bsp//libucosii_bsp.a(ipopt.o)
 .debug_frame   0x00006240       0x4c ../Webserver_bsp//libucosii_bsp.a(u_mctest.o)
 .debug_frame   0x0000628c       0x48 ../Webserver_bsp//libucosii_bsp.a(dhcsetup.o)
 .debug_frame   0x000062d4      0x10c ../Webserver_bsp//libucosii_bsp.a(memdev.o)
 .debug_frame   0x000063e0       0x2c ../Webserver_bsp//libucosii_bsp.a(tcpcksum.o)
 .debug_frame   0x0000640c       0xf0 ../Webserver_bsp//libucosii_bsp.a(in_pcb.o)
 .debug_frame   0x000064fc      0x320 ../Webserver_bsp//libucosii_bsp.a(vfsfiles.o)
 .debug_frame   0x0000681c       0x2c ../Webserver_bsp//libucosii_bsp.a(vfsport.o)
 .debug_frame   0x00006848       0x48 ../Webserver_bsp//libucosii_bsp.a(alt_fcntl.o)
 .debug_frame   0x00006890       0x84 ../Webserver_bsp//libucosii_bsp.a(icmp.o)
 .debug_frame   0x00006914       0x20 /OPT/altera/12.1/nios2eds/bin/gnu/H-i686-pc-linux-gnu/bin/../lib/gcc/nios2-elf/4.1.2/../../../../nios2-elf/lib/libc.a(lib_a-atexit.o)
 .debug_frame   0x00006934       0x20 /OPT/altera/12.1/nios2eds/bin/gnu/H-i686-pc-linux-gnu/bin/../lib/gcc/nios2-elf/4.1.2/../../../../nios2-elf/lib/libc.a(lib_a-calloc.o)
 .debug_frame   0x00006954       0x28 /OPT/altera/12.1/nios2eds/bin/gnu/H-i686-pc-linux-gnu/bin/../lib/gcc/nios2-elf/4.1.2/../../../../nios2-elf/lib/libc.a(lib_a-exit.o)
 .debug_frame   0x0000697c       0x48 /OPT/altera/12.1/nios2eds/bin/gnu/H-i686-pc-linux-gnu/bin/../lib/gcc/nios2-elf/4.1.2/../../../../nios2-elf/lib/libc.a(lib_a-getc.o)
 .debug_frame   0x000069c4       0x30 /OPT/altera/12.1/nios2eds/bin/gnu/H-i686-pc-linux-gnu/bin/../lib/gcc/nios2-elf/4.1.2/../../../../nios2-elf/lib/libc.a(lib_a-malloc.o)
 .debug_frame   0x000069f4       0x38 /OPT/altera/12.1/nios2eds/bin/gnu/H-i686-pc-linux-gnu/bin/../lib/gcc/nios2-elf/4.1.2/../../../../nios2-elf/lib/libc.a(lib_a-rget.o)
 .debug_frame   0x00006a2c       0x30 /OPT/altera/12.1/nios2eds/bin/gnu/H-i686-pc-linux-gnu/bin/../lib/gcc/nios2-elf/4.1.2/../../../../nios2-elf/lib/libc.a(lib_a-vprintf.o)
 .debug_frame   0x00006a5c       0x38 /OPT/altera/12.1/nios2eds/bin/gnu/H-i686-pc-linux-gnu/bin/../lib/gcc/nios2-elf/4.1.2/../../../../nios2-elf/lib/libc.a(lib_a-vsprintf.o)
 .debug_frame   0x00006a94       0x34 /OPT/altera/12.1/nios2eds/bin/gnu/H-i686-pc-linux-gnu/bin/../lib/gcc/nios2-elf/4.1.2/../../../../nios2-elf/lib/libc.a(lib_a-__atexit.o)
 .debug_frame   0x00006ac8       0x4c /OPT/altera/12.1/nios2eds/bin/gnu/H-i686-pc-linux-gnu/bin/../lib/gcc/nios2-elf/4.1.2/../../../../nios2-elf/lib/libc.a(lib_a-__call_atexit.o)
 .debug_frame   0x00006b14       0x48 ../Webserver_bsp//libucosii_bsp.a(alt_exit.o)

.debug_str      0x00000000     0x3fa1
 *(.debug_str)
 .debug_str     0x00000000       0x20 obj/default/alt_error_handler.o
 .debug_str     0x00000020       0x33 obj/default/dm9000a.o
 .debug_str     0x00000053       0xb8 obj/default/http.o
 .debug_str     0x0000010b       0x56 obj/default/network_utilities.o
 .debug_str     0x00000161       0x6f obj/default/srec_flash.o
 .debug_str     0x000001d0       0x44 obj/default/web_server.o
 .debug_str     0x00000214      0x16c /OPT/altera/12.1/nios2eds/bin/gnu/H-i686-pc-linux-gnu/bin/../lib/gcc/nios2-elf/4.1.2/libgcc.a(lib2-divmod.o)
                                0x1b9 (size before relaxing)
 .debug_str     0x00000380      0x438 /OPT/altera/12.1/nios2eds/bin/gnu/H-i686-pc-linux-gnu/bin/../lib/gcc/nios2-elf/4.1.2/../../../../nios2-elf/lib/libc.a(lib_a-atoi.o)
                                0x501 (size before relaxing)
 .debug_str     0x000007b8       0xe7 /OPT/altera/12.1/nios2eds/bin/gnu/H-i686-pc-linux-gnu/bin/../lib/gcc/nios2-elf/4.1.2/../../../../nios2-elf/lib/libc.a(lib_a-ctype_.o)
                                0x10a (size before relaxing)
 .debug_str     0x0000089f       0xe0 /OPT/altera/12.1/nios2eds/bin/gnu/H-i686-pc-linux-gnu/bin/../lib/gcc/nios2-elf/4.1.2/../../../../nios2-elf/lib/libc.a(lib_a-fclose.o)
                                0x51b (size before relaxing)
 .debug_str     0x0000097f       0x65 /OPT/altera/12.1/nios2eds/bin/gnu/H-i686-pc-linux-gnu/bin/../lib/gcc/nios2-elf/4.1.2/../../../../nios2-elf/lib/libc.a(lib_a-fflush.o)
                                0x537 (size before relaxing)
 .debug_str     0x000009e4       0x4e /OPT/altera/12.1/nios2eds/bin/gnu/H-i686-pc-linux-gnu/bin/../lib/gcc/nios2-elf/4.1.2/../../../../nios2-elf/lib/libc.a(lib_a-fgetpos.o)
                                0x519 (size before relaxing)
 .debug_str     0x00000a32      0x102 /OPT/altera/12.1/nios2eds/bin/gnu/H-i686-pc-linux-gnu/bin/../lib/gcc/nios2-elf/4.1.2/../../../../nios2-elf/lib/libc.a(lib_a-findfp.o)
                                0x5f9 (size before relaxing)
 .debug_str     0x00000b34       0x4f /OPT/altera/12.1/nios2eds/bin/gnu/H-i686-pc-linux-gnu/bin/../lib/gcc/nios2-elf/4.1.2/../../../../nios2-elf/lib/libc.a(lib_a-fopen.o)
                                0x52a (size before relaxing)
 .debug_str     0x00000b83       0x5d /OPT/altera/12.1/nios2eds/bin/gnu/H-i686-pc-linux-gnu/bin/../lib/gcc/nios2-elf/4.1.2/../../../../nios2-elf/lib/libc.a(lib_a-fprintf.o)
                                0x524 (size before relaxing)
 .debug_str     0x00000be0       0x6a /OPT/altera/12.1/nios2eds/bin/gnu/H-i686-pc-linux-gnu/bin/../lib/gcc/nios2-elf/4.1.2/../../../../nios2-elf/lib/libc.a(lib_a-fread.o)
                                0x553 (size before relaxing)
 .debug_str     0x00000c4a      0x15b /OPT/altera/12.1/nios2eds/bin/gnu/H-i686-pc-linux-gnu/bin/../lib/gcc/nios2-elf/4.1.2/../../../../nios2-elf/lib/libc.a(lib_a-freer.o)
                                0x648 (size before relaxing)
 .debug_str     0x00000da5      0x13a /OPT/altera/12.1/nios2eds/bin/gnu/H-i686-pc-linux-gnu/bin/../lib/gcc/nios2-elf/4.1.2/../../../../nios2-elf/lib/libc.a(lib_a-fseek.o)
                                0x637 (size before relaxing)
 .debug_str     0x00000edf       0xd9 /OPT/altera/12.1/nios2eds/bin/gnu/H-i686-pc-linux-gnu/bin/../lib/gcc/nios2-elf/4.1.2/../../../../nios2-elf/lib/libc.a(lib_a-fstatr.o)
                                0x5f6 (size before relaxing)
 .debug_str     0x00000fb8       0x48 /OPT/altera/12.1/nios2eds/bin/gnu/H-i686-pc-linux-gnu/bin/../lib/gcc/nios2-elf/4.1.2/../../../../nios2-elf/lib/libc.a(lib_a-ftell.o)
                                0x513 (size before relaxing)
 .debug_str     0x00001000       0x5e /OPT/altera/12.1/nios2eds/bin/gnu/H-i686-pc-linux-gnu/bin/../lib/gcc/nios2-elf/4.1.2/../../../../nios2-elf/lib/libc.a(lib_a-fwalk.o)
                                0x53a (size before relaxing)
 .debug_str     0x0000105e       0x87 /OPT/altera/12.1/nios2eds/bin/gnu/H-i686-pc-linux-gnu/bin/../lib/gcc/nios2-elf/4.1.2/../../../../nios2-elf/lib/libc.a(lib_a-fwrite.o)
                                0x564 (size before relaxing)
 .debug_str     0x000010e5       0x46 /OPT/altera/12.1/nios2eds/bin/gnu/H-i686-pc-linux-gnu/bin/../lib/gcc/nios2-elf/4.1.2/../../../../nios2-elf/lib/libc.a(lib_a-impure.o)
                                0x51f (size before relaxing)
 .debug_str     0x0000112b       0x3d /OPT/altera/12.1/nios2eds/bin/gnu/H-i686-pc-linux-gnu/bin/../lib/gcc/nios2-elf/4.1.2/../../../../nios2-elf/lib/libc.a(lib_a-int_errno.o)
                                0x168 (size before relaxing)
 .debug_str     0x00001168       0x53 /OPT/altera/12.1/nios2eds/bin/gnu/H-i686-pc-linux-gnu/bin/../lib/gcc/nios2-elf/4.1.2/../../../../nios2-elf/lib/libc.a(lib_a-makebuf.o)
                                0x60b (size before relaxing)
 .debug_str     0x000011bb       0xe9 /OPT/altera/12.1/nios2eds/bin/gnu/H-i686-pc-linux-gnu/bin/../lib/gcc/nios2-elf/4.1.2/../../../../nios2-elf/lib/libc.a(lib_a-mallocr.o)
                                0x6f6 (size before relaxing)
 .debug_str     0x000012a4       0xfa /OPT/altera/12.1/nios2eds/bin/gnu/H-i686-pc-linux-gnu/bin/../lib/gcc/nios2-elf/4.1.2/../../../../nios2-elf/lib/libc.a(lib_a-memcpy.o)
                                0x12d (size before relaxing)
 .debug_str     0x0000139e       0x5d /OPT/altera/12.1/nios2eds/bin/gnu/H-i686-pc-linux-gnu/bin/../lib/gcc/nios2-elf/4.1.2/../../../../nios2-elf/lib/libc.a(lib_a-memmove.o)
                                0x1a2 (size before relaxing)
 .debug_str     0x000013fb       0x56 /OPT/altera/12.1/nios2eds/bin/gnu/H-i686-pc-linux-gnu/bin/../lib/gcc/nios2-elf/4.1.2/../../../../nios2-elf/lib/libc.a(lib_a-memset.o)
                                0x183 (size before relaxing)
 .debug_str     0x00001451       0x41 /OPT/altera/12.1/nios2eds/bin/gnu/H-i686-pc-linux-gnu/bin/../lib/gcc/nios2-elf/4.1.2/../../../../nios2-elf/lib/libc.a(lib_a-openr.o)
                                0x511 (size before relaxing)
 .debug_str     0x00001492       0x4b /OPT/altera/12.1/nios2eds/bin/gnu/H-i686-pc-linux-gnu/bin/../lib/gcc/nios2-elf/4.1.2/../../../../nios2-elf/lib/libc.a(lib_a-perror.o)
                                0x517 (size before relaxing)
 .debug_str     0x000014dd       0x44 /OPT/altera/12.1/nios2eds/bin/gnu/H-i686-pc-linux-gnu/bin/../lib/gcc/nios2-elf/4.1.2/../../../../nios2-elf/lib/libc.a(lib_a-printf.o)
                                0x528 (size before relaxing)
 .debug_str     0x00001521       0x40 /OPT/altera/12.1/nios2eds/bin/gnu/H-i686-pc-linux-gnu/bin/../lib/gcc/nios2-elf/4.1.2/../../../../nios2-elf/lib/libc.a(lib_a-puts.o)
                                0x54e (size before relaxing)
 .debug_str     0x00001561       0x4d /OPT/altera/12.1/nios2eds/bin/gnu/H-i686-pc-linux-gnu/bin/../lib/gcc/nios2-elf/4.1.2/../../../../nios2-elf/lib/libc.a(lib_a-refill.o)
                                0x51f (size before relaxing)
 .debug_str     0x000015ae       0x50 /OPT/altera/12.1/nios2eds/bin/gnu/H-i686-pc-linux-gnu/bin/../lib/gcc/nios2-elf/4.1.2/../../../../nios2-elf/lib/libc.a(lib_a-sbrkr.o)
                                0x510 (size before relaxing)
 .debug_str     0x000015fe       0x51 /OPT/altera/12.1/nios2eds/bin/gnu/H-i686-pc-linux-gnu/bin/../lib/gcc/nios2-elf/4.1.2/../../../../nios2-elf/lib/libc.a(lib_a-snprintf.o)
                                0x53f (size before relaxing)
 .debug_str     0x0000164f       0x46 /OPT/altera/12.1/nios2eds/bin/gnu/H-i686-pc-linux-gnu/bin/../lib/gcc/nios2-elf/4.1.2/../../../../nios2-elf/lib/libc.a(lib_a-sprintf.o)
                                0x530 (size before relaxing)
 .debug_str     0x00001695       0x53 /OPT/altera/12.1/nios2eds/bin/gnu/H-i686-pc-linux-gnu/bin/../lib/gcc/nios2-elf/4.1.2/../../../../nios2-elf/lib/libc.a(lib_a-sscanf.o)
                                0x53c (size before relaxing)
 .debug_str     0x000016e8       0x5b /OPT/altera/12.1/nios2eds/bin/gnu/H-i686-pc-linux-gnu/bin/../lib/gcc/nios2-elf/4.1.2/../../../../nios2-elf/lib/libc.a(lib_a-stdio.o)
                                0x536 (size before relaxing)
 .debug_str     0x00001743       0x4a /OPT/altera/12.1/nios2eds/bin/gnu/H-i686-pc-linux-gnu/bin/../lib/gcc/nios2-elf/4.1.2/../../../../nios2-elf/lib/libc.a(lib_a-strcasecmp.o)
                                0x17c (size before relaxing)
 .debug_str     0x0000178d       0x4d /OPT/altera/12.1/nios2eds/bin/gnu/H-i686-pc-linux-gnu/bin/../lib/gcc/nios2-elf/4.1.2/../../../../nios2-elf/lib/libc.a(lib_a-strcat.o)
                                0x173 (size before relaxing)
 .debug_str     0x000017da       0x47 /OPT/altera/12.1/nios2eds/bin/gnu/H-i686-pc-linux-gnu/bin/../lib/gcc/nios2-elf/4.1.2/../../../../nios2-elf/lib/libc.a(lib_a-strchr.o)
                                0x17a (size before relaxing)
 .debug_str     0x00001821       0x42 /OPT/altera/12.1/nios2eds/bin/gnu/H-i686-pc-linux-gnu/bin/../lib/gcc/nios2-elf/4.1.2/../../../../nios2-elf/lib/libc.a(lib_a-strcmp.o)
                                0x168 (size before relaxing)
 .debug_str     0x00001863       0x42 /OPT/altera/12.1/nios2eds/bin/gnu/H-i686-pc-linux-gnu/bin/../lib/gcc/nios2-elf/4.1.2/../../../../nios2-elf/lib/libc.a(lib_a-strcpy.o)
                                0x18a (size before relaxing)
 .debug_str     0x000018a5       0x44 /OPT/altera/12.1/nios2eds/bin/gnu/H-i686-pc-linux-gnu/bin/../lib/gcc/nios2-elf/4.1.2/../../../../nios2-elf/lib/libc.a(lib_a-strerror.o)
                                0x179 (size before relaxing)
 .debug_str     0x000018e9       0x42 /OPT/altera/12.1/nios2eds/bin/gnu/H-i686-pc-linux-gnu/bin/../lib/gcc/nios2-elf/4.1.2/../../../../nios2-elf/lib/libc.a(lib_a-strlen.o)
                                0x182 (size before relaxing)
 .debug_str     0x0000192b       0x44 /OPT/altera/12.1/nios2eds/bin/gnu/H-i686-pc-linux-gnu/bin/../lib/gcc/nios2-elf/4.1.2/../../../../nios2-elf/lib/libc.a(lib_a-strncmp.o)
                                0x171 (size before relaxing)
 .debug_str     0x0000196f       0x44 /OPT/altera/12.1/nios2eds/bin/gnu/H-i686-pc-linux-gnu/bin/../lib/gcc/nios2-elf/4.1.2/../../../../nios2-elf/lib/libc.a(lib_a-strncpy.o)
                                0x199 (size before relaxing)
 .debug_str     0x000019b3       0xe8 /OPT/altera/12.1/nios2eds/bin/gnu/H-i686-pc-linux-gnu/bin/../lib/gcc/nios2-elf/4.1.2/../../../../nios2-elf/lib/libc.a(lib_a-strstr.o)
                                0x229 (size before relaxing)
 .debug_str     0x00001a9b       0x42 /OPT/altera/12.1/nios2eds/bin/gnu/H-i686-pc-linux-gnu/bin/../lib/gcc/nios2-elf/4.1.2/../../../../nios2-elf/lib/libc.a(lib_a-strtok.o)
                                0x50f (size before relaxing)
 .debug_str     0x00001add       0x6c /OPT/altera/12.1/nios2eds/bin/gnu/H-i686-pc-linux-gnu/bin/../lib/gcc/nios2-elf/4.1.2/../../../../nios2-elf/lib/libc.a(lib_a-strtok_r.o)
                                0x1a1 (size before relaxing)
 .debug_str     0x00001b49       0x61 /OPT/altera/12.1/nios2eds/bin/gnu/H-i686-pc-linux-gnu/bin/../lib/gcc/nios2-elf/4.1.2/../../../../nios2-elf/lib/libc.a(lib_a-strtol.o)
                                0x543 (size before relaxing)
 .debug_str     0x00001baa       0x4c /OPT/altera/12.1/nios2eds/bin/gnu/H-i686-pc-linux-gnu/bin/../lib/gcc/nios2-elf/4.1.2/../../../../nios2-elf/lib/libc.a(lib_a-u_strerr.o)
                                 0xf5 (size before relaxing)
 .debug_str     0x00001bf6      0x167 /OPT/altera/12.1/nios2eds/bin/gnu/H-i686-pc-linux-gnu/bin/../lib/gcc/nios2-elf/4.1.2/../../../../nios2-elf/lib/libc.a(lib_a-vfprintf.o)
                                0x6fd (size before relaxing)
 .debug_str     0x00001d5d      0x144 /OPT/altera/12.1/nios2eds/bin/gnu/H-i686-pc-linux-gnu/bin/../lib/gcc/nios2-elf/4.1.2/../../../../nios2-elf/lib/libc.a(lib_a-vfscanf.o)
                                0x696 (size before relaxing)
 .debug_str     0x00001ea1       0x4c /OPT/altera/12.1/nios2eds/bin/gnu/H-i686-pc-linux-gnu/bin/../lib/gcc/nios2-elf/4.1.2/../../../../nios2-elf/lib/libc.a(lib_a-writer.o)
                                0x513 (size before relaxing)
 .debug_str     0x00001eed       0x46 /OPT/altera/12.1/nios2eds/bin/gnu/H-i686-pc-linux-gnu/bin/../lib/gcc/nios2-elf/4.1.2/../../../../nios2-elf/lib/libc.a(lib_a-wsetup.o)
                                0x511 (size before relaxing)
 .debug_str     0x00001f33       0x43 /OPT/altera/12.1/nios2eds/bin/gnu/H-i686-pc-linux-gnu/bin/../lib/gcc/nios2-elf/4.1.2/../../../../nios2-elf/lib/libc.a(lib_a-closer.o)
                                0x503 (size before relaxing)
 .debug_str     0x00001f76       0xfc /OPT/altera/12.1/nios2eds/bin/gnu/H-i686-pc-linux-gnu/bin/../lib/gcc/nios2-elf/4.1.2/../../../../nios2-elf/lib/libc.a(lib_a-dtoa.o)
                                0x606 (size before relaxing)
 .debug_str     0x00002072       0x47 /OPT/altera/12.1/nios2eds/bin/gnu/H-i686-pc-linux-gnu/bin/../lib/gcc/nios2-elf/4.1.2/../../../../nios2-elf/lib/libc.a(lib_a-flags.o)
                                0x506 (size before relaxing)
 .debug_str     0x000020b9       0x48 /OPT/altera/12.1/nios2eds/bin/gnu/H-i686-pc-linux-gnu/bin/../lib/gcc/nios2-elf/4.1.2/../../../../nios2-elf/lib/libc.a(lib_a-fputc.o)
                                0x51f (size before relaxing)
 .debug_str     0x00002101       0x48 /OPT/altera/12.1/nios2eds/bin/gnu/H-i686-pc-linux-gnu/bin/../lib/gcc/nios2-elf/4.1.2/../../../../nios2-elf/lib/libc.a(lib_a-fputs.o)
                                0x55d (size before relaxing)
 .debug_str     0x00002149       0x66 /OPT/altera/12.1/nios2eds/bin/gnu/H-i686-pc-linux-gnu/bin/../lib/gcc/nios2-elf/4.1.2/../../../../nios2-elf/lib/libc.a(lib_a-fvwrite.o)
                                0x568 (size before relaxing)
 .debug_str     0x000021af       0x45 /OPT/altera/12.1/nios2eds/bin/gnu/H-i686-pc-linux-gnu/bin/../lib/gcc/nios2-elf/4.1.2/../../../../nios2-elf/lib/libc.a(lib_a-isattyr.o)
                                0x505 (size before relaxing)
 .debug_str     0x000021f4       0x58 /OPT/altera/12.1/nios2eds/bin/gnu/H-i686-pc-linux-gnu/bin/../lib/gcc/nios2-elf/4.1.2/../../../../nios2-elf/lib/libc.a(lib_a-iswspace.o)
                                0x190 (size before relaxing)
 .debug_str     0x0000224c      0x212 /OPT/altera/12.1/nios2eds/bin/gnu/H-i686-pc-linux-gnu/bin/../lib/gcc/nios2-elf/4.1.2/../../../../nios2-elf/lib/libc.a(lib_a-locale.o)
                                0x6ae (size before relaxing)
 .debug_str     0x0000245e       0x43 /OPT/altera/12.1/nios2eds/bin/gnu/H-i686-pc-linux-gnu/bin/../lib/gcc/nios2-elf/4.1.2/../../../../nios2-elf/lib/libc.a(lib_a-lseekr.o)
                                0x511 (size before relaxing)
 .debug_str     0x000024a1       0x56 /OPT/altera/12.1/nios2eds/bin/gnu/H-i686-pc-linux-gnu/bin/../lib/gcc/nios2-elf/4.1.2/../../../../nios2-elf/lib/libc.a(lib_a-mbrtowc.o)
                                0x536 (size before relaxing)
 .debug_str     0x000024f7       0x4d /OPT/altera/12.1/nios2eds/bin/gnu/H-i686-pc-linux-gnu/bin/../lib/gcc/nios2-elf/4.1.2/../../../../nios2-elf/lib/libc.a(lib_a-mbtowc_r.o)
                                0x527 (size before relaxing)
 .debug_str     0x00002544       0x47 /OPT/altera/12.1/nios2eds/bin/gnu/H-i686-pc-linux-gnu/bin/../lib/gcc/nios2-elf/4.1.2/../../../../nios2-elf/lib/libc.a(lib_a-memchr.o)
                                0x190 (size before relaxing)
 .debug_str     0x0000258b       0x42 /OPT/altera/12.1/nios2eds/bin/gnu/H-i686-pc-linux-gnu/bin/../lib/gcc/nios2-elf/4.1.2/../../../../nios2-elf/lib/libc.a(lib_a-memcmp.o)
                                0x16f (size before relaxing)
 .debug_str     0x000025cd       0xf8 /OPT/altera/12.1/nios2eds/bin/gnu/H-i686-pc-linux-gnu/bin/../lib/gcc/nios2-elf/4.1.2/../../../../nios2-elf/lib/libc.a(lib_a-mprec.o)
                                0x613 (size before relaxing)
 .debug_str     0x000026c5       0x40 /OPT/altera/12.1/nios2eds/bin/gnu/H-i686-pc-linux-gnu/bin/../lib/gcc/nios2-elf/4.1.2/../../../../nios2-elf/lib/libc.a(lib_a-putc.o)
                                0x517 (size before relaxing)
 .debug_str     0x00002705       0x41 /OPT/altera/12.1/nios2eds/bin/gnu/H-i686-pc-linux-gnu/bin/../lib/gcc/nios2-elf/4.1.2/../../../../nios2-elf/lib/libc.a(lib_a-readr.o)
                                0x511 (size before relaxing)
 .debug_str     0x00002746       0x59 /OPT/altera/12.1/nios2eds/bin/gnu/H-i686-pc-linux-gnu/bin/../lib/gcc/nios2-elf/4.1.2/../../../../nios2-elf/lib/libc.a(lib_a-reallocr.o)
                                0x5c8 (size before relaxing)
 .debug_str     0x0000279f       0xe1 /OPT/altera/12.1/nios2eds/bin/gnu/H-i686-pc-linux-gnu/bin/../lib/gcc/nios2-elf/4.1.2/../../../../nios2-elf/lib/libc.a(lib_a-s_isinfd.o)
                                0x18f (size before relaxing)
 .debug_str     0x00002880       0x46 /OPT/altera/12.1/nios2eds/bin/gnu/H-i686-pc-linux-gnu/bin/../lib/gcc/nios2-elf/4.1.2/../../../../nios2-elf/lib/libc.a(lib_a-s_isnand.o)
                                0x18f (size before relaxing)
 .debug_str     0x000028c6       0x4f /OPT/altera/12.1/nios2eds/bin/gnu/H-i686-pc-linux-gnu/bin/../lib/gcc/nios2-elf/4.1.2/../../../../nios2-elf/lib/libc.a(lib_a-sccl.o)
                                0x174 (size before relaxing)
 .debug_str     0x00002915       0x40 /OPT/altera/12.1/nios2eds/bin/gnu/H-i686-pc-linux-gnu/bin/../lib/gcc/nios2-elf/4.1.2/../../../../nios2-elf/lib/libc.a(lib_a-sf_nan.o)
                                0x186 (size before relaxing)
 .debug_str     0x00002955       0xef /OPT/altera/12.1/nios2eds/bin/gnu/H-i686-pc-linux-gnu/bin/../lib/gcc/nios2-elf/4.1.2/../../../../nios2-elf/lib/libc.a(lib_a-strtod.o)
                                0x626 (size before relaxing)
 .debug_str     0x00002a44       0x49 /OPT/altera/12.1/nios2eds/bin/gnu/H-i686-pc-linux-gnu/bin/../lib/gcc/nios2-elf/4.1.2/../../../../nios2-elf/lib/libc.a(lib_a-strtoll_r.o)
                                0x534 (size before relaxing)
 .debug_str     0x00002a8d       0x4f /OPT/altera/12.1/nios2eds/bin/gnu/H-i686-pc-linux-gnu/bin/../lib/gcc/nios2-elf/4.1.2/../../../../nios2-elf/lib/libc.a(lib_a-strtoul.o)
                                0x546 (size before relaxing)
 .debug_str     0x00002adc       0x4b /OPT/altera/12.1/nios2eds/bin/gnu/H-i686-pc-linux-gnu/bin/../lib/gcc/nios2-elf/4.1.2/../../../../nios2-elf/lib/libc.a(lib_a-strtoull_r.o)
                                0x536 (size before relaxing)
 .debug_str     0x00002b27       0x55 /OPT/altera/12.1/nios2eds/bin/gnu/H-i686-pc-linux-gnu/bin/../lib/gcc/nios2-elf/4.1.2/../../../../nios2-elf/lib/libc.a(lib_a-ungetc.o)
                                0x525 (size before relaxing)
 .debug_str     0x00002b7c       0x4a /OPT/altera/12.1/nios2eds/bin/gnu/H-i686-pc-linux-gnu/bin/../lib/gcc/nios2-elf/4.1.2/../../../../nios2-elf/lib/libc.a(lib_a-wbuf.o)
                                0x515 (size before relaxing)
 .debug_str     0x00002bc6       0x19 /OPT/altera/12.1/nios2eds/bin/gnu/H-i686-pc-linux-gnu/bin/../lib/gcc/nios2-elf/4.1.2/../../../../nios2-elf/lib/libc.a(lib_a-callocr.o)
                                0x547 (size before relaxing)
 .debug_str     0x00002bdf       0x9e /OPT/altera/12.1/nios2eds/bin/gnu/H-i686-pc-linux-gnu/bin/../lib/gcc/nios2-elf/4.1.2/../../../../nios2-elf/lib/libc.a(lib_a-gdtoa-gethex.o)
                                0x5c1 (size before relaxing)
 .debug_str     0x00002c7d       0x52 /OPT/altera/12.1/nios2eds/bin/gnu/H-i686-pc-linux-gnu/bin/../lib/gcc/nios2-elf/4.1.2/../../../../nios2-elf/lib/libc.a(lib_a-gdtoa-hexnan.o)
                                0x1d4 (size before relaxing)
 .debug_str     0x00002ccf       0x67 /OPT/altera/12.1/nios2eds/bin/gnu/H-i686-pc-linux-gnu/bin/../lib/gcc/nios2-elf/4.1.2/libgcc.a(_muldi3.o)
                                0x1b1 (size before relaxing)
 .debug_str     0x00002d36       0x14 /OPT/altera/12.1/nios2eds/bin/gnu/H-i686-pc-linux-gnu/bin/../lib/gcc/nios2-elf/4.1.2/libgcc.a(_fixunsdfsi.o)
                                0x170 (size before relaxing)
 .debug_str     0x00002d4a       0x54 /OPT/altera/12.1/nios2eds/bin/gnu/H-i686-pc-linux-gnu/bin/../lib/gcc/nios2-elf/4.1.2/libgcc.a(_udivdi3.o)
                                0x1fc (size before relaxing)
 .debug_str     0x00002d9e        0xa /OPT/altera/12.1/nios2eds/bin/gnu/H-i686-pc-linux-gnu/bin/../lib/gcc/nios2-elf/4.1.2/libgcc.a(_umoddi3.o)
                                0x1fc (size before relaxing)
 .debug_str     0x00002da8       0xcd /OPT/altera/12.1/nios2eds/bin/gnu/H-i686-pc-linux-gnu/bin/../lib/gcc/nios2-elf/4.1.2/libgcc.a(_ne_sf.o)
                                0x1fd (size before relaxing)
 .debug_str     0x00002e75        0x8 /OPT/altera/12.1/nios2eds/bin/gnu/H-i686-pc-linux-gnu/bin/../lib/gcc/nios2-elf/4.1.2/libgcc.a(_gt_sf.o)
                                0x1fd (size before relaxing)
 .debug_str     0x00002e7d        0x8 /OPT/altera/12.1/nios2eds/bin/gnu/H-i686-pc-linux-gnu/bin/../lib/gcc/nios2-elf/4.1.2/libgcc.a(_lt_sf.o)
                                0x1fd (size before relaxing)
 .debug_str     0x00002e85       0x8f /OPT/altera/12.1/nios2eds/bin/gnu/H-i686-pc-linux-gnu/bin/../lib/gcc/nios2-elf/4.1.2/libgcc.a(_addsub_df.o)
                                0x274 (size before relaxing)
 .debug_str     0x00002f14       0x40 /OPT/altera/12.1/nios2eds/bin/gnu/H-i686-pc-linux-gnu/bin/../lib/gcc/nios2-elf/4.1.2/libgcc.a(_mul_df.o)
                                0x246 (size before relaxing)
 .debug_str     0x00002f54       0x35 /OPT/altera/12.1/nios2eds/bin/gnu/H-i686-pc-linux-gnu/bin/../lib/gcc/nios2-elf/4.1.2/libgcc.a(_div_df.o)
                                0x236 (size before relaxing)
 .debug_str     0x00002f89        0x8 /OPT/altera/12.1/nios2eds/bin/gnu/H-i686-pc-linux-gnu/bin/../lib/gcc/nios2-elf/4.1.2/libgcc.a(_eq_df.o)
                                0x203 (size before relaxing)
 .debug_str     0x00002f91        0x8 /OPT/altera/12.1/nios2eds/bin/gnu/H-i686-pc-linux-gnu/bin/../lib/gcc/nios2-elf/4.1.2/libgcc.a(_ne_df.o)
                                0x203 (size before relaxing)
 .debug_str     0x00002f99        0x8 /OPT/altera/12.1/nios2eds/bin/gnu/H-i686-pc-linux-gnu/bin/../lib/gcc/nios2-elf/4.1.2/libgcc.a(_gt_df.o)
                                0x203 (size before relaxing)
 .debug_str     0x00002fa1        0x8 /OPT/altera/12.1/nios2eds/bin/gnu/H-i686-pc-linux-gnu/bin/../lib/gcc/nios2-elf/4.1.2/libgcc.a(_ge_df.o)
                                0x203 (size before relaxing)
 .debug_str     0x00002fa9        0x8 /OPT/altera/12.1/nios2eds/bin/gnu/H-i686-pc-linux-gnu/bin/../lib/gcc/nios2-elf/4.1.2/libgcc.a(_lt_df.o)
                                0x203 (size before relaxing)
 .debug_str     0x00002fb1        0x8 /OPT/altera/12.1/nios2eds/bin/gnu/H-i686-pc-linux-gnu/bin/../lib/gcc/nios2-elf/4.1.2/libgcc.a(_le_df.o)
                                0x203 (size before relaxing)
 .debug_str     0x00002fb9       0x18 /OPT/altera/12.1/nios2eds/bin/gnu/H-i686-pc-linux-gnu/bin/../lib/gcc/nios2-elf/4.1.2/libgcc.a(_si_to_df.o)
                                0x1e3 (size before relaxing)
 .debug_str     0x00002fd1        0xa /OPT/altera/12.1/nios2eds/bin/gnu/H-i686-pc-linux-gnu/bin/../lib/gcc/nios2-elf/4.1.2/libgcc.a(_df_to_si.o)
                                0x20c (size before relaxing)
 .debug_str     0x00002fdb       0x14 /OPT/altera/12.1/nios2eds/bin/gnu/H-i686-pc-linux-gnu/bin/../lib/gcc/nios2-elf/4.1.2/libgcc.a(_df_to_sf.o)
                                0x203 (size before relaxing)
 .debug_str     0x00000000      0x1a8 /OPT/altera/12.1/nios2eds/bin/gnu/H-i686-pc-linux-gnu/bin/../lib/gcc/nios2-elf/4.1.2/libgcc.a(_thenan_df.o)
 .debug_str     0x00002fef       0x14 /OPT/altera/12.1/nios2eds/bin/gnu/H-i686-pc-linux-gnu/bin/../lib/gcc/nios2-elf/4.1.2/libgcc.a(_usi_to_df.o)
                                0x1df (size before relaxing)
 .debug_str     0x00000000      0x166 /OPT/altera/12.1/nios2eds/bin/gnu/H-i686-pc-linux-gnu/bin/../lib/gcc/nios2-elf/4.1.2/libgcc.a(_clz.o)
 .debug_str     0x00003003        0x9 /OPT/altera/12.1/nios2eds/bin/gnu/H-i686-pc-linux-gnu/bin/../lib/gcc/nios2-elf/4.1.2/libgcc.a(_clzsi2.o)
                                0x183 (size before relaxing)
 .debug_str     0x0000300c        0xb /OPT/altera/12.1/nios2eds/bin/gnu/H-i686-pc-linux-gnu/bin/../lib/gcc/nios2-elf/4.1.2/libgcc.a(_unpack_sf.o)
                                0x1e7 (size before relaxing)
 .debug_str     0x00003017       0x10 /OPT/altera/12.1/nios2eds/bin/gnu/H-i686-pc-linux-gnu/bin/../lib/gcc/nios2-elf/4.1.2/libgcc.a(_fpcmp_parts_sf.o)
                                0x1cb (size before relaxing)
 .debug_str     0x00003027        0xa /OPT/altera/12.1/nios2eds/bin/gnu/H-i686-pc-linux-gnu/bin/../lib/gcc/nios2-elf/4.1.2/libgcc.a(_make_sf.o)
                                0x1be (size before relaxing)
 .debug_str     0x00003031       0x10 /OPT/altera/12.1/nios2eds/bin/gnu/H-i686-pc-linux-gnu/bin/../lib/gcc/nios2-elf/4.1.2/libgcc.a(_pack_df.o)
                                0x20b (size before relaxing)
 .debug_str     0x00003041        0xb /OPT/altera/12.1/nios2eds/bin/gnu/H-i686-pc-linux-gnu/bin/../lib/gcc/nios2-elf/4.1.2/libgcc.a(_unpack_df.o)
                                0x1ed (size before relaxing)
 .debug_str     0x0000304c       0x10 /OPT/altera/12.1/nios2eds/bin/gnu/H-i686-pc-linux-gnu/bin/../lib/gcc/nios2-elf/4.1.2/libgcc.a(_fpcmp_parts_df.o)
                                0x1cb (size before relaxing)
 .debug_str     0x0000305c        0x9 /OPT/altera/12.1/nios2eds/bin/gnu/H-i686-pc-linux-gnu/bin/../lib/gcc/nios2-elf/4.1.2/libgcc.a(_pack_sf.o)
                                0x205 (size before relaxing)
 .debug_str     0x00003065       0x12 ../Webserver_bsp//libucosii_bsp.a(alt_dcache_flush.o)
 .debug_str     0x00003077       0x2d ../Webserver_bsp//libucosii_bsp.a(alt_flash_dev.o)
 .debug_str     0x000030a4       0x12 ../Webserver_bsp//libucosii_bsp.a(alt_fstat.o)
 .debug_str     0x000030b6       0x21 ../Webserver_bsp//libucosii_bsp.a(alt_irq_register.o)
 .debug_str     0x000030d7       0x12 ../Webserver_bsp//libucosii_bsp.a(alt_isatty.o)
 .debug_str     0x000030e9       0x12 ../Webserver_bsp//libucosii_bsp.a(alt_lseek.o)
 .debug_str     0x000030fb       0x12 ../Webserver_bsp//libucosii_bsp.a(alt_main.o)
 .debug_str     0x0000310d       0x12 ../Webserver_bsp//libucosii_bsp.a(alt_open.o)
 .debug_str     0x0000311f       0x12 ../Webserver_bsp//libucosii_bsp.a(alt_release_fd.o)
 .debug_str     0x00003131       0x1a ../Webserver_bsp//libucosii_bsp.a(alt_sbrk.o)
 .debug_str     0x0000314b       0x1a ../Webserver_bsp//libucosii_bsp.a(alt_tick.o)
 .debug_str     0x00003165       0x12 ../Webserver_bsp//libucosii_bsp.a(alt_usleep.o)
 .debug_str     0x00003177       0x36 ../Webserver_bsp//libucosii_bsp.a(alt_env_lock.o)
 .debug_str     0x000031ad       0x36 ../Webserver_bsp//libucosii_bsp.a(alt_malloc_lock.o)
 .debug_str     0x000031e3       0x46 ../Webserver_bsp//libucosii_bsp.a(os_core.o)
 .debug_str     0x00003229       0x2b ../Webserver_bsp//libucosii_bsp.a(os_dbg.o)
 .debug_str     0x00003254       0x4e ../Webserver_bsp//libucosii_bsp.a(os_flag.o)
 .debug_str     0x000032a2       0x36 ../Webserver_bsp//libucosii_bsp.a(os_mbox.o)
 .debug_str     0x000032d8       0x2c ../Webserver_bsp//libucosii_bsp.a(os_mem.o)
 .debug_str     0x00003304       0x36 ../Webserver_bsp//libucosii_bsp.a(os_q.o)
 .debug_str     0x0000333a       0x36 ../Webserver_bsp//libucosii_bsp.a(os_sem.o)
 .debug_str     0x00003370       0x23 ../Webserver_bsp//libucosii_bsp.a(os_task.o)
 .debug_str     0x00003393       0x1f ../Webserver_bsp//libucosii_bsp.a(os_time.o)
 .debug_str     0x000033b2       0x5f ../Webserver_bsp//libucosii_bsp.a(alt_sys_init.o)
 .debug_str     0x00003411       0x12 ../Webserver_bsp//libucosii_bsp.a(altera_avalon_jtag_uart_fd.o)
 .debug_str     0x00003423       0x1a ../Webserver_bsp//libucosii_bsp.a(altera_avalon_jtag_uart_init.o)
 .debug_str     0x0000343d       0x12 ../Webserver_bsp//libucosii_bsp.a(altera_avalon_jtag_uart_ioctl.o)
 .debug_str     0x0000344f       0x22 ../Webserver_bsp//libucosii_bsp.a(altera_avalon_jtag_uart_read.o)
 .debug_str     0x00003471       0x22 ../Webserver_bsp//libucosii_bsp.a(altera_avalon_jtag_uart_write.o)
 .debug_str     0x00003493       0x12 ../Webserver_bsp//libucosii_bsp.a(altera_avalon_timer_sc.o)
 .debug_str     0x000034a5       0x95 ../Webserver_bsp//libucosii_bsp.a(altera_ro_zipfs.o)
 .debug_str     0x0000353a       0x55 ../Webserver_bsp//libucosii_bsp.a(altera_up_avalon_character_lcd.o)
 .debug_str     0x0000358f       0x12 ../Webserver_bsp//libucosii_bsp.a(alt_iniche_close.o)
 .debug_str     0x000035a1       0x12 ../Webserver_bsp//libucosii_bsp.a(alt_iniche_dev.o)
 .debug_str     0x000035b3       0x12 ../Webserver_bsp//libucosii_bsp.a(alt_iniche_read.o)
 .debug_str     0x000035c5       0x12 ../Webserver_bsp//libucosii_bsp.a(alt_iniche_write.o)
 .debug_str     0x000035d7       0x12 ../Webserver_bsp//libucosii_bsp.a(ipnet.o)
 .debug_str     0x000035e9       0x12 ../Webserver_bsp//libucosii_bsp.a(ipstart.o)
 .debug_str     0x000035fb       0x12 ../Webserver_bsp//libucosii_bsp.a(igmp_cmn.o)
 .debug_str     0x0000360d       0x20 ../Webserver_bsp//libucosii_bsp.a(bsdsock.o)
 .debug_str     0x0000362d       0x12 ../Webserver_bsp//libucosii_bsp.a(cksum.o)
 .debug_str     0x0000363f       0x12 ../Webserver_bsp//libucosii_bsp.a(in_utils.o)
 .debug_str     0x00003651       0x12 ../Webserver_bsp//libucosii_bsp.a(netmain.o)
 .debug_str     0x00003663       0x12 ../Webserver_bsp//libucosii_bsp.a(parseip.o)
 .debug_str     0x00003675       0x12 ../Webserver_bsp//libucosii_bsp.a(tk_crnos.o)
 .debug_str     0x00003687       0x2e ../Webserver_bsp//libucosii_bsp.a(dhcpclnt.o)
 .debug_str     0x000036b5       0x12 ../Webserver_bsp//libucosii_bsp.a(dhcputil.o)
 .debug_str     0x000036c7       0x12 ../Webserver_bsp//libucosii_bsp.a(pktalloc.o)
 .debug_str     0x000036d9       0x12 ../Webserver_bsp//libucosii_bsp.a(q.o)
 .debug_str     0x000036eb       0x12 ../Webserver_bsp//libucosii_bsp.a(udp_open.o)
 .debug_str     0x000036fd       0x20 ../Webserver_bsp//libucosii_bsp.a(brdutils.o)
 .debug_str     0x0000371d       0x22 ../Webserver_bsp//libucosii_bsp.a(osportco.o)
 .debug_str     0x0000373f       0x12 ../Webserver_bsp//libucosii_bsp.a(targnios.o)
 .debug_str     0x00003751       0x1e ../Webserver_bsp//libucosii_bsp.a(nptcp.o)
 .debug_str     0x0000376f       0x12 ../Webserver_bsp//libucosii_bsp.a(rawsock.o)
 .debug_str     0x00003781       0x34 ../Webserver_bsp//libucosii_bsp.a(sockcall.o)
 .debug_str     0x000037b5       0x18 ../Webserver_bsp//libucosii_bsp.a(socket.o)
 .debug_str     0x000037cd       0x12 ../Webserver_bsp//libucosii_bsp.a(socket2.o)
 .debug_str     0x000037df       0x12 ../Webserver_bsp//libucosii_bsp.a(soselect.o)
 .debug_str     0x000037f1       0x12 ../Webserver_bsp//libucosii_bsp.a(tcp_in.o)
 .debug_str     0x00003803       0x12 ../Webserver_bsp//libucosii_bsp.a(tcp_out.o)
 .debug_str     0x00003815       0x12 ../Webserver_bsp//libucosii_bsp.a(tcp_subr.o)
 .debug_str     0x00003827       0x12 ../Webserver_bsp//libucosii_bsp.a(tcp_timr.o)
 .debug_str     0x00003839       0x12 ../Webserver_bsp//libucosii_bsp.a(tcp_usr.o)
 .debug_str     0x0000384b       0x12 ../Webserver_bsp//libucosii_bsp.a(tcpport.o)
 .debug_str     0x0000385d       0x1a ../Webserver_bsp//libucosii_bsp.a(udpsock.o)
 .debug_str     0x00003877       0x23 ../Webserver_bsp//libucosii_bsp.a(alt_alarm_start.o)
 .debug_str     0x0000389a       0x12 ../Webserver_bsp//libucosii_bsp.a(alt_busy_sleep.o)
 .debug_str     0x000038ac       0x12 ../Webserver_bsp//libucosii_bsp.a(alt_close.o)
 .debug_str     0x000038be       0x12 ../Webserver_bsp//libucosii_bsp.a(alt_dev.o)
 .debug_str     0x000038d0       0x12 ../Webserver_bsp//libucosii_bsp.a(alt_dev_llist_insert.o)
 .debug_str     0x000038e2       0x12 ../Webserver_bsp//libucosii_bsp.a(alt_errno.o)
 .debug_str     0x000038f4       0x12 ../Webserver_bsp//libucosii_bsp.a(alt_find_dev.o)
 .debug_str     0x00003906       0x12 ../Webserver_bsp//libucosii_bsp.a(alt_find_file.o)
 .debug_str     0x00003918       0x12 ../Webserver_bsp//libucosii_bsp.a(alt_fs_reg.o)
 .debug_str     0x0000392a       0x12 ../Webserver_bsp//libucosii_bsp.a(alt_get_fd.o)
 .debug_str     0x0000393c       0x18 ../Webserver_bsp//libucosii_bsp.a(alt_iic.o)
 .debug_str     0x00003954       0x1a ../Webserver_bsp//libucosii_bsp.a(alt_iic_isr_register.o)
 .debug_str     0x0000396e       0x12 ../Webserver_bsp//libucosii_bsp.a(alt_io_redirect.o)
 .debug_str     0x00003980       0x12 ../Webserver_bsp//libucosii_bsp.a(alt_irq_handler.o)
 .debug_str     0x00003992       0x12 ../Webserver_bsp//libucosii_bsp.a(alt_read.o)
 .debug_str     0x000039a4       0x12 ../Webserver_bsp//libucosii_bsp.a(alt_remap_cached.o)
 .debug_str     0x000039b6       0x12 ../Webserver_bsp//libucosii_bsp.a(alt_remap_uncached.o)
 .debug_str     0x000039c8       0x12 ../Webserver_bsp//libucosii_bsp.a(alt_write.o)
 .debug_str     0x000039da       0x12 ../Webserver_bsp//libucosii_bsp.a(altera_nios2_qsys_irq.o)
 .debug_str     0x000039ec       0x20 ../Webserver_bsp//libucosii_bsp.a(os_cpu_c.o)
 .debug_str     0x00003a0c       0x12 ../Webserver_bsp//libucosii_bsp.a(allports.o)
 .debug_str     0x00003a1e       0x1b ../Webserver_bsp//libucosii_bsp.a(timeouts.o)
 .debug_str     0x00003a39       0x12 ../Webserver_bsp//libucosii_bsp.a(tk_misc.o)
 .debug_str     0x00003a4b       0x12 ../Webserver_bsp//libucosii_bsp.a(alt_iniche_fcntl.o)
 .debug_str     0x00003a5d       0x3d ../Webserver_bsp//libucosii_bsp.a(et_arp.o)
 .debug_str     0x00003a9a       0x12 ../Webserver_bsp//libucosii_bsp.a(iface.o)
 .debug_str     0x00003aac       0x2c ../Webserver_bsp//libucosii_bsp.a(ip.o)
 .debug_str     0x00003ad8       0x4e ../Webserver_bsp//libucosii_bsp.a(ip_reasm.o)
 .debug_str     0x00003b26       0x12 ../Webserver_bsp//libucosii_bsp.a(ipdemux.o)
 .debug_str     0x00003b38       0x12 ../Webserver_bsp//libucosii_bsp.a(ipmc.o)
 .debug_str     0x00003b4a       0x12 ../Webserver_bsp//libucosii_bsp.a(ipport.o)
 .debug_str     0x00003b5c       0x12 ../Webserver_bsp//libucosii_bsp.a(ipraw.o)
 .debug_str     0x00003b6e       0x12 ../Webserver_bsp//libucosii_bsp.a(iproute.o)
 .debug_str     0x00003b80       0x12 ../Webserver_bsp//libucosii_bsp.a(udp.o)
 .debug_str     0x00003b92       0x12 ../Webserver_bsp//libucosii_bsp.a(igmp.o)
 .debug_str     0x00003ba4       0x20 ../Webserver_bsp//libucosii_bsp.a(igmp2.o)
 .debug_str     0x00003bc4       0x12 ../Webserver_bsp//libucosii_bsp.a(ipopt.o)
 .debug_str     0x00003bd6       0x12 ../Webserver_bsp//libucosii_bsp.a(u_mctest.o)
 .debug_str     0x00003be8       0x12 ../Webserver_bsp//libucosii_bsp.a(dhcsetup.o)
 .debug_str     0x00003bfa       0x1b ../Webserver_bsp//libucosii_bsp.a(memdev.o)
 .debug_str     0x00003c15       0x12 ../Webserver_bsp//libucosii_bsp.a(tcpcksum.o)
 .debug_str     0x00003c27       0x12 ../Webserver_bsp//libucosii_bsp.a(in_pcb.o)
 .debug_str     0x00003c39       0x2b ../Webserver_bsp//libucosii_bsp.a(vfsfiles.o)
 .debug_str     0x00003c64       0x12 ../Webserver_bsp//libucosii_bsp.a(vfsport.o)
 .debug_str     0x00003c76       0x12 ../Webserver_bsp//libucosii_bsp.a(alt_fcntl.o)
 .debug_str     0x00003c88       0x12 ../Webserver_bsp//libucosii_bsp.a(icmp.o)
 .debug_str     0x00003c9a       0x3b /OPT/altera/12.1/nios2eds/bin/gnu/H-i686-pc-linux-gnu/bin/../lib/gcc/nios2-elf/4.1.2/../../../../nios2-elf/lib/libc.a(lib_a-atexit.o)
                                0x1c4 (size before relaxing)
 .debug_str     0x00003cd5       0x42 /OPT/altera/12.1/nios2eds/bin/gnu/H-i686-pc-linux-gnu/bin/../lib/gcc/nios2-elf/4.1.2/../../../../nios2-elf/lib/libc.a(lib_a-calloc.o)
                                0x515 (size before relaxing)
 .debug_str     0x00003d17       0x39 /OPT/altera/12.1/nios2eds/bin/gnu/H-i686-pc-linux-gnu/bin/../lib/gcc/nios2-elf/4.1.2/../../../../nios2-elf/lib/libc.a(lib_a-exit.o)
                                0x511 (size before relaxing)
 .debug_str     0x00003d50       0x40 /OPT/altera/12.1/nios2eds/bin/gnu/H-i686-pc-linux-gnu/bin/../lib/gcc/nios2-elf/4.1.2/../../../../nios2-elf/lib/libc.a(lib_a-getc.o)
                                0x517 (size before relaxing)
 .debug_str     0x00003d90       0x40 /OPT/altera/12.1/nios2eds/bin/gnu/H-i686-pc-linux-gnu/bin/../lib/gcc/nios2-elf/4.1.2/../../../../nios2-elf/lib/libc.a(lib_a-malloc.o)
                                0x521 (size before relaxing)
 .debug_str     0x00003dd0       0x4a /OPT/altera/12.1/nios2eds/bin/gnu/H-i686-pc-linux-gnu/bin/../lib/gcc/nios2-elf/4.1.2/../../../../nios2-elf/lib/libc.a(lib_a-rget.o)
                                0x515 (size before relaxing)
 .debug_str     0x00003e1a       0x4e /OPT/altera/12.1/nios2eds/bin/gnu/H-i686-pc-linux-gnu/bin/../lib/gcc/nios2-elf/4.1.2/../../../../nios2-elf/lib/libc.a(lib_a-vprintf.o)
                                0x52b (size before relaxing)
 .debug_str     0x00003e68       0x51 /OPT/altera/12.1/nios2eds/bin/gnu/H-i686-pc-linux-gnu/bin/../lib/gcc/nios2-elf/4.1.2/../../../../nios2-elf/lib/libc.a(lib_a-vsprintf.o)
                                0x533 (size before relaxing)
 .debug_str     0x00003eb9       0x51 /OPT/altera/12.1/nios2eds/bin/gnu/H-i686-pc-linux-gnu/bin/../lib/gcc/nios2-elf/4.1.2/../../../../nios2-elf/lib/libc.a(lib_a-__atexit.o)
                                0x529 (size before relaxing)
 .debug_str     0x00003f0a       0x7b /OPT/altera/12.1/nios2eds/bin/gnu/H-i686-pc-linux-gnu/bin/../lib/gcc/nios2-elf/4.1.2/../../../../nios2-elf/lib/libc.a(lib_a-__call_atexit.o)
                                0x553 (size before relaxing)
 .debug_str     0x00003f85       0x1c ../Webserver_bsp//libucosii_bsp.a(alt_exit.o)

.debug_loc      0x00000000    0x1a898
 *(.debug_loc)
 .debug_loc     0x00000000       0x2b obj/default/alt_error_handler.o
 .debug_loc     0x0000002b      0x25a obj/default/dm9000a.o
 .debug_loc     0x00000285      0x40c obj/default/http.o
 .debug_loc     0x00000691      0x159 obj/default/network_utilities.o
 .debug_loc     0x000007ea       0x84 obj/default/srec_flash.o
 .debug_loc     0x0000086e      0x12e obj/default/web_server.o
 .debug_loc     0x0000099c      0x1d2 /OPT/altera/12.1/nios2eds/bin/gnu/H-i686-pc-linux-gnu/bin/../lib/gcc/nios2-elf/4.1.2/libgcc.a(lib2-divmod.o)
 .debug_loc     0x00000b6e       0x39 /OPT/altera/12.1/nios2eds/bin/gnu/H-i686-pc-linux-gnu/bin/../lib/gcc/nios2-elf/4.1.2/../../../../nios2-elf/lib/libc.a(lib_a-atoi.o)
 .debug_loc     0x00000ba7       0xe4 /OPT/altera/12.1/nios2eds/bin/gnu/H-i686-pc-linux-gnu/bin/../lib/gcc/nios2-elf/4.1.2/../../../../nios2-elf/lib/libc.a(lib_a-fclose.o)
 .debug_loc     0x00000c8b      0x1f6 /OPT/altera/12.1/nios2eds/bin/gnu/H-i686-pc-linux-gnu/bin/../lib/gcc/nios2-elf/4.1.2/../../../../nios2-elf/lib/libc.a(lib_a-fflush.o)
 .debug_loc     0x00000e81       0x9f /OPT/altera/12.1/nios2eds/bin/gnu/H-i686-pc-linux-gnu/bin/../lib/gcc/nios2-elf/4.1.2/../../../../nios2-elf/lib/libc.a(lib_a-fgetpos.o)
 .debug_loc     0x00000f20      0x19f /OPT/altera/12.1/nios2eds/bin/gnu/H-i686-pc-linux-gnu/bin/../lib/gcc/nios2-elf/4.1.2/../../../../nios2-elf/lib/libc.a(lib_a-findfp.o)
 .debug_loc     0x000010bf      0x1c9 /OPT/altera/12.1/nios2eds/bin/gnu/H-i686-pc-linux-gnu/bin/../lib/gcc/nios2-elf/4.1.2/../../../../nios2-elf/lib/libc.a(lib_a-fopen.o)
 .debug_loc     0x00001288       0xf1 /OPT/altera/12.1/nios2eds/bin/gnu/H-i686-pc-linux-gnu/bin/../lib/gcc/nios2-elf/4.1.2/../../../../nios2-elf/lib/libc.a(lib_a-fprintf.o)
 .debug_loc     0x00001379      0x303 /OPT/altera/12.1/nios2eds/bin/gnu/H-i686-pc-linux-gnu/bin/../lib/gcc/nios2-elf/4.1.2/../../../../nios2-elf/lib/libc.a(lib_a-fread.o)
 .debug_loc     0x0000167c      0x4a7 /OPT/altera/12.1/nios2eds/bin/gnu/H-i686-pc-linux-gnu/bin/../lib/gcc/nios2-elf/4.1.2/../../../../nios2-elf/lib/libc.a(lib_a-freer.o)
 .debug_loc     0x00001b23      0x348 /OPT/altera/12.1/nios2eds/bin/gnu/H-i686-pc-linux-gnu/bin/../lib/gcc/nios2-elf/4.1.2/../../../../nios2-elf/lib/libc.a(lib_a-fseek.o)
 .debug_loc     0x00001e6b       0x79 /OPT/altera/12.1/nios2eds/bin/gnu/H-i686-pc-linux-gnu/bin/../lib/gcc/nios2-elf/4.1.2/../../../../nios2-elf/lib/libc.a(lib_a-fstatr.o)
 .debug_loc     0x00001ee4       0xe4 /OPT/altera/12.1/nios2eds/bin/gnu/H-i686-pc-linux-gnu/bin/../lib/gcc/nios2-elf/4.1.2/../../../../nios2-elf/lib/libc.a(lib_a-ftell.o)
 .debug_loc     0x00001fc8      0x1d2 /OPT/altera/12.1/nios2eds/bin/gnu/H-i686-pc-linux-gnu/bin/../lib/gcc/nios2-elf/4.1.2/../../../../nios2-elf/lib/libc.a(lib_a-fwalk.o)
 .debug_loc     0x0000219a      0x18e /OPT/altera/12.1/nios2eds/bin/gnu/H-i686-pc-linux-gnu/bin/../lib/gcc/nios2-elf/4.1.2/../../../../nios2-elf/lib/libc.a(lib_a-fwrite.o)
 .debug_loc     0x00002328      0x11c /OPT/altera/12.1/nios2eds/bin/gnu/H-i686-pc-linux-gnu/bin/../lib/gcc/nios2-elf/4.1.2/../../../../nios2-elf/lib/libc.a(lib_a-makebuf.o)
 .debug_loc     0x00002444      0xaeb /OPT/altera/12.1/nios2eds/bin/gnu/H-i686-pc-linux-gnu/bin/../lib/gcc/nios2-elf/4.1.2/../../../../nios2-elf/lib/libc.a(lib_a-mallocr.o)
 .debug_loc     0x00002f2f       0xca /OPT/altera/12.1/nios2eds/bin/gnu/H-i686-pc-linux-gnu/bin/../lib/gcc/nios2-elf/4.1.2/../../../../nios2-elf/lib/libc.a(lib_a-memcpy.o)
 .debug_loc     0x00002ff9      0x117 /OPT/altera/12.1/nios2eds/bin/gnu/H-i686-pc-linux-gnu/bin/../lib/gcc/nios2-elf/4.1.2/../../../../nios2-elf/lib/libc.a(lib_a-memmove.o)
 .debug_loc     0x00003110       0xa1 /OPT/altera/12.1/nios2eds/bin/gnu/H-i686-pc-linux-gnu/bin/../lib/gcc/nios2-elf/4.1.2/../../../../nios2-elf/lib/libc.a(lib_a-memset.o)
 .debug_loc     0x000031b1       0x97 /OPT/altera/12.1/nios2eds/bin/gnu/H-i686-pc-linux-gnu/bin/../lib/gcc/nios2-elf/4.1.2/../../../../nios2-elf/lib/libc.a(lib_a-openr.o)
 .debug_loc     0x00003248       0xa2 /OPT/altera/12.1/nios2eds/bin/gnu/H-i686-pc-linux-gnu/bin/../lib/gcc/nios2-elf/4.1.2/../../../../nios2-elf/lib/libc.a(lib_a-perror.o)
 .debug_loc     0x000032ea       0xcb /OPT/altera/12.1/nios2eds/bin/gnu/H-i686-pc-linux-gnu/bin/../lib/gcc/nios2-elf/4.1.2/../../../../nios2-elf/lib/libc.a(lib_a-printf.o)
 .debug_loc     0x000033b5       0xa2 /OPT/altera/12.1/nios2eds/bin/gnu/H-i686-pc-linux-gnu/bin/../lib/gcc/nios2-elf/4.1.2/../../../../nios2-elf/lib/libc.a(lib_a-puts.o)
 .debug_loc     0x00003457       0xd1 /OPT/altera/12.1/nios2eds/bin/gnu/H-i686-pc-linux-gnu/bin/../lib/gcc/nios2-elf/4.1.2/../../../../nios2-elf/lib/libc.a(lib_a-refill.o)
 .debug_loc     0x00003528       0x5b /OPT/altera/12.1/nios2eds/bin/gnu/H-i686-pc-linux-gnu/bin/../lib/gcc/nios2-elf/4.1.2/../../../../nios2-elf/lib/libc.a(lib_a-sbrkr.o)
 .debug_loc     0x00003583      0x23b /OPT/altera/12.1/nios2eds/bin/gnu/H-i686-pc-linux-gnu/bin/../lib/gcc/nios2-elf/4.1.2/../../../../nios2-elf/lib/libc.a(lib_a-snprintf.o)
 .debug_loc     0x000037be       0xc0 /OPT/altera/12.1/nios2eds/bin/gnu/H-i686-pc-linux-gnu/bin/../lib/gcc/nios2-elf/4.1.2/../../../../nios2-elf/lib/libc.a(lib_a-sprintf.o)
 .debug_loc     0x0000387e       0xc0 /OPT/altera/12.1/nios2eds/bin/gnu/H-i686-pc-linux-gnu/bin/../lib/gcc/nios2-elf/4.1.2/../../../../nios2-elf/lib/libc.a(lib_a-sscanf.o)
 .debug_loc     0x0000393e      0x21f /OPT/altera/12.1/nios2eds/bin/gnu/H-i686-pc-linux-gnu/bin/../lib/gcc/nios2-elf/4.1.2/../../../../nios2-elf/lib/libc.a(lib_a-stdio.o)
 .debug_loc     0x00003b5d       0x88 /OPT/altera/12.1/nios2eds/bin/gnu/H-i686-pc-linux-gnu/bin/../lib/gcc/nios2-elf/4.1.2/../../../../nios2-elf/lib/libc.a(lib_a-strcasecmp.o)
 .debug_loc     0x00003be5       0x8f /OPT/altera/12.1/nios2eds/bin/gnu/H-i686-pc-linux-gnu/bin/../lib/gcc/nios2-elf/4.1.2/../../../../nios2-elf/lib/libc.a(lib_a-strcat.o)
 .debug_loc     0x00003c74       0xf3 /OPT/altera/12.1/nios2eds/bin/gnu/H-i686-pc-linux-gnu/bin/../lib/gcc/nios2-elf/4.1.2/../../../../nios2-elf/lib/libc.a(lib_a-strchr.o)
 .debug_loc     0x00003d67       0x65 /OPT/altera/12.1/nios2eds/bin/gnu/H-i686-pc-linux-gnu/bin/../lib/gcc/nios2-elf/4.1.2/../../../../nios2-elf/lib/libc.a(lib_a-strcmp.o)
 .debug_loc     0x00003dcc       0x8b /OPT/altera/12.1/nios2eds/bin/gnu/H-i686-pc-linux-gnu/bin/../lib/gcc/nios2-elf/4.1.2/../../../../nios2-elf/lib/libc.a(lib_a-strcpy.o)
 .debug_loc     0x00003e57      0x418 /OPT/altera/12.1/nios2eds/bin/gnu/H-i686-pc-linux-gnu/bin/../lib/gcc/nios2-elf/4.1.2/../../../../nios2-elf/lib/libc.a(lib_a-strerror.o)
 .debug_loc     0x0000426f       0x3c /OPT/altera/12.1/nios2eds/bin/gnu/H-i686-pc-linux-gnu/bin/../lib/gcc/nios2-elf/4.1.2/../../../../nios2-elf/lib/libc.a(lib_a-strlen.o)
 .debug_loc     0x000042ab       0x78 /OPT/altera/12.1/nios2eds/bin/gnu/H-i686-pc-linux-gnu/bin/../lib/gcc/nios2-elf/4.1.2/../../../../nios2-elf/lib/libc.a(lib_a-strncmp.o)
 .debug_loc     0x00004323       0xeb /OPT/altera/12.1/nios2eds/bin/gnu/H-i686-pc-linux-gnu/bin/../lib/gcc/nios2-elf/4.1.2/../../../../nios2-elf/lib/libc.a(lib_a-strncpy.o)
 .debug_loc     0x0000440e      0xa24 /OPT/altera/12.1/nios2eds/bin/gnu/H-i686-pc-linux-gnu/bin/../lib/gcc/nios2-elf/4.1.2/../../../../nios2-elf/lib/libc.a(lib_a-strstr.o)
 .debug_loc     0x00004e32       0x26 /OPT/altera/12.1/nios2eds/bin/gnu/H-i686-pc-linux-gnu/bin/../lib/gcc/nios2-elf/4.1.2/../../../../nios2-elf/lib/libc.a(lib_a-strtok.o)
 .debug_loc     0x00004e58       0xc7 /OPT/altera/12.1/nios2eds/bin/gnu/H-i686-pc-linux-gnu/bin/../lib/gcc/nios2-elf/4.1.2/../../../../nios2-elf/lib/libc.a(lib_a-strtok_r.o)
 .debug_loc     0x00004f1f      0x346 /OPT/altera/12.1/nios2eds/bin/gnu/H-i686-pc-linux-gnu/bin/../lib/gcc/nios2-elf/4.1.2/../../../../nios2-elf/lib/libc.a(lib_a-strtol.o)
 .debug_loc     0x00005265     0x1e0d /OPT/altera/12.1/nios2eds/bin/gnu/H-i686-pc-linux-gnu/bin/../lib/gcc/nios2-elf/4.1.2/../../../../nios2-elf/lib/libc.a(lib_a-vfprintf.o)
 .debug_loc     0x00007072     0x13ff /OPT/altera/12.1/nios2eds/bin/gnu/H-i686-pc-linux-gnu/bin/../lib/gcc/nios2-elf/4.1.2/../../../../nios2-elf/lib/libc.a(lib_a-vfscanf.o)
 .debug_loc     0x00008471       0x97 /OPT/altera/12.1/nios2eds/bin/gnu/H-i686-pc-linux-gnu/bin/../lib/gcc/nios2-elf/4.1.2/../../../../nios2-elf/lib/libc.a(lib_a-writer.o)
 .debug_loc     0x00008508       0x7c /OPT/altera/12.1/nios2eds/bin/gnu/H-i686-pc-linux-gnu/bin/../lib/gcc/nios2-elf/4.1.2/../../../../nios2-elf/lib/libc.a(lib_a-wsetup.o)
 .debug_loc     0x00008584       0x5b /OPT/altera/12.1/nios2eds/bin/gnu/H-i686-pc-linux-gnu/bin/../lib/gcc/nios2-elf/4.1.2/../../../../nios2-elf/lib/libc.a(lib_a-closer.o)
 .debug_loc     0x000085df     0x1dfa /OPT/altera/12.1/nios2eds/bin/gnu/H-i686-pc-linux-gnu/bin/../lib/gcc/nios2-elf/4.1.2/../../../../nios2-elf/lib/libc.a(lib_a-dtoa.o)
 .debug_loc     0x0000a3d9       0xa4 /OPT/altera/12.1/nios2eds/bin/gnu/H-i686-pc-linux-gnu/bin/../lib/gcc/nios2-elf/4.1.2/../../../../nios2-elf/lib/libc.a(lib_a-flags.o)
 .debug_loc     0x0000a47d      0x14d /OPT/altera/12.1/nios2eds/bin/gnu/H-i686-pc-linux-gnu/bin/../lib/gcc/nios2-elf/4.1.2/../../../../nios2-elf/lib/libc.a(lib_a-fputc.o)
 .debug_loc     0x0000a5ca       0xcb /OPT/altera/12.1/nios2eds/bin/gnu/H-i686-pc-linux-gnu/bin/../lib/gcc/nios2-elf/4.1.2/../../../../nios2-elf/lib/libc.a(lib_a-fputs.o)
 .debug_loc     0x0000a695      0x4e4 /OPT/altera/12.1/nios2eds/bin/gnu/H-i686-pc-linux-gnu/bin/../lib/gcc/nios2-elf/4.1.2/../../../../nios2-elf/lib/libc.a(lib_a-fvwrite.o)
 .debug_loc     0x0000ab79       0x5b /OPT/altera/12.1/nios2eds/bin/gnu/H-i686-pc-linux-gnu/bin/../lib/gcc/nios2-elf/4.1.2/../../../../nios2-elf/lib/libc.a(lib_a-isattyr.o)
 .debug_loc     0x0000abd4       0xe1 /OPT/altera/12.1/nios2eds/bin/gnu/H-i686-pc-linux-gnu/bin/../lib/gcc/nios2-elf/4.1.2/../../../../nios2-elf/lib/libc.a(lib_a-locale.o)
 .debug_loc     0x0000acb5       0x97 /OPT/altera/12.1/nios2eds/bin/gnu/H-i686-pc-linux-gnu/bin/../lib/gcc/nios2-elf/4.1.2/../../../../nios2-elf/lib/libc.a(lib_a-lseekr.o)
 .debug_loc     0x0000ad4c      0x182 /OPT/altera/12.1/nios2eds/bin/gnu/H-i686-pc-linux-gnu/bin/../lib/gcc/nios2-elf/4.1.2/../../../../nios2-elf/lib/libc.a(lib_a-mbrtowc.o)
 .debug_loc     0x0000aece       0x1f /OPT/altera/12.1/nios2eds/bin/gnu/H-i686-pc-linux-gnu/bin/../lib/gcc/nios2-elf/4.1.2/../../../../nios2-elf/lib/libc.a(lib_a-mbtowc_r.o)
 .debug_loc     0x0000aeed      0x106 /OPT/altera/12.1/nios2eds/bin/gnu/H-i686-pc-linux-gnu/bin/../lib/gcc/nios2-elf/4.1.2/../../../../nios2-elf/lib/libc.a(lib_a-memchr.o)
 .debug_loc     0x0000aff3      0x114 /OPT/altera/12.1/nios2eds/bin/gnu/H-i686-pc-linux-gnu/bin/../lib/gcc/nios2-elf/4.1.2/../../../../nios2-elf/lib/libc.a(lib_a-memcmp.o)
 .debug_loc     0x0000b107     0x14d6 /OPT/altera/12.1/nios2eds/bin/gnu/H-i686-pc-linux-gnu/bin/../lib/gcc/nios2-elf/4.1.2/../../../../nios2-elf/lib/libc.a(lib_a-mprec.o)
 .debug_loc     0x0000c5dd      0x20d /OPT/altera/12.1/nios2eds/bin/gnu/H-i686-pc-linux-gnu/bin/../lib/gcc/nios2-elf/4.1.2/../../../../nios2-elf/lib/libc.a(lib_a-putc.o)
 .debug_loc     0x0000c7ea       0x97 /OPT/altera/12.1/nios2eds/bin/gnu/H-i686-pc-linux-gnu/bin/../lib/gcc/nios2-elf/4.1.2/../../../../nios2-elf/lib/libc.a(lib_a-readr.o)
 .debug_loc     0x0000c881      0x8c0 /OPT/altera/12.1/nios2eds/bin/gnu/H-i686-pc-linux-gnu/bin/../lib/gcc/nios2-elf/4.1.2/../../../../nios2-elf/lib/libc.a(lib_a-reallocr.o)
 .debug_loc     0x0000d141       0x36 /OPT/altera/12.1/nios2eds/bin/gnu/H-i686-pc-linux-gnu/bin/../lib/gcc/nios2-elf/4.1.2/../../../../nios2-elf/lib/libc.a(lib_a-s_isinfd.o)
 .debug_loc     0x0000d177       0x18 /OPT/altera/12.1/nios2eds/bin/gnu/H-i686-pc-linux-gnu/bin/../lib/gcc/nios2-elf/4.1.2/../../../../nios2-elf/lib/libc.a(lib_a-s_isnand.o)
 .debug_loc     0x0000d18f       0xdb /OPT/altera/12.1/nios2eds/bin/gnu/H-i686-pc-linux-gnu/bin/../lib/gcc/nios2-elf/4.1.2/../../../../nios2-elf/lib/libc.a(lib_a-sccl.o)
 .debug_loc     0x0000d26a     0x243e /OPT/altera/12.1/nios2eds/bin/gnu/H-i686-pc-linux-gnu/bin/../lib/gcc/nios2-elf/4.1.2/../../../../nios2-elf/lib/libc.a(lib_a-strtod.o)
 .debug_loc     0x0000f6a8      0x30f /OPT/altera/12.1/nios2eds/bin/gnu/H-i686-pc-linux-gnu/bin/../lib/gcc/nios2-elf/4.1.2/../../../../nios2-elf/lib/libc.a(lib_a-strtoll_r.o)
 .debug_loc     0x0000f9b7      0x263 /OPT/altera/12.1/nios2eds/bin/gnu/H-i686-pc-linux-gnu/bin/../lib/gcc/nios2-elf/4.1.2/../../../../nios2-elf/lib/libc.a(lib_a-strtoul.o)
 .debug_loc     0x0000fc1a      0x282 /OPT/altera/12.1/nios2eds/bin/gnu/H-i686-pc-linux-gnu/bin/../lib/gcc/nios2-elf/4.1.2/../../../../nios2-elf/lib/libc.a(lib_a-strtoull_r.o)
 .debug_loc     0x0000fe9c      0x207 /OPT/altera/12.1/nios2eds/bin/gnu/H-i686-pc-linux-gnu/bin/../lib/gcc/nios2-elf/4.1.2/../../../../nios2-elf/lib/libc.a(lib_a-ungetc.o)
 .debug_loc     0x000100a3      0x157 /OPT/altera/12.1/nios2eds/bin/gnu/H-i686-pc-linux-gnu/bin/../lib/gcc/nios2-elf/4.1.2/../../../../nios2-elf/lib/libc.a(lib_a-wbuf.o)
 .debug_loc     0x000101fa       0xe9 /OPT/altera/12.1/nios2eds/bin/gnu/H-i686-pc-linux-gnu/bin/../lib/gcc/nios2-elf/4.1.2/../../../../nios2-elf/lib/libc.a(lib_a-callocr.o)
 .debug_loc     0x000102e3      0xad2 /OPT/altera/12.1/nios2eds/bin/gnu/H-i686-pc-linux-gnu/bin/../lib/gcc/nios2-elf/4.1.2/../../../../nios2-elf/lib/libc.a(lib_a-gdtoa-gethex.o)
 .debug_loc     0x00010db5      0x2a6 /OPT/altera/12.1/nios2eds/bin/gnu/H-i686-pc-linux-gnu/bin/../lib/gcc/nios2-elf/4.1.2/../../../../nios2-elf/lib/libc.a(lib_a-gdtoa-hexnan.o)
 .debug_loc     0x0001105b       0xc4 /OPT/altera/12.1/nios2eds/bin/gnu/H-i686-pc-linux-gnu/bin/../lib/gcc/nios2-elf/4.1.2/libgcc.a(_muldi3.o)
 .debug_loc     0x0001111f       0x87 /OPT/altera/12.1/nios2eds/bin/gnu/H-i686-pc-linux-gnu/bin/../lib/gcc/nios2-elf/4.1.2/libgcc.a(_fixunsdfsi.o)
 .debug_loc     0x000111a6      0xc12 /OPT/altera/12.1/nios2eds/bin/gnu/H-i686-pc-linux-gnu/bin/../lib/gcc/nios2-elf/4.1.2/libgcc.a(_udivdi3.o)
 .debug_loc     0x00011db8      0xc26 /OPT/altera/12.1/nios2eds/bin/gnu/H-i686-pc-linux-gnu/bin/../lib/gcc/nios2-elf/4.1.2/libgcc.a(_umoddi3.o)
 .debug_loc     0x000129de       0x45 /OPT/altera/12.1/nios2eds/bin/gnu/H-i686-pc-linux-gnu/bin/../lib/gcc/nios2-elf/4.1.2/libgcc.a(_ne_sf.o)
 .debug_loc     0x00012a23       0x45 /OPT/altera/12.1/nios2eds/bin/gnu/H-i686-pc-linux-gnu/bin/../lib/gcc/nios2-elf/4.1.2/libgcc.a(_gt_sf.o)
 .debug_loc     0x00012a68       0x45 /OPT/altera/12.1/nios2eds/bin/gnu/H-i686-pc-linux-gnu/bin/../lib/gcc/nios2-elf/4.1.2/libgcc.a(_lt_sf.o)
 .debug_loc     0x00012aad      0x47a /OPT/altera/12.1/nios2eds/bin/gnu/H-i686-pc-linux-gnu/bin/../lib/gcc/nios2-elf/4.1.2/libgcc.a(_addsub_df.o)
 .debug_loc     0x00012f27      0x3b4 /OPT/altera/12.1/nios2eds/bin/gnu/H-i686-pc-linux-gnu/bin/../lib/gcc/nios2-elf/4.1.2/libgcc.a(_mul_df.o)
 .debug_loc     0x000132db      0x1df /OPT/altera/12.1/nios2eds/bin/gnu/H-i686-pc-linux-gnu/bin/../lib/gcc/nios2-elf/4.1.2/libgcc.a(_div_df.o)
 .debug_loc     0x000134ba       0x70 /OPT/altera/12.1/nios2eds/bin/gnu/H-i686-pc-linux-gnu/bin/../lib/gcc/nios2-elf/4.1.2/libgcc.a(_eq_df.o)
 .debug_loc     0x0001352a       0x70 /OPT/altera/12.1/nios2eds/bin/gnu/H-i686-pc-linux-gnu/bin/../lib/gcc/nios2-elf/4.1.2/libgcc.a(_ne_df.o)
 .debug_loc     0x0001359a       0x70 /OPT/altera/12.1/nios2eds/bin/gnu/H-i686-pc-linux-gnu/bin/../lib/gcc/nios2-elf/4.1.2/libgcc.a(_gt_df.o)
 .debug_loc     0x0001360a       0x70 /OPT/altera/12.1/nios2eds/bin/gnu/H-i686-pc-linux-gnu/bin/../lib/gcc/nios2-elf/4.1.2/libgcc.a(_ge_df.o)
 .debug_loc     0x0001367a       0x70 /OPT/altera/12.1/nios2eds/bin/gnu/H-i686-pc-linux-gnu/bin/../lib/gcc/nios2-elf/4.1.2/libgcc.a(_lt_df.o)
 .debug_loc     0x000136ea       0x70 /OPT/altera/12.1/nios2eds/bin/gnu/H-i686-pc-linux-gnu/bin/../lib/gcc/nios2-elf/4.1.2/libgcc.a(_le_df.o)
 .debug_loc     0x0001375a       0x9a /OPT/altera/12.1/nios2eds/bin/gnu/H-i686-pc-linux-gnu/bin/../lib/gcc/nios2-elf/4.1.2/libgcc.a(_si_to_df.o)
 .debug_loc     0x000137f4       0x8b /OPT/altera/12.1/nios2eds/bin/gnu/H-i686-pc-linux-gnu/bin/../lib/gcc/nios2-elf/4.1.2/libgcc.a(_df_to_si.o)
 .debug_loc     0x0001387f       0x6a /OPT/altera/12.1/nios2eds/bin/gnu/H-i686-pc-linux-gnu/bin/../lib/gcc/nios2-elf/4.1.2/libgcc.a(_df_to_sf.o)
 .debug_loc     0x000138e9       0x5b /OPT/altera/12.1/nios2eds/bin/gnu/H-i686-pc-linux-gnu/bin/../lib/gcc/nios2-elf/4.1.2/libgcc.a(_usi_to_df.o)
 .debug_loc     0x00013944       0x1e /OPT/altera/12.1/nios2eds/bin/gnu/H-i686-pc-linux-gnu/bin/../lib/gcc/nios2-elf/4.1.2/libgcc.a(_clzsi2.o)
 .debug_loc     0x00013962       0x31 /OPT/altera/12.1/nios2eds/bin/gnu/H-i686-pc-linux-gnu/bin/../lib/gcc/nios2-elf/4.1.2/libgcc.a(_unpack_sf.o)
 .debug_loc     0x00013993       0x3c /OPT/altera/12.1/nios2eds/bin/gnu/H-i686-pc-linux-gnu/bin/../lib/gcc/nios2-elf/4.1.2/libgcc.a(_fpcmp_parts_sf.o)
 .debug_loc     0x000139cf       0x6b /OPT/altera/12.1/nios2eds/bin/gnu/H-i686-pc-linux-gnu/bin/../lib/gcc/nios2-elf/4.1.2/libgcc.a(_make_sf.o)
 .debug_loc     0x00013a3a      0x184 /OPT/altera/12.1/nios2eds/bin/gnu/H-i686-pc-linux-gnu/bin/../lib/gcc/nios2-elf/4.1.2/libgcc.a(_pack_df.o)
 .debug_loc     0x00013bbe       0xe5 /OPT/altera/12.1/nios2eds/bin/gnu/H-i686-pc-linux-gnu/bin/../lib/gcc/nios2-elf/4.1.2/libgcc.a(_unpack_df.o)
 .debug_loc     0x00013ca3       0xf9 /OPT/altera/12.1/nios2eds/bin/gnu/H-i686-pc-linux-gnu/bin/../lib/gcc/nios2-elf/4.1.2/libgcc.a(_pack_sf.o)
 .debug_loc     0x00013d9c       0x2b ../Webserver_bsp//libucosii_bsp.a(alt_dcache_flush.o)
 .debug_loc     0x00013dc7       0x56 ../Webserver_bsp//libucosii_bsp.a(alt_flash_dev.o)
 .debug_loc     0x00013e1d       0x56 ../Webserver_bsp//libucosii_bsp.a(alt_fstat.o)
 .debug_loc     0x00013e73       0x2c ../Webserver_bsp//libucosii_bsp.a(alt_irq_register.o)
 .debug_loc     0x00013e9f       0x57 ../Webserver_bsp//libucosii_bsp.a(alt_isatty.o)
 .debug_loc     0x00013ef6       0x56 ../Webserver_bsp//libucosii_bsp.a(alt_lseek.o)
 .debug_loc     0x00013f4c       0x2b ../Webserver_bsp//libucosii_bsp.a(alt_main.o)
 .debug_loc     0x00013f77       0x81 ../Webserver_bsp//libucosii_bsp.a(alt_open.o)
 .debug_loc     0x00013ff8       0x2b ../Webserver_bsp//libucosii_bsp.a(alt_release_fd.o)
 .debug_loc     0x00014023       0x2b ../Webserver_bsp//libucosii_bsp.a(alt_sbrk.o)
 .debug_loc     0x0001404e       0x56 ../Webserver_bsp//libucosii_bsp.a(alt_tick.o)
 .debug_loc     0x000140a4       0x2b ../Webserver_bsp//libucosii_bsp.a(alt_usleep.o)
 .debug_loc     0x000140cf       0x57 ../Webserver_bsp//libucosii_bsp.a(alt_env_lock.o)
 .debug_loc     0x00014126       0x57 ../Webserver_bsp//libucosii_bsp.a(alt_malloc_lock.o)
 .debug_loc     0x0001417d      0x5e2 ../Webserver_bsp//libucosii_bsp.a(os_core.o)
 .debug_loc     0x0001475f       0x2b ../Webserver_bsp//libucosii_bsp.a(os_dbg.o)
 .debug_loc     0x0001478a      0x232 ../Webserver_bsp//libucosii_bsp.a(os_flag.o)
 .debug_loc     0x000149bc      0x158 ../Webserver_bsp//libucosii_bsp.a(os_mbox.o)
 .debug_loc     0x00014b14      0x12d ../Webserver_bsp//libucosii_bsp.a(os_mem.o)
 .debug_loc     0x00014c41      0x1da ../Webserver_bsp//libucosii_bsp.a(os_q.o)
 .debug_loc     0x00014e1b      0x158 ../Webserver_bsp//libucosii_bsp.a(os_sem.o)
 .debug_loc     0x00014f73      0x207 ../Webserver_bsp//libucosii_bsp.a(os_task.o)
 .debug_loc     0x0001517a       0xd7 ../Webserver_bsp//libucosii_bsp.a(os_time.o)
 .debug_loc     0x00015251       0x81 ../Webserver_bsp//libucosii_bsp.a(alt_sys_init.o)
 .debug_loc     0x000152d2       0xac ../Webserver_bsp//libucosii_bsp.a(altera_avalon_jtag_uart_fd.o)
 .debug_loc     0x0001537e       0xac ../Webserver_bsp//libucosii_bsp.a(altera_avalon_jtag_uart_init.o)
 .debug_loc     0x0001542a       0x2b ../Webserver_bsp//libucosii_bsp.a(altera_avalon_jtag_uart_ioctl.o)
 .debug_loc     0x00015455       0x2c ../Webserver_bsp//libucosii_bsp.a(altera_avalon_jtag_uart_read.o)
 .debug_loc     0x00015481       0x2c ../Webserver_bsp//libucosii_bsp.a(altera_avalon_jtag_uart_write.o)
 .debug_loc     0x000154ad       0x56 ../Webserver_bsp//libucosii_bsp.a(altera_avalon_timer_sc.o)
 .debug_loc     0x00015503      0x285 ../Webserver_bsp//libucosii_bsp.a(altera_ro_zipfs.o)
 .debug_loc     0x00015788      0x22f ../Webserver_bsp//libucosii_bsp.a(altera_up_avalon_character_lcd.o)
 .debug_loc     0x000159b7       0x2b ../Webserver_bsp//libucosii_bsp.a(alt_iniche_close.o)
 .debug_loc     0x000159e2       0x2b ../Webserver_bsp//libucosii_bsp.a(alt_iniche_dev.o)
 .debug_loc     0x00015a0d       0x2b ../Webserver_bsp//libucosii_bsp.a(alt_iniche_read.o)
 .debug_loc     0x00015a38       0x2b ../Webserver_bsp//libucosii_bsp.a(alt_iniche_write.o)
 .debug_loc     0x00015a63      0x102 ../Webserver_bsp//libucosii_bsp.a(ipnet.o)
 .debug_loc     0x00015b65       0xac ../Webserver_bsp//libucosii_bsp.a(ipstart.o)
 .debug_loc     0x00015c11      0x159 ../Webserver_bsp//libucosii_bsp.a(igmp_cmn.o)
 .debug_loc     0x00015d6a      0x1af ../Webserver_bsp//libucosii_bsp.a(bsdsock.o)
 .debug_loc     0x00015f19       0x56 ../Webserver_bsp//libucosii_bsp.a(cksum.o)
 .debug_loc     0x00015f6f      0x204 ../Webserver_bsp//libucosii_bsp.a(in_utils.o)
 .debug_loc     0x00016173       0x81 ../Webserver_bsp//libucosii_bsp.a(netmain.o)
 .debug_loc     0x000161f4      0x183 ../Webserver_bsp//libucosii_bsp.a(parseip.o)
 .debug_loc     0x00016377      0x12f ../Webserver_bsp//libucosii_bsp.a(tk_crnos.o)
 .debug_loc     0x000164a6      0x35c ../Webserver_bsp//libucosii_bsp.a(dhcpclnt.o)
 .debug_loc     0x00016802       0x2b ../Webserver_bsp//libucosii_bsp.a(dhcputil.o)
 .debug_loc     0x0001682d      0x102 ../Webserver_bsp//libucosii_bsp.a(pktalloc.o)
 .debug_loc     0x0001692f       0x81 ../Webserver_bsp//libucosii_bsp.a(q.o)
 .debug_loc     0x000169b0       0x56 ../Webserver_bsp//libucosii_bsp.a(udp_open.o)
 .debug_loc     0x00016a06      0x158 ../Webserver_bsp//libucosii_bsp.a(brdutils.o)
 .debug_loc     0x00016b5e       0xd8 ../Webserver_bsp//libucosii_bsp.a(osportco.o)
 .debug_loc     0x00016c36      0x183 ../Webserver_bsp//libucosii_bsp.a(targnios.o)
 .debug_loc     0x00016db9      0x306 ../Webserver_bsp//libucosii_bsp.a(nptcp.o)
 .debug_loc     0x000170bf       0x82 ../Webserver_bsp//libucosii_bsp.a(rawsock.o)
 .debug_loc     0x00017141      0x332 ../Webserver_bsp//libucosii_bsp.a(sockcall.o)
 .debug_loc     0x00017473      0x2b1 ../Webserver_bsp//libucosii_bsp.a(socket.o)
 .debug_loc     0x00017724      0x3dd ../Webserver_bsp//libucosii_bsp.a(socket2.o)
 .debug_loc     0x00017b01      0x184 ../Webserver_bsp//libucosii_bsp.a(soselect.o)
 .debug_loc     0x00017c85      0x12e ../Webserver_bsp//libucosii_bsp.a(tcp_in.o)
 .debug_loc     0x00017db3       0x82 ../Webserver_bsp//libucosii_bsp.a(tcp_out.o)
 .debug_loc     0x00017e35      0x183 ../Webserver_bsp//libucosii_bsp.a(tcp_subr.o)
 .debug_loc     0x00017fb8       0x81 ../Webserver_bsp//libucosii_bsp.a(tcp_timr.o)
 .debug_loc     0x00018039       0xac ../Webserver_bsp//libucosii_bsp.a(tcp_usr.o)
 .debug_loc     0x000180e5       0x2b ../Webserver_bsp//libucosii_bsp.a(tcpport.o)
 .debug_loc     0x00018110      0x102 ../Webserver_bsp//libucosii_bsp.a(udpsock.o)
 .debug_loc     0x00018212       0x2b ../Webserver_bsp//libucosii_bsp.a(alt_alarm_start.o)
 .debug_loc     0x0001823d       0x2b ../Webserver_bsp//libucosii_bsp.a(alt_busy_sleep.o)
 .debug_loc     0x00018268       0x56 ../Webserver_bsp//libucosii_bsp.a(alt_close.o)
 .debug_loc     0x000182be       0x2b ../Webserver_bsp//libucosii_bsp.a(alt_dev.o)
 .debug_loc     0x000182e9       0x56 ../Webserver_bsp//libucosii_bsp.a(alt_dev_llist_insert.o)
 .debug_loc     0x0001833f       0x2b ../Webserver_bsp//libucosii_bsp.a(alt_do_ctors.o)
 .debug_loc     0x0001836a       0x2b ../Webserver_bsp//libucosii_bsp.a(alt_do_dtors.o)
 .debug_loc     0x00018395       0x2b ../Webserver_bsp//libucosii_bsp.a(alt_find_dev.o)
 .debug_loc     0x000183c0       0x2b ../Webserver_bsp//libucosii_bsp.a(alt_find_file.o)
 .debug_loc     0x000183eb       0x2b ../Webserver_bsp//libucosii_bsp.a(alt_fs_reg.o)
 .debug_loc     0x00018416       0x2b ../Webserver_bsp//libucosii_bsp.a(alt_get_fd.o)
 .debug_loc     0x00018441       0xac ../Webserver_bsp//libucosii_bsp.a(alt_iic.o)
 .debug_loc     0x000184ed       0x2b ../Webserver_bsp//libucosii_bsp.a(alt_iic_isr_register.o)
 .debug_loc     0x00018518       0x56 ../Webserver_bsp//libucosii_bsp.a(alt_io_redirect.o)
 .debug_loc     0x0001856e       0x2b ../Webserver_bsp//libucosii_bsp.a(alt_irq_handler.o)
 .debug_loc     0x00018599       0x56 ../Webserver_bsp//libucosii_bsp.a(alt_read.o)
 .debug_loc     0x000185ef       0x2b ../Webserver_bsp//libucosii_bsp.a(alt_remap_cached.o)
 .debug_loc     0x0001861a       0x2b ../Webserver_bsp//libucosii_bsp.a(alt_remap_uncached.o)
 .debug_loc     0x00018645       0x56 ../Webserver_bsp//libucosii_bsp.a(alt_write.o)
 .debug_loc     0x0001869b       0x2b ../Webserver_bsp//libucosii_bsp.a(altera_nios2_qsys_irq.o)
 .debug_loc     0x000186c6      0x1ae ../Webserver_bsp//libucosii_bsp.a(os_cpu_c.o)
 .debug_loc     0x00018874      0x12d ../Webserver_bsp//libucosii_bsp.a(allports.o)
 .debug_loc     0x000189a1       0xac ../Webserver_bsp//libucosii_bsp.a(timeouts.o)
 .debug_loc     0x00018a4d       0x56 ../Webserver_bsp//libucosii_bsp.a(tk_misc.o)
 .debug_loc     0x00018aa3       0x2b ../Webserver_bsp//libucosii_bsp.a(alt_iniche_fcntl.o)
 .debug_loc     0x00018ace      0x204 ../Webserver_bsp//libucosii_bsp.a(et_arp.o)
 .debug_loc     0x00018cd2       0xac ../Webserver_bsp//libucosii_bsp.a(iface.o)
 .debug_loc     0x00018d7e      0x207 ../Webserver_bsp//libucosii_bsp.a(ip.o)
 .debug_loc     0x00018f85      0x2b2 ../Webserver_bsp//libucosii_bsp.a(ip_reasm.o)
 .debug_loc     0x00019237       0x81 ../Webserver_bsp//libucosii_bsp.a(ipdemux.o)
 .debug_loc     0x000192b8       0x81 ../Webserver_bsp//libucosii_bsp.a(ipmc.o)
 .debug_loc     0x00019339       0x81 ../Webserver_bsp//libucosii_bsp.a(ipport.o)
 .debug_loc     0x000193ba      0x102 ../Webserver_bsp//libucosii_bsp.a(ipraw.o)
 .debug_loc     0x000194bc       0x81 ../Webserver_bsp//libucosii_bsp.a(iproute.o)
 .debug_loc     0x0001953d      0x12f ../Webserver_bsp//libucosii_bsp.a(udp.o)
 .debug_loc     0x0001966c       0x2b ../Webserver_bsp//libucosii_bsp.a(igmp.o)
 .debug_loc     0x00019697       0xd7 ../Webserver_bsp//libucosii_bsp.a(igmp2.o)
 .debug_loc     0x0001976e       0xac ../Webserver_bsp//libucosii_bsp.a(ipopt.o)
 .debug_loc     0x0001981a       0x57 ../Webserver_bsp//libucosii_bsp.a(u_mctest.o)
 .debug_loc     0x00019871       0x56 ../Webserver_bsp//libucosii_bsp.a(dhcsetup.o)
 .debug_loc     0x000198c7      0x183 ../Webserver_bsp//libucosii_bsp.a(memdev.o)
 .debug_loc     0x00019a4a       0x2b ../Webserver_bsp//libucosii_bsp.a(tcpcksum.o)
 .debug_loc     0x00019a75      0x158 ../Webserver_bsp//libucosii_bsp.a(in_pcb.o)
 .debug_loc     0x00019bcd      0x4b4 ../Webserver_bsp//libucosii_bsp.a(vfsfiles.o)
 .debug_loc     0x0001a081       0x2b ../Webserver_bsp//libucosii_bsp.a(vfsport.o)
 .debug_loc     0x0001a0ac       0x56 ../Webserver_bsp//libucosii_bsp.a(alt_fcntl.o)
 .debug_loc     0x0001a102       0xad ../Webserver_bsp//libucosii_bsp.a(icmp.o)
 .debug_loc     0x0001a1af       0x1e /OPT/altera/12.1/nios2eds/bin/gnu/H-i686-pc-linux-gnu/bin/../lib/gcc/nios2-elf/4.1.2/../../../../nios2-elf/lib/libc.a(lib_a-atexit.o)
 .debug_loc     0x0001a1cd       0x3c /OPT/altera/12.1/nios2eds/bin/gnu/H-i686-pc-linux-gnu/bin/../lib/gcc/nios2-elf/4.1.2/../../../../nios2-elf/lib/libc.a(lib_a-calloc.o)
 .debug_loc     0x0001a209       0x3d /OPT/altera/12.1/nios2eds/bin/gnu/H-i686-pc-linux-gnu/bin/../lib/gcc/nios2-elf/4.1.2/../../../../nios2-elf/lib/libc.a(lib_a-exit.o)
 .debug_loc     0x0001a246      0x10b /OPT/altera/12.1/nios2eds/bin/gnu/H-i686-pc-linux-gnu/bin/../lib/gcc/nios2-elf/4.1.2/../../../../nios2-elf/lib/libc.a(lib_a-getc.o)
 .debug_loc     0x0001a351       0x3c /OPT/altera/12.1/nios2eds/bin/gnu/H-i686-pc-linux-gnu/bin/../lib/gcc/nios2-elf/4.1.2/../../../../nios2-elf/lib/libc.a(lib_a-malloc.o)
 .debug_loc     0x0001a38d       0x6e /OPT/altera/12.1/nios2eds/bin/gnu/H-i686-pc-linux-gnu/bin/../lib/gcc/nios2-elf/4.1.2/../../../../nios2-elf/lib/libc.a(lib_a-rget.o)
 .debug_loc     0x0001a3fb       0x8b /OPT/altera/12.1/nios2eds/bin/gnu/H-i686-pc-linux-gnu/bin/../lib/gcc/nios2-elf/4.1.2/../../../../nios2-elf/lib/libc.a(lib_a-vprintf.o)
 .debug_loc     0x0001a486       0xd1 /OPT/altera/12.1/nios2eds/bin/gnu/H-i686-pc-linux-gnu/bin/../lib/gcc/nios2-elf/4.1.2/../../../../nios2-elf/lib/libc.a(lib_a-vsprintf.o)
 .debug_loc     0x0001a557      0x120 /OPT/altera/12.1/nios2eds/bin/gnu/H-i686-pc-linux-gnu/bin/../lib/gcc/nios2-elf/4.1.2/../../../../nios2-elf/lib/libc.a(lib_a-__atexit.o)
 .debug_loc     0x0001a677      0x1cb /OPT/altera/12.1/nios2eds/bin/gnu/H-i686-pc-linux-gnu/bin/../lib/gcc/nios2-elf/4.1.2/../../../../nios2-elf/lib/libc.a(lib_a-__call_atexit.o)
 .debug_loc     0x0001a842       0x56 ../Webserver_bsp//libucosii_bsp.a(alt_exit.o)

.debug_macinfo
 *(.debug_macinfo)

.debug_weaknames
 *(.debug_weaknames)

.debug_funcnames
 *(.debug_funcnames)

.debug_typenames
 *(.debug_typenames)

.debug_varnames
 *(.debug_varnames)

.debug_alt_sim_info
                0x00000000       0x50
 *(.debug_alt_sim_info)
 .debug_alt_sim_info
                0x00000000       0x20 ../Webserver_bsp//obj/HAL/src/crt0.o
 .debug_alt_sim_info
                0x00000020       0x30 ../Webserver_bsp//libucosii_bsp.a(alt_busy_sleep.o)
                0x01000000                __alt_data_end = 0x1000000
                0x01000000                PROVIDE (__alt_stack_pointer, __alt_data_end)
                0x00e475b4                PROVIDE (__alt_stack_limit, __alt_stack_base)
                0x00e475b4                PROVIDE (__alt_heap_start, end)
                0x01000000                PROVIDE (__alt_heap_limit, 0x1000000)
OUTPUT(Webserver.elf elf32-littlenios2)

.debug_ranges   0x00000000      0xd10
 .debug_ranges  0x00000000       0x30 obj/default/srec_flash.o
 .debug_ranges  0x00000030       0x20 /OPT/altera/12.1/nios2eds/bin/gnu/H-i686-pc-linux-gnu/bin/../lib/gcc/nios2-elf/4.1.2/../../../../nios2-elf/lib/libc.a(lib_a-fflush.o)
 .debug_ranges  0x00000050       0x18 /OPT/altera/12.1/nios2eds/bin/gnu/H-i686-pc-linux-gnu/bin/../lib/gcc/nios2-elf/4.1.2/../../../../nios2-elf/lib/libc.a(lib_a-fread.o)
 .debug_ranges  0x00000068       0xa0 /OPT/altera/12.1/nios2eds/bin/gnu/H-i686-pc-linux-gnu/bin/../lib/gcc/nios2-elf/4.1.2/../../../../nios2-elf/lib/libc.a(lib_a-fwalk.o)
 .debug_ranges  0x00000108       0x70 /OPT/altera/12.1/nios2eds/bin/gnu/H-i686-pc-linux-gnu/bin/../lib/gcc/nios2-elf/4.1.2/../../../../nios2-elf/lib/libc.a(lib_a-mallocr.o)
 .debug_ranges  0x00000178      0x1b8 /OPT/altera/12.1/nios2eds/bin/gnu/H-i686-pc-linux-gnu/bin/../lib/gcc/nios2-elf/4.1.2/../../../../nios2-elf/lib/libc.a(lib_a-strstr.o)
 .debug_ranges  0x00000330      0x168 /OPT/altera/12.1/nios2eds/bin/gnu/H-i686-pc-linux-gnu/bin/../lib/gcc/nios2-elf/4.1.2/../../../../nios2-elf/lib/libc.a(lib_a-vfprintf.o)
 .debug_ranges  0x00000498       0xd0 /OPT/altera/12.1/nios2eds/bin/gnu/H-i686-pc-linux-gnu/bin/../lib/gcc/nios2-elf/4.1.2/../../../../nios2-elf/lib/libc.a(lib_a-vfscanf.o)
 .debug_ranges  0x00000568       0x28 /OPT/altera/12.1/nios2eds/bin/gnu/H-i686-pc-linux-gnu/bin/../lib/gcc/nios2-elf/4.1.2/../../../../nios2-elf/lib/libc.a(lib_a-fvwrite.o)
 .debug_ranges  0x00000590      0x110 /OPT/altera/12.1/nios2eds/bin/gnu/H-i686-pc-linux-gnu/bin/../lib/gcc/nios2-elf/4.1.2/../../../../nios2-elf/lib/libc.a(lib_a-reallocr.o)
 .debug_ranges  0x000006a0       0x68 /OPT/altera/12.1/nios2eds/bin/gnu/H-i686-pc-linux-gnu/bin/../lib/gcc/nios2-elf/4.1.2/../../../../nios2-elf/lib/libc.a(lib_a-strtod.o)
 .debug_ranges  0x00000708       0x38 /OPT/altera/12.1/nios2eds/bin/gnu/H-i686-pc-linux-gnu/bin/../lib/gcc/nios2-elf/4.1.2/../../../../nios2-elf/lib/libc.a(lib_a-callocr.o)
 .debug_ranges  0x00000740       0x50 /OPT/altera/12.1/nios2eds/bin/gnu/H-i686-pc-linux-gnu/bin/../lib/gcc/nios2-elf/4.1.2/../../../../nios2-elf/lib/libc.a(lib_a-gdtoa-gethex.o)
 .debug_ranges  0x00000790       0x68 /OPT/altera/12.1/nios2eds/bin/gnu/H-i686-pc-linux-gnu/bin/../lib/gcc/nios2-elf/4.1.2/libgcc.a(_muldi3.o)
 .debug_ranges  0x000007f8      0x188 /OPT/altera/12.1/nios2eds/bin/gnu/H-i686-pc-linux-gnu/bin/../lib/gcc/nios2-elf/4.1.2/libgcc.a(_udivdi3.o)
 .debug_ranges  0x00000980      0x198 /OPT/altera/12.1/nios2eds/bin/gnu/H-i686-pc-linux-gnu/bin/../lib/gcc/nios2-elf/4.1.2/libgcc.a(_umoddi3.o)
 .debug_ranges  0x00000b18       0x30 /OPT/altera/12.1/nios2eds/bin/gnu/H-i686-pc-linux-gnu/bin/../lib/gcc/nios2-elf/4.1.2/libgcc.a(_addsub_df.o)
 .debug_ranges  0x00000b48       0x88 /OPT/altera/12.1/nios2eds/bin/gnu/H-i686-pc-linux-gnu/bin/../lib/gcc/nios2-elf/4.1.2/libgcc.a(_mul_df.o)
 .debug_ranges  0x00000bd0       0x50 /OPT/altera/12.1/nios2eds/bin/gnu/H-i686-pc-linux-gnu/bin/../lib/gcc/nios2-elf/4.1.2/libgcc.a(_div_df.o)
 .debug_ranges  0x00000c20       0x18 /OPT/altera/12.1/nios2eds/bin/gnu/H-i686-pc-linux-gnu/bin/../lib/gcc/nios2-elf/4.1.2/libgcc.a(_usi_to_df.o)
 .debug_ranges  0x00000c38       0x28 /OPT/altera/12.1/nios2eds/bin/gnu/H-i686-pc-linux-gnu/bin/../lib/gcc/nios2-elf/4.1.2/libgcc.a(_clzsi2.o)
 .debug_ranges  0x00000c60       0x28 /OPT/altera/12.1/nios2eds/bin/gnu/H-i686-pc-linux-gnu/bin/../lib/gcc/nios2-elf/4.1.2/libgcc.a(_pack_df.o)
 .debug_ranges  0x00000c88       0x18 ../Webserver_bsp//libucosii_bsp.a(altera_avalon_jtag_uart_init.o)
 .debug_ranges  0x00000ca0       0x28 ../Webserver_bsp//libucosii_bsp.a(alt_irq_entry.o)
 .debug_ranges  0x00000cc8       0x30 ../Webserver_bsp//libucosii_bsp.a(alt_exception_entry.o)
 .debug_ranges  0x00000cf8       0x18 /OPT/altera/12.1/nios2eds/bin/gnu/H-i686-pc-linux-gnu/bin/../lib/gcc/nios2-elf/4.1.2/../../../../nios2-elf/lib/libc.a(lib_a-__call_atexit.o)
