Archive member included because of file (symbol)

/opt/altera/10.1sp1/nios2eds/bin/gnu/H-i686-pc-linux-gnu/bin/../lib/gcc/nios2-elf/4.1.2/../../../../nios2-elf/lib/libstdc++.a(eh_personality.o)
                              obj/Camera.o (__gxx_personality_v0)
/opt/altera/10.1sp1/nios2eds/bin/gnu/H-i686-pc-linux-gnu/bin/../lib/gcc/nios2-elf/4.1.2/../../../../nios2-elf/lib/libstdc++.a(eh_globals.o)
                              /opt/altera/10.1sp1/nios2eds/bin/gnu/H-i686-pc-linux-gnu/bin/../lib/gcc/nios2-elf/4.1.2/../../../../nios2-elf/lib/libstdc++.a(eh_personality.o) (__cxa_get_globals_fast)
/opt/altera/10.1sp1/nios2eds/bin/gnu/H-i686-pc-linux-gnu/bin/../lib/gcc/nios2-elf/4.1.2/../../../../nios2-elf/lib/libstdc++.a(eh_throw.o)
                              /opt/altera/10.1sp1/nios2eds/bin/gnu/H-i686-pc-linux-gnu/bin/../lib/gcc/nios2-elf/4.1.2/../../../../nios2-elf/lib/libstdc++.a(eh_personality.o) (__cxa_rethrow)
/opt/altera/10.1sp1/nios2eds/bin/gnu/H-i686-pc-linux-gnu/bin/../lib/gcc/nios2-elf/4.1.2/../../../../nios2-elf/lib/libstdc++.a(eh_call.o)
                              /opt/altera/10.1sp1/nios2eds/bin/gnu/H-i686-pc-linux-gnu/bin/../lib/gcc/nios2-elf/4.1.2/../../../../nios2-elf/lib/libstdc++.a(eh_personality.o) (__cxa_call_terminate)
/opt/altera/10.1sp1/nios2eds/bin/gnu/H-i686-pc-linux-gnu/bin/../lib/gcc/nios2-elf/4.1.2/../../../../nios2-elf/lib/libstdc++.a(eh_catch.o)
                              /opt/altera/10.1sp1/nios2eds/bin/gnu/H-i686-pc-linux-gnu/bin/../lib/gcc/nios2-elf/4.1.2/../../../../nios2-elf/lib/libstdc++.a(eh_personality.o) (__cxa_end_catch)
/opt/altera/10.1sp1/nios2eds/bin/gnu/H-i686-pc-linux-gnu/bin/../lib/gcc/nios2-elf/4.1.2/../../../../nios2-elf/lib/libstdc++.a(eh_exception.o)
                              /opt/altera/10.1sp1/nios2eds/bin/gnu/H-i686-pc-linux-gnu/bin/../lib/gcc/nios2-elf/4.1.2/../../../../nios2-elf/lib/libstdc++.a(eh_personality.o) (_ZTVSt13bad_exception)
/opt/altera/10.1sp1/nios2eds/bin/gnu/H-i686-pc-linux-gnu/bin/../lib/gcc/nios2-elf/4.1.2/../../../../nios2-elf/lib/libstdc++.a(eh_terminate.o)
                              /opt/altera/10.1sp1/nios2eds/bin/gnu/H-i686-pc-linux-gnu/bin/../lib/gcc/nios2-elf/4.1.2/../../../../nios2-elf/lib/libstdc++.a(eh_personality.o) (_ZN10__cxxabiv111__terminateEPFvvE)
/opt/altera/10.1sp1/nios2eds/bin/gnu/H-i686-pc-linux-gnu/bin/../lib/gcc/nios2-elf/4.1.2/../../../../nios2-elf/lib/libstdc++.a(si_class_type_info.o)
                              /opt/altera/10.1sp1/nios2eds/bin/gnu/H-i686-pc-linux-gnu/bin/../lib/gcc/nios2-elf/4.1.2/../../../../nios2-elf/lib/libstdc++.a(eh_exception.o) (_ZTVN10__cxxabiv120__si_class_type_infoE)
/opt/altera/10.1sp1/nios2eds/bin/gnu/H-i686-pc-linux-gnu/bin/../lib/gcc/nios2-elf/4.1.2/../../../../nios2-elf/lib/libstdc++.a(eh_alloc.o)
                              /opt/altera/10.1sp1/nios2eds/bin/gnu/H-i686-pc-linux-gnu/bin/../lib/gcc/nios2-elf/4.1.2/../../../../nios2-elf/lib/libstdc++.a(eh_throw.o) (__cxa_free_exception)
/opt/altera/10.1sp1/nios2eds/bin/gnu/H-i686-pc-linux-gnu/bin/../lib/gcc/nios2-elf/4.1.2/../../../../nios2-elf/lib/libstdc++.a(eh_term_handler.o)
                              /opt/altera/10.1sp1/nios2eds/bin/gnu/H-i686-pc-linux-gnu/bin/../lib/gcc/nios2-elf/4.1.2/../../../../nios2-elf/lib/libstdc++.a(eh_throw.o) (_ZN10__cxxabiv119__terminate_handlerE)
/opt/altera/10.1sp1/nios2eds/bin/gnu/H-i686-pc-linux-gnu/bin/../lib/gcc/nios2-elf/4.1.2/../../../../nios2-elf/lib/libstdc++.a(tinfo.o)
                              /opt/altera/10.1sp1/nios2eds/bin/gnu/H-i686-pc-linux-gnu/bin/../lib/gcc/nios2-elf/4.1.2/../../../../nios2-elf/lib/libstdc++.a(si_class_type_info.o) (_ZNKSt9type_info14__is_pointer_pEv)
/opt/altera/10.1sp1/nios2eds/bin/gnu/H-i686-pc-linux-gnu/bin/../lib/gcc/nios2-elf/4.1.2/../../../../nios2-elf/lib/libstdc++.a(del_op.o)
                              /opt/altera/10.1sp1/nios2eds/bin/gnu/H-i686-pc-linux-gnu/bin/../lib/gcc/nios2-elf/4.1.2/../../../../nios2-elf/lib/libstdc++.a(eh_exception.o) (_ZdlPv)
/opt/altera/10.1sp1/nios2eds/bin/gnu/H-i686-pc-linux-gnu/bin/../lib/gcc/nios2-elf/4.1.2/../../../../nios2-elf/lib/libstdc++.a(class_type_info.o)
                              /opt/altera/10.1sp1/nios2eds/bin/gnu/H-i686-pc-linux-gnu/bin/../lib/gcc/nios2-elf/4.1.2/../../../../nios2-elf/lib/libstdc++.a(si_class_type_info.o) (_ZNK10__cxxabiv117__class_type_info11__do_upcastEPKS0_PPv)
/opt/altera/10.1sp1/nios2eds/bin/gnu/H-i686-pc-linux-gnu/bin/../lib/gcc/nios2-elf/4.1.2/../../../../nios2-elf/lib/libstdc++.a(eh_unex_handler.o)
                              /opt/altera/10.1sp1/nios2eds/bin/gnu/H-i686-pc-linux-gnu/bin/../lib/gcc/nios2-elf/4.1.2/../../../../nios2-elf/lib/libstdc++.a(eh_throw.o) (_ZN10__cxxabiv120__unexpected_handlerE)
/opt/altera/10.1sp1/nios2eds/bin/gnu/H-i686-pc-linux-gnu/bin/../lib/gcc/nios2-elf/4.1.2/libgcc.a(lib2-divmod.o)
                              obj/srec_flash.o (__divsi3)
/opt/altera/10.1sp1/nios2eds/bin/gnu/H-i686-pc-linux-gnu/bin/../lib/gcc/nios2-elf/4.1.2/libgcc.a(unwind-dw2.o)
                              /opt/altera/10.1sp1/nios2eds/bin/gnu/H-i686-pc-linux-gnu/bin/../lib/gcc/nios2-elf/4.1.2/../../../../nios2-elf/lib/libstdc++.a(eh_personality.o) (_Unwind_GetIP)
/opt/altera/10.1sp1/nios2eds/bin/gnu/H-i686-pc-linux-gnu/bin/../lib/gcc/nios2-elf/4.1.2/libgcc.a(unwind-dw2-fde.o)
                              /opt/altera/10.1sp1/nios2eds/bin/gnu/H-i686-pc-linux-gnu/bin/../lib/gcc/nios2-elf/4.1.2/libgcc.a(unwind-dw2.o) (_Unwind_Find_FDE)
/opt/altera/10.1sp1/nios2eds/bin/gnu/H-i686-pc-linux-gnu/bin/../lib/gcc/nios2-elf/4.1.2/../../../../nios2-elf/lib/libc.a(lib_a-abort.o)
                              /opt/altera/10.1sp1/nios2eds/bin/gnu/H-i686-pc-linux-gnu/bin/../lib/gcc/nios2-elf/4.1.2/../../../../nios2-elf/lib/libstdc++.a(eh_personality.o) (abort)
/opt/altera/10.1sp1/nios2eds/bin/gnu/H-i686-pc-linux-gnu/bin/../lib/gcc/nios2-elf/4.1.2/../../../../nios2-elf/lib/libc.a(lib_a-atoi.o)
                              obj/http.o (atoi)
/opt/altera/10.1sp1/nios2eds/bin/gnu/H-i686-pc-linux-gnu/bin/../lib/gcc/nios2-elf/4.1.2/../../../../nios2-elf/lib/libc.a(lib_a-ctype_.o)
                              obj/http.o (__ctype_ptr)
/opt/altera/10.1sp1/nios2eds/bin/gnu/H-i686-pc-linux-gnu/bin/../lib/gcc/nios2-elf/4.1.2/../../../../nios2-elf/lib/libc.a(lib_a-fclose.o)
                              obj/http.o (fclose)
/opt/altera/10.1sp1/nios2eds/bin/gnu/H-i686-pc-linux-gnu/bin/../lib/gcc/nios2-elf/4.1.2/../../../../nios2-elf/lib/libc.a(lib_a-fflush.o)
                              /opt/altera/10.1sp1/nios2eds/bin/gnu/H-i686-pc-linux-gnu/bin/../lib/gcc/nios2-elf/4.1.2/../../../../nios2-elf/lib/libc.a(lib_a-fclose.o) (_fflush_r)
/opt/altera/10.1sp1/nios2eds/bin/gnu/H-i686-pc-linux-gnu/bin/../lib/gcc/nios2-elf/4.1.2/../../../../nios2-elf/lib/libc.a(lib_a-fgetc.o)
                              obj/Camera.o (fgetc)
/opt/altera/10.1sp1/nios2eds/bin/gnu/H-i686-pc-linux-gnu/bin/../lib/gcc/nios2-elf/4.1.2/../../../../nios2-elf/lib/libc.a(lib_a-fgetpos.o)
                              obj/http.o (fgetpos)
/opt/altera/10.1sp1/nios2eds/bin/gnu/H-i686-pc-linux-gnu/bin/../lib/gcc/nios2-elf/4.1.2/../../../../nios2-elf/lib/libc.a(lib_a-fileno.o)
                              obj/Camera.o (fileno)
/opt/altera/10.1sp1/nios2eds/bin/gnu/H-i686-pc-linux-gnu/bin/../lib/gcc/nios2-elf/4.1.2/../../../../nios2-elf/lib/libc.a(lib_a-findfp.o)
                              /opt/altera/10.1sp1/nios2eds/bin/gnu/H-i686-pc-linux-gnu/bin/../lib/gcc/nios2-elf/4.1.2/../../../../nios2-elf/lib/libc.a(lib_a-fclose.o) (__sfp_lock_acquire)
/opt/altera/10.1sp1/nios2eds/bin/gnu/H-i686-pc-linux-gnu/bin/../lib/gcc/nios2-elf/4.1.2/../../../../nios2-elf/lib/libc.a(lib_a-fopen.o)
                              obj/http.o (fopen)
/opt/altera/10.1sp1/nios2eds/bin/gnu/H-i686-pc-linux-gnu/bin/../lib/gcc/nios2-elf/4.1.2/../../../../nios2-elf/lib/libc.a(lib_a-fprintf.o)
                              obj/alt_error_handler.o (fprintf)
/opt/altera/10.1sp1/nios2eds/bin/gnu/H-i686-pc-linux-gnu/bin/../lib/gcc/nios2-elf/4.1.2/../../../../nios2-elf/lib/libc.a(lib_a-fputc.o)
                              obj/Camera.o (fputc)
/opt/altera/10.1sp1/nios2eds/bin/gnu/H-i686-pc-linux-gnu/bin/../lib/gcc/nios2-elf/4.1.2/../../../../nios2-elf/lib/libc.a(lib_a-fread.o)
                              obj/http.o (fread)
/opt/altera/10.1sp1/nios2eds/bin/gnu/H-i686-pc-linux-gnu/bin/../lib/gcc/nios2-elf/4.1.2/../../../../nios2-elf/lib/libc.a(lib_a-freer.o)
                              /opt/altera/10.1sp1/nios2eds/bin/gnu/H-i686-pc-linux-gnu/bin/../lib/gcc/nios2-elf/4.1.2/../../../../nios2-elf/lib/libc.a(lib_a-fclose.o) (_free_r)
/opt/altera/10.1sp1/nios2eds/bin/gnu/H-i686-pc-linux-gnu/bin/../lib/gcc/nios2-elf/4.1.2/../../../../nios2-elf/lib/libc.a(lib_a-fseek.o)
                              /opt/altera/10.1sp1/nios2eds/bin/gnu/H-i686-pc-linux-gnu/bin/../lib/gcc/nios2-elf/4.1.2/../../../../nios2-elf/lib/libc.a(lib_a-fopen.o) (_fseek_r)
/opt/altera/10.1sp1/nios2eds/bin/gnu/H-i686-pc-linux-gnu/bin/../lib/gcc/nios2-elf/4.1.2/../../../../nios2-elf/lib/libc.a(lib_a-fstatr.o)
                              /opt/altera/10.1sp1/nios2eds/bin/gnu/H-i686-pc-linux-gnu/bin/../lib/gcc/nios2-elf/4.1.2/../../../../nios2-elf/lib/libc.a(lib_a-fseek.o) (_fstat_r)
/opt/altera/10.1sp1/nios2eds/bin/gnu/H-i686-pc-linux-gnu/bin/../lib/gcc/nios2-elf/4.1.2/../../../../nios2-elf/lib/libc.a(lib_a-ftell.o)
                              /opt/altera/10.1sp1/nios2eds/bin/gnu/H-i686-pc-linux-gnu/bin/../lib/gcc/nios2-elf/4.1.2/../../../../nios2-elf/lib/libc.a(lib_a-fgetpos.o) (_ftell_r)
/opt/altera/10.1sp1/nios2eds/bin/gnu/H-i686-pc-linux-gnu/bin/../lib/gcc/nios2-elf/4.1.2/../../../../nios2-elf/lib/libc.a(lib_a-fwalk.o)
                              /opt/altera/10.1sp1/nios2eds/bin/gnu/H-i686-pc-linux-gnu/bin/../lib/gcc/nios2-elf/4.1.2/../../../../nios2-elf/lib/libc.a(lib_a-fflush.o) (_fwalk_reent)
/opt/altera/10.1sp1/nios2eds/bin/gnu/H-i686-pc-linux-gnu/bin/../lib/gcc/nios2-elf/4.1.2/../../../../nios2-elf/lib/libc.a(lib_a-fwrite.o)
                              obj/alt_error_handler.o (fwrite)
/opt/altera/10.1sp1/nios2eds/bin/gnu/H-i686-pc-linux-gnu/bin/../lib/gcc/nios2-elf/4.1.2/../../../../nios2-elf/lib/libc.a(lib_a-getc.o)
                              obj/network_utilities.o (getc)
/opt/altera/10.1sp1/nios2eds/bin/gnu/H-i686-pc-linux-gnu/bin/../lib/gcc/nios2-elf/4.1.2/../../../../nios2-elf/lib/libc.a(lib_a-impure.o)
                              obj/alt_error_handler.o (_impure_ptr)
/opt/altera/10.1sp1/nios2eds/bin/gnu/H-i686-pc-linux-gnu/bin/../lib/gcc/nios2-elf/4.1.2/../../../../nios2-elf/lib/libc.a(lib_a-int_errno.o)
                              obj/altera_avalon_uart_init.o (errno)
/opt/altera/10.1sp1/nios2eds/bin/gnu/H-i686-pc-linux-gnu/bin/../lib/gcc/nios2-elf/4.1.2/../../../../nios2-elf/lib/libc.a(lib_a-makebuf.o)
                              /opt/altera/10.1sp1/nios2eds/bin/gnu/H-i686-pc-linux-gnu/bin/../lib/gcc/nios2-elf/4.1.2/../../../../nios2-elf/lib/libc.a(lib_a-fseek.o) (__smakebuf_r)
/opt/altera/10.1sp1/nios2eds/bin/gnu/H-i686-pc-linux-gnu/bin/../lib/gcc/nios2-elf/4.1.2/../../../../nios2-elf/lib/libc.a(lib_a-malloc.o)
                              /opt/altera/10.1sp1/nios2eds/bin/gnu/H-i686-pc-linux-gnu/bin/../lib/gcc/nios2-elf/4.1.2/../../../../nios2-elf/lib/libstdc++.a(eh_alloc.o) (free)
/opt/altera/10.1sp1/nios2eds/bin/gnu/H-i686-pc-linux-gnu/bin/../lib/gcc/nios2-elf/4.1.2/../../../../nios2-elf/lib/libc.a(lib_a-mallocr.o)
                              /opt/altera/10.1sp1/nios2eds/bin/gnu/H-i686-pc-linux-gnu/bin/../lib/gcc/nios2-elf/4.1.2/../../../../nios2-elf/lib/libc.a(lib_a-findfp.o) (_malloc_r)
/opt/altera/10.1sp1/nios2eds/bin/gnu/H-i686-pc-linux-gnu/bin/../lib/gcc/nios2-elf/4.1.2/../../../../nios2-elf/lib/libc.a(lib_a-memcpy.o)
                              obj/http.o (memcpy)
/opt/altera/10.1sp1/nios2eds/bin/gnu/H-i686-pc-linux-gnu/bin/../lib/gcc/nios2-elf/4.1.2/../../../../nios2-elf/lib/libc.a(lib_a-memmove.o)
                              obj/http.o (memmove)
/opt/altera/10.1sp1/nios2eds/bin/gnu/H-i686-pc-linux-gnu/bin/../lib/gcc/nios2-elf/4.1.2/../../../../nios2-elf/lib/libc.a(lib_a-memset.o)
                              obj/http.o (memset)
/opt/altera/10.1sp1/nios2eds/bin/gnu/H-i686-pc-linux-gnu/bin/../lib/gcc/nios2-elf/4.1.2/../../../../nios2-elf/lib/libc.a(lib_a-openr.o)
                              /opt/altera/10.1sp1/nios2eds/bin/gnu/H-i686-pc-linux-gnu/bin/../lib/gcc/nios2-elf/4.1.2/../../../../nios2-elf/lib/libc.a(lib_a-fopen.o) (_open_r)
/opt/altera/10.1sp1/nios2eds/bin/gnu/H-i686-pc-linux-gnu/bin/../lib/gcc/nios2-elf/4.1.2/../../../../nios2-elf/lib/libc.a(lib_a-perror.o)
                              obj/alt_error_handler.o (perror)
/opt/altera/10.1sp1/nios2eds/bin/gnu/H-i686-pc-linux-gnu/bin/../lib/gcc/nios2-elf/4.1.2/../../../../nios2-elf/lib/libc.a(lib_a-printf.o)
                              obj/alt_error_handler.o (printf)
/opt/altera/10.1sp1/nios2eds/bin/gnu/H-i686-pc-linux-gnu/bin/../lib/gcc/nios2-elf/4.1.2/../../../../nios2-elf/lib/libc.a(lib_a-putc.o)
                              obj/network_utilities.o (putc)
/opt/altera/10.1sp1/nios2eds/bin/gnu/H-i686-pc-linux-gnu/bin/../lib/gcc/nios2-elf/4.1.2/../../../../nios2-elf/lib/libc.a(lib_a-putchar.o)
                              obj/network_utilities.o (putchar)
/opt/altera/10.1sp1/nios2eds/bin/gnu/H-i686-pc-linux-gnu/bin/../lib/gcc/nios2-elf/4.1.2/../../../../nios2-elf/lib/libc.a(lib_a-puts.o)
                              obj/alt_error_handler.o (puts)
/opt/altera/10.1sp1/nios2eds/bin/gnu/H-i686-pc-linux-gnu/bin/../lib/gcc/nios2-elf/4.1.2/../../../../nios2-elf/lib/libc.a(lib_a-refill.o)
                              /opt/altera/10.1sp1/nios2eds/bin/gnu/H-i686-pc-linux-gnu/bin/../lib/gcc/nios2-elf/4.1.2/../../../../nios2-elf/lib/libc.a(lib_a-fread.o) (__srefill_r)
/opt/altera/10.1sp1/nios2eds/bin/gnu/H-i686-pc-linux-gnu/bin/../lib/gcc/nios2-elf/4.1.2/../../../../nios2-elf/lib/libc.a(lib_a-rget.o)
                              /opt/altera/10.1sp1/nios2eds/bin/gnu/H-i686-pc-linux-gnu/bin/../lib/gcc/nios2-elf/4.1.2/../../../../nios2-elf/lib/libc.a(lib_a-fgetc.o) (__srget_r)
/opt/altera/10.1sp1/nios2eds/bin/gnu/H-i686-pc-linux-gnu/bin/../lib/gcc/nios2-elf/4.1.2/../../../../nios2-elf/lib/libc.a(lib_a-sbrkr.o)
                              /opt/altera/10.1sp1/nios2eds/bin/gnu/H-i686-pc-linux-gnu/bin/../lib/gcc/nios2-elf/4.1.2/../../../../nios2-elf/lib/libc.a(lib_a-freer.o) (_sbrk_r)
/opt/altera/10.1sp1/nios2eds/bin/gnu/H-i686-pc-linux-gnu/bin/../lib/gcc/nios2-elf/4.1.2/../../../../nios2-elf/lib/libc.a(lib_a-signal.o)
                              /opt/altera/10.1sp1/nios2eds/bin/gnu/H-i686-pc-linux-gnu/bin/../lib/gcc/nios2-elf/4.1.2/../../../../nios2-elf/lib/libc.a(lib_a-abort.o) (raise)
/opt/altera/10.1sp1/nios2eds/bin/gnu/H-i686-pc-linux-gnu/bin/../lib/gcc/nios2-elf/4.1.2/../../../../nios2-elf/lib/libc.a(lib_a-signalr.o)
                              /opt/altera/10.1sp1/nios2eds/bin/gnu/H-i686-pc-linux-gnu/bin/../lib/gcc/nios2-elf/4.1.2/../../../../nios2-elf/lib/libc.a(lib_a-signal.o) (_getpid_r)
/opt/altera/10.1sp1/nios2eds/bin/gnu/H-i686-pc-linux-gnu/bin/../lib/gcc/nios2-elf/4.1.2/../../../../nios2-elf/lib/libc.a(lib_a-sprintf.o)
                              obj/http.o (sprintf)
/opt/altera/10.1sp1/nios2eds/bin/gnu/H-i686-pc-linux-gnu/bin/../lib/gcc/nios2-elf/4.1.2/../../../../nios2-elf/lib/libc.a(lib_a-sscanf.o)
                              obj/srec_flash.o (sscanf)
/opt/altera/10.1sp1/nios2eds/bin/gnu/H-i686-pc-linux-gnu/bin/../lib/gcc/nios2-elf/4.1.2/../../../../nios2-elf/lib/libc.a(lib_a-stdio.o)
                              /opt/altera/10.1sp1/nios2eds/bin/gnu/H-i686-pc-linux-gnu/bin/../lib/gcc/nios2-elf/4.1.2/../../../../nios2-elf/lib/libc.a(lib_a-findfp.o) (__sclose)
/opt/altera/10.1sp1/nios2eds/bin/gnu/H-i686-pc-linux-gnu/bin/../lib/gcc/nios2-elf/4.1.2/../../../../nios2-elf/lib/libc.a(lib_a-strcasecmp.o)
                              obj/http.o (strcasecmp)
/opt/altera/10.1sp1/nios2eds/bin/gnu/H-i686-pc-linux-gnu/bin/../lib/gcc/nios2-elf/4.1.2/../../../../nios2-elf/lib/libc.a(lib_a-strcat.o)
                              obj/srec_flash.o (strcat)
/opt/altera/10.1sp1/nios2eds/bin/gnu/H-i686-pc-linux-gnu/bin/../lib/gcc/nios2-elf/4.1.2/../../../../nios2-elf/lib/libc.a(lib_a-strchr.o)
                              obj/http.o (strchr)
/opt/altera/10.1sp1/nios2eds/bin/gnu/H-i686-pc-linux-gnu/bin/../lib/gcc/nios2-elf/4.1.2/../../../../nios2-elf/lib/libc.a(lib_a-strcmp.o)
                              obj/http.o (strcmp)
/opt/altera/10.1sp1/nios2eds/bin/gnu/H-i686-pc-linux-gnu/bin/../lib/gcc/nios2-elf/4.1.2/../../../../nios2-elf/lib/libc.a(lib_a-strcpy.o)
                              obj/http.o (strcpy)
/opt/altera/10.1sp1/nios2eds/bin/gnu/H-i686-pc-linux-gnu/bin/../lib/gcc/nios2-elf/4.1.2/../../../../nios2-elf/lib/libc.a(lib_a-strerror.o)
                              /opt/altera/10.1sp1/nios2eds/bin/gnu/H-i686-pc-linux-gnu/bin/../lib/gcc/nios2-elf/4.1.2/../../../../nios2-elf/lib/libc.a(lib_a-perror.o) (strerror)
/opt/altera/10.1sp1/nios2eds/bin/gnu/H-i686-pc-linux-gnu/bin/../lib/gcc/nios2-elf/4.1.2/../../../../nios2-elf/lib/libc.a(lib_a-strlen.o)
                              obj/http.o (strlen)
/opt/altera/10.1sp1/nios2eds/bin/gnu/H-i686-pc-linux-gnu/bin/../lib/gcc/nios2-elf/4.1.2/../../../../nios2-elf/lib/libc.a(lib_a-strncmp.o)
                              obj/http.o (strncmp)
/opt/altera/10.1sp1/nios2eds/bin/gnu/H-i686-pc-linux-gnu/bin/../lib/gcc/nios2-elf/4.1.2/../../../../nios2-elf/lib/libc.a(lib_a-strncpy.o)
                              obj/http.o (strncpy)
/opt/altera/10.1sp1/nios2eds/bin/gnu/H-i686-pc-linux-gnu/bin/../lib/gcc/nios2-elf/4.1.2/../../../../nios2-elf/lib/libc.a(lib_a-strstr.o)
                              obj/http.o (strstr)
/opt/altera/10.1sp1/nios2eds/bin/gnu/H-i686-pc-linux-gnu/bin/../lib/gcc/nios2-elf/4.1.2/../../../../nios2-elf/lib/libc.a(lib_a-strtok.o)
                              obj/http.o (strtok)
/opt/altera/10.1sp1/nios2eds/bin/gnu/H-i686-pc-linux-gnu/bin/../lib/gcc/nios2-elf/4.1.2/../../../../nios2-elf/lib/libc.a(lib_a-strtok_r.o)
                              /opt/altera/10.1sp1/nios2eds/bin/gnu/H-i686-pc-linux-gnu/bin/../lib/gcc/nios2-elf/4.1.2/../../../../nios2-elf/lib/libc.a(lib_a-strtok.o) (__strtok_r)
/opt/altera/10.1sp1/nios2eds/bin/gnu/H-i686-pc-linux-gnu/bin/../lib/gcc/nios2-elf/4.1.2/../../../../nios2-elf/lib/libc.a(lib_a-strtol.o)
                              /opt/altera/10.1sp1/nios2eds/bin/gnu/H-i686-pc-linux-gnu/bin/../lib/gcc/nios2-elf/4.1.2/../../../../nios2-elf/lib/libc.a(lib_a-atoi.o) (_strtol_r)
/opt/altera/10.1sp1/nios2eds/bin/gnu/H-i686-pc-linux-gnu/bin/../lib/gcc/nios2-elf/4.1.2/../../../../nios2-elf/lib/libc.a(lib_a-u_strerr.o)
                              /opt/altera/10.1sp1/nios2eds/bin/gnu/H-i686-pc-linux-gnu/bin/../lib/gcc/nios2-elf/4.1.2/../../../../nios2-elf/lib/libc.a(lib_a-strerror.o) (_user_strerror)
/opt/altera/10.1sp1/nios2eds/bin/gnu/H-i686-pc-linux-gnu/bin/../lib/gcc/nios2-elf/4.1.2/../../../../nios2-elf/lib/libc.a(lib_a-vfprintf.o)
                              /opt/altera/10.1sp1/nios2eds/bin/gnu/H-i686-pc-linux-gnu/bin/../lib/gcc/nios2-elf/4.1.2/../../../../nios2-elf/lib/libc.a(lib_a-printf.o) (___vfprintf_internal_r)
/opt/altera/10.1sp1/nios2eds/bin/gnu/H-i686-pc-linux-gnu/bin/../lib/gcc/nios2-elf/4.1.2/../../../../nios2-elf/lib/libc.a(lib_a-vfscanf.o)
                              /opt/altera/10.1sp1/nios2eds/bin/gnu/H-i686-pc-linux-gnu/bin/../lib/gcc/nios2-elf/4.1.2/../../../../nios2-elf/lib/libc.a(lib_a-sscanf.o) (__svfscanf_r)
/opt/altera/10.1sp1/nios2eds/bin/gnu/H-i686-pc-linux-gnu/bin/../lib/gcc/nios2-elf/4.1.2/../../../../nios2-elf/lib/libc.a(lib_a-wbuf.o)
                              /opt/altera/10.1sp1/nios2eds/bin/gnu/H-i686-pc-linux-gnu/bin/../lib/gcc/nios2-elf/4.1.2/../../../../nios2-elf/lib/libc.a(lib_a-putc.o) (__swbuf_r)
/opt/altera/10.1sp1/nios2eds/bin/gnu/H-i686-pc-linux-gnu/bin/../lib/gcc/nios2-elf/4.1.2/../../../../nios2-elf/lib/libc.a(lib_a-writer.o)
                              /opt/altera/10.1sp1/nios2eds/bin/gnu/H-i686-pc-linux-gnu/bin/../lib/gcc/nios2-elf/4.1.2/../../../../nios2-elf/lib/libc.a(lib_a-stdio.o) (_write_r)
/opt/altera/10.1sp1/nios2eds/bin/gnu/H-i686-pc-linux-gnu/bin/../lib/gcc/nios2-elf/4.1.2/../../../../nios2-elf/lib/libc.a(lib_a-wsetup.o)
                              /opt/altera/10.1sp1/nios2eds/bin/gnu/H-i686-pc-linux-gnu/bin/../lib/gcc/nios2-elf/4.1.2/../../../../nios2-elf/lib/libc.a(lib_a-vfprintf.o) (__swsetup_r)
/opt/altera/10.1sp1/nios2eds/bin/gnu/H-i686-pc-linux-gnu/bin/../lib/gcc/nios2-elf/4.1.2/../../../../nios2-elf/lib/libc.a(lib_a-closer.o)
                              /opt/altera/10.1sp1/nios2eds/bin/gnu/H-i686-pc-linux-gnu/bin/../lib/gcc/nios2-elf/4.1.2/../../../../nios2-elf/lib/libc.a(lib_a-stdio.o) (_close_r)
/opt/altera/10.1sp1/nios2eds/bin/gnu/H-i686-pc-linux-gnu/bin/../lib/gcc/nios2-elf/4.1.2/../../../../nios2-elf/lib/libc.a(lib_a-dtoa.o)
                              /opt/altera/10.1sp1/nios2eds/bin/gnu/H-i686-pc-linux-gnu/bin/../lib/gcc/nios2-elf/4.1.2/../../../../nios2-elf/lib/libc.a(lib_a-vfprintf.o) (_dtoa_r)
/opt/altera/10.1sp1/nios2eds/bin/gnu/H-i686-pc-linux-gnu/bin/../lib/gcc/nios2-elf/4.1.2/../../../../nios2-elf/lib/libc.a(lib_a-flags.o)
                              /opt/altera/10.1sp1/nios2eds/bin/gnu/H-i686-pc-linux-gnu/bin/../lib/gcc/nios2-elf/4.1.2/../../../../nios2-elf/lib/libc.a(lib_a-fopen.o) (__sflags)
/opt/altera/10.1sp1/nios2eds/bin/gnu/H-i686-pc-linux-gnu/bin/../lib/gcc/nios2-elf/4.1.2/../../../../nios2-elf/lib/libc.a(lib_a-fputs.o)
                              /opt/altera/10.1sp1/nios2eds/bin/gnu/H-i686-pc-linux-gnu/bin/../lib/gcc/nios2-elf/4.1.2/../../../../nios2-elf/lib/libc.a(lib_a-perror.o) (fputs)
/opt/altera/10.1sp1/nios2eds/bin/gnu/H-i686-pc-linux-gnu/bin/../lib/gcc/nios2-elf/4.1.2/../../../../nios2-elf/lib/libc.a(lib_a-fvwrite.o)
                              /opt/altera/10.1sp1/nios2eds/bin/gnu/H-i686-pc-linux-gnu/bin/../lib/gcc/nios2-elf/4.1.2/../../../../nios2-elf/lib/libc.a(lib_a-fwrite.o) (__sfvwrite_r)
/opt/altera/10.1sp1/nios2eds/bin/gnu/H-i686-pc-linux-gnu/bin/../lib/gcc/nios2-elf/4.1.2/../../../../nios2-elf/lib/libc.a(lib_a-isattyr.o)
                              /opt/altera/10.1sp1/nios2eds/bin/gnu/H-i686-pc-linux-gnu/bin/../lib/gcc/nios2-elf/4.1.2/../../../../nios2-elf/lib/libc.a(lib_a-makebuf.o) (_isatty_r)
/opt/altera/10.1sp1/nios2eds/bin/gnu/H-i686-pc-linux-gnu/bin/../lib/gcc/nios2-elf/4.1.2/../../../../nios2-elf/lib/libc.a(lib_a-iswspace.o)
                              /opt/altera/10.1sp1/nios2eds/bin/gnu/H-i686-pc-linux-gnu/bin/../lib/gcc/nios2-elf/4.1.2/../../../../nios2-elf/lib/libc.a(lib_a-vfscanf.o) (iswspace)
/opt/altera/10.1sp1/nios2eds/bin/gnu/H-i686-pc-linux-gnu/bin/../lib/gcc/nios2-elf/4.1.2/../../../../nios2-elf/lib/libc.a(lib_a-locale.o)
                              /opt/altera/10.1sp1/nios2eds/bin/gnu/H-i686-pc-linux-gnu/bin/../lib/gcc/nios2-elf/4.1.2/../../../../nios2-elf/lib/libc.a(lib_a-vfprintf.o) (_localeconv_r)
/opt/altera/10.1sp1/nios2eds/bin/gnu/H-i686-pc-linux-gnu/bin/../lib/gcc/nios2-elf/4.1.2/../../../../nios2-elf/lib/libc.a(lib_a-lseekr.o)
                              /opt/altera/10.1sp1/nios2eds/bin/gnu/H-i686-pc-linux-gnu/bin/../lib/gcc/nios2-elf/4.1.2/../../../../nios2-elf/lib/libc.a(lib_a-stdio.o) (_lseek_r)
/opt/altera/10.1sp1/nios2eds/bin/gnu/H-i686-pc-linux-gnu/bin/../lib/gcc/nios2-elf/4.1.2/../../../../nios2-elf/lib/libc.a(lib_a-mbrtowc.o)
                              /opt/altera/10.1sp1/nios2eds/bin/gnu/H-i686-pc-linux-gnu/bin/../lib/gcc/nios2-elf/4.1.2/../../../../nios2-elf/lib/libc.a(lib_a-vfscanf.o) (_mbrtowc_r)
/opt/altera/10.1sp1/nios2eds/bin/gnu/H-i686-pc-linux-gnu/bin/../lib/gcc/nios2-elf/4.1.2/../../../../nios2-elf/lib/libc.a(lib_a-mbtowc_r.o)
                              /opt/altera/10.1sp1/nios2eds/bin/gnu/H-i686-pc-linux-gnu/bin/../lib/gcc/nios2-elf/4.1.2/../../../../nios2-elf/lib/libc.a(lib_a-mbrtowc.o) (_mbtowc_r)
/opt/altera/10.1sp1/nios2eds/bin/gnu/H-i686-pc-linux-gnu/bin/../lib/gcc/nios2-elf/4.1.2/../../../../nios2-elf/lib/libc.a(lib_a-memchr.o)
                              /opt/altera/10.1sp1/nios2eds/bin/gnu/H-i686-pc-linux-gnu/bin/../lib/gcc/nios2-elf/4.1.2/../../../../nios2-elf/lib/libc.a(lib_a-strstr.o) (memchr)
/opt/altera/10.1sp1/nios2eds/bin/gnu/H-i686-pc-linux-gnu/bin/../lib/gcc/nios2-elf/4.1.2/../../../../nios2-elf/lib/libc.a(lib_a-memcmp.o)
                              /opt/altera/10.1sp1/nios2eds/bin/gnu/H-i686-pc-linux-gnu/bin/../lib/gcc/nios2-elf/4.1.2/../../../../nios2-elf/lib/libc.a(lib_a-strstr.o) (memcmp)
/opt/altera/10.1sp1/nios2eds/bin/gnu/H-i686-pc-linux-gnu/bin/../lib/gcc/nios2-elf/4.1.2/../../../../nios2-elf/lib/libc.a(lib_a-mprec.o)
                              /opt/altera/10.1sp1/nios2eds/bin/gnu/H-i686-pc-linux-gnu/bin/../lib/gcc/nios2-elf/4.1.2/../../../../nios2-elf/lib/libc.a(lib_a-dtoa.o) (_Bfree)
/opt/altera/10.1sp1/nios2eds/bin/gnu/H-i686-pc-linux-gnu/bin/../lib/gcc/nios2-elf/4.1.2/../../../../nios2-elf/lib/libc.a(lib_a-readr.o)
                              /opt/altera/10.1sp1/nios2eds/bin/gnu/H-i686-pc-linux-gnu/bin/../lib/gcc/nios2-elf/4.1.2/../../../../nios2-elf/lib/libc.a(lib_a-stdio.o) (_read_r)
/opt/altera/10.1sp1/nios2eds/bin/gnu/H-i686-pc-linux-gnu/bin/../lib/gcc/nios2-elf/4.1.2/../../../../nios2-elf/lib/libc.a(lib_a-reallocr.o)
                              /opt/altera/10.1sp1/nios2eds/bin/gnu/H-i686-pc-linux-gnu/bin/../lib/gcc/nios2-elf/4.1.2/../../../../nios2-elf/lib/libc.a(lib_a-fvwrite.o) (_realloc_r)
/opt/altera/10.1sp1/nios2eds/bin/gnu/H-i686-pc-linux-gnu/bin/../lib/gcc/nios2-elf/4.1.2/../../../../nios2-elf/lib/libc.a(lib_a-s_isinfd.o)
                              /opt/altera/10.1sp1/nios2eds/bin/gnu/H-i686-pc-linux-gnu/bin/../lib/gcc/nios2-elf/4.1.2/../../../../nios2-elf/lib/libc.a(lib_a-vfprintf.o) (__isinfd)
/opt/altera/10.1sp1/nios2eds/bin/gnu/H-i686-pc-linux-gnu/bin/../lib/gcc/nios2-elf/4.1.2/../../../../nios2-elf/lib/libc.a(lib_a-s_isnand.o)
                              /opt/altera/10.1sp1/nios2eds/bin/gnu/H-i686-pc-linux-gnu/bin/../lib/gcc/nios2-elf/4.1.2/../../../../nios2-elf/lib/libc.a(lib_a-vfprintf.o) (__isnand)
/opt/altera/10.1sp1/nios2eds/bin/gnu/H-i686-pc-linux-gnu/bin/../lib/gcc/nios2-elf/4.1.2/../../../../nios2-elf/lib/libc.a(lib_a-sccl.o)
                              /opt/altera/10.1sp1/nios2eds/bin/gnu/H-i686-pc-linux-gnu/bin/../lib/gcc/nios2-elf/4.1.2/../../../../nios2-elf/lib/libc.a(lib_a-vfscanf.o) (__sccl)
/opt/altera/10.1sp1/nios2eds/bin/gnu/H-i686-pc-linux-gnu/bin/../lib/gcc/nios2-elf/4.1.2/../../../../nios2-elf/lib/libc.a(lib_a-sf_nan.o)
                              /opt/altera/10.1sp1/nios2eds/bin/gnu/H-i686-pc-linux-gnu/bin/../lib/gcc/nios2-elf/4.1.2/../../../../nios2-elf/lib/libc.a(lib_a-vfscanf.o) (nanf)
/opt/altera/10.1sp1/nios2eds/bin/gnu/H-i686-pc-linux-gnu/bin/../lib/gcc/nios2-elf/4.1.2/../../../../nios2-elf/lib/libc.a(lib_a-strtod.o)
                              /opt/altera/10.1sp1/nios2eds/bin/gnu/H-i686-pc-linux-gnu/bin/../lib/gcc/nios2-elf/4.1.2/../../../../nios2-elf/lib/libc.a(lib_a-vfscanf.o) (_strtod_r)
/opt/altera/10.1sp1/nios2eds/bin/gnu/H-i686-pc-linux-gnu/bin/../lib/gcc/nios2-elf/4.1.2/../../../../nios2-elf/lib/libc.a(lib_a-strtoll_r.o)
                              /opt/altera/10.1sp1/nios2eds/bin/gnu/H-i686-pc-linux-gnu/bin/../lib/gcc/nios2-elf/4.1.2/../../../../nios2-elf/lib/libc.a(lib_a-vfscanf.o) (_strtoll_r)
/opt/altera/10.1sp1/nios2eds/bin/gnu/H-i686-pc-linux-gnu/bin/../lib/gcc/nios2-elf/4.1.2/../../../../nios2-elf/lib/libc.a(lib_a-strtoul.o)
                              /opt/altera/10.1sp1/nios2eds/bin/gnu/H-i686-pc-linux-gnu/bin/../lib/gcc/nios2-elf/4.1.2/../../../../nios2-elf/lib/libc.a(lib_a-vfscanf.o) (_strtoul_r)
/opt/altera/10.1sp1/nios2eds/bin/gnu/H-i686-pc-linux-gnu/bin/../lib/gcc/nios2-elf/4.1.2/../../../../nios2-elf/lib/libc.a(lib_a-strtoull_r.o)
                              /opt/altera/10.1sp1/nios2eds/bin/gnu/H-i686-pc-linux-gnu/bin/../lib/gcc/nios2-elf/4.1.2/../../../../nios2-elf/lib/libc.a(lib_a-vfscanf.o) (_strtoull_r)
/opt/altera/10.1sp1/nios2eds/bin/gnu/H-i686-pc-linux-gnu/bin/../lib/gcc/nios2-elf/4.1.2/../../../../nios2-elf/lib/libc.a(lib_a-ungetc.o)
                              /opt/altera/10.1sp1/nios2eds/bin/gnu/H-i686-pc-linux-gnu/bin/../lib/gcc/nios2-elf/4.1.2/../../../../nios2-elf/lib/libc.a(lib_a-vfscanf.o) (_ungetc_r)
/opt/altera/10.1sp1/nios2eds/bin/gnu/H-i686-pc-linux-gnu/bin/../lib/gcc/nios2-elf/4.1.2/../../../../nios2-elf/lib/libc.a(lib_a-callocr.o)
                              /opt/altera/10.1sp1/nios2eds/bin/gnu/H-i686-pc-linux-gnu/bin/../lib/gcc/nios2-elf/4.1.2/../../../../nios2-elf/lib/libc.a(lib_a-mprec.o) (_calloc_r)
/opt/altera/10.1sp1/nios2eds/bin/gnu/H-i686-pc-linux-gnu/bin/../lib/gcc/nios2-elf/4.1.2/../../../../nios2-elf/lib/libc.a(lib_a-gdtoa-gethex.o)
                              /opt/altera/10.1sp1/nios2eds/bin/gnu/H-i686-pc-linux-gnu/bin/../lib/gcc/nios2-elf/4.1.2/../../../../nios2-elf/lib/libc.a(lib_a-strtod.o) (__gethex)
/opt/altera/10.1sp1/nios2eds/bin/gnu/H-i686-pc-linux-gnu/bin/../lib/gcc/nios2-elf/4.1.2/../../../../nios2-elf/lib/libc.a(lib_a-gdtoa-hexnan.o)
                              /opt/altera/10.1sp1/nios2eds/bin/gnu/H-i686-pc-linux-gnu/bin/../lib/gcc/nios2-elf/4.1.2/../../../../nios2-elf/lib/libc.a(lib_a-strtod.o) (__hexnan)
/opt/altera/10.1sp1/nios2eds/bin/gnu/H-i686-pc-linux-gnu/bin/../lib/gcc/nios2-elf/4.1.2/libgcc.a(_muldi3.o)
                              /opt/altera/10.1sp1/nios2eds/bin/gnu/H-i686-pc-linux-gnu/bin/../lib/gcc/nios2-elf/4.1.2/../../../../nios2-elf/lib/libc.a(lib_a-strtoll_r.o) (__muldi3)
/opt/altera/10.1sp1/nios2eds/bin/gnu/H-i686-pc-linux-gnu/bin/../lib/gcc/nios2-elf/4.1.2/libgcc.a(_fixunsdfsi.o)
                              /opt/altera/10.1sp1/nios2eds/bin/gnu/H-i686-pc-linux-gnu/bin/../lib/gcc/nios2-elf/4.1.2/../../../../nios2-elf/lib/libc.a(lib_a-strtod.o) (__fixunsdfsi)
/opt/altera/10.1sp1/nios2eds/bin/gnu/H-i686-pc-linux-gnu/bin/../lib/gcc/nios2-elf/4.1.2/libgcc.a(_udivdi3.o)
                              /opt/altera/10.1sp1/nios2eds/bin/gnu/H-i686-pc-linux-gnu/bin/../lib/gcc/nios2-elf/4.1.2/../../../../nios2-elf/lib/libc.a(lib_a-vfprintf.o) (__udivdi3)
/opt/altera/10.1sp1/nios2eds/bin/gnu/H-i686-pc-linux-gnu/bin/../lib/gcc/nios2-elf/4.1.2/libgcc.a(_umoddi3.o)
                              /opt/altera/10.1sp1/nios2eds/bin/gnu/H-i686-pc-linux-gnu/bin/../lib/gcc/nios2-elf/4.1.2/../../../../nios2-elf/lib/libc.a(lib_a-vfprintf.o) (__umoddi3)
/opt/altera/10.1sp1/nios2eds/bin/gnu/H-i686-pc-linux-gnu/bin/../lib/gcc/nios2-elf/4.1.2/libgcc.a(_ne_sf.o)
                              /opt/altera/10.1sp1/nios2eds/bin/gnu/H-i686-pc-linux-gnu/bin/../lib/gcc/nios2-elf/4.1.2/../../../../nios2-elf/lib/libc.a(lib_a-strtod.o) (__nesf2)
/opt/altera/10.1sp1/nios2eds/bin/gnu/H-i686-pc-linux-gnu/bin/../lib/gcc/nios2-elf/4.1.2/libgcc.a(_gt_sf.o)
                              /opt/altera/10.1sp1/nios2eds/bin/gnu/H-i686-pc-linux-gnu/bin/../lib/gcc/nios2-elf/4.1.2/../../../../nios2-elf/lib/libc.a(lib_a-strtod.o) (__gtsf2)
/opt/altera/10.1sp1/nios2eds/bin/gnu/H-i686-pc-linux-gnu/bin/../lib/gcc/nios2-elf/4.1.2/libgcc.a(_lt_sf.o)
                              /opt/altera/10.1sp1/nios2eds/bin/gnu/H-i686-pc-linux-gnu/bin/../lib/gcc/nios2-elf/4.1.2/../../../../nios2-elf/lib/libc.a(lib_a-strtod.o) (__ltsf2)
/opt/altera/10.1sp1/nios2eds/bin/gnu/H-i686-pc-linux-gnu/bin/../lib/gcc/nios2-elf/4.1.2/libgcc.a(_addsub_df.o)
                              /opt/altera/10.1sp1/nios2eds/bin/gnu/H-i686-pc-linux-gnu/bin/../lib/gcc/nios2-elf/4.1.2/../../../../nios2-elf/lib/libc.a(lib_a-dtoa.o) (__subdf3)
/opt/altera/10.1sp1/nios2eds/bin/gnu/H-i686-pc-linux-gnu/bin/../lib/gcc/nios2-elf/4.1.2/libgcc.a(_mul_df.o)
                              /opt/altera/10.1sp1/nios2eds/bin/gnu/H-i686-pc-linux-gnu/bin/../lib/gcc/nios2-elf/4.1.2/../../../../nios2-elf/lib/libc.a(lib_a-dtoa.o) (__muldf3)
/opt/altera/10.1sp1/nios2eds/bin/gnu/H-i686-pc-linux-gnu/bin/../lib/gcc/nios2-elf/4.1.2/libgcc.a(_div_df.o)
                              /opt/altera/10.1sp1/nios2eds/bin/gnu/H-i686-pc-linux-gnu/bin/../lib/gcc/nios2-elf/4.1.2/../../../../nios2-elf/lib/libc.a(lib_a-dtoa.o) (__divdf3)
/opt/altera/10.1sp1/nios2eds/bin/gnu/H-i686-pc-linux-gnu/bin/../lib/gcc/nios2-elf/4.1.2/libgcc.a(_eq_df.o)
                              /opt/altera/10.1sp1/nios2eds/bin/gnu/H-i686-pc-linux-gnu/bin/../lib/gcc/nios2-elf/4.1.2/../../../../nios2-elf/lib/libc.a(lib_a-vfprintf.o) (__eqdf2)
/opt/altera/10.1sp1/nios2eds/bin/gnu/H-i686-pc-linux-gnu/bin/../lib/gcc/nios2-elf/4.1.2/libgcc.a(_ne_df.o)
                              /opt/altera/10.1sp1/nios2eds/bin/gnu/H-i686-pc-linux-gnu/bin/../lib/gcc/nios2-elf/4.1.2/../../../../nios2-elf/lib/libc.a(lib_a-vfprintf.o) (__nedf2)
/opt/altera/10.1sp1/nios2eds/bin/gnu/H-i686-pc-linux-gnu/bin/../lib/gcc/nios2-elf/4.1.2/libgcc.a(_gt_df.o)
                              /opt/altera/10.1sp1/nios2eds/bin/gnu/H-i686-pc-linux-gnu/bin/../lib/gcc/nios2-elf/4.1.2/../../../../nios2-elf/lib/libc.a(lib_a-dtoa.o) (__gtdf2)
/opt/altera/10.1sp1/nios2eds/bin/gnu/H-i686-pc-linux-gnu/bin/../lib/gcc/nios2-elf/4.1.2/libgcc.a(_ge_df.o)
                              /opt/altera/10.1sp1/nios2eds/bin/gnu/H-i686-pc-linux-gnu/bin/../lib/gcc/nios2-elf/4.1.2/../../../../nios2-elf/lib/libc.a(lib_a-dtoa.o) (__gedf2)
/opt/altera/10.1sp1/nios2eds/bin/gnu/H-i686-pc-linux-gnu/bin/../lib/gcc/nios2-elf/4.1.2/libgcc.a(_lt_df.o)
                              /opt/altera/10.1sp1/nios2eds/bin/gnu/H-i686-pc-linux-gnu/bin/../lib/gcc/nios2-elf/4.1.2/../../../../nios2-elf/lib/libc.a(lib_a-vfprintf.o) (__ltdf2)
/opt/altera/10.1sp1/nios2eds/bin/gnu/H-i686-pc-linux-gnu/bin/../lib/gcc/nios2-elf/4.1.2/libgcc.a(_le_df.o)
                              /opt/altera/10.1sp1/nios2eds/bin/gnu/H-i686-pc-linux-gnu/bin/../lib/gcc/nios2-elf/4.1.2/../../../../nios2-elf/lib/libc.a(lib_a-strtod.o) (__ledf2)
/opt/altera/10.1sp1/nios2eds/bin/gnu/H-i686-pc-linux-gnu/bin/../lib/gcc/nios2-elf/4.1.2/libgcc.a(_si_to_df.o)
                              /opt/altera/10.1sp1/nios2eds/bin/gnu/H-i686-pc-linux-gnu/bin/../lib/gcc/nios2-elf/4.1.2/../../../../nios2-elf/lib/libc.a(lib_a-dtoa.o) (__floatsidf)
/opt/altera/10.1sp1/nios2eds/bin/gnu/H-i686-pc-linux-gnu/bin/../lib/gcc/nios2-elf/4.1.2/libgcc.a(_df_to_si.o)
                              /opt/altera/10.1sp1/nios2eds/bin/gnu/H-i686-pc-linux-gnu/bin/../lib/gcc/nios2-elf/4.1.2/../../../../nios2-elf/lib/libc.a(lib_a-dtoa.o) (__fixdfsi)
/opt/altera/10.1sp1/nios2eds/bin/gnu/H-i686-pc-linux-gnu/bin/../lib/gcc/nios2-elf/4.1.2/libgcc.a(_df_to_sf.o)
                              /opt/altera/10.1sp1/nios2eds/bin/gnu/H-i686-pc-linux-gnu/bin/../lib/gcc/nios2-elf/4.1.2/../../../../nios2-elf/lib/libc.a(lib_a-vfscanf.o) (__truncdfsf2)
/opt/altera/10.1sp1/nios2eds/bin/gnu/H-i686-pc-linux-gnu/bin/../lib/gcc/nios2-elf/4.1.2/libgcc.a(_thenan_df.o)
                              /opt/altera/10.1sp1/nios2eds/bin/gnu/H-i686-pc-linux-gnu/bin/../lib/gcc/nios2-elf/4.1.2/libgcc.a(_addsub_df.o) (__thenan_df)
/opt/altera/10.1sp1/nios2eds/bin/gnu/H-i686-pc-linux-gnu/bin/../lib/gcc/nios2-elf/4.1.2/libgcc.a(_usi_to_df.o)
                              /opt/altera/10.1sp1/nios2eds/bin/gnu/H-i686-pc-linux-gnu/bin/../lib/gcc/nios2-elf/4.1.2/../../../../nios2-elf/lib/libc.a(lib_a-dtoa.o) (__floatunsidf)
/opt/altera/10.1sp1/nios2eds/bin/gnu/H-i686-pc-linux-gnu/bin/../lib/gcc/nios2-elf/4.1.2/libgcc.a(_clz.o)
                              /opt/altera/10.1sp1/nios2eds/bin/gnu/H-i686-pc-linux-gnu/bin/../lib/gcc/nios2-elf/4.1.2/libgcc.a(_udivdi3.o) (__clz_tab)
/opt/altera/10.1sp1/nios2eds/bin/gnu/H-i686-pc-linux-gnu/bin/../lib/gcc/nios2-elf/4.1.2/libgcc.a(_clzsi2.o)
                              /opt/altera/10.1sp1/nios2eds/bin/gnu/H-i686-pc-linux-gnu/bin/../lib/gcc/nios2-elf/4.1.2/libgcc.a(_si_to_df.o) (__clzsi2)
/opt/altera/10.1sp1/nios2eds/bin/gnu/H-i686-pc-linux-gnu/bin/../lib/gcc/nios2-elf/4.1.2/libgcc.a(_unpack_sf.o)
                              /opt/altera/10.1sp1/nios2eds/bin/gnu/H-i686-pc-linux-gnu/bin/../lib/gcc/nios2-elf/4.1.2/libgcc.a(_ne_sf.o) (__unpack_f)
/opt/altera/10.1sp1/nios2eds/bin/gnu/H-i686-pc-linux-gnu/bin/../lib/gcc/nios2-elf/4.1.2/libgcc.a(_fpcmp_parts_sf.o)
                              /opt/altera/10.1sp1/nios2eds/bin/gnu/H-i686-pc-linux-gnu/bin/../lib/gcc/nios2-elf/4.1.2/libgcc.a(_ne_sf.o) (__fpcmp_parts_f)
/opt/altera/10.1sp1/nios2eds/bin/gnu/H-i686-pc-linux-gnu/bin/../lib/gcc/nios2-elf/4.1.2/libgcc.a(_make_sf.o)
                              /opt/altera/10.1sp1/nios2eds/bin/gnu/H-i686-pc-linux-gnu/bin/../lib/gcc/nios2-elf/4.1.2/libgcc.a(_df_to_sf.o) (__make_fp)
/opt/altera/10.1sp1/nios2eds/bin/gnu/H-i686-pc-linux-gnu/bin/../lib/gcc/nios2-elf/4.1.2/libgcc.a(_pack_df.o)
                              /opt/altera/10.1sp1/nios2eds/bin/gnu/H-i686-pc-linux-gnu/bin/../lib/gcc/nios2-elf/4.1.2/libgcc.a(_addsub_df.o) (__pack_d)
/opt/altera/10.1sp1/nios2eds/bin/gnu/H-i686-pc-linux-gnu/bin/../lib/gcc/nios2-elf/4.1.2/libgcc.a(_unpack_df.o)
                              /opt/altera/10.1sp1/nios2eds/bin/gnu/H-i686-pc-linux-gnu/bin/../lib/gcc/nios2-elf/4.1.2/libgcc.a(_addsub_df.o) (__unpack_d)
/opt/altera/10.1sp1/nios2eds/bin/gnu/H-i686-pc-linux-gnu/bin/../lib/gcc/nios2-elf/4.1.2/libgcc.a(_fpcmp_parts_df.o)
                              /opt/altera/10.1sp1/nios2eds/bin/gnu/H-i686-pc-linux-gnu/bin/../lib/gcc/nios2-elf/4.1.2/libgcc.a(_eq_df.o) (__fpcmp_parts_d)
/opt/altera/10.1sp1/nios2eds/bin/gnu/H-i686-pc-linux-gnu/bin/../lib/gcc/nios2-elf/4.1.2/libgcc.a(_pack_sf.o)
                              /opt/altera/10.1sp1/nios2eds/bin/gnu/H-i686-pc-linux-gnu/bin/../lib/gcc/nios2-elf/4.1.2/libgcc.a(_make_sf.o) (__pack_f)
../StereoCameraServer_bsp/libucosii_bsp.a(alt_dcache_flush.o)
                              obj/srec_flash.o (alt_dcache_flush)
../StereoCameraServer_bsp/libucosii_bsp.a(alt_errno.o)
                              obj/altera_avalon_uart_init.o (alt_errno)
../StereoCameraServer_bsp/libucosii_bsp.a(alt_exit.o)
                              /opt/altera/10.1sp1/nios2eds/bin/gnu/H-i686-pc-linux-gnu/bin/../lib/gcc/nios2-elf/4.1.2/../../../../nios2-elf/lib/libc.a(lib_a-abort.o) (_exit)
../StereoCameraServer_bsp/libucosii_bsp.a(alt_flash_dev.o)
                              obj/network_utilities.o (alt_flash_open_dev)
../StereoCameraServer_bsp/libucosii_bsp.a(alt_fstat.o)
                              /opt/altera/10.1sp1/nios2eds/bin/gnu/H-i686-pc-linux-gnu/bin/../lib/gcc/nios2-elf/4.1.2/../../../../nios2-elf/lib/libc.a(lib_a-fstatr.o) (fstat)
../StereoCameraServer_bsp/libucosii_bsp.a(alt_getpid.o)
                              /opt/altera/10.1sp1/nios2eds/bin/gnu/H-i686-pc-linux-gnu/bin/../lib/gcc/nios2-elf/4.1.2/../../../../nios2-elf/lib/libc.a(lib_a-signalr.o) (getpid)
../StereoCameraServer_bsp/libucosii_bsp.a(alt_irq_register.o)
                              obj/altera_avalon_uart_init.o (alt_irq_register)
../StereoCameraServer_bsp/libucosii_bsp.a(alt_irq_vars.o)
                              ../StereoCameraServer_bsp/libucosii_bsp.a(alt_irq_register.o) (alt_irq_active)
../StereoCameraServer_bsp/libucosii_bsp.a(alt_isatty.o)
                              /opt/altera/10.1sp1/nios2eds/bin/gnu/H-i686-pc-linux-gnu/bin/../lib/gcc/nios2-elf/4.1.2/../../../../nios2-elf/lib/libc.a(lib_a-isattyr.o) (isatty)
../StereoCameraServer_bsp/libucosii_bsp.a(alt_kill.o)
                              /opt/altera/10.1sp1/nios2eds/bin/gnu/H-i686-pc-linux-gnu/bin/../lib/gcc/nios2-elf/4.1.2/../../../../nios2-elf/lib/libc.a(lib_a-signalr.o) (kill)
../StereoCameraServer_bsp/libucosii_bsp.a(alt_load.o)
                              ../StereoCameraServer_bsp/obj/HAL/src/crt0.o (alt_load)
../StereoCameraServer_bsp/libucosii_bsp.a(alt_lseek.o)
                              /opt/altera/10.1sp1/nios2eds/bin/gnu/H-i686-pc-linux-gnu/bin/../lib/gcc/nios2-elf/4.1.2/../../../../nios2-elf/lib/libc.a(lib_a-lseekr.o) (lseek)
../StereoCameraServer_bsp/libucosii_bsp.a(alt_main.o)
                              ../StereoCameraServer_bsp/obj/HAL/src/crt0.o (alt_main)
../StereoCameraServer_bsp/libucosii_bsp.a(alt_open.o)
                              /opt/altera/10.1sp1/nios2eds/bin/gnu/H-i686-pc-linux-gnu/bin/../lib/gcc/nios2-elf/4.1.2/../../../../nios2-elf/lib/libc.a(lib_a-openr.o) (open)
../StereoCameraServer_bsp/libucosii_bsp.a(alt_release_fd.o)
                              ../StereoCameraServer_bsp/libucosii_bsp.a(alt_open.o) (alt_release_fd)
../StereoCameraServer_bsp/libucosii_bsp.a(alt_sbrk.o)
                              /opt/altera/10.1sp1/nios2eds/bin/gnu/H-i686-pc-linux-gnu/bin/../lib/gcc/nios2-elf/4.1.2/../../../../nios2-elf/lib/libc.a(lib_a-sbrkr.o) (sbrk)
../StereoCameraServer_bsp/libucosii_bsp.a(alt_tick.o)
                              obj/http.o (_alt_nticks)
../StereoCameraServer_bsp/libucosii_bsp.a(alt_env_lock.o)
                              ../StereoCameraServer_bsp/libucosii_bsp.a(alt_main.o) (alt_envsem)
../StereoCameraServer_bsp/libucosii_bsp.a(alt_malloc_lock.o)
                              /opt/altera/10.1sp1/nios2eds/bin/gnu/H-i686-pc-linux-gnu/bin/../lib/gcc/nios2-elf/4.1.2/../../../../nios2-elf/lib/libc.a(lib_a-freer.o) (__malloc_lock)
../StereoCameraServer_bsp/libucosii_bsp.a(os_core.o)
                              ../StereoCameraServer_bsp/libucosii_bsp.a(alt_main.o) (OSInit)
../StereoCameraServer_bsp/libucosii_bsp.a(os_dbg.o)
                              ../StereoCameraServer_bsp/libucosii_bsp.a(os_core.o) (OSDebugInit)
../StereoCameraServer_bsp/libucosii_bsp.a(os_flag.o)
                              obj/altera_avalon_uart_init.o (OSFlagCreate)
../StereoCameraServer_bsp/libucosii_bsp.a(os_mbox.o)
                              obj/web_server.o (OSMboxCreate)
../StereoCameraServer_bsp/libucosii_bsp.a(os_mem.o)
                              ../StereoCameraServer_bsp/libucosii_bsp.a(os_core.o) (OS_MemInit)
../StereoCameraServer_bsp/libucosii_bsp.a(os_q.o)
                              ../StereoCameraServer_bsp/libucosii_bsp.a(os_core.o) (OS_QInit)
../StereoCameraServer_bsp/libucosii_bsp.a(os_sem.o)
                              obj/altera_avalon_uart_init.o (OSSemCreate)
../StereoCameraServer_bsp/libucosii_bsp.a(os_task.o)
                              obj/web_server.o (OSTaskCreateExt)
../StereoCameraServer_bsp/libucosii_bsp.a(os_time.o)
                              obj/web_server.o (OSTimeDly)
../StereoCameraServer_bsp/libucosii_bsp.a(alt_sys_init.o)
                              ../StereoCameraServer_bsp/libucosii_bsp.a(alt_main.o) (alt_irq_init)
../StereoCameraServer_bsp/libucosii_bsp.a(altera_avalon_cfi_flash.o)
                              ../StereoCameraServer_bsp/libucosii_bsp.a(alt_sys_init.o) (alt_flash_cfi_init)
../StereoCameraServer_bsp/libucosii_bsp.a(altera_avalon_cfi_flash_table.o)
                              ../StereoCameraServer_bsp/libucosii_bsp.a(altera_avalon_cfi_flash.o) (alt_set_flash_width_func)
../StereoCameraServer_bsp/libucosii_bsp.a(altera_avalon_jtag_uart_fd.o)
                              ../StereoCameraServer_bsp/libucosii_bsp.a(alt_sys_init.o) (altera_avalon_jtag_uart_read_fd)
../StereoCameraServer_bsp/libucosii_bsp.a(altera_avalon_jtag_uart_init.o)
                              ../StereoCameraServer_bsp/libucosii_bsp.a(alt_sys_init.o) (altera_avalon_jtag_uart_init)
../StereoCameraServer_bsp/libucosii_bsp.a(altera_avalon_jtag_uart_ioctl.o)
                              ../StereoCameraServer_bsp/libucosii_bsp.a(altera_avalon_jtag_uart_fd.o) (altera_avalon_jtag_uart_ioctl)
../StereoCameraServer_bsp/libucosii_bsp.a(altera_avalon_jtag_uart_read.o)
                              ../StereoCameraServer_bsp/libucosii_bsp.a(altera_avalon_jtag_uart_fd.o) (altera_avalon_jtag_uart_read)
../StereoCameraServer_bsp/libucosii_bsp.a(altera_avalon_jtag_uart_write.o)
                              ../StereoCameraServer_bsp/libucosii_bsp.a(altera_avalon_jtag_uart_fd.o) (altera_avalon_jtag_uart_write)
../StereoCameraServer_bsp/libucosii_bsp.a(altera_avalon_lcd_16207.o)
                              ../StereoCameraServer_bsp/libucosii_bsp.a(alt_sys_init.o) (altera_avalon_lcd_16207_init)
../StereoCameraServer_bsp/libucosii_bsp.a(altera_avalon_lcd_16207_fd.o)
                              ../StereoCameraServer_bsp/libucosii_bsp.a(alt_sys_init.o) (altera_avalon_lcd_16207_write_fd)
../StereoCameraServer_bsp/libucosii_bsp.a(altera_avalon_timer_sc.o)
                              ../StereoCameraServer_bsp/libucosii_bsp.a(alt_sys_init.o) (alt_avalon_timer_sc_init)
../StereoCameraServer_bsp/libucosii_bsp.a(altera_avalon_uart_fd.o)
                              ../StereoCameraServer_bsp/libucosii_bsp.a(alt_sys_init.o) (altera_avalon_uart_read_fd)
../StereoCameraServer_bsp/libucosii_bsp.a(altera_avalon_uart_write.o)
                              ../StereoCameraServer_bsp/libucosii_bsp.a(altera_avalon_uart_fd.o) (altera_avalon_uart_write)
../StereoCameraServer_bsp/libucosii_bsp.a(altera_ro_zipfs.o)
                              ../StereoCameraServer_bsp/libucosii_bsp.a(alt_sys_init.o) (alt_ro_zipfs_open)
../StereoCameraServer_bsp/libucosii_bsp.a(dm9000a.o)
                              ../StereoCameraServer_bsp/libucosii_bsp.a(alt_sys_init.o) (dm9000a_init)
../StereoCameraServer_bsp/libucosii_bsp.a(alt_iniche_close.o)
                              obj/http.o (close)
../StereoCameraServer_bsp/libucosii_bsp.a(alt_iniche_dev.o)
                              ../StereoCameraServer_bsp/libucosii_bsp.a(alt_sys_init.o) (alt_iniche_dev_list)
../StereoCameraServer_bsp/libucosii_bsp.a(alt_iniche_fcntl.o)
                              obj/Camera.o (fcntl)
../StereoCameraServer_bsp/libucosii_bsp.a(alt_iniche_read.o)
                              /opt/altera/10.1sp1/nios2eds/bin/gnu/H-i686-pc-linux-gnu/bin/../lib/gcc/nios2-elf/4.1.2/../../../../nios2-elf/lib/libc.a(lib_a-readr.o) (read)
../StereoCameraServer_bsp/libucosii_bsp.a(alt_iniche_write.o)
                              /opt/altera/10.1sp1/nios2eds/bin/gnu/H-i686-pc-linux-gnu/bin/../lib/gcc/nios2-elf/4.1.2/../../../../nios2-elf/lib/libc.a(lib_a-writer.o) (write)
../StereoCameraServer_bsp/libucosii_bsp.a(ipnet.o)
                              ../StereoCameraServer_bsp/libucosii_bsp.a(dm9000a.o) (rcvdq)
../StereoCameraServer_bsp/libucosii_bsp.a(ipstart.o)
                              ../StereoCameraServer_bsp/libucosii_bsp.a(ipnet.o) (ifNumber)
../StereoCameraServer_bsp/libucosii_bsp.a(igmp_cmn.o)
                              ../StereoCameraServer_bsp/libucosii_bsp.a(ipstart.o) (igmp_init)
../StereoCameraServer_bsp/libucosii_bsp.a(bsdsock.o)
                              obj/http.o (bsd_accept)
../StereoCameraServer_bsp/libucosii_bsp.a(cksum.o)
                              ../StereoCameraServer_bsp/libucosii_bsp.a(igmp_cmn.o) (cksum)
../StereoCameraServer_bsp/libucosii_bsp.a(in_utils.o)
                              ../StereoCameraServer_bsp/libucosii_bsp.a(igmp_cmn.o) (ns_printf)
../StereoCameraServer_bsp/libucosii_bsp.a(netmain.o)
                              obj/web_server.o (iniche_net_ready)
../StereoCameraServer_bsp/libucosii_bsp.a(tk_crnos.o)
                              ../StereoCameraServer_bsp/libucosii_bsp.a(ipnet.o) (tk_yield)
../StereoCameraServer_bsp/libucosii_bsp.a(pktalloc.o)
                              ../StereoCameraServer_bsp/libucosii_bsp.a(ipnet.o) (pk_init)
../StereoCameraServer_bsp/libucosii_bsp.a(q.o)
                              ../StereoCameraServer_bsp/libucosii_bsp.a(ipnet.o) (getq)
../StereoCameraServer_bsp/libucosii_bsp.a(asm_cksum.o)
                              ../StereoCameraServer_bsp/libucosii_bsp.a(cksum.o) (asm_cksum)
../StereoCameraServer_bsp/libucosii_bsp.a(brdutils.o)
                              ../StereoCameraServer_bsp/libucosii_bsp.a(ipnet.o) (dtrap)
../StereoCameraServer_bsp/libucosii_bsp.a(osportco.o)
                              ../StereoCameraServer_bsp/libucosii_bsp.a(tk_crnos.o) (tcp_sleep_count)
../StereoCameraServer_bsp/libucosii_bsp.a(targnios.o)
                              obj/web_server.o (alt_iniche_init)
../StereoCameraServer_bsp/libucosii_bsp.a(nptcp.o)
                              ../StereoCameraServer_bsp/libucosii_bsp.a(bsdsock.o) (soq)
../StereoCameraServer_bsp/libucosii_bsp.a(rawsock.o)
                              ../StereoCameraServer_bsp/libucosii_bsp.a(nptcp.o) (rawip_usrreq)
../StereoCameraServer_bsp/libucosii_bsp.a(sockcall.o)
                              obj/http.o (t_socket)
../StereoCameraServer_bsp/libucosii_bsp.a(socket.o)
                              ../StereoCameraServer_bsp/libucosii_bsp.a(sockcall.o) (socreate)
../StereoCameraServer_bsp/libucosii_bsp.a(socket2.o)
                              ../StereoCameraServer_bsp/libucosii_bsp.a(sockcall.o) (soqremque)
../StereoCameraServer_bsp/libucosii_bsp.a(soselect.o)
                              ../StereoCameraServer_bsp/libucosii_bsp.a(bsdsock.o) (t_select)
../StereoCameraServer_bsp/libucosii_bsp.a(tcp_in.o)
                              ../StereoCameraServer_bsp/libucosii_bsp.a(nptcp.o) (tcp_input)
../StereoCameraServer_bsp/libucosii_bsp.a(tcp_out.o)
                              ../StereoCameraServer_bsp/libucosii_bsp.a(tcp_in.o) (tcp_output)
../StereoCameraServer_bsp/libucosii_bsp.a(tcp_subr.o)
                              ../StereoCameraServer_bsp/libucosii_bsp.a(nptcp.o) (tcp_init)
../StereoCameraServer_bsp/libucosii_bsp.a(tcp_timr.o)
                              ../StereoCameraServer_bsp/libucosii_bsp.a(tcp_in.o) (tcp_keepidle)
../StereoCameraServer_bsp/libucosii_bsp.a(tcp_usr.o)
                              ../StereoCameraServer_bsp/libucosii_bsp.a(nptcp.o) (tcp_usrreq)
../StereoCameraServer_bsp/libucosii_bsp.a(tcpport.o)
                              ../StereoCameraServer_bsp/libucosii_bsp.a(ipstart.o) (tcpinit)
../StereoCameraServer_bsp/libucosii_bsp.a(udpsock.o)
                              ../StereoCameraServer_bsp/libucosii_bsp.a(nptcp.o) (udp_usrreq)
../StereoCameraServer_bsp/libucosii_bsp.a(alt_alarm_start.o)
                              ../StereoCameraServer_bsp/libucosii_bsp.a(altera_avalon_jtag_uart_init.o) (alt_alarm_start)
../StereoCameraServer_bsp/libucosii_bsp.a(alt_close.o)
                              ../StereoCameraServer_bsp/libucosii_bsp.a(alt_iniche_close.o) (alt_close)
../StereoCameraServer_bsp/libucosii_bsp.a(alt_dcache_flush_all.o)
                              ../StereoCameraServer_bsp/libucosii_bsp.a(alt_load.o) (alt_dcache_flush_all)
../StereoCameraServer_bsp/libucosii_bsp.a(alt_dev.o)
                              ../StereoCameraServer_bsp/libucosii_bsp.a(alt_open.o) (alt_dev_list)
../StereoCameraServer_bsp/libucosii_bsp.a(alt_dev_llist_insert.o)
                              ../StereoCameraServer_bsp/libucosii_bsp.a(alt_sys_init.o) (alt_dev_llist_insert)
../StereoCameraServer_bsp/libucosii_bsp.a(alt_do_ctors.o)
                              ../StereoCameraServer_bsp/libucosii_bsp.a(alt_main.o) (_do_ctors)
../StereoCameraServer_bsp/libucosii_bsp.a(alt_do_dtors.o)
                              ../StereoCameraServer_bsp/libucosii_bsp.a(alt_main.o) (_do_dtors)
../StereoCameraServer_bsp/libucosii_bsp.a(alt_fcntl.o)
                              ../StereoCameraServer_bsp/libucosii_bsp.a(alt_iniche_fcntl.o) (alt_fcntl)
../StereoCameraServer_bsp/libucosii_bsp.a(alt_find_dev.o)
                              ../StereoCameraServer_bsp/libucosii_bsp.a(alt_flash_dev.o) (alt_find_dev)
../StereoCameraServer_bsp/libucosii_bsp.a(alt_find_file.o)
                              ../StereoCameraServer_bsp/libucosii_bsp.a(alt_open.o) (alt_find_file)
../StereoCameraServer_bsp/libucosii_bsp.a(alt_fs_reg.o)
                              ../StereoCameraServer_bsp/libucosii_bsp.a(alt_sys_init.o) (alt_fs_reg)
../StereoCameraServer_bsp/libucosii_bsp.a(alt_get_fd.o)
                              ../StereoCameraServer_bsp/libucosii_bsp.a(alt_open.o) (alt_get_fd)
../StereoCameraServer_bsp/libucosii_bsp.a(alt_icache_flush_all.o)
                              ../StereoCameraServer_bsp/libucosii_bsp.a(alt_load.o) (alt_icache_flush_all)
../StereoCameraServer_bsp/libucosii_bsp.a(alt_io_redirect.o)
                              ../StereoCameraServer_bsp/libucosii_bsp.a(alt_main.o) (alt_io_redirect)
../StereoCameraServer_bsp/libucosii_bsp.a(alt_irq_entry.o)
                              ../StereoCameraServer_bsp/libucosii_bsp.a(alt_irq_register.o) (alt_irq_entry)
../StereoCameraServer_bsp/libucosii_bsp.a(alt_irq_handler.o)
                              ../StereoCameraServer_bsp/libucosii_bsp.a(alt_irq_register.o) (alt_irq_handler)
../StereoCameraServer_bsp/libucosii_bsp.a(alt_read.o)
                              ../StereoCameraServer_bsp/libucosii_bsp.a(alt_iniche_read.o) (alt_read)
../StereoCameraServer_bsp/libucosii_bsp.a(alt_remap_cached.o)
                              ../StereoCameraServer_bsp/libucosii_bsp.a(targnios.o) (alt_remap_cached)
../StereoCameraServer_bsp/libucosii_bsp.a(alt_remap_uncached.o)
                              ../StereoCameraServer_bsp/libucosii_bsp.a(targnios.o) (alt_remap_uncached)
../StereoCameraServer_bsp/libucosii_bsp.a(alt_usleep.o)
                              ../StereoCameraServer_bsp/libucosii_bsp.a(altera_avalon_lcd_16207.o) (usleep)
../StereoCameraServer_bsp/libucosii_bsp.a(alt_write.o)
                              ../StereoCameraServer_bsp/libucosii_bsp.a(alt_iniche_write.o) (alt_write)
../StereoCameraServer_bsp/libucosii_bsp.a(altera_nios2_irq.o)
                              ../StereoCameraServer_bsp/libucosii_bsp.a(alt_sys_init.o) (altera_nios2_irq_init)
../StereoCameraServer_bsp/libucosii_bsp.a(os_cpu_a.o)
                              ../StereoCameraServer_bsp/libucosii_bsp.a(os_core.o) (OSIntCtxSw)
../StereoCameraServer_bsp/libucosii_bsp.a(os_cpu_c.o)
                              ../StereoCameraServer_bsp/libucosii_bsp.a(os_task.o) (OSTaskStkInit)
../StereoCameraServer_bsp/libucosii_bsp.a(altera_avalon_cfi_flash_amd.o)
                              ../StereoCameraServer_bsp/libucosii_bsp.a(altera_avalon_cfi_flash_table.o) (alt_program_amd)
../StereoCameraServer_bsp/libucosii_bsp.a(altera_avalon_cfi_flash_intel.o)
                              ../StereoCameraServer_bsp/libucosii_bsp.a(altera_avalon_cfi_flash_table.o) (alt_program_intel)
../StereoCameraServer_bsp/libucosii_bsp.a(allports.o)
                              ../StereoCameraServer_bsp/libucosii_bsp.a(netmain.o) (netmain_init)
../StereoCameraServer_bsp/libucosii_bsp.a(timeouts.o)
                              ../StereoCameraServer_bsp/libucosii_bsp.a(netmain.o) (inet_timer)
../StereoCameraServer_bsp/libucosii_bsp.a(tk_misc.o)
                              ../StereoCameraServer_bsp/libucosii_bsp.a(netmain.o) (create_apptasks)
../StereoCameraServer_bsp/libucosii_bsp.a(et_arp.o)
                              ../StereoCameraServer_bsp/libucosii_bsp.a(ipstart.o) (etainit)
../StereoCameraServer_bsp/libucosii_bsp.a(iface.o)
                              ../StereoCameraServer_bsp/libucosii_bsp.a(ipnet.o) (netlist)
../StereoCameraServer_bsp/libucosii_bsp.a(ip.o)
                              ../StereoCameraServer_bsp/libucosii_bsp.a(ipstart.o) (ip_init)
../StereoCameraServer_bsp/libucosii_bsp.a(ip_reasm.o)
                              ../StereoCameraServer_bsp/libucosii_bsp.a(timeouts.o) (ire_cticks)
../StereoCameraServer_bsp/libucosii_bsp.a(ipdemux.o)
                              ../StereoCameraServer_bsp/libucosii_bsp.a(ipnet.o) (ip_rcv)
../StereoCameraServer_bsp/libucosii_bsp.a(ipmc.o)
                              ../StereoCameraServer_bsp/libucosii_bsp.a(ipstart.o) (in_addmulti)
../StereoCameraServer_bsp/libucosii_bsp.a(ipport.o)
                              ../StereoCameraServer_bsp/libucosii_bsp.a(targnios.o) (port_prep)
../StereoCameraServer_bsp/libucosii_bsp.a(ipraw.o)
                              ../StereoCameraServer_bsp/libucosii_bsp.a(rawsock.o) (ipraw_eps)
../StereoCameraServer_bsp/libucosii_bsp.a(iproute.o)
                              ../StereoCameraServer_bsp/libucosii_bsp.a(ip.o) (cachedRoute)
../StereoCameraServer_bsp/libucosii_bsp.a(udp.o)
                              ../StereoCameraServer_bsp/libucosii_bsp.a(ipdemux.o) (udpdemux)
../StereoCameraServer_bsp/libucosii_bsp.a(igmp.o)
                              ../StereoCameraServer_bsp/libucosii_bsp.a(igmp_cmn.o) (igmpv1_input)
../StereoCameraServer_bsp/libucosii_bsp.a(igmp2.o)
                              ../StereoCameraServer_bsp/libucosii_bsp.a(igmp_cmn.o) (igmpv2_input)
../StereoCameraServer_bsp/libucosii_bsp.a(ipopt.o)
                              ../StereoCameraServer_bsp/libucosii_bsp.a(socket.o) (ip_setmoptions)
../StereoCameraServer_bsp/libucosii_bsp.a(u_mctest.o)
                              ../StereoCameraServer_bsp/libucosii_bsp.a(allports.o) (u_mctest_init)
../StereoCameraServer_bsp/libucosii_bsp.a(memdev.o)
                              ../StereoCameraServer_bsp/libucosii_bsp.a(allports.o) (init_memdev)
../StereoCameraServer_bsp/libucosii_bsp.a(parseip.o)
                              ../StereoCameraServer_bsp/libucosii_bsp.a(u_mctest.o) (inet_addr)
../StereoCameraServer_bsp/libucosii_bsp.a(tcpcksum.o)
                              ../StereoCameraServer_bsp/libucosii_bsp.a(nptcp.o) (tcp_cksum)
../StereoCameraServer_bsp/libucosii_bsp.a(udp_open.o)
                              ../StereoCameraServer_bsp/libucosii_bsp.a(nptcp.o) (firstudp)
../StereoCameraServer_bsp/libucosii_bsp.a(in_pcb.o)
                              ../StereoCameraServer_bsp/libucosii_bsp.a(tcp_usr.o) (in_pcballoc)
../StereoCameraServer_bsp/libucosii_bsp.a(vfsfiles.o)
                              ../StereoCameraServer_bsp/libucosii_bsp.a(memdev.o) (vfsystems)
../StereoCameraServer_bsp/libucosii_bsp.a(vfsport.o)
                              ../StereoCameraServer_bsp/libucosii_bsp.a(allports.o) (prep_vfs)
../StereoCameraServer_bsp/libucosii_bsp.a(alt_busy_sleep.o)
                              ../StereoCameraServer_bsp/libucosii_bsp.a(alt_usleep.o) (alt_busy_sleep)
../StereoCameraServer_bsp/libucosii_bsp.a(alt_exception_entry.o)
                              ../StereoCameraServer_bsp/libucosii_bsp.a(alt_irq_entry.o) (alt_exception)
../StereoCameraServer_bsp/libucosii_bsp.a(alt_icache_flush.o)
                              ../StereoCameraServer_bsp/libucosii_bsp.a(alt_icache_flush_all.o) (alt_icache_flush)
../StereoCameraServer_bsp/libucosii_bsp.a(icmp.o)
                              ../StereoCameraServer_bsp/libucosii_bsp.a(ipdemux.o) (icmprcv)
/opt/altera/10.1sp1/nios2eds/bin/gnu/H-i686-pc-linux-gnu/bin/../lib/gcc/nios2-elf/4.1.2/../../../../nios2-elf/lib/libc.a(lib_a-atexit.o)
                              ../StereoCameraServer_bsp/libucosii_bsp.a(alt_main.o) (atexit)
/opt/altera/10.1sp1/nios2eds/bin/gnu/H-i686-pc-linux-gnu/bin/../lib/gcc/nios2-elf/4.1.2/../../../../nios2-elf/lib/libc.a(lib_a-calloc.o)
                              ../StereoCameraServer_bsp/libucosii_bsp.a(targnios.o) (calloc)
/opt/altera/10.1sp1/nios2eds/bin/gnu/H-i686-pc-linux-gnu/bin/../lib/gcc/nios2-elf/4.1.2/../../../../nios2-elf/lib/libc.a(lib_a-exit.o)
                              ../StereoCameraServer_bsp/libucosii_bsp.a(alt_main.o) (exit)
/opt/altera/10.1sp1/nios2eds/bin/gnu/H-i686-pc-linux-gnu/bin/../lib/gcc/nios2-elf/4.1.2/../../../../nios2-elf/lib/libc.a(lib_a-vprintf.o)
                              ../StereoCameraServer_bsp/libucosii_bsp.a(in_utils.o) (vprintf)
/opt/altera/10.1sp1/nios2eds/bin/gnu/H-i686-pc-linux-gnu/bin/../lib/gcc/nios2-elf/4.1.2/../../../../nios2-elf/lib/libc.a(lib_a-vsprintf.o)
                              ../StereoCameraServer_bsp/libucosii_bsp.a(in_utils.o) (vsprintf)
/opt/altera/10.1sp1/nios2eds/bin/gnu/H-i686-pc-linux-gnu/bin/../lib/gcc/nios2-elf/4.1.2/../../../../nios2-elf/lib/libc.a(lib_a-__atexit.o)
                              /opt/altera/10.1sp1/nios2eds/bin/gnu/H-i686-pc-linux-gnu/bin/../lib/gcc/nios2-elf/4.1.2/../../../../nios2-elf/lib/libc.a(lib_a-atexit.o) (__register_exitproc)
/opt/altera/10.1sp1/nios2eds/bin/gnu/H-i686-pc-linux-gnu/bin/../lib/gcc/nios2-elf/4.1.2/../../../../nios2-elf/lib/libc.a(lib_a-__call_atexit.o)
                              /opt/altera/10.1sp1/nios2eds/bin/gnu/H-i686-pc-linux-gnu/bin/../lib/gcc/nios2-elf/4.1.2/../../../../nios2-elf/lib/libc.a(lib_a-exit.o) (__call_exitprocs)

Allocating common symbols
Common symbol       size              file

soq                 0x14              ../StereoCameraServer_bsp/libucosii_bsp.a(nptcp.o)
upload_buf          0x5b8d88          obj/http.o
alt_irq             0x100             ../StereoCameraServer_bsp/libucosii_bsp.a(alt_irq_handler.o)
tcp_optionbuf       0x4               ../StereoCameraServer_bsp/libucosii_bsp.a(tcp_out.o)
last_flash_sector_offset
                    0x4               obj/network_utilities.o
rt_mib              0x4               ../StereoCameraServer_bsp/libucosii_bsp.a(ip.o)
so_evtmap_create    0x4               ../StereoCameraServer_bsp/libucosii_bsp.a(ipport.o)
board_funcs         0x2a              obj/http.o
OSLockNesting       0x1               ../StereoCameraServer_bsp/libucosii_bsp.a(os_core.o)
tcb                 0x2c              ../StereoCameraServer_bsp/libucosii_bsp.a(tcp_subr.o)
OSRunning           0x1               ../StereoCameraServer_bsp/libucosii_bsp.a(os_core.o)
tcpstat             0xe0              ../StereoCameraServer_bsp/libucosii_bsp.a(tcp_subr.o)
OSIdleCtr           0x4               ../StereoCameraServer_bsp/libucosii_bsp.a(os_core.o)
udp_mib             0x10              ../StereoCameraServer_bsp/libucosii_bsp.a(udp.o)
to_netmain          0x1               ../StereoCameraServer_bsp/libucosii_bsp.a(netmain.o)
OSPrioHighRdy       0x1               ../StereoCameraServer_bsp/libucosii_bsp.a(os_core.o)
errno               0x4               /opt/altera/10.1sp1/nios2eds/bin/gnu/H-i686-pc-linux-gnu/bin/../lib/gcc/nios2-elf/4.1.2/../../../../nios2-elf/lib/libc.a(lib_a-int_errno.o)
lilfreeq            0x14              ../StereoCameraServer_bsp/libucosii_bsp.a(pktalloc.o)
icmp_mib            0x68              ../StereoCameraServer_bsp/libucosii_bsp.a(icmp.o)
resid_semaphore     0x40              ../StereoCameraServer_bsp/libucosii_bsp.a(targnios.o)
alt_heapsem         0x4               ../StereoCameraServer_bsp/libucosii_bsp.a(alt_malloc_lock.o)
OSFlagTbl           0x370             ../StereoCameraServer_bsp/libucosii_bsp.a(os_core.o)
mbstat              0x8               ../StereoCameraServer_bsp/libucosii_bsp.a(nptcp.o)
netq_intmask        0x4               ../StereoCameraServer_bsp/libucosii_bsp.a(osportco.o)
select_wait         0x2               ../StereoCameraServer_bsp/libucosii_bsp.a(nptcp.o)
tcpmib              0x3c              ../StereoCameraServer_bsp/libucosii_bsp.a(nptcp.o)
OSPrioCur           0x1               ../StereoCameraServer_bsp/libucosii_bsp.a(os_core.o)
mheap_sem_ptr       0x4               ../StereoCameraServer_bsp/libucosii_bsp.a(targnios.o)
netlist             0x14              ../StereoCameraServer_bsp/libucosii_bsp.a(iface.o)
mbufq               0x14              ../StereoCameraServer_bsp/libucosii_bsp.a(nptcp.o)
OSTCBList           0x4               ../StereoCameraServer_bsp/libucosii_bsp.a(os_core.o)
alt_fd_list_lock    0x4               ../StereoCameraServer_bsp/libucosii_bsp.a(alt_dev.o)
OSMemTbl            0xc30             ../StereoCameraServer_bsp/libucosii_bsp.a(os_core.o)
OSTickStepState     0x1               ../StereoCameraServer_bsp/libucosii_bsp.a(os_core.o)
SSDTaskStk          0x2000            obj/web_server.o
line_count          0x4               obj/srec_flash.o
OSTaskStatStk       0x800             ../StereoCameraServer_bsp/libucosii_bsp.a(os_core.o)
OSCtxSwCtr          0x4               ../StereoCameraServer_bsp/libucosii_bsp.a(os_core.o)
igmpstats           0x64              ../StereoCameraServer_bsp/libucosii_bsp.a(igmp_cmn.o)
ire_stats           0x18              ../StereoCameraServer_bsp/libucosii_bsp.a(ip_reasm.o)
__hexdig            0x100             /opt/altera/10.1sp1/nios2eds/bin/gnu/H-i686-pc-linux-gnu/bin/../lib/gcc/nios2-elf/4.1.2/../../../../nios2-elf/lib/libc.a(lib_a-gdtoa-gethex.o)
old_mode            0x4               ../StereoCameraServer_bsp/libucosii_bsp.a(osportco.o)
vfs_dir_stale       0x4               ../StereoCameraServer_bsp/libucosii_bsp.a(vfsfiles.o)
cticks_factor       0x4               ../StereoCameraServer_bsp/libucosii_bsp.a(brdutils.o)
g_dm9ka             0x44              ../StereoCameraServer_bsp/libucosii_bsp.a(dm9000a.o)
OSIdleCtrMax        0x4               ../StereoCameraServer_bsp/libucosii_bsp.a(os_core.o)
memestats           0x10              ../StereoCameraServer_bsp/libucosii_bsp.a(pktalloc.o)
intimers            0x64              ../StereoCameraServer_bsp/libucosii_bsp.a(timeouts.o)
OSTCBFreeList       0x4               ../StereoCameraServer_bsp/libucosii_bsp.a(os_core.o)
global_TCPwakeup_setIndx
                    0x4               ../StereoCameraServer_bsp/libucosii_bsp.a(osportco.o)
rcvdq               0x14              ../StereoCameraServer_bsp/libucosii_bsp.a(ipnet.o)
http_rx_buffer      0xc000            obj/http.o
global_tcb_ext      0xfc              ../StereoCameraServer_bsp/libucosii_bsp.a(osportco.o)
netstatic           0x300             ../StereoCameraServer_bsp/libucosii_bsp.a(ipstart.o)
tcp_maxidle         0x4               ../StereoCameraServer_bsp/libucosii_bsp.a(tcp_timr.o)
flash_inf           0x30              obj/http.o
OSCPUUsage          0x1               ../StereoCameraServer_bsp/libucosii_bsp.a(os_core.o)
nets                0x10              ../StereoCameraServer_bsp/libucosii_bsp.a(ipstart.o)
pktlog              0xf0              ../StereoCameraServer_bsp/libucosii_bsp.a(pktalloc.o)
lcdDevice           0x4               obj/web_server.o
frag                0x104             obj/srec_flash.o
OSTaskCtr           0x1               ../StereoCameraServer_bsp/libucosii_bsp.a(os_core.o)
OSMemFreeList       0x4               ../StereoCameraServer_bsp/libucosii_bsp.a(os_core.o)
vfs_open_files      0x4               ../StereoCameraServer_bsp/libucosii_bsp.a(vfsfiles.o)
cticks              0x4               ../StereoCameraServer_bsp/libucosii_bsp.a(osportco.o)
to_nettick          0x1               ../StereoCameraServer_bsp/libucosii_bsp.a(netmain.o)
WSInitialTaskStk    0x2000            obj/web_server.o
last_flash_sector   0x4               obj/network_utilities.o
OSQTbl              0x1e0             ../StereoCameraServer_bsp/libucosii_bsp.a(os_core.o)
OSTCBHighRdy        0x4               ../StereoCameraServer_bsp/libucosii_bsp.a(os_core.o)
OSQFreeList         0x4               ../StereoCameraServer_bsp/libucosii_bsp.a(os_core.o)
OSRdyGrp            0x1               ../StereoCameraServer_bsp/libucosii_bsp.a(os_core.o)
ip_mib              0x50              ../StereoCameraServer_bsp/libucosii_bsp.a(ip.o)
OS_TPS              0x4               ../StereoCameraServer_bsp/libucosii_bsp.a(brdutils.o)
lcd_sem             0x4               obj/network_utilities.o
_atexit0            0x190             /opt/altera/10.1sp1/nios2eds/bin/gnu/H-i686-pc-linux-gnu/bin/../lib/gcc/nios2-elf/4.1.2/../../../../nios2-elf/lib/libc.a(lib_a-atexit.o)
current_flash_block
                    0x4               obj/srec_flash.o
OSRdyTbl            0x3               ../StereoCameraServer_bsp/libucosii_bsp.a(os_core.o)
igmp_all_hosts_group
                    0x4               ../StereoCameraServer_bsp/libucosii_bsp.a(igmp_cmn.o)
LEDTaskStk          0x2000            obj/web_server.o
eth_prt_buf         0x12              ../StereoCameraServer_bsp/libucosii_bsp.a(in_utils.o)
app_semaphore       0x18              ../StereoCameraServer_bsp/libucosii_bsp.a(targnios.o)
rcvdq_sem_ptr       0x4               ../StereoCameraServer_bsp/libucosii_bsp.a(targnios.o)
OSEventFreeList     0x4               ../StereoCameraServer_bsp/libucosii_bsp.a(os_core.o)
http_tx_buffer      0xc000            obj/http.o
mfreeq              0x14              ../StereoCameraServer_bsp/libucosii_bsp.a(nptcp.o)
CAMTaskStk          0x2000            obj/web_server.o
global_TCPwakeup_set
                    0xf0              ../StereoCameraServer_bsp/libucosii_bsp.a(osportco.o)
bigfreeq            0x14              ../StereoCameraServer_bsp/libucosii_bsp.a(pktalloc.o)
so_evtmap_delete    0x4               ../StereoCameraServer_bsp/libucosii_bsp.a(ipport.o)
tcp_saveti          0x28              ../StereoCameraServer_bsp/libucosii_bsp.a(tcp_in.o)
OSIntNesting        0x1               ../StereoCameraServer_bsp/libucosii_bsp.a(os_core.o)
so_evtmap           0x1               ../StereoCameraServer_bsp/libucosii_bsp.a(ipport.o)
board_control_mbox  0x4               obj/web_server.o
to_wstask           0x1               obj/web_server.o
OSTCBCur            0x4               ../StereoCameraServer_bsp/libucosii_bsp.a(os_core.o)
arp_table           0x100             ../StereoCameraServer_bsp/libucosii_bsp.a(et_arp.o)
tcp_iss             0x4               ../StereoCameraServer_bsp/libucosii_bsp.a(tcp_timr.o)
vfs_total_rw_space  0x4               ../StereoCameraServer_bsp/libucosii_bsp.a(vfsfiles.o)
OSTime              0x4               ../StereoCameraServer_bsp/libucosii_bsp.a(os_core.o)
OSTaskIdleStk       0x800             ../StereoCameraServer_bsp/libucosii_bsp.a(os_core.o)
OSEventTbl          0xb40             ../StereoCameraServer_bsp/libucosii_bsp.a(os_core.o)
vfs_total_dyna_files
                    0x4               ../StereoCameraServer_bsp/libucosii_bsp.a(vfsfiles.o)
OSTCBTbl            0x510             ../StereoCameraServer_bsp/libucosii_bsp.a(os_core.o)
ipreturn            0x12              ../StereoCameraServer_bsp/libucosii_bsp.a(in_utils.o)
OSFlagFreeList      0x4               ../StereoCameraServer_bsp/libucosii_bsp.a(os_core.o)
dropline            0x4               ../StereoCameraServer_bsp/libucosii_bsp.a(tcp_in.o)
OSStatRdy           0x1               ../StereoCameraServer_bsp/libucosii_bsp.a(os_core.o)
OSTCBPrioTbl        0x54              ../StereoCameraServer_bsp/libucosii_bsp.a(os_core.o)
igmp_all_rtrs_group
                    0x4               ../StereoCameraServer_bsp/libucosii_bsp.a(igmp_cmn.o)
BCTaskStk           0x2000            obj/web_server.o
alt_envsem          0x4               ../StereoCameraServer_bsp/libucosii_bsp.a(alt_env_lock.o)
OSIdleCtrRun        0x4               ../StereoCameraServer_bsp/libucosii_bsp.a(os_core.o)

Discarded input sections

 .group         0x00000000        0x8 /opt/altera/10.1sp1/nios2eds/bin/gnu/H-i686-pc-linux-gnu/bin/../lib/gcc/nios2-elf/4.1.2/../../../../nios2-elf/lib/libstdc++.a(eh_exception.o)
 .group         0x00000000        0x8 /opt/altera/10.1sp1/nios2eds/bin/gnu/H-i686-pc-linux-gnu/bin/../lib/gcc/nios2-elf/4.1.2/../../../../nios2-elf/lib/libstdc++.a(eh_exception.o)
 .group         0x00000000        0x8 /opt/altera/10.1sp1/nios2eds/bin/gnu/H-i686-pc-linux-gnu/bin/../lib/gcc/nios2-elf/4.1.2/../../../../nios2-elf/lib/libstdc++.a(eh_exception.o)
 .group         0x00000000        0x8 /opt/altera/10.1sp1/nios2eds/bin/gnu/H-i686-pc-linux-gnu/bin/../lib/gcc/nios2-elf/4.1.2/../../../../nios2-elf/lib/libstdc++.a(eh_exception.o)
 .group         0x00000000        0x8 /opt/altera/10.1sp1/nios2eds/bin/gnu/H-i686-pc-linux-gnu/bin/../lib/gcc/nios2-elf/4.1.2/../../../../nios2-elf/lib/libstdc++.a(eh_exception.o)
 .group         0x00000000        0x8 /opt/altera/10.1sp1/nios2eds/bin/gnu/H-i686-pc-linux-gnu/bin/../lib/gcc/nios2-elf/4.1.2/../../../../nios2-elf/lib/libstdc++.a(eh_exception.o)
 .group         0x00000000        0x8 /opt/altera/10.1sp1/nios2eds/bin/gnu/H-i686-pc-linux-gnu/bin/../lib/gcc/nios2-elf/4.1.2/../../../../nios2-elf/lib/libstdc++.a(si_class_type_info.o)
 .group         0x00000000        0x8 /opt/altera/10.1sp1/nios2eds/bin/gnu/H-i686-pc-linux-gnu/bin/../lib/gcc/nios2-elf/4.1.2/../../../../nios2-elf/lib/libstdc++.a(si_class_type_info.o)
 .group         0x00000000        0x8 /opt/altera/10.1sp1/nios2eds/bin/gnu/H-i686-pc-linux-gnu/bin/../lib/gcc/nios2-elf/4.1.2/../../../../nios2-elf/lib/libstdc++.a(si_class_type_info.o)
 .group         0x00000000        0x8 /opt/altera/10.1sp1/nios2eds/bin/gnu/H-i686-pc-linux-gnu/bin/../lib/gcc/nios2-elf/4.1.2/../../../../nios2-elf/lib/libstdc++.a(tinfo.o)
 .group         0x00000000        0x8 /opt/altera/10.1sp1/nios2eds/bin/gnu/H-i686-pc-linux-gnu/bin/../lib/gcc/nios2-elf/4.1.2/../../../../nios2-elf/lib/libstdc++.a(tinfo.o)
 .group         0x00000000        0x8 /opt/altera/10.1sp1/nios2eds/bin/gnu/H-i686-pc-linux-gnu/bin/../lib/gcc/nios2-elf/4.1.2/../../../../nios2-elf/lib/libstdc++.a(tinfo.o)
 .group         0x00000000        0x8 /opt/altera/10.1sp1/nios2eds/bin/gnu/H-i686-pc-linux-gnu/bin/../lib/gcc/nios2-elf/4.1.2/../../../../nios2-elf/lib/libstdc++.a(class_type_info.o)
 .group         0x00000000        0x8 /opt/altera/10.1sp1/nios2eds/bin/gnu/H-i686-pc-linux-gnu/bin/../lib/gcc/nios2-elf/4.1.2/../../../../nios2-elf/lib/libstdc++.a(class_type_info.o)
 .group         0x00000000        0x8 /opt/altera/10.1sp1/nios2eds/bin/gnu/H-i686-pc-linux-gnu/bin/../lib/gcc/nios2-elf/4.1.2/../../../../nios2-elf/lib/libstdc++.a(class_type_info.o)

Memory Configuration

Name             Origin             Length             Attributes
sdram            0x00800000         0x00800000
reset            0x01400000         0x00000020
ext_flash        0x01400020         0x003fffe0
memory_BEFORE_EXCEPTION 0x01904000         0x00000020
memory           0x01904020         0x00003fe0
*default*        0x00000000         0xffffffff

Linker script and memory map

LOAD ../StereoCameraServer_bsp/obj/HAL/src/crt0.o
LOAD obj/alt_error_handler.o
LOAD obj/altera_avalon_uart_init.o
LOAD obj/altera_avalon_uart_read.o
LOAD obj/http.o
LOAD obj/network_utilities.o
LOAD obj/srec_flash.o
LOAD obj/web_server.o
LOAD obj/Camera.o
LOAD obj/StereoCamera.o
LOAD obj/cam_control.o
LOAD /opt/altera/10.1sp1/nios2eds/bin/gnu/H-i686-pc-linux-gnu/bin/../lib/gcc/nios2-elf/4.1.2/../../../../nios2-elf/lib/libstdc++.a
LOAD /opt/altera/10.1sp1/nios2eds/bin/gnu/H-i686-pc-linux-gnu/bin/../lib/gcc/nios2-elf/4.1.2/../../../../nios2-elf/lib/libm.a
LOAD /opt/altera/10.1sp1/nios2eds/bin/gnu/H-i686-pc-linux-gnu/bin/../lib/gcc/nios2-elf/4.1.2/libgcc.a
START GROUP
LOAD /opt/altera/10.1sp1/nios2eds/bin/gnu/H-i686-pc-linux-gnu/bin/../lib/gcc/nios2-elf/4.1.2/../../../../nios2-elf/lib/libc.a
LOAD /opt/altera/10.1sp1/nios2eds/bin/gnu/H-i686-pc-linux-gnu/bin/../lib/gcc/nios2-elf/4.1.2/libgcc.a
LOAD ../StereoCameraServer_bsp/libucosii_bsp.a
END GROUP
LOAD /opt/altera/10.1sp1/nios2eds/bin/gnu/H-i686-pc-linux-gnu/bin/../lib/gcc/nios2-elf/4.1.2/libgcc.a
                0x00800000                __alt_mem_sdram = 0x800000
                0x01400000                __alt_mem_ext_flash = 0x1400000
                0x01904000                __alt_mem_memory = 0x1904000

.entry          0x01400000       0x20
 *(.entry)
 .entry         0x01400000       0x20 ../StereoCameraServer_bsp/obj/HAL/src/crt0.o
                0x01400000                __reset

.exceptions     0x01904020      0x1a0
                0x01904020                PROVIDE (__ram_exceptions_start, ABSOLUTE (.))
                0x01904020                . = ALIGN (0x20)
 *(.irq)
 *(.exceptions.entry.label)
 .exceptions.entry.label
                0x01904020        0x0 ../StereoCameraServer_bsp/libucosii_bsp.a(alt_irq_entry.o)
                0x01904020                alt_irq_entry
 .exceptions.entry.label
                0x01904020        0x0 ../StereoCameraServer_bsp/libucosii_bsp.a(alt_exception_entry.o)
                0x01904020                alt_exception
 *(.exceptions.entry.user)
 *(.exceptions.entry)
 .exceptions.entry
                0x01904020       0x54 ../StereoCameraServer_bsp/libucosii_bsp.a(alt_exception_entry.o)
 *(.exceptions.irqtest.user)
 *(.exceptions.irqtest)
 .exceptions.irqtest
                0x01904074       0x10 ../StereoCameraServer_bsp/libucosii_bsp.a(alt_irq_entry.o)
 *(.exceptions.irqhandler.user)
 *(.exceptions.irqhandler)
 .exceptions.irqhandler
                0x01904084        0x4 ../StereoCameraServer_bsp/libucosii_bsp.a(alt_irq_entry.o)
 *(.exceptions.irqreturn.user)
 *(.exceptions.irqreturn)
 .exceptions.irqreturn
                0x01904088        0x4 ../StereoCameraServer_bsp/libucosii_bsp.a(alt_irq_entry.o)
 *(.exceptions.notirq.label)
 .exceptions.notirq.label
                0x0190408c        0x0 ../StereoCameraServer_bsp/libucosii_bsp.a(alt_irq_entry.o)
 *(.exceptions.notirq.user)
 *(.exceptions.notirq)
 .exceptions.notirq
                0x0190408c        0x8 ../StereoCameraServer_bsp/libucosii_bsp.a(alt_exception_entry.o)
 *(.exceptions.soft.user)
 *(.exceptions.soft)
 *(.exceptions.unknown.user)
 *(.exceptions.unknown)
 .exceptions.unknown
                0x01904094        0x4 ../StereoCameraServer_bsp/libucosii_bsp.a(alt_exception_entry.o)
 *(.exceptions.exit.label)
 .exceptions.exit.label
                0x01904098        0x0 ../StereoCameraServer_bsp/libucosii_bsp.a(alt_irq_entry.o)
 .exceptions.exit.label
                0x01904098        0x0 ../StereoCameraServer_bsp/libucosii_bsp.a(alt_exception_entry.o)
 *(.exceptions.exit.user)
 *(.exceptions.exit)
 .exceptions.exit
                0x01904098       0x54 ../StereoCameraServer_bsp/libucosii_bsp.a(alt_exception_entry.o)
 *(.exceptions)
 .exceptions    0x019040ec       0xd4 ../StereoCameraServer_bsp/libucosii_bsp.a(alt_irq_handler.o)
                0x019040ec                alt_irq_handler
                0x019041c0                PROVIDE (__ram_exceptions_end, ABSOLUTE (.))
                0x01904020                PROVIDE (__flash_exceptions_start, LOADADDR (.exceptions))

.text           0x00800000    0x53c0c
                0x00800000                PROVIDE (stext, ABSOLUTE (.))
 *(.interp)
 *(.hash)
 *(.dynsym)
 *(.dynstr)
 *(.gnu.version)
 *(.gnu.version_d)
 *(.gnu.version_r)
 *(.rel.init)
 *(.rela.init)
 *(.rel.text .rel.text.* .rel.gnu.linkonce.t.*)
 *(.rela.text .rela.text.* .rela.gnu.linkonce.t.*)
 *(.rel.fini)
 *(.rela.fini)
 *(.rel.rodata .rel.rodata.* .rel.gnu.linkonce.r.*)
 *(.rela.rodata .rela.rodata.* .rela.gnu.linkonce.r.*)
 *(.rel.data .rel.data.* .rel.gnu.linkonce.d.*)
 *(.rela.data .rela.data.* .rela.gnu.linkonce.d.*)
 *(.rel.tdata .rel.tdata.* .rel.gnu.linkonce.td.*)
 *(.rela.tdata .rela.tdata.* .rela.gnu.linkonce.td.*)
 *(.rel.tbss .rel.tbss.* .rel.gnu.linkonce.tb.*)
 *(.rela.tbss .rela.tbss.* .rela.gnu.linkonce.tb.*)
 *(.rel.ctors)
 *(.rela.ctors)
 *(.rel.dtors)
 *(.rela.dtors)
 *(.rel.got)
 *(.rela.got)
 *(.rel.sdata .rel.sdata.* .rel.gnu.linkonce.s.*)
 *(.rela.sdata .rela.sdata.* .rela.gnu.linkonce.s.*)
 *(.rel.sbss .rel.sbss.* .rel.gnu.linkonce.sb.*)
 *(.rela.sbss .rela.sbss.* .rela.gnu.linkonce.sb.*)
 *(.rel.sdata2 .rel.sdata2.* .rel.gnu.linkonce.s2.*)
 *(.rela.sdata2 .rela.sdata2.* .rela.gnu.linkonce.s2.*)
 *(.rel.sbss2 .rel.sbss2.* .rel.gnu.linkonce.sb2.*)
 *(.rela.sbss2 .rela.sbss2.* .rela.gnu.linkonce.sb2.*)
 *(.rel.bss .rel.bss.* .rel.gnu.linkonce.b.*)
 *(.rela.bss .rela.bss.* .rela.gnu.linkonce.b.*)
 *(.rel.plt)
 *(.rela.plt)
 *(.rel.dyn)
 *(.init)
 *(.plt)
 *(.text .stub .text.* .gnu.linkonce.t.*)
 .text          0x00800000       0x4c ../StereoCameraServer_bsp/obj/HAL/src/crt0.o
                0x00800000                _start
 .text          0x0080004c      0x624 obj/alt_error_handler.o
                0x0080004c                alt_uCOSIIErrorHandler
 .text          0x00800670      0x5f8 obj/altera_avalon_uart_init.o
                0x00800670                altera_avalon_uart_init
                0x00800c08                altera_avalon_uart_close
 .text          0x00800c68      0x310 obj/altera_avalon_uart_read.o
                0x00800c68                altera_avalon_uart_read
 .text          0x00800f78     0x3608 obj/http.o
                0x00800f78                print
                0x00800fa8                sweep
                0x00801094                http_cleanup_lcd_text
                0x00801110                lcd_output
                0x008011dc                http_parse_multipart_header
                0x00801458                file_upload
                0x008016d8                ProgFlashStub
                0x00801728                http_reset_connection
                0x00801818                http_manage_connection
                0x008019dc                http_handle_accept
                0x00801b04                http_read_line
                0x00801bb0                http_parse_type_boundary
                0x00801ca8                http_process_headers
                0x00801ee4                http_process_request
                0x008021c4                http_send_file_chunk
                0x00802370                http_send_file_header
                0x00802ab4                http_find_file
                0x00802d9c                http_send_redirect
                0x00802dd0                http_handle_post
                0x008030fc                http_prepare_response
                0x008032fc                http_send_left_image_chunk
                0x0080352c                http_send_right_image_chunk
                0x00803760                http_send_capture_left_header
                0x00803a6c                http_send_capture_right_header
                0x00803d78                http_handle_receive
                0x00804140                http_handle_transmit
                0x00804230                WSTask
 .text          0x00804580      0xa10 obj/network_utilities.o
                0x00804580                die_with_error
                0x008045b0                get_serial_number
                0x0080478c                generate_and_store_mac_addr
                0x00804958                generate_mac_addr
                0x00804a94                get_board_mac_addr
                0x00804c28                get_mac_addr
                0x00804c80                get_ip_addr
                0x00804e4c                FindLastFlashSectorOffset
 .text          0x00804f90      0x7f8 obj/srec_flash.o
                0x00804f90                ProgFlash
                0x00805234                ParseAndProgramLine
                0x008054f0                ParseSRECBuf
 .text          0x00805788      0x6f8 obj/web_server.o
                0x00805788                lcd_ip_addr
                0x00805944                WSInitialTask
                0x008059c0                main
                0x00805bf4                lcd_output_text
                0x00805c70                board_control_task
                0x00805d20                LED_task
                0x00805e28                SSD_task
 .text          0x00805e80      0xde4 obj/Camera.o
                0x00805ee0                _ZN6CameraC2Ev
                0x00805f18                _ZN6CameraC1Ev
                0x00805f50                _ZN6Camera14verifyResponseEh
                0x00805fe0                _ZN6Camera12readResponseEhi
                0x008060e4                _ZN6Camera14motionDetectedEv
                0x00806168                _ZN6Camera11sendCommandEhPhh
                0x00806210                _ZN6Camera10runCommandEhPhhhb
                0x008062e4                _ZN6Camera5TVoffEv
                0x00806340                _ZN6Camera4TVonEv
                0x008063a0                _ZN6Camera15setMotionStatusEhPhm
                0x0080645c                _ZN6Camera15getMotionDetectEv
                0x008064dc                _ZN6Camera15setMotionDetectEb
                0x00806588                _ZN6Camera19cameraFrameBuffCtrlEh
                0x008065f0                _ZN6Camera11resumeVideoEv
                0x00806628                _ZN6Camera11takePictureEv
                0x00806668                _ZN6Camera11frameLengthEv
                0x00806768                _ZN6Camera11readPictureEh
                0x00806870                _ZN6Camera12setImageSizeEh
                0x008068f4                _ZN6Camera12getImageSizeEv
                0x00806994                _ZN6Camera15getMotionStatusEh
                0x00806a64                _ZN6Camera5resetEv
                0x00806b28                _ZN6Camera10getVersionEv
                0x00806bd8                _ZN6Camera5beginEPKc
 .text          0x00806c64      0x988 obj/StereoCamera.o
                0x00806c64                _ZN12StereoCamera10setReadLenEh
                0x00806ccc                _ZN12StereoCamera14getFrameLengthEi
                0x00806d3c                _ZN12StereoCamera11readPictureExx
                0x00807070                _ZN12StereoCamera11resumeVideoEi
                0x0080713c                _ZN12StereoCamera11takePictureEi
                0x00807208                _ZN12StereoCamera9setResLrgEi
                0x008072d8                _ZN12StereoCamera5resetEi
                0x008073a4                _ZN12StereoCameraC1EPKcS1_
                0x008074c8                _ZN12StereoCameraC2EPKcS1_
 .text          0x008075ec      0x27c obj/cam_control.o
                0x008075ec                isPictureReady
                0x00807640                takePictures
                0x008076d4                getImageLength
                0x00807748                cam_control_task
 .text          0x00807868      0xab0 /opt/altera/10.1sp1/nios2eds/bin/gnu/H-i686-pc-linux-gnu/bin/../lib/gcc/nios2-elf/4.1.2/../../../../nios2-elf/lib/libstdc++.a(eh_personality.o)
                0x00807df4                __cxa_call_unexpected
                0x00807edc                __gxx_personality_v0
 .text          0x00808318       0x10 /opt/altera/10.1sp1/nios2eds/bin/gnu/H-i686-pc-linux-gnu/bin/../lib/gcc/nios2-elf/4.1.2/../../../../nios2-elf/lib/libstdc++.a(eh_globals.o)
                0x00808318                __cxa_get_globals_fast
                0x00808320                __cxa_get_globals
 .text          0x00808328      0x148 /opt/altera/10.1sp1/nios2eds/bin/gnu/H-i686-pc-linux-gnu/bin/../lib/gcc/nios2-elf/4.1.2/../../../../nios2-elf/lib/libstdc++.a(eh_throw.o)
                0x00808328                __cxa_rethrow
                0x0080839c                __cxa_throw
 .text          0x00808470       0x44 /opt/altera/10.1sp1/nios2eds/bin/gnu/H-i686-pc-linux-gnu/bin/../lib/gcc/nios2-elf/4.1.2/../../../../nios2-elf/lib/libstdc++.a(eh_call.o)
                0x00808470                __cxa_call_terminate
 .text          0x008084b4      0x178 /opt/altera/10.1sp1/nios2eds/bin/gnu/H-i686-pc-linux-gnu/bin/../lib/gcc/nios2-elf/4.1.2/../../../../nios2-elf/lib/libstdc++.a(eh_catch.o)
                0x008084b4                __cxa_get_exception_ptr
                0x008084bc                _ZSt18uncaught_exceptionv
                0x008084dc                __cxa_end_catch
                0x00808580                __cxa_begin_catch
 .text          0x0080862c       0x94 /opt/altera/10.1sp1/nios2eds/bin/gnu/H-i686-pc-linux-gnu/bin/../lib/gcc/nios2-elf/4.1.2/../../../../nios2-elf/lib/libstdc++.a(eh_exception.o)
                0x0080862c                _ZNKSt9exception4whatEv
                0x0080863c                _ZNSt9exceptionD0Ev
                0x0080864c                _ZNSt9exceptionD1Ev
                0x0080865c                _ZNSt9exceptionD2Ev
                0x0080866c                _ZNSt13bad_exceptionD0Ev
                0x008086a0                _ZNSt13bad_exceptionD1Ev
                0x008086b0                _ZNSt13bad_exceptionD2Ev
 .text          0x008086c0       0x94 /opt/altera/10.1sp1/nios2eds/bin/gnu/H-i686-pc-linux-gnu/bin/../lib/gcc/nios2-elf/4.1.2/../../../../nios2-elf/lib/libstdc++.a(eh_terminate.o)
                0x008086c0                _ZSt13set_terminatePFvvE
                0x008086d4                _ZSt14set_unexpectedPFvvE
                0x008086e8                _ZN10__cxxabiv111__terminateEPFvvE
                0x00808714                _ZSt9terminatev
                0x0080872c                _ZN10__cxxabiv112__unexpectedEPFvvE
                0x0080873c                _ZSt10unexpectedv
 .text          0x00808754      0x1c8 /opt/altera/10.1sp1/nios2eds/bin/gnu/H-i686-pc-linux-gnu/bin/../lib/gcc/nios2-elf/4.1.2/../../../../nios2-elf/lib/libstdc++.a(si_class_type_info.o)
                0x00808754                _ZNK10__cxxabiv120__si_class_type_info11__do_upcastEPKNS_17__class_type_infoEPKvRNS1_15__upcast_resultE
                0x008087cc                _ZN10__cxxabiv120__si_class_type_infoD0Ev
                0x00808800                _ZN10__cxxabiv120__si_class_type_infoD1Ev
                0x00808810                _ZN10__cxxabiv120__si_class_type_infoD2Ev
                0x00808820                _ZNK10__cxxabiv120__si_class_type_info20__do_find_public_srcElPKvPKNS_17__class_type_infoES2_
                0x00808854                _ZNK10__cxxabiv120__si_class_type_info12__do_dyncastElNS_17__class_type_info10__sub_kindEPKS1_PKvS4_S6_RNS1_16__dyncast_resultE
 .text          0x0080891c      0x104 /opt/altera/10.1sp1/nios2eds/bin/gnu/H-i686-pc-linux-gnu/bin/../lib/gcc/nios2-elf/4.1.2/../../../../nios2-elf/lib/libstdc++.a(eh_alloc.o)
                0x0080891c                __cxa_free_exception
                0x0080895c                __cxa_allocate_exception
 .text          0x00808a20        0x0 /opt/altera/10.1sp1/nios2eds/bin/gnu/H-i686-pc-linux-gnu/bin/../lib/gcc/nios2-elf/4.1.2/../../../../nios2-elf/lib/libstdc++.a(eh_term_handler.o)
 .text          0x00808a20       0x58 /opt/altera/10.1sp1/nios2eds/bin/gnu/H-i686-pc-linux-gnu/bin/../lib/gcc/nios2-elf/4.1.2/../../../../nios2-elf/lib/libstdc++.a(tinfo.o)
                0x00808a20                _ZNKSt9type_info14__is_pointer_pEv
                0x00808a28                _ZNKSt9type_info15__is_function_pEv
                0x00808a30                _ZNKSt9type_info10__do_catchEPKS_PPvj
                0x00808a40                _ZNKSt9type_info11__do_upcastEPKN10__cxxabiv117__class_type_infoEPPv
                0x00808a48                _ZNSt9type_infoD0Ev
                0x00808a58                _ZNSt9type_infoD1Ev
                0x00808a68                _ZNSt9type_infoD2Ev
 .text          0x00808a78        0xc /opt/altera/10.1sp1/nios2eds/bin/gnu/H-i686-pc-linux-gnu/bin/../lib/gcc/nios2-elf/4.1.2/../../../../nios2-elf/lib/libstdc++.a(del_op.o)
                0x00808a78                _ZdlPv
 .text          0x00808a84      0x1bc /opt/altera/10.1sp1/nios2eds/bin/gnu/H-i686-pc-linux-gnu/bin/../lib/gcc/nios2-elf/4.1.2/../../../../nios2-elf/lib/libstdc++.a(class_type_info.o)
                0x00808a84                _ZNK10__cxxabiv117__class_type_info11__do_upcastEPKS0_PPv
                0x00808af0                _ZNK10__cxxabiv117__class_type_info20__do_find_public_srcElPKvPKS0_S2_
                0x00808b10                _ZN10__cxxabiv117__class_type_infoD0Ev
                0x00808b44                _ZN10__cxxabiv117__class_type_infoD1Ev
                0x00808b54                _ZN10__cxxabiv117__class_type_infoD2Ev
                0x00808b64                _ZNK10__cxxabiv117__class_type_info10__do_catchEPKSt9type_infoPPvj
                0x00808bc4                _ZNK10__cxxabiv117__class_type_info11__do_upcastEPKS0_PKvRNS0_15__upcast_resultE
                0x00808bf4                _ZNK10__cxxabiv117__class_type_info12__do_dyncastElNS0_10__sub_kindEPKS0_PKvS3_S5_RNS0_16__dyncast_resultE
 .text          0x00808c40        0x0 /opt/altera/10.1sp1/nios2eds/bin/gnu/H-i686-pc-linux-gnu/bin/../lib/gcc/nios2-elf/4.1.2/../../../../nios2-elf/lib/libstdc++.a(eh_unex_handler.o)
 .text          0x00808c40      0x14c /opt/altera/10.1sp1/nios2eds/bin/gnu/H-i686-pc-linux-gnu/bin/../lib/gcc/nios2-elf/4.1.2/libgcc.a(lib2-divmod.o)
                0x00808cbc                __divsi3
                0x00808d1c                __modsi3
                0x00808d7c                __udivsi3
                0x00808d84                __umodsi3
 .text          0x00808d8c     0x26c8 /opt/altera/10.1sp1/nios2eds/bin/gnu/H-i686-pc-linux-gnu/bin/../lib/gcc/nios2-elf/4.1.2/libgcc.a(unwind-dw2.o)
                0x00808e10                _Unwind_GetCFA
                0x00808e18                _Unwind_GetIP
                0x00808e20                _Unwind_GetIPInfo
                0x00808e34                _Unwind_SetIP
                0x00808e3c                _Unwind_GetLanguageSpecificData
                0x00808e44                _Unwind_GetRegionStart
                0x00808e4c                _Unwind_GetDataRelBase
                0x00808e54                _Unwind_GetTextRelBase
                0x00808e5c                _Unwind_DeleteException
                0x00808e74                _Unwind_SetGR
                0x00808ef0                _Unwind_GetGR
                0x008091c4                _Unwind_FindEnclosingFunction
                0x00809bd4                __frame_state_for
                0x0080ad44                _Unwind_Backtrace
                0x0080aedc                _Unwind_RaiseException
                0x0080b15c                _Unwind_Resume_or_Rethrow
                0x0080b258                _Unwind_Resume
                0x0080b358                _Unwind_ForcedUnwind
 .text          0x0080b454     0x15e0 /opt/altera/10.1sp1/nios2eds/bin/gnu/H-i686-pc-linux-gnu/bin/../lib/gcc/nios2-elf/4.1.2/libgcc.a(unwind-dw2-fde.o)
                0x0080b4d8                __register_frame_info_bases
                0x0080b510                __register_frame_info
                0x0080b51c                __register_frame_info_table_bases
                0x0080b548                __register_frame_info_table
                0x0080c000                __register_frame_table
                0x0080c030                __register_frame
                0x0080c078                __deregister_frame_info_bases
                0x0080c154                __deregister_frame_info
                0x0080c158                __deregister_frame
                0x0080c810                _Unwind_Find_FDE
 .text          0x0080ca34       0x18 /opt/altera/10.1sp1/nios2eds/bin/gnu/H-i686-pc-linux-gnu/bin/../lib/gcc/nios2-elf/4.1.2/../../../../nios2-elf/lib/libc.a(lib_a-abort.o)
                0x0080ca34                abort
 .text          0x0080ca4c       0x18 /opt/altera/10.1sp1/nios2eds/bin/gnu/H-i686-pc-linux-gnu/bin/../lib/gcc/nios2-elf/4.1.2/../../../../nios2-elf/lib/libc.a(lib_a-atoi.o)
                0x0080ca4c                _atoi_r
                0x0080ca58                atoi
 .text          0x0080ca64        0x0 /opt/altera/10.1sp1/nios2eds/bin/gnu/H-i686-pc-linux-gnu/bin/../lib/gcc/nios2-elf/4.1.2/../../../../nios2-elf/lib/libc.a(lib_a-ctype_.o)
 .text          0x0080ca64      0x124 /opt/altera/10.1sp1/nios2eds/bin/gnu/H-i686-pc-linux-gnu/bin/../lib/gcc/nios2-elf/4.1.2/../../../../nios2-elf/lib/libc.a(lib_a-fclose.o)
                0x0080ca64                _fclose_r
                0x0080cb74                fclose
 .text          0x0080cb88      0x230 /opt/altera/10.1sp1/nios2eds/bin/gnu/H-i686-pc-linux-gnu/bin/../lib/gcc/nios2-elf/4.1.2/../../../../nios2-elf/lib/libc.a(lib_a-fflush.o)
                0x0080cb88                _fflush_r
                0x0080cd84                fflush
 .text          0x0080cdb8      0x128 /opt/altera/10.1sp1/nios2eds/bin/gnu/H-i686-pc-linux-gnu/bin/../lib/gcc/nios2-elf/4.1.2/../../../../nios2-elf/lib/libc.a(lib_a-fgetc.o)
                0x0080cdb8                fgetc
                0x0080ce50                _fgetc_r
 .text          0x0080cee0       0x48 /opt/altera/10.1sp1/nios2eds/bin/gnu/H-i686-pc-linux-gnu/bin/../lib/gcc/nios2-elf/4.1.2/../../../../nios2-elf/lib/libc.a(lib_a-fgetpos.o)
                0x0080cee0                _fgetpos_r
                0x0080cf0c                fgetpos
 .text          0x0080cf28       0x58 /opt/altera/10.1sp1/nios2eds/bin/gnu/H-i686-pc-linux-gnu/bin/../lib/gcc/nios2-elf/4.1.2/../../../../nios2-elf/lib/libc.a(lib_a-fileno.o)
                0x0080cf28                fileno
 .text          0x0080cf80      0x2c0 /opt/altera/10.1sp1/nios2eds/bin/gnu/H-i686-pc-linux-gnu/bin/../lib/gcc/nios2-elf/4.1.2/../../../../nios2-elf/lib/libc.a(lib_a-findfp.o)
                0x0080cfd8                __sfp_lock_acquire
                0x0080cfdc                __sfp_lock_release
                0x0080cfe0                __sinit_lock_acquire
                0x0080cfe4                __sinit_lock_release
                0x0080cfe8                __sinit
                0x0080d09c                __fp_unlock_all
                0x0080d0b4                __fp_lock_all
                0x0080d0cc                _cleanup_r
                0x0080d0d8                _cleanup
                0x0080d0e8                __sfmoreglue
                0x0080d150                __sfp
 .text          0x0080d240      0x110 /opt/altera/10.1sp1/nios2eds/bin/gnu/H-i686-pc-linux-gnu/bin/../lib/gcc/nios2-elf/4.1.2/../../../../nios2-elf/lib/libc.a(lib_a-fopen.o)
                0x0080d240                _fopen_r
                0x0080d334                fopen
 .text          0x0080d350       0x60 /opt/altera/10.1sp1/nios2eds/bin/gnu/H-i686-pc-linux-gnu/bin/../lib/gcc/nios2-elf/4.1.2/../../../../nios2-elf/lib/libc.a(lib_a-fprintf.o)
                0x0080d350                fprintf
                0x0080d37c                _fprintf_r
 .text          0x0080d3b0       0xbc /opt/altera/10.1sp1/nios2eds/bin/gnu/H-i686-pc-linux-gnu/bin/../lib/gcc/nios2-elf/4.1.2/../../../../nios2-elf/lib/libc.a(lib_a-fputc.o)
                0x0080d3b0                fputc
                0x0080d414                _fputc_r
 .text          0x0080d46c      0x23c /opt/altera/10.1sp1/nios2eds/bin/gnu/H-i686-pc-linux-gnu/bin/../lib/gcc/nios2-elf/4.1.2/../../../../nios2-elf/lib/libc.a(lib_a-fread.o)
                0x0080d46c                _fread_r
                0x0080d668                fread
 .text          0x0080d6a8      0x440 /opt/altera/10.1sp1/nios2eds/bin/gnu/H-i686-pc-linux-gnu/bin/../lib/gcc/nios2-elf/4.1.2/../../../../nios2-elf/lib/libc.a(lib_a-freer.o)
                0x0080d6a8                _malloc_trim_r
                0x0080d7d4                _free_r
 .text          0x0080dae8      0x460 /opt/altera/10.1sp1/nios2eds/bin/gnu/H-i686-pc-linux-gnu/bin/../lib/gcc/nios2-elf/4.1.2/../../../../nios2-elf/lib/libc.a(lib_a-fseek.o)
                0x0080dae8                _fseek_r
                0x0080df24                fseek
 .text          0x0080df48       0x74 /opt/altera/10.1sp1/nios2eds/bin/gnu/H-i686-pc-linux-gnu/bin/../lib/gcc/nios2-elf/4.1.2/../../../../nios2-elf/lib/libc.a(lib_a-fstatr.o)
                0x0080df48                _fstat_r
 .text          0x0080dfbc      0x10c /opt/altera/10.1sp1/nios2eds/bin/gnu/H-i686-pc-linux-gnu/bin/../lib/gcc/nios2-elf/4.1.2/../../../../nios2-elf/lib/libc.a(lib_a-ftell.o)
                0x0080dfbc                _ftell_r
                0x0080e0b4                ftell
 .text          0x0080e0c8      0x180 /opt/altera/10.1sp1/nios2eds/bin/gnu/H-i686-pc-linux-gnu/bin/../lib/gcc/nios2-elf/4.1.2/../../../../nios2-elf/lib/libc.a(lib_a-fwalk.o)
                0x0080e0c8                _fwalk_reent
                0x0080e190                _fwalk
 .text          0x0080e248       0xdc /opt/altera/10.1sp1/nios2eds/bin/gnu/H-i686-pc-linux-gnu/bin/../lib/gcc/nios2-elf/4.1.2/../../../../nios2-elf/lib/libc.a(lib_a-fwrite.o)
                0x0080e248                _fwrite_r
                0x0080e2e4                fwrite
 .text          0x0080e324      0x128 /opt/altera/10.1sp1/nios2eds/bin/gnu/H-i686-pc-linux-gnu/bin/../lib/gcc/nios2-elf/4.1.2/../../../../nios2-elf/lib/libc.a(lib_a-getc.o)
                0x0080e324                getc
                0x0080e3bc                _getc_r
 .text          0x0080e44c        0x0 /opt/altera/10.1sp1/nios2eds/bin/gnu/H-i686-pc-linux-gnu/bin/../lib/gcc/nios2-elf/4.1.2/../../../../nios2-elf/lib/libc.a(lib_a-impure.o)
 .text          0x0080e44c        0x0 /opt/altera/10.1sp1/nios2eds/bin/gnu/H-i686-pc-linux-gnu/bin/../lib/gcc/nios2-elf/4.1.2/../../../../nios2-elf/lib/libc.a(lib_a-int_errno.o)
 .text          0x0080e44c      0x194 /opt/altera/10.1sp1/nios2eds/bin/gnu/H-i686-pc-linux-gnu/bin/../lib/gcc/nios2-elf/4.1.2/../../../../nios2-elf/lib/libc.a(lib_a-makebuf.o)
                0x0080e44c                __smakebuf_r
 .text          0x0080e5e0       0x28 /opt/altera/10.1sp1/nios2eds/bin/gnu/H-i686-pc-linux-gnu/bin/../lib/gcc/nios2-elf/4.1.2/../../../../nios2-elf/lib/libc.a(lib_a-malloc.o)
                0x0080e5e0                free
                0x0080e5f4                malloc
 .text          0x0080e608      0x740 /opt/altera/10.1sp1/nios2eds/bin/gnu/H-i686-pc-linux-gnu/bin/../lib/gcc/nios2-elf/4.1.2/../../../../nios2-elf/lib/libc.a(lib_a-mallocr.o)
                0x0080e608                _malloc_r
 .text          0x0080ed48       0xa0 /opt/altera/10.1sp1/nios2eds/bin/gnu/H-i686-pc-linux-gnu/bin/../lib/gcc/nios2-elf/4.1.2/../../../../nios2-elf/lib/libc.a(lib_a-memcpy.o)
                0x0080ed48                memcpy
 .text          0x0080ede8       0xe0 /opt/altera/10.1sp1/nios2eds/bin/gnu/H-i686-pc-linux-gnu/bin/../lib/gcc/nios2-elf/4.1.2/../../../../nios2-elf/lib/libc.a(lib_a-memmove.o)
                0x0080ede8                memmove
 .text          0x0080eec8       0x98 /opt/altera/10.1sp1/nios2eds/bin/gnu/H-i686-pc-linux-gnu/bin/../lib/gcc/nios2-elf/4.1.2/../../../../nios2-elf/lib/libc.a(lib_a-memset.o)
                0x0080eec8                memset
 .text          0x0080ef60       0x78 /opt/altera/10.1sp1/nios2eds/bin/gnu/H-i686-pc-linux-gnu/bin/../lib/gcc/nios2-elf/4.1.2/../../../../nios2-elf/lib/libc.a(lib_a-openr.o)
                0x0080ef60                _open_r
 .text          0x0080efd8       0x80 /opt/altera/10.1sp1/nios2eds/bin/gnu/H-i686-pc-linux-gnu/bin/../lib/gcc/nios2-elf/4.1.2/../../../../nios2-elf/lib/libc.a(lib_a-perror.o)
                0x0080efd8                _perror_r
                0x0080f044                perror
 .text          0x0080f058       0x78 /opt/altera/10.1sp1/nios2eds/bin/gnu/H-i686-pc-linux-gnu/bin/../lib/gcc/nios2-elf/4.1.2/../../../../nios2-elf/lib/libc.a(lib_a-printf.o)
                0x0080f058                printf
                0x0080f09c                _printf_r
 .text          0x0080f0d0      0x1ec /opt/altera/10.1sp1/nios2eds/bin/gnu/H-i686-pc-linux-gnu/bin/../lib/gcc/nios2-elf/4.1.2/../../../../nios2-elf/lib/libc.a(lib_a-putc.o)
                0x0080f0d0                putc
                0x0080f1d4                _putc_r
 .text          0x0080f2bc       0x24 /opt/altera/10.1sp1/nios2eds/bin/gnu/H-i686-pc-linux-gnu/bin/../lib/gcc/nios2-elf/4.1.2/../../../../nios2-elf/lib/libc.a(lib_a-putchar.o)
                0x0080f2bc                putchar
                0x0080f2d8                _putchar_r
 .text          0x0080f2e0       0xb4 /opt/altera/10.1sp1/nios2eds/bin/gnu/H-i686-pc-linux-gnu/bin/../lib/gcc/nios2-elf/4.1.2/../../../../nios2-elf/lib/libc.a(lib_a-puts.o)
                0x0080f2e0                _puts_r
                0x0080f380                puts
 .text          0x0080f394      0x1e0 /opt/altera/10.1sp1/nios2eds/bin/gnu/H-i686-pc-linux-gnu/bin/../lib/gcc/nios2-elf/4.1.2/../../../../nios2-elf/lib/libc.a(lib_a-refill.o)
                0x0080f394                __srefill_r
 .text          0x0080f574       0x60 /opt/altera/10.1sp1/nios2eds/bin/gnu/H-i686-pc-linux-gnu/bin/../lib/gcc/nios2-elf/4.1.2/../../../../nios2-elf/lib/libc.a(lib_a-rget.o)
                0x0080f574                __srget_r
                0x0080f5c0                __srget
 .text          0x0080f5d4       0x70 /opt/altera/10.1sp1/nios2eds/bin/gnu/H-i686-pc-linux-gnu/bin/../lib/gcc/nios2-elf/4.1.2/../../../../nios2-elf/lib/libc.a(lib_a-sbrkr.o)
                0x0080f5d4                _sbrk_r
 .text          0x0080f644      0x2d8 /opt/altera/10.1sp1/nios2eds/bin/gnu/H-i686-pc-linux-gnu/bin/../lib/gcc/nios2-elf/4.1.2/../../../../nios2-elf/lib/libc.a(lib_a-signal.o)
                0x0080f644                _raise_r
                0x0080f710                raise
                0x0080f724                _init_signal_r
                0x0080f788                _init_signal
                0x0080f798                __sigtramp_r
                0x0080f84c                __sigtramp
                0x0080f860                _signal_r
                0x0080f900                signal
 .text          0x0080f91c       0x78 /opt/altera/10.1sp1/nios2eds/bin/gnu/H-i686-pc-linux-gnu/bin/../lib/gcc/nios2-elf/4.1.2/../../../../nios2-elf/lib/libc.a(lib_a-signalr.o)
                0x0080f91c                _getpid_r
                0x0080f920                _kill_r
 .text          0x0080f994       0xd4 /opt/altera/10.1sp1/nios2eds/bin/gnu/H-i686-pc-linux-gnu/bin/../lib/gcc/nios2-elf/4.1.2/../../../../nios2-elf/lib/libc.a(lib_a-sprintf.o)
                0x0080f994                sprintf
                0x0080fa08                _sprintf_r
 .text          0x0080fa68      0x114 /opt/altera/10.1sp1/nios2eds/bin/gnu/H-i686-pc-linux-gnu/bin/../lib/gcc/nios2-elf/4.1.2/../../../../nios2-elf/lib/libc.a(lib_a-sscanf.o)
                0x0080fa70                _sscanf_r
                0x0080faf8                sscanf
 .text          0x0080fb7c      0x14c /opt/altera/10.1sp1/nios2eds/bin/gnu/H-i686-pc-linux-gnu/bin/../lib/gcc/nios2-elf/4.1.2/../../../../nios2-elf/lib/libc.a(lib_a-stdio.o)
                0x0080fb7c                __sclose
                0x0080fb84                __sseek
                0x0080fbec                __swrite
                0x0080fc68                __sread
 .text          0x0080fcc8       0xb0 /opt/altera/10.1sp1/nios2eds/bin/gnu/H-i686-pc-linux-gnu/bin/../lib/gcc/nios2-elf/4.1.2/../../../../nios2-elf/lib/libc.a(lib_a-strcasecmp.o)
                0x0080fcc8                strcasecmp
 .text          0x0080fd78       0x90 /opt/altera/10.1sp1/nios2eds/bin/gnu/H-i686-pc-linux-gnu/bin/../lib/gcc/nios2-elf/4.1.2/../../../../nios2-elf/lib/libc.a(lib_a-strcat.o)
                0x0080fd78                strcat
 .text          0x0080fe08       0xe0 /opt/altera/10.1sp1/nios2eds/bin/gnu/H-i686-pc-linux-gnu/bin/../lib/gcc/nios2-elf/4.1.2/../../../../nios2-elf/lib/libc.a(lib_a-strchr.o)
                0x0080fe08                strchr
 .text          0x0080fee8       0xbc /opt/altera/10.1sp1/nios2eds/bin/gnu/H-i686-pc-linux-gnu/bin/../lib/gcc/nios2-elf/4.1.2/../../../../nios2-elf/lib/libc.a(lib_a-strcmp.o)
                0x0080fee8                strcmp
 .text          0x0080ffa4       0x8c /opt/altera/10.1sp1/nios2eds/bin/gnu/H-i686-pc-linux-gnu/bin/../lib/gcc/nios2-elf/4.1.2/../../../../nios2-elf/lib/libc.a(lib_a-strcpy.o)
                0x0080ffa4                strcpy
 .text          0x00810030      0x674 /opt/altera/10.1sp1/nios2eds/bin/gnu/H-i686-pc-linux-gnu/bin/../lib/gcc/nios2-elf/4.1.2/../../../../nios2-elf/lib/libc.a(lib_a-strerror.o)
                0x00810030                strerror
 .text          0x008106a4       0x74 /opt/altera/10.1sp1/nios2eds/bin/gnu/H-i686-pc-linux-gnu/bin/../lib/gcc/nios2-elf/4.1.2/../../../../nios2-elf/lib/libc.a(lib_a-strlen.o)
                0x008106a4                strlen
 .text          0x00810718       0xf0 /opt/altera/10.1sp1/nios2eds/bin/gnu/H-i686-pc-linux-gnu/bin/../lib/gcc/nios2-elf/4.1.2/../../../../nios2-elf/lib/libc.a(lib_a-strncmp.o)
                0x00810718                strncmp
 .text          0x00810808       0xbc /opt/altera/10.1sp1/nios2eds/bin/gnu/H-i686-pc-linux-gnu/bin/../lib/gcc/nios2-elf/4.1.2/../../../../nios2-elf/lib/libc.a(lib_a-strncpy.o)
                0x00810808                strncpy
 .text          0x008108c4      0x794 /opt/altera/10.1sp1/nios2eds/bin/gnu/H-i686-pc-linux-gnu/bin/../lib/gcc/nios2-elf/4.1.2/../../../../nios2-elf/lib/libc.a(lib_a-strstr.o)
                0x008109f8                strstr
 .text          0x00811058       0x18 /opt/altera/10.1sp1/nios2eds/bin/gnu/H-i686-pc-linux-gnu/bin/../lib/gcc/nios2-elf/4.1.2/../../../../nios2-elf/lib/libc.a(lib_a-strtok.o)
                0x00811058                strtok
 .text          0x00811070       0xac /opt/altera/10.1sp1/nios2eds/bin/gnu/H-i686-pc-linux-gnu/bin/../lib/gcc/nios2-elf/4.1.2/../../../../nios2-elf/lib/libc.a(lib_a-strtok_r.o)
                0x00811070                __strtok_r
                0x00811114                strtok_r
 .text          0x0081111c      0x268 /opt/altera/10.1sp1/nios2eds/bin/gnu/H-i686-pc-linux-gnu/bin/../lib/gcc/nios2-elf/4.1.2/../../../../nios2-elf/lib/libc.a(lib_a-strtol.o)
                0x0081111c                _strtol_r
                0x00811360                strtol
 .text          0x00811384        0x8 /opt/altera/10.1sp1/nios2eds/bin/gnu/H-i686-pc-linux-gnu/bin/../lib/gcc/nios2-elf/4.1.2/../../../../nios2-elf/lib/libc.a(lib_a-u_strerr.o)
                0x00811384                _user_strerror
 .text          0x0081138c     0x1f28 /opt/altera/10.1sp1/nios2eds/bin/gnu/H-i686-pc-linux-gnu/bin/../lib/gcc/nios2-elf/4.1.2/../../../../nios2-elf/lib/libc.a(lib_a-vfprintf.o)
                0x008113e4                ___vfprintf_internal_r
                0x00813290                __vfprintf_internal
 .text          0x008132b4     0x1780 /opt/altera/10.1sp1/nios2eds/bin/gnu/H-i686-pc-linux-gnu/bin/../lib/gcc/nios2-elf/4.1.2/../../../../nios2-elf/lib/libc.a(lib_a-vfscanf.o)
                0x008132b4                __svfscanf_r
                0x00814934                __svfscanf
                0x00814958                _vfscanf_r
                0x008149c0                vfscanf
 .text          0x00814a34      0x14c /opt/altera/10.1sp1/nios2eds/bin/gnu/H-i686-pc-linux-gnu/bin/../lib/gcc/nios2-elf/4.1.2/../../../../nios2-elf/lib/libc.a(lib_a-wbuf.o)
                0x00814a34                __swbuf_r
                0x00814b64                __swbuf
 .text          0x00814b80       0x78 /opt/altera/10.1sp1/nios2eds/bin/gnu/H-i686-pc-linux-gnu/bin/../lib/gcc/nios2-elf/4.1.2/../../../../nios2-elf/lib/libc.a(lib_a-writer.o)
                0x00814b80                _write_r
 .text          0x00814bf8      0x13c /opt/altera/10.1sp1/nios2eds/bin/gnu/H-i686-pc-linux-gnu/bin/../lib/gcc/nios2-elf/4.1.2/../../../../nios2-elf/lib/libc.a(lib_a-wsetup.o)
                0x00814bf8                __swsetup_r
 .text          0x00814d34       0x70 /opt/altera/10.1sp1/nios2eds/bin/gnu/H-i686-pc-linux-gnu/bin/../lib/gcc/nios2-elf/4.1.2/../../../../nios2-elf/lib/libc.a(lib_a-closer.o)
                0x00814d34                _close_r
 .text          0x00814da4     0x17cc /opt/altera/10.1sp1/nios2eds/bin/gnu/H-i686-pc-linux-gnu/bin/../lib/gcc/nios2-elf/4.1.2/../../../../nios2-elf/lib/libc.a(lib_a-dtoa.o)
                0x00814fbc                _dtoa_r
 .text          0x00816570       0xa0 /opt/altera/10.1sp1/nios2eds/bin/gnu/H-i686-pc-linux-gnu/bin/../lib/gcc/nios2-elf/4.1.2/../../../../nios2-elf/lib/libc.a(lib_a-flags.o)
                0x00816570                __sflags
 .text          0x00816610       0x90 /opt/altera/10.1sp1/nios2eds/bin/gnu/H-i686-pc-linux-gnu/bin/../lib/gcc/nios2-elf/4.1.2/../../../../nios2-elf/lib/libc.a(lib_a-fputs.o)
                0x00816610                _fputs_r
                0x00816684                fputs
 .text          0x008166a0      0x49c /opt/altera/10.1sp1/nios2eds/bin/gnu/H-i686-pc-linux-gnu/bin/../lib/gcc/nios2-elf/4.1.2/../../../../nios2-elf/lib/libc.a(lib_a-fvwrite.o)
                0x008166a0                __sfvwrite_r
 .text          0x00816b3c       0x70 /opt/altera/10.1sp1/nios2eds/bin/gnu/H-i686-pc-linux-gnu/bin/../lib/gcc/nios2-elf/4.1.2/../../../../nios2-elf/lib/libc.a(lib_a-isattyr.o)
                0x00816b3c                _isatty_r
 .text          0x00816bac       0x2c /opt/altera/10.1sp1/nios2eds/bin/gnu/H-i686-pc-linux-gnu/bin/../lib/gcc/nios2-elf/4.1.2/../../../../nios2-elf/lib/libc.a(lib_a-iswspace.o)
                0x00816bac                iswspace
 .text          0x00816bd8       0xc4 /opt/altera/10.1sp1/nios2eds/bin/gnu/H-i686-pc-linux-gnu/bin/../lib/gcc/nios2-elf/4.1.2/../../../../nios2-elf/lib/libc.a(lib_a-locale.o)
                0x00816bd8                __locale_charset
                0x00816be0                _localeconv_r
                0x00816bec                localeconv
                0x00816bfc                _setlocale_r
                0x00816c80                setlocale
 .text          0x00816c9c       0x78 /opt/altera/10.1sp1/nios2eds/bin/gnu/H-i686-pc-linux-gnu/bin/../lib/gcc/nios2-elf/4.1.2/../../../../nios2-elf/lib/libc.a(lib_a-lseekr.o)
                0x00816c9c                _lseek_r
 .text          0x00816d14       0xc0 /opt/altera/10.1sp1/nios2eds/bin/gnu/H-i686-pc-linux-gnu/bin/../lib/gcc/nios2-elf/4.1.2/../../../../nios2-elf/lib/libc.a(lib_a-mbrtowc.o)
                0x00816d14                _mbrtowc_r
                0x00816d94                mbrtowc
 .text          0x00816dd4       0x40 /opt/altera/10.1sp1/nios2eds/bin/gnu/H-i686-pc-linux-gnu/bin/../lib/gcc/nios2-elf/4.1.2/../../../../nios2-elf/lib/libc.a(lib_a-mbtowc_r.o)
                0x00816dd4                _mbtowc_r
 .text          0x00816e14       0xe4 /opt/altera/10.1sp1/nios2eds/bin/gnu/H-i686-pc-linux-gnu/bin/../lib/gcc/nios2-elf/4.1.2/../../../../nios2-elf/lib/libc.a(lib_a-memchr.o)
                0x00816e14                memchr
 .text          0x00816ef8       0x74 /opt/altera/10.1sp1/nios2eds/bin/gnu/H-i686-pc-linux-gnu/bin/../lib/gcc/nios2-elf/4.1.2/../../../../nios2-elf/lib/libc.a(lib_a-memcmp.o)
                0x00816ef8                memcmp
 .text          0x00816f6c      0xff4 /opt/altera/10.1sp1/nios2eds/bin/gnu/H-i686-pc-linux-gnu/bin/../lib/gcc/nios2-elf/4.1.2/../../../../nios2-elf/lib/libc.a(lib_a-mprec.o)
                0x00816f6c                _Bfree
                0x00816f94                __hi0bits
                0x00817004                __lo0bits
                0x008170c8                __mcmp
                0x00817128                __ulp
                0x008171a8                __b2d
                0x008172c8                __ratio
                0x00817378                _mprec_log10
                0x0081740c                __copybits
                0x00817464                __any_on
                0x008174ec                _Balloc
                0x008175a8                __d2b
                0x00817724                __mdiff
                0x008178b0                __lshift
                0x008179fc                __multiply
                0x00817be4                __i2b
                0x00817c20                __multadd
                0x00817d20                __pow5mult
                0x00817e40                __s2b
 .text          0x00817f60       0x78 /opt/altera/10.1sp1/nios2eds/bin/gnu/H-i686-pc-linux-gnu/bin/../lib/gcc/nios2-elf/4.1.2/../../../../nios2-elf/lib/libc.a(lib_a-readr.o)
                0x00817f60                _read_r
 .text          0x00817fd8      0x5f4 /opt/altera/10.1sp1/nios2eds/bin/gnu/H-i686-pc-linux-gnu/bin/../lib/gcc/nios2-elf/4.1.2/../../../../nios2-elf/lib/libc.a(lib_a-reallocr.o)
                0x00817fd8                _realloc_r
 .text          0x008185cc       0x40 /opt/altera/10.1sp1/nios2eds/bin/gnu/H-i686-pc-linux-gnu/bin/../lib/gcc/nios2-elf/4.1.2/../../../../nios2-elf/lib/libc.a(lib_a-s_isinfd.o)
                0x008185cc                __isinfd
 .text          0x0081860c       0x30 /opt/altera/10.1sp1/nios2eds/bin/gnu/H-i686-pc-linux-gnu/bin/../lib/gcc/nios2-elf/4.1.2/../../../../nios2-elf/lib/libc.a(lib_a-s_isnand.o)
                0x0081860c                __isnand
 .text          0x0081863c       0xc0 /opt/altera/10.1sp1/nios2eds/bin/gnu/H-i686-pc-linux-gnu/bin/../lib/gcc/nios2-elf/4.1.2/../../../../nios2-elf/lib/libc.a(lib_a-sccl.o)
                0x0081863c                __sccl
 .text          0x008186fc        0x8 /opt/altera/10.1sp1/nios2eds/bin/gnu/H-i686-pc-linux-gnu/bin/../lib/gcc/nios2-elf/4.1.2/../../../../nios2-elf/lib/libc.a(lib_a-sf_nan.o)
                0x008186fc                nanf
 .text          0x00818704     0x166c /opt/altera/10.1sp1/nios2eds/bin/gnu/H-i686-pc-linux-gnu/bin/../lib/gcc/nios2-elf/4.1.2/../../../../nios2-elf/lib/libc.a(lib_a-strtod.o)
                0x0081874c                _strtod_r
                0x00819c30                strtof
                0x00819d54                strtod
 .text          0x00819d70      0x318 /opt/altera/10.1sp1/nios2eds/bin/gnu/H-i686-pc-linux-gnu/bin/../lib/gcc/nios2-elf/4.1.2/../../../../nios2-elf/lib/libc.a(lib_a-strtoll_r.o)
                0x00819d70                _strtoll_r
 .text          0x0081a088      0x254 /opt/altera/10.1sp1/nios2eds/bin/gnu/H-i686-pc-linux-gnu/bin/../lib/gcc/nios2-elf/4.1.2/../../../../nios2-elf/lib/libc.a(lib_a-strtoul.o)
                0x0081a088                _strtoul_r
                0x0081a2b8                strtoul
 .text          0x0081a2dc      0x2f0 /opt/altera/10.1sp1/nios2eds/bin/gnu/H-i686-pc-linux-gnu/bin/../lib/gcc/nios2-elf/4.1.2/../../../../nios2-elf/lib/libc.a(lib_a-strtoull_r.o)
                0x0081a2dc                _strtoull_r
 .text          0x0081a5cc      0x294 /opt/altera/10.1sp1/nios2eds/bin/gnu/H-i686-pc-linux-gnu/bin/../lib/gcc/nios2-elf/4.1.2/../../../../nios2-elf/lib/libc.a(lib_a-ungetc.o)
                0x0081a5cc                __submore
                0x0081a6a8                _ungetc_r
                0x0081a844                ungetc
 .text          0x0081a860       0xb4 /opt/altera/10.1sp1/nios2eds/bin/gnu/H-i686-pc-linux-gnu/bin/../lib/gcc/nios2-elf/4.1.2/../../../../nios2-elf/lib/libc.a(lib_a-callocr.o)
                0x0081a860                _calloc_r
 .text          0x0081a914      0x8f4 /opt/altera/10.1sp1/nios2eds/bin/gnu/H-i686-pc-linux-gnu/bin/../lib/gcc/nios2-elf/4.1.2/../../../../nios2-elf/lib/libc.a(lib_a-gdtoa-gethex.o)
                0x0081a938                __hexdig_init
                0x0081aa50                __gethex
 .text          0x0081b208      0x294 /opt/altera/10.1sp1/nios2eds/bin/gnu/H-i686-pc-linux-gnu/bin/../lib/gcc/nios2-elf/4.1.2/../../../../nios2-elf/lib/libc.a(lib_a-gdtoa-hexnan.o)
                0x0081b254                __hexnan
 .text          0x0081b49c       0x98 /opt/altera/10.1sp1/nios2eds/bin/gnu/H-i686-pc-linux-gnu/bin/../lib/gcc/nios2-elf/4.1.2/libgcc.a(_muldi3.o)
                0x0081b49c                __muldi3
 .text          0x0081b534       0xa4 /opt/altera/10.1sp1/nios2eds/bin/gnu/H-i686-pc-linux-gnu/bin/../lib/gcc/nios2-elf/4.1.2/libgcc.a(_fixunsdfsi.o)
                0x0081b534                __fixunsdfsi
 .text          0x0081b5d8      0x5dc /opt/altera/10.1sp1/nios2eds/bin/gnu/H-i686-pc-linux-gnu/bin/../lib/gcc/nios2-elf/4.1.2/libgcc.a(_udivdi3.o)
                0x0081b5d8                __udivdi3
 .text          0x0081bbb4      0x5b0 /opt/altera/10.1sp1/nios2eds/bin/gnu/H-i686-pc-linux-gnu/bin/../lib/gcc/nios2-elf/4.1.2/libgcc.a(_umoddi3.o)
                0x0081bbb4                __umoddi3
 .text          0x0081c164       0x78 /opt/altera/10.1sp1/nios2eds/bin/gnu/H-i686-pc-linux-gnu/bin/../lib/gcc/nios2-elf/4.1.2/libgcc.a(_ne_sf.o)
                0x0081c164                __nesf2
 .text          0x0081c1dc       0x78 /opt/altera/10.1sp1/nios2eds/bin/gnu/H-i686-pc-linux-gnu/bin/../lib/gcc/nios2-elf/4.1.2/libgcc.a(_gt_sf.o)
                0x0081c1dc                __gtsf2
 .text          0x0081c254       0x78 /opt/altera/10.1sp1/nios2eds/bin/gnu/H-i686-pc-linux-gnu/bin/../lib/gcc/nios2-elf/4.1.2/libgcc.a(_lt_sf.o)
                0x0081c254                __ltsf2
 .text          0x0081c2cc      0x504 /opt/altera/10.1sp1/nios2eds/bin/gnu/H-i686-pc-linux-gnu/bin/../lib/gcc/nios2-elf/4.1.2/libgcc.a(_addsub_df.o)
                0x0081c6dc                __subdf3
                0x0081c75c                __adddf3
 .text          0x0081c7d0      0x3c4 /opt/altera/10.1sp1/nios2eds/bin/gnu/H-i686-pc-linux-gnu/bin/../lib/gcc/nios2-elf/4.1.2/libgcc.a(_mul_df.o)
                0x0081c7d0                __muldf3
 .text          0x0081cb94      0x258 /opt/altera/10.1sp1/nios2eds/bin/gnu/H-i686-pc-linux-gnu/bin/../lib/gcc/nios2-elf/4.1.2/libgcc.a(_div_df.o)
                0x0081cb94                __divdf3
 .text          0x0081cdec       0x88 /opt/altera/10.1sp1/nios2eds/bin/gnu/H-i686-pc-linux-gnu/bin/../lib/gcc/nios2-elf/4.1.2/libgcc.a(_eq_df.o)
                0x0081cdec                __eqdf2
 .text          0x0081ce74       0x88 /opt/altera/10.1sp1/nios2eds/bin/gnu/H-i686-pc-linux-gnu/bin/../lib/gcc/nios2-elf/4.1.2/libgcc.a(_ne_df.o)
                0x0081ce74                __nedf2
 .text          0x0081cefc       0x88 /opt/altera/10.1sp1/nios2eds/bin/gnu/H-i686-pc-linux-gnu/bin/../lib/gcc/nios2-elf/4.1.2/libgcc.a(_gt_df.o)
                0x0081cefc                __gtdf2
 .text          0x0081cf84       0x88 /opt/altera/10.1sp1/nios2eds/bin/gnu/H-i686-pc-linux-gnu/bin/../lib/gcc/nios2-elf/4.1.2/libgcc.a(_ge_df.o)
                0x0081cf84                __gedf2
 .text          0x0081d00c       0x88 /opt/altera/10.1sp1/nios2eds/bin/gnu/H-i686-pc-linux-gnu/bin/../lib/gcc/nios2-elf/4.1.2/libgcc.a(_lt_df.o)
                0x0081d00c                __ltdf2
 .text          0x0081d094       0x88 /opt/altera/10.1sp1/nios2eds/bin/gnu/H-i686-pc-linux-gnu/bin/../lib/gcc/nios2-elf/4.1.2/libgcc.a(_le_df.o)
                0x0081d094                __ledf2
 .text          0x0081d11c       0xf8 /opt/altera/10.1sp1/nios2eds/bin/gnu/H-i686-pc-linux-gnu/bin/../lib/gcc/nios2-elf/4.1.2/libgcc.a(_si_to_df.o)
                0x0081d11c                __floatsidf
 .text          0x0081d214       0xd8 /opt/altera/10.1sp1/nios2eds/bin/gnu/H-i686-pc-linux-gnu/bin/../lib/gcc/nios2-elf/4.1.2/libgcc.a(_df_to_si.o)
                0x0081d214                __fixdfsi
 .text          0x0081d2ec       0x74 /opt/altera/10.1sp1/nios2eds/bin/gnu/H-i686-pc-linux-gnu/bin/../lib/gcc/nios2-elf/4.1.2/libgcc.a(_df_to_sf.o)
                0x0081d2ec                __truncdfsf2
 .text          0x0081d360        0x0 /opt/altera/10.1sp1/nios2eds/bin/gnu/H-i686-pc-linux-gnu/bin/../lib/gcc/nios2-elf/4.1.2/libgcc.a(_thenan_df.o)
 .text          0x0081d360      0x194 /opt/altera/10.1sp1/nios2eds/bin/gnu/H-i686-pc-linux-gnu/bin/../lib/gcc/nios2-elf/4.1.2/libgcc.a(_usi_to_df.o)
                0x0081d360                __floatunsidf
 .text          0x0081d4f4        0x0 /opt/altera/10.1sp1/nios2eds/bin/gnu/H-i686-pc-linux-gnu/bin/../lib/gcc/nios2-elf/4.1.2/libgcc.a(_clz.o)
 .text          0x0081d4f4       0x80 /opt/altera/10.1sp1/nios2eds/bin/gnu/H-i686-pc-linux-gnu/bin/../lib/gcc/nios2-elf/4.1.2/libgcc.a(_clzsi2.o)
                0x0081d4f4                __clzsi2
 .text          0x0081d574       0xc8 /opt/altera/10.1sp1/nios2eds/bin/gnu/H-i686-pc-linux-gnu/bin/../lib/gcc/nios2-elf/4.1.2/libgcc.a(_unpack_sf.o)
                0x0081d574                __unpack_f
 .text          0x0081d63c       0xa8 /opt/altera/10.1sp1/nios2eds/bin/gnu/H-i686-pc-linux-gnu/bin/../lib/gcc/nios2-elf/4.1.2/libgcc.a(_fpcmp_parts_sf.o)
                0x0081d63c                __fpcmp_parts_f
 .text          0x0081d6e4       0x2c /opt/altera/10.1sp1/nios2eds/bin/gnu/H-i686-pc-linux-gnu/bin/../lib/gcc/nios2-elf/4.1.2/libgcc.a(_make_sf.o)
                0x0081d6e4                __make_fp
 .text          0x0081d710      0x314 /opt/altera/10.1sp1/nios2eds/bin/gnu/H-i686-pc-linux-gnu/bin/../lib/gcc/nios2-elf/4.1.2/libgcc.a(_pack_df.o)
                0x0081d710                __pack_d
 .text          0x0081da24      0x138 /opt/altera/10.1sp1/nios2eds/bin/gnu/H-i686-pc-linux-gnu/bin/../lib/gcc/nios2-elf/4.1.2/libgcc.a(_unpack_df.o)
                0x0081da24                __unpack_d
 .text          0x0081db5c       0xc8 /opt/altera/10.1sp1/nios2eds/bin/gnu/H-i686-pc-linux-gnu/bin/../lib/gcc/nios2-elf/4.1.2/libgcc.a(_fpcmp_parts_df.o)
                0x0081db5c                __fpcmp_parts_d
 .text          0x0081dc24      0x160 /opt/altera/10.1sp1/nios2eds/bin/gnu/H-i686-pc-linux-gnu/bin/../lib/gcc/nios2-elf/4.1.2/libgcc.a(_pack_sf.o)
                0x0081dc24                __pack_f
 .text          0x0081dd84       0x78 ../StereoCameraServer_bsp/libucosii_bsp.a(alt_dcache_flush.o)
                0x0081dd84                alt_dcache_flush
 .text          0x0081ddfc        0x0 ../StereoCameraServer_bsp/libucosii_bsp.a(alt_errno.o)
 .text          0x0081ddfc       0x6c ../StereoCameraServer_bsp/libucosii_bsp.a(alt_exit.o)
                0x0081de3c                _exit
 .text          0x0081de68       0xd0 ../StereoCameraServer_bsp/libucosii_bsp.a(alt_flash_dev.o)
                0x0081de68                alt_flash_open_dev
                0x0081dee4                alt_flash_close_dev
 .text          0x0081df38      0x134 ../StereoCameraServer_bsp/libucosii_bsp.a(alt_fstat.o)
                0x0081df38                fstat
 .text          0x0081e06c       0x20 ../StereoCameraServer_bsp/libucosii_bsp.a(alt_getpid.o)
                0x0081e06c                getpid
 .text          0x0081e08c      0x1c0 ../StereoCameraServer_bsp/libucosii_bsp.a(alt_irq_register.o)
                0x0081e08c                alt_irq_register
 .text          0x0081e24c        0x0 ../StereoCameraServer_bsp/libucosii_bsp.a(alt_irq_vars.o)
 .text          0x0081e24c      0x120 ../StereoCameraServer_bsp/libucosii_bsp.a(alt_isatty.o)
                0x0081e24c                isatty
 .text          0x0081e36c      0x1a0 ../StereoCameraServer_bsp/libucosii_bsp.a(alt_kill.o)
                0x0081e36c                kill
 .text          0x0081e50c       0xec ../StereoCameraServer_bsp/libucosii_bsp.a(alt_load.o)
                0x0081e50c                alt_load
 .text          0x0081e5f8      0x150 ../StereoCameraServer_bsp/libucosii_bsp.a(alt_lseek.o)
                0x0081e5f8                lseek
 .text          0x0081e748       0xc8 ../StereoCameraServer_bsp/libucosii_bsp.a(alt_main.o)
                0x0081e748                alt_main
 .text          0x0081e810      0x2c4 ../StereoCameraServer_bsp/libucosii_bsp.a(alt_open.o)
                0x0081e8ec                open
 .text          0x0081ead4       0x60 ../StereoCameraServer_bsp/libucosii_bsp.a(alt_release_fd.o)
                0x0081ead4                alt_release_fd
 .text          0x0081eb34       0xbc ../StereoCameraServer_bsp/libucosii_bsp.a(alt_sbrk.o)
                0x0081eb34                sbrk
 .text          0x0081ebf0      0x1a8 ../StereoCameraServer_bsp/libucosii_bsp.a(alt_tick.o)
                0x0081ebf0                alt_alarm_stop
                0x0081ec88                alt_tick
 .text          0x0081ed98      0x108 ../StereoCameraServer_bsp/libucosii_bsp.a(alt_env_lock.o)
                0x0081ed98                __env_lock
                0x0081ee44                __env_unlock
 .text          0x0081eea0      0x1d8 ../StereoCameraServer_bsp/libucosii_bsp.a(alt_malloc_lock.o)
                0x0081eea0                __malloc_lock
                0x0081efa8                __malloc_unlock
 .text          0x0081f078     0x2128 ../StereoCameraServer_bsp/libucosii_bsp.a(os_core.o)
                0x0081f078                OSEventNameGet
                0x0081f1a8                OSEventNameSet
                0x0081f2ec                OSEventPendMulti
                0x0081f9a0                OSInit
                0x0081f9f4                OSIntEnter
                0x0081fa70                OSIntExit
                0x0081fb70                OSSchedLock
                0x0081fbfc                OSSchedUnlock
                0x0081fce0                OSStart
                0x0081fd50                OSStatInit
                0x0081fdfc                OSTimeTick
                0x0082003c                OSVersion
                0x0082005c                OS_Dummy
                0x00820078                OS_EventTaskRdy
                0x0082020c                OS_EventTaskWait
                0x0082031c                OS_EventTaskWaitMulti
                0x00820470                OS_EventTaskRemove
                0x00820528                OS_EventTaskRemoveMulti
                0x0082062c                OS_EventWaitListInit
                0x008209f8                OS_MemClr
                0x00820a4c                OS_MemCopy
                0x00820ab8                OS_Sched
                0x00820bfc                OS_StrCopy
                0x00820c7c                OS_StrLen
                0x00820cd4                OS_TaskIdle
                0x00820d30                OS_TaskStat
                0x00820df8                OS_TaskStatStkChk
                0x00820ec0                OS_TCBInit
 .text          0x008211a0      0x18c ../StereoCameraServer_bsp/libucosii_bsp.a(os_dbg.o)
                0x008211a0                OSDebugInit
 .text          0x0082132c     0x193c ../StereoCameraServer_bsp/libucosii_bsp.a(os_flag.o)
                0x0082132c                OSFlagAccept
                0x00821660                OSFlagCreate
                0x0082179c                OSFlagDel
                0x00821a44                OSFlagNameGet
                0x00821b88                OSFlagNameSet
                0x00821cdc                OSFlagPend
                0x00822320                OSFlagPendGetFlagsRdy
                0x00822388                OSFlagPost
                0x00822730                OSFlagQuery
                0x008229c8                OS_FlagInit
                0x00822bbc                OS_FlagUnlink
 .text          0x00822c68      0xc8c ../StereoCameraServer_bsp/libucosii_bsp.a(os_mbox.o)
                0x00822c68                OSMboxAccept
                0x00822d0c                OSMboxCreate
                0x00822e20                OSMboxDel
                0x008230c0                OSMboxPend
                0x00823388                OSMboxPendAbort
                0x00823504                OSMboxPost
                0x00823638                OSMboxPostOpt
                0x008237c4                OSMboxQuery
 .text          0x008238f4      0x808 ../StereoCameraServer_bsp/libucosii_bsp.a(os_mem.o)
                0x008238f4                OSMemCreate
                0x00823b10                OSMemGet
                0x00823c14                OSMemNameGet
                0x00823d20                OSMemNameSet
                0x00823e40                OSMemPut
                0x00823f30                OSMemQuery
                0x0082402c                OS_MemInit
 .text          0x008240fc     0x1334 ../StereoCameraServer_bsp/libucosii_bsp.a(os_q.o)
                0x008240fc                OSQAccept
                0x00824250                OSQCreate
                0x00824464                OSQDel
                0x00824764                OSQFlush
                0x0082482c                OSQPend
                0x00824b4c                OSQPendAbort
                0x00824cc8                OSQPost
                0x00824e48                OSQPostFront
                0x00824fd0                OSQPostOpt
                0x00825204                OSQQuery
                0x00825384                OS_QInit
 .text          0x00825430      0xbc8 ../StereoCameraServer_bsp/libucosii_bsp.a(os_sem.o)
                0x00825430                OSSemAccept
                0x008254f0                OSSemCreate
                0x00825604                OSSemDel
                0x008258a4                OSSemPend
                0x00825b20                OSSemPendAbort
                0x00825c9c                OSSemPost
                0x00825dc4                OSSemQuery
                0x00825ef4                OSSemSet
 .text          0x00825ff8     0x1a40 ../StereoCameraServer_bsp/libucosii_bsp.a(os_task.o)
                0x00825ff8                OSTaskChangePrio
                0x0082656c                OSTaskCreate
                0x00826740                OSTaskCreateExt
                0x00826940                OSTaskDel
                0x00826d4c                OSTaskDelReq
                0x00826ebc                OSTaskNameGet
                0x00827074                OSTaskNameSet
                0x00827238                OSTaskResume
                0x00827450                OSTaskStkChk
                0x0082764c                OSTaskSuspend
                0x00827878                OSTaskQuery
                0x008279bc                OS_TaskStkClr
 .text          0x00827a38      0x598 ../StereoCameraServer_bsp/libucosii_bsp.a(os_time.o)
                0x00827a38                OSTimeDly
                0x00827b84                OSTimeDlyHMSM
                0x00827cf8                OSTimeDlyResume
                0x00827f08                OSTimeGet
                0x00827f6c                OSTimeSet
 .text          0x00827fd0      0x19c ../StereoCameraServer_bsp/libucosii_bsp.a(alt_sys_init.o)
                0x00827fd0                alt_irq_init
                0x00828004                alt_sys_init
 .text          0x0082816c      0x8c8 ../StereoCameraServer_bsp/libucosii_bsp.a(altera_avalon_cfi_flash.o)
                0x0082816c                alt_flash_cfi_init
                0x00828240                alt_flash_cfi_write
                0x00828500                alt_flash_cfi_get_info
                0x00828590                alt_flash_cfi_read
                0x008285f8                alt_write_value_to_flash
                0x0082875c                alt_flash_program_block
 .text          0x00828a34     0x1448 ../StereoCameraServer_bsp/libucosii_bsp.a(altera_avalon_cfi_flash_table.o)
                0x00828a34                alt_read_query_entry_8bit
                0x00828a74                alt_read_query_entry_16bit
                0x00828ab8                alt_read_query_entry_32bit
                0x00828b00                alt_write_flash_command_8bit_device_8bit_mode
                0x00828b3c                alt_write_flash_command_16bit_device_8bit_mode
                0x00828bb8                alt_write_flash_command_32bit_device_8bit_mode
                0x00828c00                alt_write_flash_command_16bit_device_16bit_mode
                0x00828c44                alt_write_flash_command_32bit_device_16bit_mode
                0x00828c8c                alt_write_flash_command_32bit_device_32bit_mode
                0x00828cd4                alt_write_native_8bit
                0x00828d08                alt_write_native_16bit
                0x00828d3c                alt_write_native_32bit
                0x00828d6c                alt_set_flash_width_func
                0x00828f4c                alt_set_flash_algorithm_func
                0x00829074                alt_read_cfi_table
                0x008295f4                alt_read_cfi_width
                0x00829da0                alt_check_primary_table
 .text          0x00829e7c      0x148 ../StereoCameraServer_bsp/libucosii_bsp.a(altera_avalon_jtag_uart_fd.o)
                0x00829e7c                altera_avalon_jtag_uart_read_fd
                0x00829ed4                altera_avalon_jtag_uart_write_fd
                0x00829f2c                altera_avalon_jtag_uart_close_fd
                0x00829f74                altera_avalon_jtag_uart_ioctl_fd
 .text          0x00829fc4      0x580 ../StereoCameraServer_bsp/libucosii_bsp.a(altera_avalon_jtag_uart_init.o)
                0x00829fc4                altera_avalon_jtag_uart_init
                0x0082a4d0                altera_avalon_jtag_uart_close
 .text          0x0082a544       0xf4 ../StereoCameraServer_bsp/libucosii_bsp.a(altera_avalon_jtag_uart_ioctl.o)
                0x0082a544                altera_avalon_jtag_uart_ioctl
 .text          0x0082a638      0x2c0 ../StereoCameraServer_bsp/libucosii_bsp.a(altera_avalon_jtag_uart_read.o)
                0x0082a638                altera_avalon_jtag_uart_read
 .text          0x0082a8f8      0x2dc ../StereoCameraServer_bsp/libucosii_bsp.a(altera_avalon_jtag_uart_write.o)
                0x0082a8f8                altera_avalon_jtag_uart_write
 .text          0x0082abd4      0xf3c ../StereoCameraServer_bsp/libucosii_bsp.a(altera_avalon_lcd_16207.o)
                0x0082b3a8                altera_avalon_lcd_16207_write
                0x0082b9ac                altera_avalon_lcd_16207_init
 .text          0x0082bb10       0x58 ../StereoCameraServer_bsp/libucosii_bsp.a(altera_avalon_lcd_16207_fd.o)
                0x0082bb10                altera_avalon_lcd_16207_write_fd
 .text          0x0082bb68       0xfc ../StereoCameraServer_bsp/libucosii_bsp.a(altera_avalon_timer_sc.o)
                0x0082bbdc                alt_avalon_timer_sc_init
 .text          0x0082bc64       0xf8 ../StereoCameraServer_bsp/libucosii_bsp.a(altera_avalon_uart_fd.o)
                0x0082bc64                altera_avalon_uart_read_fd
                0x0082bcbc                altera_avalon_uart_write_fd
                0x0082bd14                altera_avalon_uart_close_fd
 .text          0x0082bd5c      0x2a8 ../StereoCameraServer_bsp/libucosii_bsp.a(altera_avalon_uart_write.o)
                0x0082bd5c                altera_avalon_uart_write
 .text          0x0082c004      0xb70 ../StereoCameraServer_bsp/libucosii_bsp.a(altera_ro_zipfs.o)
                0x0082c278                check_directory_header
                0x0082c7d0                alt_ro_zipfs_open
                0x0082c868                alt_ro_zipfs_read
                0x0082c964                alt_ro_zipfs_seek
                0x0082caac                alt_ro_zipfs_fstat
                0x0082cb1c                alt_ro_zipfs_check_valid
 .text          0x0082cb74      0xdf4 ../StereoCameraServer_bsp/libucosii_bsp.a(dm9000a.o)
                0x0082cb74                dm9000a_iow
                0x0082cbc8                dm9000a_ior
                0x0082cc14                phy_write
                0x0082ccb0                dm9000a_reset
                0x0082ce74                TransmitPacket
                0x0082cf90                prep_dm9000a
                0x0082d154                dm9000a_init
                0x0082d5a4                dm9Ka_isr_wrap
                0x0082d5e4                dm9ka_init
                0x0082d6e0                dm9ka_close
                0x0082d7f0                dm9ka_stats
                0x0082d84c                dm9ka_pkt_send
 .text          0x0082d968       0x54 ../StereoCameraServer_bsp/libucosii_bsp.a(alt_iniche_close.o)
                0x0082d968                close
 .text          0x0082d9bc      0x124 ../StereoCameraServer_bsp/libucosii_bsp.a(alt_iniche_dev.o)
                0x0082d9bc                iniche_devices_init
 .text          0x0082dae0       0xb0 ../StereoCameraServer_bsp/libucosii_bsp.a(alt_iniche_fcntl.o)
                0x0082dae0                fcntl
 .text          0x0082db90       0x78 ../StereoCameraServer_bsp/libucosii_bsp.a(alt_iniche_read.o)
                0x0082db90                read
 .text          0x0082dc08       0x70 ../StereoCameraServer_bsp/libucosii_bsp.a(alt_iniche_write.o)
                0x0082dc08                write
 .text          0x0082dc78      0xedc ../StereoCameraServer_bsp/libucosii_bsp.a(ipnet.o)
                0x0082dc78                Netinit
                0x0082e2c4                fixup_subnet_mask
                0x0082e424                netclose
                0x0082e50c                pktdemux
                0x0082e8e0                c_older
                0x0082e9b0                ip2mac
 .text          0x0082eb54      0x4b0 ../StereoCameraServer_bsp/libucosii_bsp.a(ipstart.o)
                0x0082eb54                ip_startup
                0x0082ee38                exit_hook
                0x0082eea4                ip_exit
                0x0082ef74                if_netnumber
 .text          0x0082f004     0x1010 ../StereoCameraServer_bsp/libucosii_bsp.a(igmp_cmn.o)
                0x0082f004                igmp_init
                0x0082f0b4                igmp_input
                0x0082f1ac                igmp_fasttimo
                0x0082f348                igmp_send
                0x0082f5f0                igmp_joingroup
                0x0082f85c                igmp_leavegroup
                0x0082f8d8                igmp_validate
                0x0082fc34                igmp_print_stats
 .text          0x00830014      0xb50 ../StereoCameraServer_bsp/libucosii_bsp.a(bsdsock.o)
                0x00830014                bsd_accept
                0x0083014c                bsd_getpeername
                0x00830278                bsd_getsockname
                0x008303a4                bsd_i_sockoptlen
                0x0083055c                bsd_getsockopt
                0x0083067c                bsd_ioctl
                0x00830780                bsd_inet_ntoa
                0x008307b0                bsd_recvfrom
                0x00830910                bsd_select
                0x00830a78                bsd_setsockopt
 .text          0x00830b64      0x118 ../StereoCameraServer_bsp/libucosii_bsp.a(cksum.o)
                0x00830b64                ccksum
                0x00830c14                cksum
 .text          0x00830c7c      0xa9c ../StereoCameraServer_bsp/libucosii_bsp.a(in_utils.o)
                0x00830c7c                do_trap
                0x00830ca8                nextarg
                0x00830d24                hexdump
                0x00830e6c                print_ipad
                0x00830ee0                print_uptime
                0x0083100c                panic
                0x00831050                print_eth
                0x008311b4                uslash
                0x00831234                ns_printf
                0x008313b8                std_out
                0x008313fc                con_page
                0x008314ec                parse_args
 .text          0x00831718      0x1c4 ../StereoCameraServer_bsp/libucosii_bsp.a(netmain.o)
                0x00831718                netmain
                0x0083180c                tk_netmain
                0x00831894                tk_nettick
 .text          0x008318dc      0x5e8 ../StereoCameraServer_bsp/libucosii_bsp.a(tk_crnos.o)
                0x008318dc                TK_OSTimeDly
                0x00831908                TK_OSTaskResume
                0x00831978                tcp_sleep
                0x00831b18                tcp_wakeup
                0x00831c1c                TK_OSTaskQuery
                0x00831c90                tk_yield
                0x00831cbc                tk_stats
 .text          0x00831ec4      0x79c ../StereoCameraServer_bsp/libucosii_bsp.a(pktalloc.o)
                0x00831ec4                pk_init
                0x00832154                pk_alloc
                0x00832230                pk_validate
                0x008324e8                pk_free
                0x00832594                pk_get_max_intrsafe_buf_len
                0x008325b4                dump_buf_estats
 .text          0x00832660      0x288 ../StereoCameraServer_bsp/libucosii_bsp.a(q.o)
                0x00832660                getq
                0x00832728                putq
                0x008327d8                qdel
 .text          0x008328e8      0x194 ../StereoCameraServer_bsp/libucosii_bsp.a(asm_cksum.o)
                0x008328e8                asm_cksum
 .text          0x00832a7c      0x2a0 ../StereoCameraServer_bsp/libucosii_bsp.a(brdutils.o)
                0x00832a7c                dtrap
                0x00832aac                kbhit
                0x00832b58                getch
                0x00832bb8                clock_init
                0x00832bf4                clock_c
                0x00832c10                cticks_hook
                0x00832c7c                irq_Mask
                0x00832cd8                irq_Unmask
 .text          0x00832d1c      0x488 ../StereoCameraServer_bsp/libucosii_bsp.a(osportco.o)
                0x00832d1c                LOCK_NET_RESOURCE
                0x00832ddc                UNLOCK_NET_RESOURCE
                0x00832e64                TK_NEWTASK
                0x00833078                wait_app_sem
                0x0083312c                post_app_sem
 .text          0x008331a4      0x568 ../StereoCameraServer_bsp/libucosii_bsp.a(targnios.o)
                0x008331a4                alt_iniche_init
                0x008333c0                pre_task_setup
                0x00833434                post_task_setup
                0x00833454                prep_armintcp
                0x0083348c                calloc2
                0x008334c0                npalloc
                0x008335b4                npfree
                0x0083366c                ncpalloc
                0x008336c0                ncpfree
 .text          0x0083370c     0x197c ../StereoCameraServer_bsp/libucosii_bsp.a(nptcp.o)
                0x0083370c                pffindtype
                0x008337ac                pffindproto
                0x0083387c                m_getnbuf
                0x00833a24                m_free
                0x00833b58                m_freem
                0x00833b9c                m_copy
                0x00833ec0                m_adj
                0x00834090                mbuf_len
                0x008340e8                dtom
                0x00834190                remque
                0x00834200                insque
                0x0083427c                nptcp_init
                0x008343a0                tcp_rcv
                0x0083458c                ip_output
                0x00834b84                in_broadcast
                0x00834bc4                np_stripoptions
                0x00834cac                so_icmpdu
                0x00835004                tcp_tick
 .text          0x00835088      0xa2c ../StereoCameraServer_bsp/libucosii_bsp.a(rawsock.o)
                0x00835088                rawip_lookup
                0x008350f8                rawip_soinput
                0x008352cc                rawip_usrreq
 .text          0x00835ab4     0x17fc ../StereoCameraServer_bsp/libucosii_bsp.a(sockcall.o)
                0x00835ab4                DOMAIN_CHECK
                0x00835b00                t_socket
                0x00835b90                t_bind
                0x00835d0c                t_listen
                0x00835df0                t_accept
                0x00836088                t_connect
                0x00836330                t_getpeername
                0x00836374                t_getsockname
                0x008365b4                t_setsockopt
                0x00836790                t_getsockopt
                0x00836934                t_recv
                0x00836a24                t_recvfrom
                0x00836b74                t_sendto
                0x00836da0                t_send
                0x00836fc8                t_shutdown
                0x008370ac                t_socketclose
                0x00837214                t_errno
 .text          0x008372b0     0x2374 ../StereoCameraServer_bsp/libucosii_bsp.a(socket.o)
                0x008372b0                socreate
                0x0083747c                sobind
                0x008374d8                solisten
                0x008375c8                sofree
                0x008376f8                soclose
                0x008379ec                soabort
                0x00837a3c                soaccept
                0x00837ad8                soconnect
                0x00837bac                sodisconnect
                0x00837c4c                sosend
                0x00838254                soreceive
                0x00838a38                soshutdown
                0x00838ae0                sorflush
                0x00838be0                sosetopt
                0x008390a0                sogetopt
                0x008395e0                sohasoutofband
 .text          0x00839624     0x1318 ../StereoCameraServer_bsp/libucosii_bsp.a(socket2.o)
                0x00839624                soisconnecting
                0x00839690                soisconnected
                0x0083978c                soisdisconnecting
                0x00839818                soisdisconnected
                0x008398d4                sonewconn
                0x00839af0                soqinsque
                0x00839b9c                soqremque
                0x00839cbc                socantsendmore
                0x00839d0c                socantrcvmore
                0x00839d5c                sbselqueue
                0x00839d94                sbwait
                0x00839dfc                sbwakeup
                0x00839e98                soreserve
                0x00839f18                sbreserve
                0x00839f78                sbrelease
                0x00839fc0                sbappend
                0x0083a068                sbappendrecord
                0x0083a148                sbappendaddr
                0x0083a350                sbcompress
                0x0083a538                sbflush
                0x0083a5c8                sbdrop
                0x0083a798                sbdropend
                0x0083a8a8                sbdroprecord
 .text          0x0083a93c      0x914 ../StereoCameraServer_bsp/libucosii_bsp.a(soselect.o)
                0x0083a93c                t_select
                0x0083ab5c                sock_selscan
                0x0083acb4                sock_select
                0x0083aec8                in_pcbnotify
                0x0083af94                tcp_notify
                0x0083affc                ifd_clr
                0x0083b0ec                ifd_set
                0x0083b160                ifd_isset
                0x0083b1e0                ifd_get
 .text          0x0083b250     0x2fe8 ../StereoCameraServer_bsp/libucosii_bsp.a(tcp_in.o)
                0x0083b250                tcp_reass
                0x0083b658                tcp_input
                0x0083dbac                tcp_dooptions
                0x0083dd3c                tcp_pulloutofband
                0x0083de68                tcp_xmit_timer
                0x0083e0d4                ip4_tcpmss
                0x0083e11c                tcp_mss
 .text          0x0083e238     0x1360 ../StereoCameraServer_bsp/libucosii_bsp.a(tcp_out.o)
                0x0083e238                tcp_output
                0x0083f3b4                tcp_setpersist
 .text          0x0083f598      0x9e8 ../StereoCameraServer_bsp/libucosii_bsp.a(tcp_subr.o)
                0x0083f598                tcp_init
                0x0083f5f0                tcp_template
                0x0083f708                tcp_respond
                0x0083fb90                tcp_newtcpcb
                0x0083fca8                tcp_drop
                0x0083fd54                tcp_close
                0x0083fe3c                tcp_quench
                0x0083fe88                tcp_putseq
                0x0083ff08                tcp_getseq
 .text          0x0083ff80      0x798 ../StereoCameraServer_bsp/libucosii_bsp.a(tcp_timr.o)
                0x0083ff80                tcp_slowtimo
                0x00840220                tcp_canceltimers
                0x0084027c                tcp_timers
 .text          0x00840718      0x9ec ../StereoCameraServer_bsp/libucosii_bsp.a(tcp_usr.o)
                0x00840718                tcp_usrreq
                0x00840e1c                tcp_attach
                0x00840f50                tcp_disconnect
                0x00841024                tcp_usrclosed
 .text          0x00841104       0x4c ../StereoCameraServer_bsp/libucosii_bsp.a(tcpport.o)
                0x00841104                tcpinit
 .text          0x00841150      0xd20 ../StereoCameraServer_bsp/libucosii_bsp.a(udpsock.o)
                0x00841150                udp_lookup
                0x008411c0                udp_soinput
                0x00841378                udp_usrreq
                0x008415fc                udp4_sockbind
                0x00841938                udp4_socksend
                0x00841d14                udp4_sockaddr
 .text          0x00841e70      0x154 ../StereoCameraServer_bsp/libucosii_bsp.a(alt_alarm_start.o)
                0x00841e70                alt_alarm_start
 .text          0x00841fc4      0x15c ../StereoCameraServer_bsp/libucosii_bsp.a(alt_close.o)
                0x00841fc4                alt_close
 .text          0x00842120       0x44 ../StereoCameraServer_bsp/libucosii_bsp.a(alt_dcache_flush_all.o)
                0x00842120                alt_dcache_flush_all
 .text          0x00842164       0x2c ../StereoCameraServer_bsp/libucosii_bsp.a(alt_dev.o)
 .text          0x00842190      0x114 ../StereoCameraServer_bsp/libucosii_bsp.a(alt_dev_llist_insert.o)
                0x00842190                alt_dev_llist_insert
 .text          0x008422a4       0x64 ../StereoCameraServer_bsp/libucosii_bsp.a(alt_do_ctors.o)
                0x008422a4                _do_ctors
 .text          0x00842308       0x64 ../StereoCameraServer_bsp/libucosii_bsp.a(alt_do_dtors.o)
                0x00842308                _do_dtors
 .text          0x0084236c      0x1b4 ../StereoCameraServer_bsp/libucosii_bsp.a(alt_fcntl.o)
                0x0084236c                alt_fcntl
 .text          0x00842520       0x94 ../StereoCameraServer_bsp/libucosii_bsp.a(alt_find_dev.o)
                0x00842520                alt_find_dev
 .text          0x008425b4      0x120 ../StereoCameraServer_bsp/libucosii_bsp.a(alt_find_file.o)
                0x008425b4                alt_find_file
 .text          0x008426d4       0x90 ../StereoCameraServer_bsp/libucosii_bsp.a(alt_fs_reg.o)
                0x008426d4                alt_fs_reg
 .text          0x00842764       0xf4 ../StereoCameraServer_bsp/libucosii_bsp.a(alt_get_fd.o)
                0x00842764                alt_get_fd
 .text          0x00842858       0x30 ../StereoCameraServer_bsp/libucosii_bsp.a(alt_icache_flush_all.o)
                0x00842858                alt_icache_flush_all
 .text          0x00842888      0x13c ../StereoCameraServer_bsp/libucosii_bsp.a(alt_io_redirect.o)
                0x0084294c                alt_io_redirect
 .text          0x008429c4        0x0 ../StereoCameraServer_bsp/libucosii_bsp.a(alt_irq_entry.o)
 .text          0x008429c4        0x0 ../StereoCameraServer_bsp/libucosii_bsp.a(alt_irq_handler.o)
 .text          0x008429c4      0x180 ../StereoCameraServer_bsp/libucosii_bsp.a(alt_read.o)
                0x008429c4                alt_read
 .text          0x00842b44       0x38 ../StereoCameraServer_bsp/libucosii_bsp.a(alt_remap_cached.o)
                0x00842b44                alt_remap_cached
 .text          0x00842b7c       0x40 ../StereoCameraServer_bsp/libucosii_bsp.a(alt_remap_uncached.o)
                0x00842b7c                alt_remap_uncached
 .text          0x00842bbc      0x118 ../StereoCameraServer_bsp/libucosii_bsp.a(alt_usleep.o)
                0x00842bbc                usleep
 .text          0x00842cd4      0x180 ../StereoCameraServer_bsp/libucosii_bsp.a(alt_write.o)
                0x00842cd4                alt_write
 .text          0x00842e54       0x20 ../StereoCameraServer_bsp/libucosii_bsp.a(altera_nios2_irq.o)
                0x00842e54                altera_nios2_irq_init
 .text          0x00842e74       0xd0 ../StereoCameraServer_bsp/libucosii_bsp.a(os_cpu_a.o)
                0x00842e74                OSCtxSw
                0x00842e74                OSIntCtxSw
                0x00842f00                OSStartHighRdy
                0x00842f20                OSStartTsk
 .text          0x00842f44      0x424 ../StereoCameraServer_bsp/libucosii_bsp.a(os_cpu_c.o)
                0x00842f44                OSTaskStkInit
                0x00843254                OSTaskCreateHook
                0x00843274                OSTaskDelHook
                0x00843294                OSTaskSwHook
                0x008432b0                OSTaskStatHook
                0x008432cc                OSTimeTickHook
                0x008432f4                OSInitHookBegin
                0x00843310                OSInitHookEnd
                0x0084332c                OSTaskIdleHook
                0x00843348                OSTCBInitHook
 .text          0x00843368      0x460 ../StereoCameraServer_bsp/libucosii_bsp.a(altera_avalon_cfi_flash_amd.o)
                0x00843368                alt_program_amd
                0x008433d0                alt_erase_block_amd
 .text          0x008437c8      0x460 ../StereoCameraServer_bsp/libucosii_bsp.a(altera_avalon_cfi_flash_intel.o)
                0x008437c8                alt_program_intel
                0x0084384c                alt_erase_block_intel
 .text          0x00843c28      0x3d0 ../StereoCameraServer_bsp/libucosii_bsp.a(allports.o)
                0x00843c28                netmain_init
                0x00843d20                icmp_port_du
                0x00843da8                station_state
                0x00843ef4                sysuptime
                0x00843f30                packet_check
                0x00843f7c                mcastlist
                0x00843fa0                prep_modules
 .text          0x00843ff8      0x47c ../StereoCameraServer_bsp/libucosii_bsp.a(timeouts.o)
                0x00843ff8                inet_timer
                0x00844250                in_timerset
                0x008443cc                in_timerkill
 .text          0x00844474       0xa4 ../StereoCameraServer_bsp/libucosii_bsp.a(tk_misc.o)
                0x00844474                create_apptasks
                0x00844498                task_stats
 .text          0x00844518     0x14a0 ../StereoCameraServer_bsp/libucosii_bsp.a(et_arp.o)
                0x00844518                etainit
                0x0084456c                et_send
                0x008446e8                arp_free_pending
                0x00844770                arp_send_pending
                0x008447e4                send_arp
                0x00844c7c                find_oldest_arp
                0x00844e24                make_arp_entry
                0x00844f38                arpReply
                0x008451cc                arprcv
                0x0084542c                send_via_arp
                0x008455d4                cb_arpent_tmo
                0x008456ec                grat_arp
 .text          0x008459b8      0x298 ../StereoCameraServer_bsp/libucosii_bsp.a(iface.o)
                0x008459b8                if_getbynum
                0x00845a3c                isbcast
                0x00845b1c                reg_type
                0x00845bb8                if_killsocks
 .text          0x00845c50     0x22a4 ../StereoCameraServer_bsp/libucosii_bsp.a(ip.o)
                0x00845c50                ip_init
                0x00845d4c                ip_bldhead
                0x00845ef0                ip_write_internal
                0x00846670                ip_write
                0x008468b8                ip_write2
                0x00846c68                ip_raw_write
                0x00846d40                ip_fragment_lc
                0x008471c8                ip_fragment
                0x008477ec                ip_mymach
                0x00847898                ip_dump
                0x00847b50                iproute
                0x00847dbc                ip_copypkt
 .text          0x00847ef4     0x1d9c ../StereoCameraServer_bsp/libucosii_bsp.a(ip_reasm.o)
                0x00847ef4                ip_reasm_match_frag_with_ire
                0x00847fc4                ip_reasm_determine_type_of_frag
                0x008480b0                ip_reasm_check_mem_useage
                0x00848148                ip_reasm_incr_mem_useage
                0x008481f0                ip_reasm_decr_mem_useage
                0x00848290                ip_reasm_process_first_fragment
                0x00848570                ip_reassm
                0x00848610                ip_reasm_compute_overlap
                0x00848ba0                ip_reasm_process_subsequent_fragments
                0x00849134                ip_reasm_find_ire
                0x00849198                ip_reasm_copy_queued_fragments_into_reassy_buffer
                0x008494f4                ip_reasm_process_timer_tick
                0x008495d8                ip_reasm_delete_ire
                0x008497a0                ip_reasm_mark_compact_rfq
                0x008498e8                ipr_stats
                0x00849c3c                ip_reasm_send_icmp_timex
 .text          0x00849c90      0xe3c ../StereoCameraServer_bsp/libucosii_bsp.a(ipdemux.o)
                0x00849c90                ip_rcv
                0x0084a090                ip_rcv_phase2
                0x0084a69c                ip_demux
 .text          0x0084aacc      0x2f0 ../StereoCameraServer_bsp/libucosii_bsp.a(ipmc.o)
                0x0084aacc                in_addmulti
                0x0084ac34                in_delmulti
                0x0084ad4c                lookup_mcast
 .text          0x0084adbc       0xe4 ../StereoCameraServer_bsp/libucosii_bsp.a(ipport.o)
                0x0084adbc                prep_ifaces
                0x0084ae50                netexit
                0x0084ae78                evtmap_setup
 .text          0x0084aea0      0x550 ../StereoCameraServer_bsp/libucosii_bsp.a(ipraw.o)
                0x0084aea0                ip_raw_open
                0x0084af90                ip_raw_close
                0x0084b050                ip_raw_input
                0x0084b288                ip_raw_alloc
                0x0084b354                ip_raw_free
                0x0084b394                ip_raw_maxalloc
 .text          0x0084b3f0      0x6f0 ../StereoCameraServer_bsp/libucosii_bsp.a(iproute.o)
                0x0084b3f0                rt_lookup
                0x0084b574                add_route
                0x0084b99c                del_route
 .text          0x0084bae0      0xe3c ../StereoCameraServer_bsp/libucosii_bsp.a(udp.o)
                0x0084bae0                udpdemux
                0x0084c338                udp_send
                0x0084c5f0                udpswap
                0x0084c720                udp_socket
                0x0084c7f0                udp_alloc
                0x0084c8b0                udp_maxalloc
                0x0084c8dc                udp_free
 .text          0x0084c91c      0x2e8 ../StereoCameraServer_bsp/libucosii_bsp.a(igmp.o)
                0x0084c91c                igmpv1_input
 .text          0x0084cc04      0x7c0 ../StereoCameraServer_bsp/libucosii_bsp.a(igmp2.o)
                0x0084cc04                igmpv2_input
                0x0084cd64                igmpv2_process_report
                0x0084ceb0                igmpv2_process_query
                0x0084d0fc                igmpv2_chk_set_timer
                0x0084d254                igmpv2_chk4_rtr_alert_opt
 .text          0x0084d3c4      0x8fc ../StereoCameraServer_bsp/libucosii_bsp.a(ipopt.o)
                0x0084d3c4                IPADDR_TO_NETP
                0x0084d50c                ip_setmoptions
                0x0084dafc                ip_getmoptions
                0x0084dc3c                ip_freemoptions
 .text          0x0084dcc0      0x6ac ../StereoCameraServer_bsp/libucosii_bsp.a(u_mctest.o)
                0x0084dcc0                u_mctest_init
                0x0084dcf0                u_mctest_run
 .text          0x0084e36c      0x40c ../StereoCameraServer_bsp/libucosii_bsp.a(memdev.o)
                0x0084e36c                init_memdev
                0x0084e3e4                md_fopen
                0x0084e40c                md_fclose
                0x0084e42c                md_fread
                0x0084e5ac                md_fwrite
                0x0084e62c                md_fseek
                0x0084e658                md_ftell
                0x0084e67c                md_fgetc
                0x0084e754                md_unlink
 .text          0x0084e778      0x810 ../StereoCameraServer_bsp/libucosii_bsp.a(parseip.o)
                0x0084e778                parse_ipad
                0x0084ea94                inet_addr
                0x0084eafc                hextoa
                0x0084eb6c                inet_pton
                0x0084ec18                inet_ntop
                0x0084eca4                print46_addr
                0x0084ed04                inet46_addr
                0x0084edc8                inet_setport
                0x0084ee3c                convert_ip
 .text          0x0084ef88      0x1cc ../StereoCameraServer_bsp/libucosii_bsp.a(tcpcksum.o)
                0x0084ef88                tcp_cksum
 .text          0x0084f154      0x31c ../StereoCameraServer_bsp/libucosii_bsp.a(udp_open.o)
                0x0084f154                udp_open
                0x0084f38c                udp_close
 .text          0x0084f470      0x900 ../StereoCameraServer_bsp/libucosii_bsp.a(in_pcb.o)
                0x0084f470                in_pcballoc
                0x0084f504                in_pcbdetach
                0x0084f558                in_pcbbind
                0x0084f7ac                in_pcbconnect
                0x0084f9bc                in_pcbdisconnect
                0x0084fa1c                in_setsockaddr
                0x0084fa98                in_setpeeraddr
                0x0084fb14                in_pcblookup
 .text          0x0084fd70     0x1a74 ../StereoCameraServer_bsp/libucosii_bsp.a(vfsfiles.o)
                0x0084fd70                set_vfopen_error
                0x0084fd98                get_vfopen_error
                0x0084fdb8                vf_alloc_and_link_vop
                0x0084fe34                vf_alloc_buffer
                0x0084ff0c                vf_free_buffer
                0x0084ff5c                vfopen_locked
                0x008502c4                vfopen
                0x00850314                vfclose_locked
                0x008504bc                vfclose
                0x008504fc                vfflush
                0x00850544                vfgets
                0x00850628                vfeof
                0x00850680                vunlink_flag_open_files
                0x008506dc                vunlink
                0x008508fc                vfread
                0x00850aa8                vfwrite_locked
                0x00850e90                vfwrite
                0x00850ef0                vfseek
                0x0085106c                vftell
                0x008511a0                vgetc_locked
                0x008512c0                vgetc
                0x00851308                vfslookup_locked
                0x00851440                vfslookup
                0x00851488                strippath
                0x00851670                isvfile_locked
                0x008516d4                isvfile
                0x0085171c                vferror
                0x00851788                vclearerr
 .text          0x008517e4       0x24 ../StereoCameraServer_bsp/libucosii_bsp.a(vfsport.o)
                0x008517e4                prep_vfs
 .text          0x00851808      0x14c ../StereoCameraServer_bsp/libucosii_bsp.a(alt_busy_sleep.o)
                0x00851808                alt_busy_sleep
 .text          0x00851954        0x0 ../StereoCameraServer_bsp/libucosii_bsp.a(alt_exception_entry.o)
 .text          0x00851954       0x90 ../StereoCameraServer_bsp/libucosii_bsp.a(alt_icache_flush.o)
                0x00851954                alt_icache_flush
 .text          0x008519e4     0x130c ../StereoCameraServer_bsp/libucosii_bsp.a(icmp.o)
                0x008519e4                icmprcv
                0x00852618                icmp_destun
                0x00852968                icmp_timex
                0x00852c9c                icmp_du
 .text          0x00852cf0       0x14 /opt/altera/10.1sp1/nios2eds/bin/gnu/H-i686-pc-linux-gnu/bin/../lib/gcc/nios2-elf/4.1.2/../../../../nios2-elf/lib/libc.a(lib_a-atexit.o)
                0x00852cf0                atexit
 .text          0x00852d04       0x1c /opt/altera/10.1sp1/nios2eds/bin/gnu/H-i686-pc-linux-gnu/bin/../lib/gcc/nios2-elf/4.1.2/../../../../nios2-elf/lib/libc.a(lib_a-calloc.o)
                0x00852d04                calloc
 .text          0x00852d20       0x38 /opt/altera/10.1sp1/nios2eds/bin/gnu/H-i686-pc-linux-gnu/bin/../lib/gcc/nios2-elf/4.1.2/../../../../nios2-elf/lib/libc.a(lib_a-exit.o)
                0x00852d20                exit
 .text          0x00852d58       0x34 /opt/altera/10.1sp1/nios2eds/bin/gnu/H-i686-pc-linux-gnu/bin/../lib/gcc/nios2-elf/4.1.2/../../../../nios2-elf/lib/libc.a(lib_a-vprintf.o)
                0x00852d58                _vprintf_r
                0x00852d6c                vprintf
 .text          0x00852d8c       0x74 /opt/altera/10.1sp1/nios2eds/bin/gnu/H-i686-pc-linux-gnu/bin/../lib/gcc/nios2-elf/4.1.2/../../../../nios2-elf/lib/libc.a(lib_a-vsprintf.o)
                0x00852d8c                _vsprintf_r
                0x00852ddc                vsprintf
 .text          0x00852e00      0x134 /opt/altera/10.1sp1/nios2eds/bin/gnu/H-i686-pc-linux-gnu/bin/../lib/gcc/nios2-elf/4.1.2/../../../../nios2-elf/lib/libc.a(lib_a-__atexit.o)
                0x00852e00                __register_exitproc
 .text          0x00852f34      0x1b4 /opt/altera/10.1sp1/nios2eds/bin/gnu/H-i686-pc-linux-gnu/bin/../lib/gcc/nios2-elf/4.1.2/../../../../nios2-elf/lib/libc.a(lib_a-__call_atexit.o)
                0x00852f38                __call_exitprocs
 *(.gnu.warning.*)
 *(.fini)
                0x008530e8                PROVIDE (__etext, ABSOLUTE (.))
                0x008530e8                PROVIDE (_etext, ABSOLUTE (.))
                0x008530e8                PROVIDE (etext, ABSOLUTE (.))
 *(.eh_frame_hdr)
                0x008530e8                . = ALIGN (0x4)
                0x008530e8                PROVIDE (__preinit_array_start, ABSOLUTE (.))
 *(.preinit_array)
                0x008530e8                PROVIDE (__preinit_array_end, ABSOLUTE (.))
                0x008530e8                PROVIDE (__init_array_start, ABSOLUTE (.))
 *(.init_array)
                0x008530e8                PROVIDE (__init_array_end, ABSOLUTE (.))
                0x008530e8                PROVIDE (__fini_array_start, ABSOLUTE (.))
 *(.fini_array)
                0x008530e8                PROVIDE (__fini_array_end, ABSOLUTE (.))
 *(.eh_frame)
 .eh_frame      0x008530e8      0x2bc obj/Camera.o
 .eh_frame      0x008533a4      0x100 obj/StereoCamera.o
                                0x11c (size before relaxing)
 .eh_frame      0x008534a4       0x80 obj/cam_control.o
                                 0x9c (size before relaxing)
 .eh_frame      0x00853524      0x13c /opt/altera/10.1sp1/nios2eds/bin/gnu/H-i686-pc-linux-gnu/bin/../lib/gcc/nios2-elf/4.1.2/../../../../nios2-elf/lib/libstdc++.a(eh_personality.o)
 .eh_frame      0x00853660       0x54 /opt/altera/10.1sp1/nios2eds/bin/gnu/H-i686-pc-linux-gnu/bin/../lib/gcc/nios2-elf/4.1.2/../../../../nios2-elf/lib/libstdc++.a(eh_throw.o)
                                 0x70 (size before relaxing)
 .eh_frame      0x008536b4       0x1c /opt/altera/10.1sp1/nios2eds/bin/gnu/H-i686-pc-linux-gnu/bin/../lib/gcc/nios2-elf/4.1.2/../../../../nios2-elf/lib/libstdc++.a(eh_call.o)
                                 0x38 (size before relaxing)
 .eh_frame      0x008536d0       0x3c /opt/altera/10.1sp1/nios2eds/bin/gnu/H-i686-pc-linux-gnu/bin/../lib/gcc/nios2-elf/4.1.2/../../../../nios2-elf/lib/libstdc++.a(eh_catch.o)
                                 0x58 (size before relaxing)
 .eh_frame      0x0085370c       0x74 /opt/altera/10.1sp1/nios2eds/bin/gnu/H-i686-pc-linux-gnu/bin/../lib/gcc/nios2-elf/4.1.2/../../../../nios2-elf/lib/libstdc++.a(eh_terminate.o)
                                 0x90 (size before relaxing)
 .eh_frame      0x00853780       0x54 /opt/altera/10.1sp1/nios2eds/bin/gnu/H-i686-pc-linux-gnu/bin/../lib/gcc/nios2-elf/4.1.2/../../../../nios2-elf/lib/libstdc++.a(si_class_type_info.o)
                                 0x70 (size before relaxing)
 .eh_frame      0x008537d4       0x20 /opt/altera/10.1sp1/nios2eds/bin/gnu/H-i686-pc-linux-gnu/bin/../lib/gcc/nios2-elf/4.1.2/../../../../nios2-elf/lib/libstdc++.a(eh_alloc.o)
                                 0x3c (size before relaxing)
 .eh_frame      0x008537f4       0x50 /opt/altera/10.1sp1/nios2eds/bin/gnu/H-i686-pc-linux-gnu/bin/../lib/gcc/nios2-elf/4.1.2/../../../../nios2-elf/lib/libstdc++.a(class_type_info.o)
                                 0x6c (size before relaxing)
 .eh_frame      0x00853844      0x208 /opt/altera/10.1sp1/nios2eds/bin/gnu/H-i686-pc-linux-gnu/bin/../lib/gcc/nios2-elf/4.1.2/libgcc.a(unwind-dw2.o)
 .eh_frame      0x00853a4c       0xd4 /opt/altera/10.1sp1/nios2eds/bin/gnu/H-i686-pc-linux-gnu/bin/../lib/gcc/nios2-elf/4.1.2/libgcc.a(unwind-dw2-fde.o)
                                 0xe8 (size before relaxing)
 .eh_frame      0x00853b20       0x2c /opt/altera/10.1sp1/nios2eds/bin/gnu/H-i686-pc-linux-gnu/bin/../lib/gcc/nios2-elf/4.1.2/libgcc.a(_udivdi3.o)
                                 0x40 (size before relaxing)
 .eh_frame      0x00853b4c       0x2c /opt/altera/10.1sp1/nios2eds/bin/gnu/H-i686-pc-linux-gnu/bin/../lib/gcc/nios2-elf/4.1.2/libgcc.a(_umoddi3.o)
                                 0x40 (size before relaxing)
 *(.gcc_except_table)
 .gcc_except_table
                0x00853b78       0x48 /opt/altera/10.1sp1/nios2eds/bin/gnu/H-i686-pc-linux-gnu/bin/../lib/gcc/nios2-elf/4.1.2/../../../../nios2-elf/lib/libstdc++.a(eh_personality.o)
 .gcc_except_table
                0x00853bc0       0x18 /opt/altera/10.1sp1/nios2eds/bin/gnu/H-i686-pc-linux-gnu/bin/../lib/gcc/nios2-elf/4.1.2/../../../../nios2-elf/lib/libstdc++.a(eh_catch.o)
 .gcc_except_table
                0x00853bd8       0x18 /opt/altera/10.1sp1/nios2eds/bin/gnu/H-i686-pc-linux-gnu/bin/../lib/gcc/nios2-elf/4.1.2/../../../../nios2-elf/lib/libstdc++.a(eh_terminate.o)
 .gcc_except_table
                0x00853bf0       0x18 /opt/altera/10.1sp1/nios2eds/bin/gnu/H-i686-pc-linux-gnu/bin/../lib/gcc/nios2-elf/4.1.2/../../../../nios2-elf/lib/libstdc++.a(eh_alloc.o)
 *(.dynamic)
                0x00853c08                PROVIDE (__CTOR_LIST__, ABSOLUTE (.))
 *(.ctors)
 *(SORT(.ctors.*))
 .ctors.65535   0x00853c08        0x4 /opt/altera/10.1sp1/nios2eds/bin/gnu/H-i686-pc-linux-gnu/bin/../lib/gcc/nios2-elf/4.1.2/../../../../nios2-elf/lib/libc.a(lib_a-__call_atexit.o)
                0x00853c0c                PROVIDE (__CTOR_END__, ABSOLUTE (.))
                0x00853c0c                PROVIDE (__DTOR_LIST__, ABSOLUTE (.))
 *(.dtors)
 *(SORT(.dtors.*))
                0x00853c0c                PROVIDE (__DTOR_END__, ABSOLUTE (.))
 *(.jcr)
                0x00853c0c                . = ALIGN (0x4)

.rodata         0x00853c0c     0x449c
                0x00853c0c                PROVIDE (__ram_rodata_start, ABSOLUTE (.))
                0x00853c0c                . = ALIGN (0x4)
 *(.rodata .rodata.* .gnu.linkonce.r.*)
 .rodata        0x00853c0c      0x654 obj/alt_error_handler.o
 .rodata        0x00854260      0x93c obj/http.o
 .rodata        0x00854b9c      0x25c obj/network_utilities.o
 .rodata        0x00854df8      0x1ac obj/srec_flash.o
 .rodata        0x00854fa4       0x6c obj/web_server.o
 .rodata        0x00855010       0x28 obj/Camera.o
 .rodata        0x00855038       0x30 obj/StereoCamera.o
 .rodata        0x00855068       0x18 obj/cam_control.o
 .rodata._ZTVSt13bad_exception
                0x00855080       0x14 /opt/altera/10.1sp1/nios2eds/bin/gnu/H-i686-pc-linux-gnu/bin/../lib/gcc/nios2-elf/4.1.2/../../../../nios2-elf/lib/libstdc++.a(eh_exception.o)
                0x00855080                _ZTVSt13bad_exception
 .rodata._ZTVSt9exception
                0x00855094       0x14 /opt/altera/10.1sp1/nios2eds/bin/gnu/H-i686-pc-linux-gnu/bin/../lib/gcc/nios2-elf/4.1.2/../../../../nios2-elf/lib/libstdc++.a(eh_exception.o)
                0x00855094                _ZTVSt9exception
 .rodata._ZTSSt13bad_exception
                0x008550a8       0x14 /opt/altera/10.1sp1/nios2eds/bin/gnu/H-i686-pc-linux-gnu/bin/../lib/gcc/nios2-elf/4.1.2/../../../../nios2-elf/lib/libstdc++.a(eh_exception.o)
                0x008550a8                _ZTSSt13bad_exception
 .rodata._ZTISt13bad_exception
                0x008550bc        0xc /opt/altera/10.1sp1/nios2eds/bin/gnu/H-i686-pc-linux-gnu/bin/../lib/gcc/nios2-elf/4.1.2/../../../../nios2-elf/lib/libstdc++.a(eh_exception.o)
                0x008550bc                _ZTISt13bad_exception
 .rodata._ZTSSt9exception
                0x008550c8       0x10 /opt/altera/10.1sp1/nios2eds/bin/gnu/H-i686-pc-linux-gnu/bin/../lib/gcc/nios2-elf/4.1.2/../../../../nios2-elf/lib/libstdc++.a(eh_exception.o)
                0x008550c8                _ZTSSt9exception
 .rodata._ZTVN10__cxxabiv120__si_class_type_infoE
                0x008550d8       0x2c /opt/altera/10.1sp1/nios2eds/bin/gnu/H-i686-pc-linux-gnu/bin/../lib/gcc/nios2-elf/4.1.2/../../../../nios2-elf/lib/libstdc++.a(si_class_type_info.o)
                0x008550d8                _ZTVN10__cxxabiv120__si_class_type_infoE
 .rodata._ZTSN10__cxxabiv120__si_class_type_infoE
                0x00855104       0x28 /opt/altera/10.1sp1/nios2eds/bin/gnu/H-i686-pc-linux-gnu/bin/../lib/gcc/nios2-elf/4.1.2/../../../../nios2-elf/lib/libstdc++.a(si_class_type_info.o)
                0x00855104                _ZTSN10__cxxabiv120__si_class_type_infoE
 .rodata._ZTIN10__cxxabiv120__si_class_type_infoE
                0x0085512c        0xc /opt/altera/10.1sp1/nios2eds/bin/gnu/H-i686-pc-linux-gnu/bin/../lib/gcc/nios2-elf/4.1.2/../../../../nios2-elf/lib/libstdc++.a(si_class_type_info.o)
                0x0085512c                _ZTIN10__cxxabiv120__si_class_type_infoE
 .rodata._ZTVSt9type_info
                0x00855138       0x20 /opt/altera/10.1sp1/nios2eds/bin/gnu/H-i686-pc-linux-gnu/bin/../lib/gcc/nios2-elf/4.1.2/../../../../nios2-elf/lib/libstdc++.a(tinfo.o)
                0x00855138                _ZTVSt9type_info
 .rodata._ZTSSt9type_info
                0x00855158       0x10 /opt/altera/10.1sp1/nios2eds/bin/gnu/H-i686-pc-linux-gnu/bin/../lib/gcc/nios2-elf/4.1.2/../../../../nios2-elf/lib/libstdc++.a(tinfo.o)
                0x00855158                _ZTSSt9type_info
 .rodata._ZTVN10__cxxabiv117__class_type_infoE
                0x00855168       0x2c /opt/altera/10.1sp1/nios2eds/bin/gnu/H-i686-pc-linux-gnu/bin/../lib/gcc/nios2-elf/4.1.2/../../../../nios2-elf/lib/libstdc++.a(class_type_info.o)
                0x00855168                _ZTVN10__cxxabiv117__class_type_infoE
 .rodata._ZTSN10__cxxabiv117__class_type_infoE
                0x00855194       0x24 /opt/altera/10.1sp1/nios2eds/bin/gnu/H-i686-pc-linux-gnu/bin/../lib/gcc/nios2-elf/4.1.2/../../../../nios2-elf/lib/libstdc++.a(class_type_info.o)
                0x00855194                _ZTSN10__cxxabiv117__class_type_infoE
 .rodata._ZTIN10__cxxabiv117__class_type_infoE
                0x008551b8        0xc /opt/altera/10.1sp1/nios2eds/bin/gnu/H-i686-pc-linux-gnu/bin/../lib/gcc/nios2-elf/4.1.2/../../../../nios2-elf/lib/libstdc++.a(class_type_info.o)
                0x008551b8                _ZTIN10__cxxabiv117__class_type_infoE
 .rodata        0x008551c4      0x281 /opt/altera/10.1sp1/nios2eds/bin/gnu/H-i686-pc-linux-gnu/bin/../lib/gcc/nios2-elf/4.1.2/../../../../nios2-elf/lib/libc.a(lib_a-ctype_.o)
                0x008551c4                _ctype_
 *fill*         0x00855445        0x3 00
 .rodata.str1.4
                0x00855448        0x2 /opt/altera/10.1sp1/nios2eds/bin/gnu/H-i686-pc-linux-gnu/bin/../lib/gcc/nios2-elf/4.1.2/../../../../nios2-elf/lib/libc.a(lib_a-impure.o)
                                  0x4 (size before relaxing)
 *fill*         0x0085544a        0x2 00
 .rodata.str1.4
                0x0085544c        0x3 /opt/altera/10.1sp1/nios2eds/bin/gnu/H-i686-pc-linux-gnu/bin/../lib/gcc/nios2-elf/4.1.2/../../../../nios2-elf/lib/libc.a(lib_a-perror.o)
                                  0x4 (size before relaxing)
 *fill*         0x0085544f        0x1 00
 .rodata.str1.4
                0x00855450        0x2 /opt/altera/10.1sp1/nios2eds/bin/gnu/H-i686-pc-linux-gnu/bin/../lib/gcc/nios2-elf/4.1.2/../../../../nios2-elf/lib/libc.a(lib_a-puts.o)
                                  0x4 (size before relaxing)
 *fill*         0x00855452        0x2 00
 .rodata.str1.4
                0x00855454      0x7a2 /opt/altera/10.1sp1/nios2eds/bin/gnu/H-i686-pc-linux-gnu/bin/../lib/gcc/nios2-elf/4.1.2/../../../../nios2-elf/lib/libc.a(lib_a-strerror.o)
                                0x7a8 (size before relaxing)
 *fill*         0x00855bf6        0x2 00
 .rodata.str1.4
                0x00855bf8       0x5e /opt/altera/10.1sp1/nios2eds/bin/gnu/H-i686-pc-linux-gnu/bin/../lib/gcc/nios2-elf/4.1.2/../../../../nios2-elf/lib/libc.a(lib_a-vfprintf.o)
                                 0x60 (size before relaxing)
 .rodata        0x00855c56       0x20 /opt/altera/10.1sp1/nios2eds/bin/gnu/H-i686-pc-linux-gnu/bin/../lib/gcc/nios2-elf/4.1.2/../../../../nios2-elf/lib/libc.a(lib_a-vfprintf.o)
 *fill*         0x00855c76        0x2 00
 .rodata.str1.4
                0x00855c78        0x5 /opt/altera/10.1sp1/nios2eds/bin/gnu/H-i686-pc-linux-gnu/bin/../lib/gcc/nios2-elf/4.1.2/../../../../nios2-elf/lib/libc.a(lib_a-vfscanf.o)
                                  0x8 (size before relaxing)
 *fill*         0x00855c7d        0x1 00
 .rodata        0x00855c7e       0x22 /opt/altera/10.1sp1/nios2eds/bin/gnu/H-i686-pc-linux-gnu/bin/../lib/gcc/nios2-elf/4.1.2/../../../../nios2-elf/lib/libc.a(lib_a-vfscanf.o)
 .rodata.str1.4
                0x00855ca0       0x10 /opt/altera/10.1sp1/nios2eds/bin/gnu/H-i686-pc-linux-gnu/bin/../lib/gcc/nios2-elf/4.1.2/../../../../nios2-elf/lib/libc.a(lib_a-dtoa.o)
                                 0x14 (size before relaxing)
 .rodata.str1.4
                0x00855cb0        0xf /opt/altera/10.1sp1/nios2eds/bin/gnu/H-i686-pc-linux-gnu/bin/../lib/gcc/nios2-elf/4.1.2/../../../../nios2-elf/lib/libc.a(lib_a-locale.o)
                                 0x18 (size before relaxing)
 *fill*         0x00855cbf        0x1 00
 .rodata        0x00855cc0       0x30 /opt/altera/10.1sp1/nios2eds/bin/gnu/H-i686-pc-linux-gnu/bin/../lib/gcc/nios2-elf/4.1.2/../../../../nios2-elf/lib/libc.a(lib_a-locale.o)
 .rodata.str1.4
                0x00000000        0x4 /opt/altera/10.1sp1/nios2eds/bin/gnu/H-i686-pc-linux-gnu/bin/../lib/gcc/nios2-elf/4.1.2/../../../../nios2-elf/lib/libc.a(lib_a-mbrtowc.o)
 .rodata        0x00855cf0      0x124 /opt/altera/10.1sp1/nios2eds/bin/gnu/H-i686-pc-linux-gnu/bin/../lib/gcc/nios2-elf/4.1.2/../../../../nios2-elf/lib/libc.a(lib_a-mprec.o)
                0x00855cf0                __mprec_tens
                0x00855db8                __mprec_bigtens
                0x00855de0                __mprec_tinytens
 .rodata.str1.4
                0x00855e14        0xf /opt/altera/10.1sp1/nios2eds/bin/gnu/H-i686-pc-linux-gnu/bin/../lib/gcc/nios2-elf/4.1.2/../../../../nios2-elf/lib/libc.a(lib_a-strtod.o)
                                 0x10 (size before relaxing)
 *fill*         0x00855e23        0x1 00
 .rodata        0x00855e24       0x28 /opt/altera/10.1sp1/nios2eds/bin/gnu/H-i686-pc-linux-gnu/bin/../lib/gcc/nios2-elf/4.1.2/../../../../nios2-elf/lib/libc.a(lib_a-strtod.o)
 .rodata.str1.4
                0x00855e4c       0x1c /opt/altera/10.1sp1/nios2eds/bin/gnu/H-i686-pc-linux-gnu/bin/../lib/gcc/nios2-elf/4.1.2/../../../../nios2-elf/lib/libc.a(lib_a-gdtoa-gethex.o)
 .rodata        0x00855e68       0x14 /opt/altera/10.1sp1/nios2eds/bin/gnu/H-i686-pc-linux-gnu/bin/../lib/gcc/nios2-elf/4.1.2/libgcc.a(_thenan_df.o)
                0x00855e68                __thenan_df
 .rodata        0x00855e7c      0x100 /opt/altera/10.1sp1/nios2eds/bin/gnu/H-i686-pc-linux-gnu/bin/../lib/gcc/nios2-elf/4.1.2/libgcc.a(_clz.o)
                0x00855e7c                __clz_tab
 .rodata        0x00855f7c       0x10 ../StereoCameraServer_bsp/libucosii_bsp.a(alt_main.o)
 .rodata        0x00855f8c      0x120 ../StereoCameraServer_bsp/libucosii_bsp.a(os_core.o)
                0x00855f8c                OSUnMapTbl
 .rodata        0x008560ac       0x70 ../StereoCameraServer_bsp/libucosii_bsp.a(alt_sys_init.o)
 .rodata        0x0085611c       0x64 ../StereoCameraServer_bsp/libucosii_bsp.a(dm9000a.o)
 .rodata        0x00856180       0xd8 ../StereoCameraServer_bsp/libucosii_bsp.a(ipnet.o)
 .rodata        0x00856258       0xec ../StereoCameraServer_bsp/libucosii_bsp.a(ipstart.o)
 .rodata        0x00856344      0x54c ../StereoCameraServer_bsp/libucosii_bsp.a(igmp_cmn.o)
 .rodata        0x00856890       0xb8 ../StereoCameraServer_bsp/libucosii_bsp.a(in_utils.o)
 .rodata        0x00856948       0x34 ../StereoCameraServer_bsp/libucosii_bsp.a(netmain.o)
 .rodata        0x0085697c      0x1a8 ../StereoCameraServer_bsp/libucosii_bsp.a(tk_crnos.o)
 .rodata        0x00856b24      0x118 ../StereoCameraServer_bsp/libucosii_bsp.a(pktalloc.o)
 .rodata        0x00856c3c       0x2c ../StereoCameraServer_bsp/libucosii_bsp.a(brdutils.o)
 .rodata        0x00856c68      0x26c ../StereoCameraServer_bsp/libucosii_bsp.a(osportco.o)
 .rodata        0x00856ed4       0xa0 ../StereoCameraServer_bsp/libucosii_bsp.a(targnios.o)
 .rodata        0x00856f74       0x90 ../StereoCameraServer_bsp/libucosii_bsp.a(nptcp.o)
 .rodata        0x00857004        0x8 ../StereoCameraServer_bsp/libucosii_bsp.a(sockcall.o)
 .rodata        0x0085700c       0x50 ../StereoCameraServer_bsp/libucosii_bsp.a(socket.o)
 .rodata        0x0085705c       0x40 ../StereoCameraServer_bsp/libucosii_bsp.a(socket2.o)
 .rodata        0x0085709c       0x20 ../StereoCameraServer_bsp/libucosii_bsp.a(tcp_in.o)
 .rodata        0x008570bc       0x40 ../StereoCameraServer_bsp/libucosii_bsp.a(tcp_out.o)
 .rodata        0x008570fc       0x24 ../StereoCameraServer_bsp/libucosii_bsp.a(tcp_subr.o)
 .rodata        0x00857120       0x2c ../StereoCameraServer_bsp/libucosii_bsp.a(tcp_usr.o)
 .rodata        0x0085714c        0xc ../StereoCameraServer_bsp/libucosii_bsp.a(alt_dev.o)
 .rodata        0x00857158        0x4 ../StereoCameraServer_bsp/libucosii_bsp.a(os_cpu_c.o)
 .rodata        0x0085715c      0x1d4 ../StereoCameraServer_bsp/libucosii_bsp.a(allports.o)
 .rodata        0x00857330       0x34 ../StereoCameraServer_bsp/libucosii_bsp.a(tk_misc.o)
 .rodata        0x00857364       0x44 ../StereoCameraServer_bsp/libucosii_bsp.a(et_arp.o)
 .rodata        0x008573a8      0x1dc ../StereoCameraServer_bsp/libucosii_bsp.a(ip.o)
 .rodata        0x00857584      0x158 ../StereoCameraServer_bsp/libucosii_bsp.a(ip_reasm.o)
 .rodata        0x008576dc      0x120 ../StereoCameraServer_bsp/libucosii_bsp.a(ipdemux.o)
 .rodata        0x008577fc       0x34 ../StereoCameraServer_bsp/libucosii_bsp.a(ipport.o)
 .rodata        0x00857830       0x24 ../StereoCameraServer_bsp/libucosii_bsp.a(ipraw.o)
 .rodata        0x00857854       0x38 ../StereoCameraServer_bsp/libucosii_bsp.a(iproute.o)
 .rodata        0x0085788c       0xe8 ../StereoCameraServer_bsp/libucosii_bsp.a(udp.o)
 .rodata        0x00857974      0x2d0 ../StereoCameraServer_bsp/libucosii_bsp.a(u_mctest.o)
 .rodata        0x00857c44       0x94 ../StereoCameraServer_bsp/libucosii_bsp.a(parseip.o)
 .rodata        0x00857cd8       0x84 ../StereoCameraServer_bsp/libucosii_bsp.a(udp_open.o)
 .rodata        0x00857d5c       0x34 ../StereoCameraServer_bsp/libucosii_bsp.a(vfsfiles.o)
 .rodata        0x00857d90      0x318 ../StereoCameraServer_bsp/libucosii_bsp.a(icmp.o)
 *(.rodata1)
                0x008580a8                . = ALIGN (0x4)
                0x008580a8                PROVIDE (__ram_rodata_end, ABSOLUTE (.))
                0x00853c0c                PROVIDE (__flash_rodata_start, LOADADDR (.rodata))

.rwdata         0x008580a8     0x21fc load address 0x0085a2a4
                0x008580a8                PROVIDE (__ram_rwdata_start, ABSOLUTE (.))
                0x008580a8                . = ALIGN (0x4)
 *(.got.plt)
 *(.got)
 *(.data1)
 *(.data .data.* .gnu.linkonce.d.*)
 .data          0x008580a8        0x0 ../StereoCameraServer_bsp/obj/HAL/src/crt0.o
 .data          0x008580a8        0x0 obj/alt_error_handler.o
 .data          0x008580a8        0x0 obj/altera_avalon_uart_init.o
 .data          0x008580a8        0x0 obj/altera_avalon_uart_read.o
 .data          0x008580a8        0x0 obj/http.o
 .data          0x008580a8        0x0 obj/network_utilities.o
 .data          0x008580a8        0x0 obj/srec_flash.o
 .data          0x008580a8       0x28 obj/web_server.o
                0x008580a8                wstask
 .data          0x008580d0        0x0 obj/Camera.o
 .data          0x008580d0        0x0 obj/StereoCamera.o
 .data          0x008580d0        0x0 obj/cam_control.o
 .data          0x008580d0        0x0 /opt/altera/10.1sp1/nios2eds/bin/gnu/H-i686-pc-linux-gnu/bin/../lib/gcc/nios2-elf/4.1.2/../../../../nios2-elf/lib/libstdc++.a(eh_personality.o)
 .data          0x008580d0        0x0 /opt/altera/10.1sp1/nios2eds/bin/gnu/H-i686-pc-linux-gnu/bin/../lib/gcc/nios2-elf/4.1.2/../../../../nios2-elf/lib/libstdc++.a(eh_globals.o)
 .data          0x008580d0        0x0 /opt/altera/10.1sp1/nios2eds/bin/gnu/H-i686-pc-linux-gnu/bin/../lib/gcc/nios2-elf/4.1.2/../../../../nios2-elf/lib/libstdc++.a(eh_throw.o)
 .data          0x008580d0        0x0 /opt/altera/10.1sp1/nios2eds/bin/gnu/H-i686-pc-linux-gnu/bin/../lib/gcc/nios2-elf/4.1.2/../../../../nios2-elf/lib/libstdc++.a(eh_call.o)
 .data          0x008580d0        0x0 /opt/altera/10.1sp1/nios2eds/bin/gnu/H-i686-pc-linux-gnu/bin/../lib/gcc/nios2-elf/4.1.2/../../../../nios2-elf/lib/libstdc++.a(eh_catch.o)
 .data          0x008580d0        0x0 /opt/altera/10.1sp1/nios2eds/bin/gnu/H-i686-pc-linux-gnu/bin/../lib/gcc/nios2-elf/4.1.2/../../../../nios2-elf/lib/libstdc++.a(eh_exception.o)
 .data          0x008580d0        0x0 /opt/altera/10.1sp1/nios2eds/bin/gnu/H-i686-pc-linux-gnu/bin/../lib/gcc/nios2-elf/4.1.2/../../../../nios2-elf/lib/libstdc++.a(eh_terminate.o)
 .data          0x008580d0        0x0 /opt/altera/10.1sp1/nios2eds/bin/gnu/H-i686-pc-linux-gnu/bin/../lib/gcc/nios2-elf/4.1.2/../../../../nios2-elf/lib/libstdc++.a(si_class_type_info.o)
 .data          0x008580d0        0x0 /opt/altera/10.1sp1/nios2eds/bin/gnu/H-i686-pc-linux-gnu/bin/../lib/gcc/nios2-elf/4.1.2/../../../../nios2-elf/lib/libstdc++.a(eh_alloc.o)
 .data          0x008580d0        0x0 /opt/altera/10.1sp1/nios2eds/bin/gnu/H-i686-pc-linux-gnu/bin/../lib/gcc/nios2-elf/4.1.2/../../../../nios2-elf/lib/libstdc++.a(eh_term_handler.o)
 .data          0x008580d0        0x0 /opt/altera/10.1sp1/nios2eds/bin/gnu/H-i686-pc-linux-gnu/bin/../lib/gcc/nios2-elf/4.1.2/../../../../nios2-elf/lib/libstdc++.a(tinfo.o)
 .data          0x008580d0        0x0 /opt/altera/10.1sp1/nios2eds/bin/gnu/H-i686-pc-linux-gnu/bin/../lib/gcc/nios2-elf/4.1.2/../../../../nios2-elf/lib/libstdc++.a(del_op.o)
 .data          0x008580d0        0x0 /opt/altera/10.1sp1/nios2eds/bin/gnu/H-i686-pc-linux-gnu/bin/../lib/gcc/nios2-elf/4.1.2/../../../../nios2-elf/lib/libstdc++.a(class_type_info.o)
 .data          0x008580d0        0x0 /opt/altera/10.1sp1/nios2eds/bin/gnu/H-i686-pc-linux-gnu/bin/../lib/gcc/nios2-elf/4.1.2/../../../../nios2-elf/lib/libstdc++.a(eh_unex_handler.o)
 .data          0x008580d0        0x0 /opt/altera/10.1sp1/nios2eds/bin/gnu/H-i686-pc-linux-gnu/bin/../lib/gcc/nios2-elf/4.1.2/libgcc.a(lib2-divmod.o)
 .data          0x008580d0        0x0 /opt/altera/10.1sp1/nios2eds/bin/gnu/H-i686-pc-linux-gnu/bin/../lib/gcc/nios2-elf/4.1.2/libgcc.a(unwind-dw2.o)
 .data          0x008580d0        0x0 /opt/altera/10.1sp1/nios2eds/bin/gnu/H-i686-pc-linux-gnu/bin/../lib/gcc/nios2-elf/4.1.2/libgcc.a(unwind-dw2-fde.o)
 .data          0x008580d0        0x0 /opt/altera/10.1sp1/nios2eds/bin/gnu/H-i686-pc-linux-gnu/bin/../lib/gcc/nios2-elf/4.1.2/../../../../nios2-elf/lib/libc.a(lib_a-abort.o)
 .data          0x008580d0        0x0 /opt/altera/10.1sp1/nios2eds/bin/gnu/H-i686-pc-linux-gnu/bin/../lib/gcc/nios2-elf/4.1.2/../../../../nios2-elf/lib/libc.a(lib_a-atoi.o)
 .data          0x008580d0        0x0 /opt/altera/10.1sp1/nios2eds/bin/gnu/H-i686-pc-linux-gnu/bin/../lib/gcc/nios2-elf/4.1.2/../../../../nios2-elf/lib/libc.a(lib_a-ctype_.o)
 .data          0x008580d0        0x0 /opt/altera/10.1sp1/nios2eds/bin/gnu/H-i686-pc-linux-gnu/bin/../lib/gcc/nios2-elf/4.1.2/../../../../nios2-elf/lib/libc.a(lib_a-fclose.o)
 .data          0x008580d0        0x0 /opt/altera/10.1sp1/nios2eds/bin/gnu/H-i686-pc-linux-gnu/bin/../lib/gcc/nios2-elf/4.1.2/../../../../nios2-elf/lib/libc.a(lib_a-fflush.o)
 .data          0x008580d0        0x0 /opt/altera/10.1sp1/nios2eds/bin/gnu/H-i686-pc-linux-gnu/bin/../lib/gcc/nios2-elf/4.1.2/../../../../nios2-elf/lib/libc.a(lib_a-fgetc.o)
 .data          0x008580d0        0x0 /opt/altera/10.1sp1/nios2eds/bin/gnu/H-i686-pc-linux-gnu/bin/../lib/gcc/nios2-elf/4.1.2/../../../../nios2-elf/lib/libc.a(lib_a-fgetpos.o)
 .data          0x008580d0        0x0 /opt/altera/10.1sp1/nios2eds/bin/gnu/H-i686-pc-linux-gnu/bin/../lib/gcc/nios2-elf/4.1.2/../../../../nios2-elf/lib/libc.a(lib_a-fileno.o)
 .data          0x008580d0        0x0 /opt/altera/10.1sp1/nios2eds/bin/gnu/H-i686-pc-linux-gnu/bin/../lib/gcc/nios2-elf/4.1.2/../../../../nios2-elf/lib/libc.a(lib_a-findfp.o)
 .data          0x008580d0        0x0 /opt/altera/10.1sp1/nios2eds/bin/gnu/H-i686-pc-linux-gnu/bin/../lib/gcc/nios2-elf/4.1.2/../../../../nios2-elf/lib/libc.a(lib_a-fopen.o)
 .data          0x008580d0        0x0 /opt/altera/10.1sp1/nios2eds/bin/gnu/H-i686-pc-linux-gnu/bin/../lib/gcc/nios2-elf/4.1.2/../../../../nios2-elf/lib/libc.a(lib_a-fprintf.o)
 .data          0x008580d0        0x0 /opt/altera/10.1sp1/nios2eds/bin/gnu/H-i686-pc-linux-gnu/bin/../lib/gcc/nios2-elf/4.1.2/../../../../nios2-elf/lib/libc.a(lib_a-fputc.o)
 .data          0x008580d0        0x0 /opt/altera/10.1sp1/nios2eds/bin/gnu/H-i686-pc-linux-gnu/bin/../lib/gcc/nios2-elf/4.1.2/../../../../nios2-elf/lib/libc.a(lib_a-fread.o)
 .data          0x008580d0        0x0 /opt/altera/10.1sp1/nios2eds/bin/gnu/H-i686-pc-linux-gnu/bin/../lib/gcc/nios2-elf/4.1.2/../../../../nios2-elf/lib/libc.a(lib_a-freer.o)
 .data          0x008580d0        0x0 /opt/altera/10.1sp1/nios2eds/bin/gnu/H-i686-pc-linux-gnu/bin/../lib/gcc/nios2-elf/4.1.2/../../../../nios2-elf/lib/libc.a(lib_a-fseek.o)
 .data          0x008580d0        0x0 /opt/altera/10.1sp1/nios2eds/bin/gnu/H-i686-pc-linux-gnu/bin/../lib/gcc/nios2-elf/4.1.2/../../../../nios2-elf/lib/libc.a(lib_a-fstatr.o)
 .data          0x008580d0        0x0 /opt/altera/10.1sp1/nios2eds/bin/gnu/H-i686-pc-linux-gnu/bin/../lib/gcc/nios2-elf/4.1.2/../../../../nios2-elf/lib/libc.a(lib_a-ftell.o)
 .data          0x008580d0        0x0 /opt/altera/10.1sp1/nios2eds/bin/gnu/H-i686-pc-linux-gnu/bin/../lib/gcc/nios2-elf/4.1.2/../../../../nios2-elf/lib/libc.a(lib_a-fwalk.o)
 .data          0x008580d0        0x0 /opt/altera/10.1sp1/nios2eds/bin/gnu/H-i686-pc-linux-gnu/bin/../lib/gcc/nios2-elf/4.1.2/../../../../nios2-elf/lib/libc.a(lib_a-fwrite.o)
 .data          0x008580d0        0x0 /opt/altera/10.1sp1/nios2eds/bin/gnu/H-i686-pc-linux-gnu/bin/../lib/gcc/nios2-elf/4.1.2/../../../../nios2-elf/lib/libc.a(lib_a-getc.o)
 .data          0x008580d0      0x400 /opt/altera/10.1sp1/nios2eds/bin/gnu/H-i686-pc-linux-gnu/bin/../lib/gcc/nios2-elf/4.1.2/../../../../nios2-elf/lib/libc.a(lib_a-impure.o)
 .data          0x008584d0        0x0 /opt/altera/10.1sp1/nios2eds/bin/gnu/H-i686-pc-linux-gnu/bin/../lib/gcc/nios2-elf/4.1.2/../../../../nios2-elf/lib/libc.a(lib_a-int_errno.o)
 .data          0x008584d0        0x0 /opt/altera/10.1sp1/nios2eds/bin/gnu/H-i686-pc-linux-gnu/bin/../lib/gcc/nios2-elf/4.1.2/../../../../nios2-elf/lib/libc.a(lib_a-makebuf.o)
 .data          0x008584d0        0x0 /opt/altera/10.1sp1/nios2eds/bin/gnu/H-i686-pc-linux-gnu/bin/../lib/gcc/nios2-elf/4.1.2/../../../../nios2-elf/lib/libc.a(lib_a-malloc.o)
 .data          0x008584d0      0x408 /opt/altera/10.1sp1/nios2eds/bin/gnu/H-i686-pc-linux-gnu/bin/../lib/gcc/nios2-elf/4.1.2/../../../../nios2-elf/lib/libc.a(lib_a-mallocr.o)
                0x008584d0                __malloc_av_
 .data          0x008588d8        0x0 /opt/altera/10.1sp1/nios2eds/bin/gnu/H-i686-pc-linux-gnu/bin/../lib/gcc/nios2-elf/4.1.2/../../../../nios2-elf/lib/libc.a(lib_a-memcpy.o)
 .data          0x008588d8        0x0 /opt/altera/10.1sp1/nios2eds/bin/gnu/H-i686-pc-linux-gnu/bin/../lib/gcc/nios2-elf/4.1.2/../../../../nios2-elf/lib/libc.a(lib_a-memmove.o)
 .data          0x008588d8        0x0 /opt/altera/10.1sp1/nios2eds/bin/gnu/H-i686-pc-linux-gnu/bin/../lib/gcc/nios2-elf/4.1.2/../../../../nios2-elf/lib/libc.a(lib_a-memset.o)
 .data          0x008588d8        0x0 /opt/altera/10.1sp1/nios2eds/bin/gnu/H-i686-pc-linux-gnu/bin/../lib/gcc/nios2-elf/4.1.2/../../../../nios2-elf/lib/libc.a(lib_a-openr.o)
 .data          0x008588d8        0x0 /opt/altera/10.1sp1/nios2eds/bin/gnu/H-i686-pc-linux-gnu/bin/../lib/gcc/nios2-elf/4.1.2/../../../../nios2-elf/lib/libc.a(lib_a-perror.o)
 .data          0x008588d8        0x0 /opt/altera/10.1sp1/nios2eds/bin/gnu/H-i686-pc-linux-gnu/bin/../lib/gcc/nios2-elf/4.1.2/../../../../nios2-elf/lib/libc.a(lib_a-printf.o)
 .data          0x008588d8        0x0 /opt/altera/10.1sp1/nios2eds/bin/gnu/H-i686-pc-linux-gnu/bin/../lib/gcc/nios2-elf/4.1.2/../../../../nios2-elf/lib/libc.a(lib_a-putc.o)
 .data          0x008588d8        0x0 /opt/altera/10.1sp1/nios2eds/bin/gnu/H-i686-pc-linux-gnu/bin/../lib/gcc/nios2-elf/4.1.2/../../../../nios2-elf/lib/libc.a(lib_a-putchar.o)
 .data          0x008588d8        0x0 /opt/altera/10.1sp1/nios2eds/bin/gnu/H-i686-pc-linux-gnu/bin/../lib/gcc/nios2-elf/4.1.2/../../../../nios2-elf/lib/libc.a(lib_a-puts.o)
 .data          0x008588d8        0x0 /opt/altera/10.1sp1/nios2eds/bin/gnu/H-i686-pc-linux-gnu/bin/../lib/gcc/nios2-elf/4.1.2/../../../../nios2-elf/lib/libc.a(lib_a-refill.o)
 .data          0x008588d8        0x0 /opt/altera/10.1sp1/nios2eds/bin/gnu/H-i686-pc-linux-gnu/bin/../lib/gcc/nios2-elf/4.1.2/../../../../nios2-elf/lib/libc.a(lib_a-rget.o)
 .data          0x008588d8        0x0 /opt/altera/10.1sp1/nios2eds/bin/gnu/H-i686-pc-linux-gnu/bin/../lib/gcc/nios2-elf/4.1.2/../../../../nios2-elf/lib/libc.a(lib_a-sbrkr.o)
 .data          0x008588d8        0x0 /opt/altera/10.1sp1/nios2eds/bin/gnu/H-i686-pc-linux-gnu/bin/../lib/gcc/nios2-elf/4.1.2/../../../../nios2-elf/lib/libc.a(lib_a-signal.o)
 .data          0x008588d8        0x0 /opt/altera/10.1sp1/nios2eds/bin/gnu/H-i686-pc-linux-gnu/bin/../lib/gcc/nios2-elf/4.1.2/../../../../nios2-elf/lib/libc.a(lib_a-signalr.o)
 .data          0x008588d8        0x0 /opt/altera/10.1sp1/nios2eds/bin/gnu/H-i686-pc-linux-gnu/bin/../lib/gcc/nios2-elf/4.1.2/../../../../nios2-elf/lib/libc.a(lib_a-sprintf.o)
 .data          0x008588d8        0x0 /opt/altera/10.1sp1/nios2eds/bin/gnu/H-i686-pc-linux-gnu/bin/../lib/gcc/nios2-elf/4.1.2/../../../../nios2-elf/lib/libc.a(lib_a-sscanf.o)
 .data          0x008588d8        0x0 /opt/altera/10.1sp1/nios2eds/bin/gnu/H-i686-pc-linux-gnu/bin/../lib/gcc/nios2-elf/4.1.2/../../../../nios2-elf/lib/libc.a(lib_a-stdio.o)
 .data          0x008588d8        0x0 /opt/altera/10.1sp1/nios2eds/bin/gnu/H-i686-pc-linux-gnu/bin/../lib/gcc/nios2-elf/4.1.2/../../../../nios2-elf/lib/libc.a(lib_a-strcasecmp.o)
 .data          0x008588d8        0x0 /opt/altera/10.1sp1/nios2eds/bin/gnu/H-i686-pc-linux-gnu/bin/../lib/gcc/nios2-elf/4.1.2/../../../../nios2-elf/lib/libc.a(lib_a-strcat.o)
 .data          0x008588d8        0x0 /opt/altera/10.1sp1/nios2eds/bin/gnu/H-i686-pc-linux-gnu/bin/../lib/gcc/nios2-elf/4.1.2/../../../../nios2-elf/lib/libc.a(lib_a-strchr.o)
 .data          0x008588d8        0x0 /opt/altera/10.1sp1/nios2eds/bin/gnu/H-i686-pc-linux-gnu/bin/../lib/gcc/nios2-elf/4.1.2/../../../../nios2-elf/lib/libc.a(lib_a-strcmp.o)
 .data          0x008588d8        0x0 /opt/altera/10.1sp1/nios2eds/bin/gnu/H-i686-pc-linux-gnu/bin/../lib/gcc/nios2-elf/4.1.2/../../../../nios2-elf/lib/libc.a(lib_a-strcpy.o)
 .data          0x008588d8        0x0 /opt/altera/10.1sp1/nios2eds/bin/gnu/H-i686-pc-linux-gnu/bin/../lib/gcc/nios2-elf/4.1.2/../../../../nios2-elf/lib/libc.a(lib_a-strerror.o)
 .data          0x008588d8        0x0 /opt/altera/10.1sp1/nios2eds/bin/gnu/H-i686-pc-linux-gnu/bin/../lib/gcc/nios2-elf/4.1.2/../../../../nios2-elf/lib/libc.a(lib_a-strlen.o)
 .data          0x008588d8        0x0 /opt/altera/10.1sp1/nios2eds/bin/gnu/H-i686-pc-linux-gnu/bin/../lib/gcc/nios2-elf/4.1.2/../../../../nios2-elf/lib/libc.a(lib_a-strncmp.o)
 .data          0x008588d8        0x0 /opt/altera/10.1sp1/nios2eds/bin/gnu/H-i686-pc-linux-gnu/bin/../lib/gcc/nios2-elf/4.1.2/../../../../nios2-elf/lib/libc.a(lib_a-strncpy.o)
 .data          0x008588d8        0x0 /opt/altera/10.1sp1/nios2eds/bin/gnu/H-i686-pc-linux-gnu/bin/../lib/gcc/nios2-elf/4.1.2/../../../../nios2-elf/lib/libc.a(lib_a-strstr.o)
 .data          0x008588d8        0x0 /opt/altera/10.1sp1/nios2eds/bin/gnu/H-i686-pc-linux-gnu/bin/../lib/gcc/nios2-elf/4.1.2/../../../../nios2-elf/lib/libc.a(lib_a-strtok.o)
 .data          0x008588d8        0x0 /opt/altera/10.1sp1/nios2eds/bin/gnu/H-i686-pc-linux-gnu/bin/../lib/gcc/nios2-elf/4.1.2/../../../../nios2-elf/lib/libc.a(lib_a-strtok_r.o)
 .data          0x008588d8        0x0 /opt/altera/10.1sp1/nios2eds/bin/gnu/H-i686-pc-linux-gnu/bin/../lib/gcc/nios2-elf/4.1.2/../../../../nios2-elf/lib/libc.a(lib_a-strtol.o)
 .data          0x008588d8        0x0 /opt/altera/10.1sp1/nios2eds/bin/gnu/H-i686-pc-linux-gnu/bin/../lib/gcc/nios2-elf/4.1.2/../../../../nios2-elf/lib/libc.a(lib_a-u_strerr.o)
 .data          0x008588d8        0x0 /opt/altera/10.1sp1/nios2eds/bin/gnu/H-i686-pc-linux-gnu/bin/../lib/gcc/nios2-elf/4.1.2/../../../../nios2-elf/lib/libc.a(lib_a-vfprintf.o)
 .data          0x008588d8        0x0 /opt/altera/10.1sp1/nios2eds/bin/gnu/H-i686-pc-linux-gnu/bin/../lib/gcc/nios2-elf/4.1.2/../../../../nios2-elf/lib/libc.a(lib_a-vfscanf.o)
 .data          0x008588d8        0x0 /opt/altera/10.1sp1/nios2eds/bin/gnu/H-i686-pc-linux-gnu/bin/../lib/gcc/nios2-elf/4.1.2/../../../../nios2-elf/lib/libc.a(lib_a-wbuf.o)
 .data          0x008588d8        0x0 /opt/altera/10.1sp1/nios2eds/bin/gnu/H-i686-pc-linux-gnu/bin/../lib/gcc/nios2-elf/4.1.2/../../../../nios2-elf/lib/libc.a(lib_a-writer.o)
 .data          0x008588d8        0x0 /opt/altera/10.1sp1/nios2eds/bin/gnu/H-i686-pc-linux-gnu/bin/../lib/gcc/nios2-elf/4.1.2/../../../../nios2-elf/lib/libc.a(lib_a-wsetup.o)
 .data          0x008588d8        0x0 /opt/altera/10.1sp1/nios2eds/bin/gnu/H-i686-pc-linux-gnu/bin/../lib/gcc/nios2-elf/4.1.2/../../../../nios2-elf/lib/libc.a(lib_a-closer.o)
 .data          0x008588d8        0x0 /opt/altera/10.1sp1/nios2eds/bin/gnu/H-i686-pc-linux-gnu/bin/../lib/gcc/nios2-elf/4.1.2/../../../../nios2-elf/lib/libc.a(lib_a-dtoa.o)
 .data          0x008588d8        0x0 /opt/altera/10.1sp1/nios2eds/bin/gnu/H-i686-pc-linux-gnu/bin/../lib/gcc/nios2-elf/4.1.2/../../../../nios2-elf/lib/libc.a(lib_a-flags.o)
 .data          0x008588d8        0x0 /opt/altera/10.1sp1/nios2eds/bin/gnu/H-i686-pc-linux-gnu/bin/../lib/gcc/nios2-elf/4.1.2/../../../../nios2-elf/lib/libc.a(lib_a-fputs.o)
 .data          0x008588d8        0x0 /opt/altera/10.1sp1/nios2eds/bin/gnu/H-i686-pc-linux-gnu/bin/../lib/gcc/nios2-elf/4.1.2/../../../../nios2-elf/lib/libc.a(lib_a-fvwrite.o)
 .data          0x008588d8        0x0 /opt/altera/10.1sp1/nios2eds/bin/gnu/H-i686-pc-linux-gnu/bin/../lib/gcc/nios2-elf/4.1.2/../../../../nios2-elf/lib/libc.a(lib_a-isattyr.o)
 .data          0x008588d8        0x0 /opt/altera/10.1sp1/nios2eds/bin/gnu/H-i686-pc-linux-gnu/bin/../lib/gcc/nios2-elf/4.1.2/../../../../nios2-elf/lib/libc.a(lib_a-iswspace.o)
 .data          0x008588d8        0xc /opt/altera/10.1sp1/nios2eds/bin/gnu/H-i686-pc-linux-gnu/bin/../lib/gcc/nios2-elf/4.1.2/../../../../nios2-elf/lib/libc.a(lib_a-locale.o)
                0x008588d8                __lc_ctype
 .data          0x008588e4        0x0 /opt/altera/10.1sp1/nios2eds/bin/gnu/H-i686-pc-linux-gnu/bin/../lib/gcc/nios2-elf/4.1.2/../../../../nios2-elf/lib/libc.a(lib_a-lseekr.o)
 .data          0x008588e4        0x0 /opt/altera/10.1sp1/nios2eds/bin/gnu/H-i686-pc-linux-gnu/bin/../lib/gcc/nios2-elf/4.1.2/../../../../nios2-elf/lib/libc.a(lib_a-mbrtowc.o)
 .data          0x008588e4        0x0 /opt/altera/10.1sp1/nios2eds/bin/gnu/H-i686-pc-linux-gnu/bin/../lib/gcc/nios2-elf/4.1.2/../../../../nios2-elf/lib/libc.a(lib_a-mbtowc_r.o)
 .data          0x008588e4        0x0 /opt/altera/10.1sp1/nios2eds/bin/gnu/H-i686-pc-linux-gnu/bin/../lib/gcc/nios2-elf/4.1.2/../../../../nios2-elf/lib/libc.a(lib_a-memchr.o)
 .data          0x008588e4        0x0 /opt/altera/10.1sp1/nios2eds/bin/gnu/H-i686-pc-linux-gnu/bin/../lib/gcc/nios2-elf/4.1.2/../../../../nios2-elf/lib/libc.a(lib_a-memcmp.o)
 .data          0x008588e4        0x0 /opt/altera/10.1sp1/nios2eds/bin/gnu/H-i686-pc-linux-gnu/bin/../lib/gcc/nios2-elf/4.1.2/../../../../nios2-elf/lib/libc.a(lib_a-mprec.o)
 .data          0x008588e4        0x0 /opt/altera/10.1sp1/nios2eds/bin/gnu/H-i686-pc-linux-gnu/bin/../lib/gcc/nios2-elf/4.1.2/../../../../nios2-elf/lib/libc.a(lib_a-readr.o)
 .data          0x008588e4        0x0 /opt/altera/10.1sp1/nios2eds/bin/gnu/H-i686-pc-linux-gnu/bin/../lib/gcc/nios2-elf/4.1.2/../../../../nios2-elf/lib/libc.a(lib_a-reallocr.o)
 .data          0x008588e4        0x0 /opt/altera/10.1sp1/nios2eds/bin/gnu/H-i686-pc-linux-gnu/bin/../lib/gcc/nios2-elf/4.1.2/../../../../nios2-elf/lib/libc.a(lib_a-s_isinfd.o)
 .data          0x008588e4        0x0 /opt/altera/10.1sp1/nios2eds/bin/gnu/H-i686-pc-linux-gnu/bin/../lib/gcc/nios2-elf/4.1.2/../../../../nios2-elf/lib/libc.a(lib_a-s_isnand.o)
 .data          0x008588e4        0x0 /opt/altera/10.1sp1/nios2eds/bin/gnu/H-i686-pc-linux-gnu/bin/../lib/gcc/nios2-elf/4.1.2/../../../../nios2-elf/lib/libc.a(lib_a-sccl.o)
 .data          0x008588e4        0x0 /opt/altera/10.1sp1/nios2eds/bin/gnu/H-i686-pc-linux-gnu/bin/../lib/gcc/nios2-elf/4.1.2/../../../../nios2-elf/lib/libc.a(lib_a-sf_nan.o)
 .data          0x008588e4       0x28 /opt/altera/10.1sp1/nios2eds/bin/gnu/H-i686-pc-linux-gnu/bin/../lib/gcc/nios2-elf/4.1.2/../../../../nios2-elf/lib/libc.a(lib_a-strtod.o)
 .data          0x0085890c        0x0 /opt/altera/10.1sp1/nios2eds/bin/gnu/H-i686-pc-linux-gnu/bin/../lib/gcc/nios2-elf/4.1.2/../../../../nios2-elf/lib/libc.a(lib_a-strtoll_r.o)
 .data          0x0085890c        0x0 /opt/altera/10.1sp1/nios2eds/bin/gnu/H-i686-pc-linux-gnu/bin/../lib/gcc/nios2-elf/4.1.2/../../../../nios2-elf/lib/libc.a(lib_a-strtoul.o)
 .data          0x0085890c        0x0 /opt/altera/10.1sp1/nios2eds/bin/gnu/H-i686-pc-linux-gnu/bin/../lib/gcc/nios2-elf/4.1.2/../../../../nios2-elf/lib/libc.a(lib_a-strtoull_r.o)
 .data          0x0085890c        0x0 /opt/altera/10.1sp1/nios2eds/bin/gnu/H-i686-pc-linux-gnu/bin/../lib/gcc/nios2-elf/4.1.2/../../../../nios2-elf/lib/libc.a(lib_a-ungetc.o)
 .data          0x0085890c        0x0 /opt/altera/10.1sp1/nios2eds/bin/gnu/H-i686-pc-linux-gnu/bin/../lib/gcc/nios2-elf/4.1.2/../../../../nios2-elf/lib/libc.a(lib_a-callocr.o)
 .data          0x0085890c        0x0 /opt/altera/10.1sp1/nios2eds/bin/gnu/H-i686-pc-linux-gnu/bin/../lib/gcc/nios2-elf/4.1.2/../../../../nios2-elf/lib/libc.a(lib_a-gdtoa-gethex.o)
 .data          0x0085890c        0x0 /opt/altera/10.1sp1/nios2eds/bin/gnu/H-i686-pc-linux-gnu/bin/../lib/gcc/nios2-elf/4.1.2/../../../../nios2-elf/lib/libc.a(lib_a-gdtoa-hexnan.o)
 .data          0x0085890c        0x0 /opt/altera/10.1sp1/nios2eds/bin/gnu/H-i686-pc-linux-gnu/bin/../lib/gcc/nios2-elf/4.1.2/libgcc.a(_muldi3.o)
 .data          0x0085890c        0x0 /opt/altera/10.1sp1/nios2eds/bin/gnu/H-i686-pc-linux-gnu/bin/../lib/gcc/nios2-elf/4.1.2/libgcc.a(_fixunsdfsi.o)
 .data          0x0085890c        0x0 /opt/altera/10.1sp1/nios2eds/bin/gnu/H-i686-pc-linux-gnu/bin/../lib/gcc/nios2-elf/4.1.2/libgcc.a(_udivdi3.o)
 .data          0x0085890c        0x0 /opt/altera/10.1sp1/nios2eds/bin/gnu/H-i686-pc-linux-gnu/bin/../lib/gcc/nios2-elf/4.1.2/libgcc.a(_umoddi3.o)
 .data          0x0085890c        0x0 /opt/altera/10.1sp1/nios2eds/bin/gnu/H-i686-pc-linux-gnu/bin/../lib/gcc/nios2-elf/4.1.2/libgcc.a(_ne_sf.o)
 .data          0x0085890c        0x0 /opt/altera/10.1sp1/nios2eds/bin/gnu/H-i686-pc-linux-gnu/bin/../lib/gcc/nios2-elf/4.1.2/libgcc.a(_gt_sf.o)
 .data          0x0085890c        0x0 /opt/altera/10.1sp1/nios2eds/bin/gnu/H-i686-pc-linux-gnu/bin/../lib/gcc/nios2-elf/4.1.2/libgcc.a(_lt_sf.o)
 .data          0x0085890c        0x0 /opt/altera/10.1sp1/nios2eds/bin/gnu/H-i686-pc-linux-gnu/bin/../lib/gcc/nios2-elf/4.1.2/libgcc.a(_addsub_df.o)
 .data          0x0085890c        0x0 /opt/altera/10.1sp1/nios2eds/bin/gnu/H-i686-pc-linux-gnu/bin/../lib/gcc/nios2-elf/4.1.2/libgcc.a(_mul_df.o)
 .data          0x0085890c        0x0 /opt/altera/10.1sp1/nios2eds/bin/gnu/H-i686-pc-linux-gnu/bin/../lib/gcc/nios2-elf/4.1.2/libgcc.a(_div_df.o)
 .data          0x0085890c        0x0 /opt/altera/10.1sp1/nios2eds/bin/gnu/H-i686-pc-linux-gnu/bin/../lib/gcc/nios2-elf/4.1.2/libgcc.a(_eq_df.o)
 .data          0x0085890c        0x0 /opt/altera/10.1sp1/nios2eds/bin/gnu/H-i686-pc-linux-gnu/bin/../lib/gcc/nios2-elf/4.1.2/libgcc.a(_ne_df.o)
 .data          0x0085890c        0x0 /opt/altera/10.1sp1/nios2eds/bin/gnu/H-i686-pc-linux-gnu/bin/../lib/gcc/nios2-elf/4.1.2/libgcc.a(_gt_df.o)
 .data          0x0085890c        0x0 /opt/altera/10.1sp1/nios2eds/bin/gnu/H-i686-pc-linux-gnu/bin/../lib/gcc/nios2-elf/4.1.2/libgcc.a(_ge_df.o)
 .data          0x0085890c        0x0 /opt/altera/10.1sp1/nios2eds/bin/gnu/H-i686-pc-linux-gnu/bin/../lib/gcc/nios2-elf/4.1.2/libgcc.a(_lt_df.o)
 .data          0x0085890c        0x0 /opt/altera/10.1sp1/nios2eds/bin/gnu/H-i686-pc-linux-gnu/bin/../lib/gcc/nios2-elf/4.1.2/libgcc.a(_le_df.o)
 .data          0x0085890c        0x0 /opt/altera/10.1sp1/nios2eds/bin/gnu/H-i686-pc-linux-gnu/bin/../lib/gcc/nios2-elf/4.1.2/libgcc.a(_si_to_df.o)
 .data          0x0085890c        0x0 /opt/altera/10.1sp1/nios2eds/bin/gnu/H-i686-pc-linux-gnu/bin/../lib/gcc/nios2-elf/4.1.2/libgcc.a(_df_to_si.o)
 .data          0x0085890c        0x0 /opt/altera/10.1sp1/nios2eds/bin/gnu/H-i686-pc-linux-gnu/bin/../lib/gcc/nios2-elf/4.1.2/libgcc.a(_df_to_sf.o)
 .data          0x0085890c        0x0 /opt/altera/10.1sp1/nios2eds/bin/gnu/H-i686-pc-linux-gnu/bin/../lib/gcc/nios2-elf/4.1.2/libgcc.a(_thenan_df.o)
 .data          0x0085890c        0x0 /opt/altera/10.1sp1/nios2eds/bin/gnu/H-i686-pc-linux-gnu/bin/../lib/gcc/nios2-elf/4.1.2/libgcc.a(_usi_to_df.o)
 .data          0x0085890c        0x0 /opt/altera/10.1sp1/nios2eds/bin/gnu/H-i686-pc-linux-gnu/bin/../lib/gcc/nios2-elf/4.1.2/libgcc.a(_clz.o)
 .data          0x0085890c        0x0 /opt/altera/10.1sp1/nios2eds/bin/gnu/H-i686-pc-linux-gnu/bin/../lib/gcc/nios2-elf/4.1.2/libgcc.a(_clzsi2.o)
 .data          0x0085890c        0x0 /opt/altera/10.1sp1/nios2eds/bin/gnu/H-i686-pc-linux-gnu/bin/../lib/gcc/nios2-elf/4.1.2/libgcc.a(_unpack_sf.o)
 .data          0x0085890c        0x0 /opt/altera/10.1sp1/nios2eds/bin/gnu/H-i686-pc-linux-gnu/bin/../lib/gcc/nios2-elf/4.1.2/libgcc.a(_fpcmp_parts_sf.o)
 .data          0x0085890c        0x0 /opt/altera/10.1sp1/nios2eds/bin/gnu/H-i686-pc-linux-gnu/bin/../lib/gcc/nios2-elf/4.1.2/libgcc.a(_make_sf.o)
 .data          0x0085890c        0x0 /opt/altera/10.1sp1/nios2eds/bin/gnu/H-i686-pc-linux-gnu/bin/../lib/gcc/nios2-elf/4.1.2/libgcc.a(_pack_df.o)
 .data          0x0085890c        0x0 /opt/altera/10.1sp1/nios2eds/bin/gnu/H-i686-pc-linux-gnu/bin/../lib/gcc/nios2-elf/4.1.2/libgcc.a(_unpack_df.o)
 .data          0x0085890c        0x0 /opt/altera/10.1sp1/nios2eds/bin/gnu/H-i686-pc-linux-gnu/bin/../lib/gcc/nios2-elf/4.1.2/libgcc.a(_fpcmp_parts_df.o)
 .data          0x0085890c        0x0 /opt/altera/10.1sp1/nios2eds/bin/gnu/H-i686-pc-linux-gnu/bin/../lib/gcc/nios2-elf/4.1.2/libgcc.a(_pack_sf.o)
 .data          0x0085890c        0x0 ../StereoCameraServer_bsp/libucosii_bsp.a(alt_dcache_flush.o)
 .data          0x0085890c        0x0 ../StereoCameraServer_bsp/libucosii_bsp.a(alt_errno.o)
 .data          0x0085890c        0x0 ../StereoCameraServer_bsp/libucosii_bsp.a(alt_exit.o)
 .data          0x0085890c        0x0 ../StereoCameraServer_bsp/libucosii_bsp.a(alt_flash_dev.o)
 .data          0x0085890c        0x0 ../StereoCameraServer_bsp/libucosii_bsp.a(alt_fstat.o)
 .data          0x0085890c        0x0 ../StereoCameraServer_bsp/libucosii_bsp.a(alt_getpid.o)
 .data          0x0085890c        0x0 ../StereoCameraServer_bsp/libucosii_bsp.a(alt_irq_register.o)
 .data          0x0085890c        0x0 ../StereoCameraServer_bsp/libucosii_bsp.a(alt_irq_vars.o)
 .data          0x0085890c        0x0 ../StereoCameraServer_bsp/libucosii_bsp.a(alt_isatty.o)
 .data          0x0085890c        0x0 ../StereoCameraServer_bsp/libucosii_bsp.a(alt_kill.o)
 .data          0x0085890c        0x0 ../StereoCameraServer_bsp/libucosii_bsp.a(alt_load.o)
 .data          0x0085890c        0x0 ../StereoCameraServer_bsp/libucosii_bsp.a(alt_lseek.o)
 .data          0x0085890c        0x0 ../StereoCameraServer_bsp/libucosii_bsp.a(alt_main.o)
 .data          0x0085890c        0x0 ../StereoCameraServer_bsp/libucosii_bsp.a(alt_open.o)
 .data          0x0085890c        0x0 ../StereoCameraServer_bsp/libucosii_bsp.a(alt_release_fd.o)
 .data          0x0085890c        0x0 ../StereoCameraServer_bsp/libucosii_bsp.a(alt_sbrk.o)
 .data          0x0085890c        0x0 ../StereoCameraServer_bsp/libucosii_bsp.a(alt_tick.o)
 .data          0x0085890c        0x0 ../StereoCameraServer_bsp/libucosii_bsp.a(alt_env_lock.o)
 .data          0x0085890c        0x0 ../StereoCameraServer_bsp/libucosii_bsp.a(alt_malloc_lock.o)
 .data          0x0085890c        0x0 ../StereoCameraServer_bsp/libucosii_bsp.a(os_core.o)
 .data          0x0085890c        0x0 ../StereoCameraServer_bsp/libucosii_bsp.a(os_dbg.o)
 .data          0x0085890c        0x0 ../StereoCameraServer_bsp/libucosii_bsp.a(os_flag.o)
 .data          0x0085890c        0x0 ../StereoCameraServer_bsp/libucosii_bsp.a(os_mbox.o)
 .data          0x0085890c        0x0 ../StereoCameraServer_bsp/libucosii_bsp.a(os_mem.o)
 .data          0x0085890c        0x0 ../StereoCameraServer_bsp/libucosii_bsp.a(os_q.o)
 .data          0x0085890c        0x0 ../StereoCameraServer_bsp/libucosii_bsp.a(os_sem.o)
 .data          0x0085890c        0x0 ../StereoCameraServer_bsp/libucosii_bsp.a(os_task.o)
 .data          0x0085890c        0x0 ../StereoCameraServer_bsp/libucosii_bsp.a(os_time.o)
 .data          0x0085890c     0x1454 ../StereoCameraServer_bsp/libucosii_bsp.a(alt_sys_init.o)
                0x00859d44                dm9000a_inst
 .data          0x00859d60        0x0 ../StereoCameraServer_bsp/libucosii_bsp.a(altera_avalon_cfi_flash.o)
 .data          0x00859d60        0x0 ../StereoCameraServer_bsp/libucosii_bsp.a(altera_avalon_cfi_flash_table.o)
 .data          0x00859d60        0x0 ../StereoCameraServer_bsp/libucosii_bsp.a(altera_avalon_jtag_uart_fd.o)
 .data          0x00859d60        0x0 ../StereoCameraServer_bsp/libucosii_bsp.a(altera_avalon_jtag_uart_init.o)
 .data          0x00859d60        0x0 ../StereoCameraServer_bsp/libucosii_bsp.a(altera_avalon_jtag_uart_ioctl.o)
 .data          0x00859d60        0x0 ../StereoCameraServer_bsp/libucosii_bsp.a(altera_avalon_jtag_uart_read.o)
 .data          0x00859d60        0x0 ../StereoCameraServer_bsp/libucosii_bsp.a(altera_avalon_jtag_uart_write.o)
 .data          0x00859d60        0x0 ../StereoCameraServer_bsp/libucosii_bsp.a(altera_avalon_lcd_16207.o)
 .data          0x00859d60        0x0 ../StereoCameraServer_bsp/libucosii_bsp.a(altera_avalon_lcd_16207_fd.o)
 .data          0x00859d60        0x0 ../StereoCameraServer_bsp/libucosii_bsp.a(altera_avalon_timer_sc.o)
 .data          0x00859d60        0x0 ../StereoCameraServer_bsp/libucosii_bsp.a(altera_avalon_uart_fd.o)
 .data          0x00859d60        0x0 ../StereoCameraServer_bsp/libucosii_bsp.a(altera_avalon_uart_write.o)
 .data          0x00859d60        0x0 ../StereoCameraServer_bsp/libucosii_bsp.a(altera_ro_zipfs.o)
 .data          0x00859d60        0x0 ../StereoCameraServer_bsp/libucosii_bsp.a(dm9000a.o)
 .data          0x00859d60        0x0 ../StereoCameraServer_bsp/libucosii_bsp.a(alt_iniche_close.o)
 .data          0x00859d60        0x0 ../StereoCameraServer_bsp/libucosii_bsp.a(alt_iniche_dev.o)
 .data          0x00859d60        0x0 ../StereoCameraServer_bsp/libucosii_bsp.a(alt_iniche_fcntl.o)
 .data          0x00859d60        0x0 ../StereoCameraServer_bsp/libucosii_bsp.a(alt_iniche_read.o)
 .data          0x00859d60        0x0 ../StereoCameraServer_bsp/libucosii_bsp.a(alt_iniche_write.o)
 .data          0x00859d60        0x0 ../StereoCameraServer_bsp/libucosii_bsp.a(ipnet.o)
 .data          0x00859d60        0x0 ../StereoCameraServer_bsp/libucosii_bsp.a(ipstart.o)
 .data          0x00859d60        0x0 ../StereoCameraServer_bsp/libucosii_bsp.a(igmp_cmn.o)
 .data          0x00859d60        0x0 ../StereoCameraServer_bsp/libucosii_bsp.a(bsdsock.o)
 .data          0x00859d60        0x0 ../StereoCameraServer_bsp/libucosii_bsp.a(cksum.o)
 .data          0x00859d60        0x0 ../StereoCameraServer_bsp/libucosii_bsp.a(in_utils.o)
 .data          0x00859d60       0x30 ../StereoCameraServer_bsp/libucosii_bsp.a(netmain.o)
                0x00859d60                nettasks
 .data          0x00859d90        0x0 ../StereoCameraServer_bsp/libucosii_bsp.a(tk_crnos.o)
 .data          0x00859d90        0x0 ../StereoCameraServer_bsp/libucosii_bsp.a(pktalloc.o)
 .data          0x00859d90        0x0 ../StereoCameraServer_bsp/libucosii_bsp.a(q.o)
 .data          0x00859d90        0x0 ../StereoCameraServer_bsp/libucosii_bsp.a(asm_cksum.o)
 .data          0x00859d90        0x0 ../StereoCameraServer_bsp/libucosii_bsp.a(brdutils.o)
 .data          0x00859d90        0x0 ../StereoCameraServer_bsp/libucosii_bsp.a(osportco.o)
 .data          0x00859d90        0x0 ../StereoCameraServer_bsp/libucosii_bsp.a(targnios.o)
 .data          0x00859d90       0x48 ../StereoCameraServer_bsp/libucosii_bsp.a(nptcp.o)
                0x00859d90                tcp_protosw
                0x00859da8                udp_protosw
                0x00859dc0                rawip_protosw
 .data          0x00859dd8        0x0 ../StereoCameraServer_bsp/libucosii_bsp.a(rawsock.o)
 .data          0x00859dd8        0x0 ../StereoCameraServer_bsp/libucosii_bsp.a(sockcall.o)
 .data          0x00859dd8        0x0 ../StereoCameraServer_bsp/libucosii_bsp.a(socket.o)
 .data          0x00859dd8        0x0 ../StereoCameraServer_bsp/libucosii_bsp.a(socket2.o)
 .data          0x00859dd8        0x0 ../StereoCameraServer_bsp/libucosii_bsp.a(soselect.o)
 .data          0x00859dd8        0x0 ../StereoCameraServer_bsp/libucosii_bsp.a(tcp_in.o)
 .data          0x00859dd8        0xb ../StereoCameraServer_bsp/libucosii_bsp.a(tcp_out.o)
                0x00859dd8                tcp_outflags
 .data          0x00859de3        0x0 ../StereoCameraServer_bsp/libucosii_bsp.a(tcp_subr.o)
 .data          0x00859de3        0xd ../StereoCameraServer_bsp/libucosii_bsp.a(tcp_timr.o)
                0x00859de3                tcp_backoff
 .data          0x00859df0        0x0 ../StereoCameraServer_bsp/libucosii_bsp.a(tcp_usr.o)
 .data          0x00859df0        0x0 ../StereoCameraServer_bsp/libucosii_bsp.a(tcpport.o)
 .data          0x00859df0        0x0 ../StereoCameraServer_bsp/libucosii_bsp.a(udpsock.o)
 .data          0x00859df0        0x0 ../StereoCameraServer_bsp/libucosii_bsp.a(alt_alarm_start.o)
 .data          0x00859df0        0x0 ../StereoCameraServer_bsp/libucosii_bsp.a(alt_close.o)
 .data          0x00859df0        0x0 ../StereoCameraServer_bsp/libucosii_bsp.a(alt_dcache_flush_all.o)
 .data          0x00859df0      0x1a8 ../StereoCameraServer_bsp/libucosii_bsp.a(alt_dev.o)
                0x00859df0                alt_dev_null
                0x00859e18                alt_fd_list
 .data          0x00859f98        0x0 ../StereoCameraServer_bsp/libucosii_bsp.a(alt_dev_llist_insert.o)
 .data          0x00859f98        0x0 ../StereoCameraServer_bsp/libucosii_bsp.a(alt_do_ctors.o)
 .data          0x00859f98        0x0 ../StereoCameraServer_bsp/libucosii_bsp.a(alt_do_dtors.o)
 .data          0x00859f98        0x0 ../StereoCameraServer_bsp/libucosii_bsp.a(alt_fcntl.o)
 .data          0x00859f98        0x0 ../StereoCameraServer_bsp/libucosii_bsp.a(alt_find_dev.o)
 .data          0x00859f98        0x0 ../StereoCameraServer_bsp/libucosii_bsp.a(alt_find_file.o)
 .data          0x00859f98        0x0 ../StereoCameraServer_bsp/libucosii_bsp.a(alt_fs_reg.o)
 .data          0x00859f98        0x0 ../StereoCameraServer_bsp/libucosii_bsp.a(alt_get_fd.o)
 .data          0x00859f98        0x0 ../StereoCameraServer_bsp/libucosii_bsp.a(alt_icache_flush_all.o)
 .data          0x00859f98        0x0 ../StereoCameraServer_bsp/libucosii_bsp.a(alt_io_redirect.o)
 .data          0x00859f98        0x0 ../StereoCameraServer_bsp/libucosii_bsp.a(alt_irq_entry.o)
 .data          0x00859f98        0x0 ../StereoCameraServer_bsp/libucosii_bsp.a(alt_irq_handler.o)
 .data          0x00859f98        0x0 ../StereoCameraServer_bsp/libucosii_bsp.a(alt_read.o)
 .data          0x00859f98        0x0 ../StereoCameraServer_bsp/libucosii_bsp.a(alt_remap_cached.o)
 .data          0x00859f98        0x0 ../StereoCameraServer_bsp/libucosii_bsp.a(alt_remap_uncached.o)
 .data          0x00859f98        0x0 ../StereoCameraServer_bsp/libucosii_bsp.a(alt_usleep.o)
 .data          0x00859f98        0x0 ../StereoCameraServer_bsp/libucosii_bsp.a(alt_write.o)
 .data          0x00859f98        0x0 ../StereoCameraServer_bsp/libucosii_bsp.a(altera_nios2_irq.o)
 .data          0x00859f98        0x0 ../StereoCameraServer_bsp/libucosii_bsp.a(os_cpu_a.o)
 .data          0x00859f98        0x0 ../StereoCameraServer_bsp/libucosii_bsp.a(os_cpu_c.o)
 .data          0x00859f98        0x0 ../StereoCameraServer_bsp/libucosii_bsp.a(altera_avalon_cfi_flash_amd.o)
 .data          0x00859f98        0x0 ../StereoCameraServer_bsp/libucosii_bsp.a(altera_avalon_cfi_flash_intel.o)
 .data          0x00859f98       0x18 ../StereoCameraServer_bsp/libucosii_bsp.a(allports.o)
                0x00859f98                icmpdu_types
 .data          0x00859fb0        0x0 ../StereoCameraServer_bsp/libucosii_bsp.a(timeouts.o)
 .data          0x00859fb0        0x0 ../StereoCameraServer_bsp/libucosii_bsp.a(tk_misc.o)
 .data          0x00859fb0        0x0 ../StereoCameraServer_bsp/libucosii_bsp.a(et_arp.o)
 .data          0x00859fb0        0x0 ../StereoCameraServer_bsp/libucosii_bsp.a(iface.o)
 .data          0x00859fb0        0x0 ../StereoCameraServer_bsp/libucosii_bsp.a(ip.o)
 .data          0x00859fb0        0x0 ../StereoCameraServer_bsp/libucosii_bsp.a(ip_reasm.o)
 .data          0x00859fb0        0x0 ../StereoCameraServer_bsp/libucosii_bsp.a(ipdemux.o)
 .data          0x00859fb0        0x0 ../StereoCameraServer_bsp/libucosii_bsp.a(ipmc.o)
 .data          0x00859fb0        0x0 ../StereoCameraServer_bsp/libucosii_bsp.a(ipport.o)
 .data          0x00859fb0        0x0 ../StereoCameraServer_bsp/libucosii_bsp.a(ipraw.o)
 .data          0x00859fb0        0x9 ../StereoCameraServer_bsp/libucosii_bsp.a(iproute.o)
                0x00859fb0                rtp_priority
 .data          0x00859fb9        0x0 ../StereoCameraServer_bsp/libucosii_bsp.a(udp.o)
 .data          0x00859fb9        0x0 ../StereoCameraServer_bsp/libucosii_bsp.a(igmp.o)
 .data          0x00859fb9        0x0 ../StereoCameraServer_bsp/libucosii_bsp.a(igmp2.o)
 .data          0x00859fb9        0x0 ../StereoCameraServer_bsp/libucosii_bsp.a(ipopt.o)
 .data          0x00859fb9        0x0 ../StereoCameraServer_bsp/libucosii_bsp.a(u_mctest.o)
 *fill*         0x00859fb9        0x3 00
 .data          0x00859fbc       0xd4 ../StereoCameraServer_bsp/libucosii_bsp.a(memdev.o)
                0x00859fbc                mdio
                0x00859fe0                mdlist
 .data          0x0085a090        0x0 ../StereoCameraServer_bsp/libucosii_bsp.a(parseip.o)
 .data          0x0085a090        0x0 ../StereoCameraServer_bsp/libucosii_bsp.a(tcpcksum.o)
 .data          0x0085a090        0x0 ../StereoCameraServer_bsp/libucosii_bsp.a(udp_open.o)
 .data          0x0085a090        0x0 ../StereoCameraServer_bsp/libucosii_bsp.a(in_pcb.o)
 .data          0x0085a090       0x80 ../StereoCameraServer_bsp/libucosii_bsp.a(vfsfiles.o)
                0x0085a090                vfs_root_path
 .data          0x0085a110        0x0 ../StereoCameraServer_bsp/libucosii_bsp.a(vfsport.o)
 .data          0x0085a110        0x0 ../StereoCameraServer_bsp/libucosii_bsp.a(alt_busy_sleep.o)
 .data          0x0085a110        0x0 ../StereoCameraServer_bsp/libucosii_bsp.a(alt_exception_entry.o)
 .data          0x0085a110        0x0 ../StereoCameraServer_bsp/libucosii_bsp.a(alt_icache_flush.o)
 .data          0x0085a110       0x18 ../StereoCameraServer_bsp/libucosii_bsp.a(icmp.o)
 .data          0x0085a128        0x0 /opt/altera/10.1sp1/nios2eds/bin/gnu/H-i686-pc-linux-gnu/bin/../lib/gcc/nios2-elf/4.1.2/../../../../nios2-elf/lib/libc.a(lib_a-atexit.o)
 .data          0x0085a128        0x0 /opt/altera/10.1sp1/nios2eds/bin/gnu/H-i686-pc-linux-gnu/bin/../lib/gcc/nios2-elf/4.1.2/../../../../nios2-elf/lib/libc.a(lib_a-calloc.o)
 .data          0x0085a128        0x0 /opt/altera/10.1sp1/nios2eds/bin/gnu/H-i686-pc-linux-gnu/bin/../lib/gcc/nios2-elf/4.1.2/../../../../nios2-elf/lib/libc.a(lib_a-exit.o)
 .data          0x0085a128        0x0 /opt/altera/10.1sp1/nios2eds/bin/gnu/H-i686-pc-linux-gnu/bin/../lib/gcc/nios2-elf/4.1.2/../../../../nios2-elf/lib/libc.a(lib_a-vprintf.o)
 .data          0x0085a128        0x0 /opt/altera/10.1sp1/nios2eds/bin/gnu/H-i686-pc-linux-gnu/bin/../lib/gcc/nios2-elf/4.1.2/../../../../nios2-elf/lib/libc.a(lib_a-vsprintf.o)
 .data          0x0085a128        0x0 /opt/altera/10.1sp1/nios2eds/bin/gnu/H-i686-pc-linux-gnu/bin/../lib/gcc/nios2-elf/4.1.2/../../../../nios2-elf/lib/libc.a(lib_a-__atexit.o)
 .data          0x0085a128        0x0 /opt/altera/10.1sp1/nios2eds/bin/gnu/H-i686-pc-linux-gnu/bin/../lib/gcc/nios2-elf/4.1.2/../../../../nios2-elf/lib/libc.a(lib_a-__call_atexit.o)
                0x00862128                _gp = ABSOLUTE ((. + 0x8000))
                0x00862128                PROVIDE (gp, _gp)
 *(.sdata .sdata.* .gnu.linkonce.s.*)
 .sdata         0x0085a128       0x28 obj/http.o
                0x0085a128                mapping
                0x0085a130                sweep_field
                0x0085a138                lcd_field
                0x0085a140                upload_field
                0x0085a148                flash_field
 .sdata._ZTISt9exception
                0x0085a150        0x8 /opt/altera/10.1sp1/nios2eds/bin/gnu/H-i686-pc-linux-gnu/bin/../lib/gcc/nios2-elf/4.1.2/../../../../nios2-elf/lib/libstdc++.a(eh_exception.o)
                0x0085a150                _ZTISt9exception
 .sdata         0x0085a158        0x4 /opt/altera/10.1sp1/nios2eds/bin/gnu/H-i686-pc-linux-gnu/bin/../lib/gcc/nios2-elf/4.1.2/../../../../nios2-elf/lib/libstdc++.a(eh_term_handler.o)
                0x0085a158                _ZN10__cxxabiv119__terminate_handlerE
 .sdata._ZTISt9type_info
                0x0085a15c        0x8 /opt/altera/10.1sp1/nios2eds/bin/gnu/H-i686-pc-linux-gnu/bin/../lib/gcc/nios2-elf/4.1.2/../../../../nios2-elf/lib/libstdc++.a(tinfo.o)
                0x0085a15c                _ZTISt9type_info
 .sdata         0x0085a164        0x4 /opt/altera/10.1sp1/nios2eds/bin/gnu/H-i686-pc-linux-gnu/bin/../lib/gcc/nios2-elf/4.1.2/../../../../nios2-elf/lib/libstdc++.a(eh_unex_handler.o)
                0x0085a164                _ZN10__cxxabiv120__unexpected_handlerE
 .sdata         0x0085a168        0x4 /opt/altera/10.1sp1/nios2eds/bin/gnu/H-i686-pc-linux-gnu/bin/../lib/gcc/nios2-elf/4.1.2/../../../../nios2-elf/lib/libc.a(lib_a-ctype_.o)
                0x0085a168                __ctype_ptr
 .sdata         0x0085a16c        0x8 /opt/altera/10.1sp1/nios2eds/bin/gnu/H-i686-pc-linux-gnu/bin/../lib/gcc/nios2-elf/4.1.2/../../../../nios2-elf/lib/libc.a(lib_a-impure.o)
                0x0085a16c                _impure_ptr
                0x0085a170                _global_impure_ptr
 .sdata         0x0085a174        0x8 /opt/altera/10.1sp1/nios2eds/bin/gnu/H-i686-pc-linux-gnu/bin/../lib/gcc/nios2-elf/4.1.2/../../../../nios2-elf/lib/libc.a(lib_a-mallocr.o)
                0x0085a174                __malloc_trim_threshold
                0x0085a178                __malloc_sbrk_base
 .sdata         0x0085a17c        0x8 /opt/altera/10.1sp1/nios2eds/bin/gnu/H-i686-pc-linux-gnu/bin/../lib/gcc/nios2-elf/4.1.2/../../../../nios2-elf/lib/libc.a(lib_a-locale.o)
                0x0085a17c                __mb_cur_max
 .sdata         0x0085a184        0x4 ../StereoCameraServer_bsp/libucosii_bsp.a(alt_errno.o)
                0x0085a184                alt_errno
 .sdata         0x0085a188        0x8 ../StereoCameraServer_bsp/libucosii_bsp.a(alt_flash_dev.o)
                0x0085a188                alt_flash_dev_list
 .sdata         0x0085a190        0x4 ../StereoCameraServer_bsp/libucosii_bsp.a(alt_irq_vars.o)
                0x0085a190                alt_priority_mask
 .sdata         0x0085a194        0x4 ../StereoCameraServer_bsp/libucosii_bsp.a(alt_sbrk.o)
 .sdata         0x0085a198        0x8 ../StereoCameraServer_bsp/libucosii_bsp.a(alt_tick.o)
                0x0085a198                alt_alarm_list
 .sdata         0x0085a1a0        0x4 ../StereoCameraServer_bsp/libucosii_bsp.a(alt_env_lock.o)
 .sdata         0x0085a1a4        0x4 ../StereoCameraServer_bsp/libucosii_bsp.a(alt_malloc_lock.o)
 .sdata         0x0085a1a8       0x74 ../StereoCameraServer_bsp/libucosii_bsp.a(os_dbg.o)
                0x0085a1a8                OSDebugEn
                0x0085a1ac                OSEndiannessTest
                0x0085a1b0                OSEventEn
                0x0085a1b2                OSEventMax
                0x0085a1b4                OSEventNameSize
                0x0085a1b6                OSEventSize
                0x0085a1b8                OSEventTblSize
                0x0085a1ba                OSEventMultiEn
                0x0085a1bc                OSFlagEn
                0x0085a1be                OSFlagGrpSize
                0x0085a1c0                OSFlagNodeSize
                0x0085a1c2                OSFlagWidth
                0x0085a1c4                OSFlagMax
                0x0085a1c6                OSFlagNameSize
                0x0085a1c8                OSLowestPrio
                0x0085a1ca                OSMboxEn
                0x0085a1cc                OSMemEn
                0x0085a1ce                OSMemMax
                0x0085a1d0                OSMemNameSize
                0x0085a1d2                OSMemSize
                0x0085a1d4                OSMemTblSize
                0x0085a1d6                OSMutexEn
                0x0085a1d8                OSPtrSize
                0x0085a1da                OSQEn
                0x0085a1dc                OSQMax
                0x0085a1de                OSQSize
                0x0085a1e0                OSRdyTblSize
                0x0085a1e2                OSSemEn
                0x0085a1e4                OSStkWidth
                0x0085a1e6                OSTaskCreateEn
                0x0085a1e8                OSTaskCreateExtEn
                0x0085a1ea                OSTaskDelEn
                0x0085a1ec                OSTaskIdleStkSize
                0x0085a1ee                OSTaskProfileEn
                0x0085a1f0                OSTaskMax
                0x0085a1f2                OSTaskNameSize
                0x0085a1f4                OSTaskStatEn
                0x0085a1f6                OSTaskStatStkSize
                0x0085a1f8                OSTaskStatStkChkEn
                0x0085a1fa                OSTaskSwHookEn
                0x0085a1fc                OSTCBPrioTblMax
                0x0085a1fe                OSTCBSize
                0x0085a200                OSTicksPerSec
                0x0085a202                OSTimeTickHookEn
                0x0085a204                OSVersionNbr
                0x0085a206                OSTmrEn
                0x0085a208                OSTmrCfgMax
                0x0085a20a                OSTmrCfgNameSize
                0x0085a20c                OSTmrCfgWheelSize
                0x0085a20e                OSTmrCfgTicksPerSec
                0x0085a210                OSTmrSize
                0x0085a212                OSTmrTblSize
                0x0085a214                OSTmrWheelSize
                0x0085a216                OSTmrWheelTblSize
                0x0085a218                OSDataSize
 .sdata         0x0085a21c        0x4 ../StereoCameraServer_bsp/libucosii_bsp.a(altera_avalon_lcd_16207.o)
 .sdata         0x0085a220        0x8 ../StereoCameraServer_bsp/libucosii_bsp.a(alt_iniche_dev.o)
                0x0085a220                alt_iniche_dev_list
 .sdata         0x0085a228        0x4 ../StereoCameraServer_bsp/libucosii_bsp.a(ipstart.o)
                0x0085a228                ipmcfail_str
 .sdata         0x0085a22c        0x4 ../StereoCameraServer_bsp/libucosii_bsp.a(cksum.o)
 .sdata         0x0085a230        0x4 ../StereoCameraServer_bsp/libucosii_bsp.a(netmain.o)
                0x0085a230                num_net_tasks
 .sdata         0x0085a234       0x10 ../StereoCameraServer_bsp/libucosii_bsp.a(pktalloc.o)
                0x0085a234                lilbufs
                0x0085a238                lilbufsiz
                0x0085a23c                bigbufs
                0x0085a240                bigbufsiz
 .sdata         0x0085a244        0x4 ../StereoCameraServer_bsp/libucosii_bsp.a(brdutils.o)
                0x0085a244                kb_last
 .sdata         0x0085a248        0x4 ../StereoCameraServer_bsp/libucosii_bsp.a(nptcp.o)
                0x0085a248                TCPTV_MSL
 .sdata         0x0085a24c        0x2 ../StereoCameraServer_bsp/libucosii_bsp.a(socket.o)
                0x0085a24c                socket_defaults
 .sdata         0x0085a24e        0x1 ../StereoCameraServer_bsp/libucosii_bsp.a(tcp_in.o)
                0x0085a24e                tcprexmtthresh
 *fill*         0x0085a24f        0x1 00
 .sdata         0x0085a250        0x4 ../StereoCameraServer_bsp/libucosii_bsp.a(tcp_subr.o)
                0x0085a250                tcp_ttl
 .sdata         0x0085a254        0x8 ../StereoCameraServer_bsp/libucosii_bsp.a(tcp_timr.o)
                0x0085a254                tcp_keepidle
                0x0085a258                tcp_keepintvl
 .sdata         0x0085a25c        0x8 ../StereoCameraServer_bsp/libucosii_bsp.a(tcp_usr.o)
                0x0085a25c                tcp_sendspace
                0x0085a260                tcp_recvspace
 .sdata         0x0085a264       0x14 ../StereoCameraServer_bsp/libucosii_bsp.a(alt_dev.o)
                0x0085a264                alt_fs_list
                0x0085a26c                alt_dev_list
                0x0085a274                alt_max_fd
 .sdata         0x0085a278       0x10 ../StereoCameraServer_bsp/libucosii_bsp.a(allports.o)
                0x0085a278                name
                0x0085a27c                prompt
                0x0085a280                pingdelay
                0x0085a284                deflength
 .sdata         0x0085a288        0x4 ../StereoCameraServer_bsp/libucosii_bsp.a(et_arp.o)
                0x0085a288                arp_ageout
 .sdata         0x0085a28c        0x8 ../StereoCameraServer_bsp/libucosii_bsp.a(ip.o)
                0x0085a290                ipRoutes
 .sdata         0x0085a294        0x4 ../StereoCameraServer_bsp/libucosii_bsp.a(u_mctest.o)
 .sdata         0x0085a298        0x4 ../StereoCameraServer_bsp/libucosii_bsp.a(memdev.o)
                0x0085a298                mdlist_size
 .sdata         0x0085a29c        0x4 ../StereoCameraServer_bsp/libucosii_bsp.a(parseip.o)
                0x0085a29c                pton_error
 .sdata         0x0085a2a0        0x4 ../StereoCameraServer_bsp/libucosii_bsp.a(vfsfiles.o)
                0x0085a2a0                http_root_path
 *(.sdata2 .sdata2.* .gnu.linkonce.s2.*)
                0x0085a2a4                . = ALIGN (0x4)
                0x0085a2a4                _edata = ABSOLUTE (.)
                0x0085a2a4                PROVIDE (edata, ABSOLUTE (.))
                0x0085a2a4                PROVIDE (__ram_rwdata_end, ABSOLUTE (.))
                0x0085a2a4                PROVIDE (__flash_rwdata_start, LOADADDR (.rwdata))

.bss            0x0085c4a0   0x5ec684
                0x0085c4a0                __bss_start = ABSOLUTE (.)
                0x0085c4a0                PROVIDE (__sbss_start, ABSOLUTE (.))
                0x0085c4a0                PROVIDE (___sbss_start, ABSOLUTE (.))
 *(.dynsbss)
 *(.sbss .sbss.* .gnu.linkonce.sb.*)
 .sbss          0x0085c4a0        0x0 obj/http.o
 .sbss          0x0085c4a0        0xc obj/network_utilities.o
                0x0085c4a0                last_flash_sector_offset
                0x0085c4a4                last_flash_sector
                0x0085c4a8                lcd_sem
 .sbss          0x0085c4ac        0x8 obj/srec_flash.o
                0x0085c4ac                line_count
                0x0085c4b0                current_flash_block
 .sbss          0x0085c4b4        0x9 obj/web_server.o
                0x0085c4b4                lcdDevice
                0x0085c4b8                board_control_mbox
                0x0085c4bc                to_wstask
 .sbss          0x0085c4bd        0x1 obj/Camera.o
 *fill*         0x0085c4be        0x2 00
 .sbss          0x0085c4c0       0x1c obj/cam_control.o
                0x0085c4c0                takePicSem
                0x0085c4c4                picReadySem
                0x0085c4c8                leftImageSem
                0x0085c4cc                rightImageSem
                0x0085c4d0                ImageDataSem
                0x0085c4d4                leftLength
                0x0085c4d8                rightLength
 .sbss          0x0085c4dc        0x8 /opt/altera/10.1sp1/nios2eds/bin/gnu/H-i686-pc-linux-gnu/bin/../lib/gcc/nios2-elf/4.1.2/../../../../nios2-elf/lib/libstdc++.a(eh_globals.o)
 .sbss          0x0085c4e4        0x4 /opt/altera/10.1sp1/nios2eds/bin/gnu/H-i686-pc-linux-gnu/bin/../lib/gcc/nios2-elf/4.1.2/../../../../nios2-elf/lib/libstdc++.a(eh_alloc.o)
 .sbss          0x0085c4e8        0xc /opt/altera/10.1sp1/nios2eds/bin/gnu/H-i686-pc-linux-gnu/bin/../lib/gcc/nios2-elf/4.1.2/libgcc.a(unwind-dw2-fde.o)
 .sbss          0x0085c4f4        0x4 /opt/altera/10.1sp1/nios2eds/bin/gnu/H-i686-pc-linux-gnu/bin/../lib/gcc/nios2-elf/4.1.2/../../../../nios2-elf/lib/libc.a(lib_a-int_errno.o)
                0x0085c4f4                errno
 .sbss          0x0085c4f8        0xc /opt/altera/10.1sp1/nios2eds/bin/gnu/H-i686-pc-linux-gnu/bin/../lib/gcc/nios2-elf/4.1.2/../../../../nios2-elf/lib/libc.a(lib_a-mallocr.o)
                0x0085c4f8                __malloc_top_pad
                0x0085c4fc                __malloc_max_sbrked_mem
                0x0085c500                __malloc_max_total_mem
 .sbss          0x0085c504        0xc /opt/altera/10.1sp1/nios2eds/bin/gnu/H-i686-pc-linux-gnu/bin/../lib/gcc/nios2-elf/4.1.2/../../../../nios2-elf/lib/libc.a(lib_a-locale.o)
                0x0085c504                __nlocale_changed
                0x0085c508                __mlocale_changed
                0x0085c50c                _PathLocale
 .sbss          0x0085c510        0x4 ../StereoCameraServer_bsp/libucosii_bsp.a(alt_irq_vars.o)
                0x0085c510                alt_irq_active
 .sbss          0x0085c514        0xc ../StereoCameraServer_bsp/libucosii_bsp.a(alt_main.o)
                0x0085c514                alt_argc
                0x0085c518                alt_argv
                0x0085c51c                alt_envp
 .sbss          0x0085c520        0x8 ../StereoCameraServer_bsp/libucosii_bsp.a(alt_tick.o)
                0x0085c520                _alt_tick_rate
                0x0085c524                _alt_nticks
 .sbss          0x0085c528        0x8 ../StereoCameraServer_bsp/libucosii_bsp.a(alt_env_lock.o)
                0x0085c52c                alt_envsem
 .sbss          0x0085c530        0x8 ../StereoCameraServer_bsp/libucosii_bsp.a(alt_malloc_lock.o)
                0x0085c534                alt_heapsem
 .sbss          0x0085c538       0x50 ../StereoCameraServer_bsp/libucosii_bsp.a(os_core.o)
                0x0085c538                OSLockNesting
                0x0085c539                OSRunning
                0x0085c53c                OSIdleCtr
                0x0085c540                OSPrioHighRdy
                0x0085c541                OSPrioCur
                0x0085c544                OSTCBList
                0x0085c548                OSTickStepState
                0x0085c54c                OSCtxSwCtr
                0x0085c550                OSIdleCtrMax
                0x0085c554                OSTCBFreeList
                0x0085c558                OSCPUUsage
                0x0085c559                OSTaskCtr
                0x0085c55c                OSMemFreeList
                0x0085c560                OSTCBHighRdy
                0x0085c564                OSQFreeList
                0x0085c568                OSRdyGrp
                0x0085c569                OSRdyTbl
                0x0085c56c                OSEventFreeList
                0x0085c570                OSIntNesting
                0x0085c574                OSTCBCur
                0x0085c578                OSTime
                0x0085c57c                OSFlagFreeList
                0x0085c580                OSStatRdy
                0x0085c584                OSIdleCtrRun
 .sbss          0x0085c588        0x8 ../StereoCameraServer_bsp/libucosii_bsp.a(dm9000a.o)
                0x0085c588                autoReset
                0x0085c58c                netisrs
 .sbss          0x0085c590        0xc ../StereoCameraServer_bsp/libucosii_bsp.a(ipnet.o)
                0x0085c590                MaxLnh
                0x0085c594                MaxMtu
                0x0085c598                NDEBUG
 .sbss          0x0085c59c        0x8 ../StereoCameraServer_bsp/libucosii_bsp.a(ipstart.o)
                0x0085c59c                ifNumber
 .sbss          0x0085c5a4       0x10 ../StereoCameraServer_bsp/libucosii_bsp.a(igmp_cmn.o)
                0x0085c5a4                igmp_timers_are_running
                0x0085c5a8                igmp_cticks
                0x0085c5ac                igmp_all_hosts_group
                0x0085c5b0                igmp_all_rtrs_group
 .sbss          0x0085c5b4        0xe ../StereoCameraServer_bsp/libucosii_bsp.a(netmain.o)
                0x0085c5b4                netmain_wakes
                0x0085c5b8                nettick_wakes
                0x0085c5bc                iniche_net_ready
                0x0085c5c0                to_netmain
                0x0085c5c1                to_nettick
 *fill*         0x0085c5c2        0x2 00
 .sbss          0x0085c5c4        0x4 ../StereoCameraServer_bsp/libucosii_bsp.a(tk_crnos.o)
                0x0085c5c4                tcp_sleep_timeout
 .sbss          0x0085c5c8       0x18 ../StereoCameraServer_bsp/libucosii_bsp.a(brdutils.o)
                0x0085c5cc                cticks_initialized
                0x0085c5d0                irq_level
                0x0085c5d8                cticks_factor
                0x0085c5dc                OS_TPS
 .sbss          0x0085c5e0       0x18 ../StereoCameraServer_bsp/libucosii_bsp.a(osportco.o)
                0x0085c5e0                tcp_sleep_count
                0x0085c5e4                tcp_wakeup_count
                0x0085c5e8                netq_intmask
                0x0085c5ec                old_mode
                0x0085c5f0                global_TCPwakeup_setIndx
                0x0085c5f4                cticks
 .sbss          0x0085c5f8        0xc ../StereoCameraServer_bsp/libucosii_bsp.a(targnios.o)
                0x0085c5f8                memtrapsize
                0x0085c5fc                mheap_sem_ptr
                0x0085c600                rcvdq_sem_ptr
 .sbss          0x0085c604       0x12 ../StereoCameraServer_bsp/libucosii_bsp.a(nptcp.o)
                0x0085c604                nextslow
                0x0085c60c                mbstat
                0x0085c614                select_wait
 *fill*         0x0085c616        0x2 00
 .sbss          0x0085c618        0x8 ../StereoCameraServer_bsp/libucosii_bsp.a(tcp_in.o)
                0x0085c618                tcpprintfs
                0x0085c61c                dropline
 .sbss          0x0085c620        0x4 ../StereoCameraServer_bsp/libucosii_bsp.a(tcp_out.o)
                0x0085c620                tcp_optionbuf
 .sbss          0x0085c624        0x8 ../StereoCameraServer_bsp/libucosii_bsp.a(tcp_timr.o)
                0x0085c624                tcp_maxidle
                0x0085c628                tcp_iss
 .sbss          0x0085c62c        0x4 ../StereoCameraServer_bsp/libucosii_bsp.a(alt_dev.o)
                0x0085c62c                alt_fd_list_lock
 .sbss          0x0085c630        0x8 ../StereoCameraServer_bsp/libucosii_bsp.a(allports.o)
                0x0085c630                activehost
 .sbss          0x0085c638        0xc ../StereoCameraServer_bsp/libucosii_bsp.a(timeouts.o)
                0x0085c638                nextppp
                0x0085c63c                port_1s_callout
 .sbss          0x0085c644       0x1c ../StereoCameraServer_bsp/libucosii_bsp.a(et_arp.o)
                0x0085c648                arpcache
                0x0085c64c                arpReqsIn
                0x0085c650                arpReqsOut
                0x0085c654                arpRepsIn
                0x0085c658                arpRepsOut
 .sbss          0x0085c660        0x4 ../StereoCameraServer_bsp/libucosii_bsp.a(ip.o)
                0x0085c660                rt_mib
 .sbss          0x0085c664        0xc ../StereoCameraServer_bsp/libucosii_bsp.a(ip_reasm.o)
                0x0085c664                ipr_curr_mem
                0x0085c668                h_ireq
                0x0085c66c                ire_cticks
 .sbss          0x0085c670       0x11 ../StereoCameraServer_bsp/libucosii_bsp.a(ipport.o)
                0x0085c670                port_prep
                0x0085c674                net_system_exit
                0x0085c678                so_evtmap_create
                0x0085c67c                so_evtmap_delete
                0x0085c680                so_evtmap
 *fill*         0x0085c681        0x3 00
 .sbss          0x0085c684        0x4 ../StereoCameraServer_bsp/libucosii_bsp.a(ipraw.o)
                0x0085c684                ipraw_eps
 .sbss          0x0085c688        0x4 ../StereoCameraServer_bsp/libucosii_bsp.a(iproute.o)
                0x0085c688                cachedRoute
 .sbss          0x0085c68c        0x2 ../StereoCameraServer_bsp/libucosii_bsp.a(udp.o)
 *fill*         0x0085c68e        0x2 00
 .sbss          0x0085c690        0x4 ../StereoCameraServer_bsp/libucosii_bsp.a(udp_open.o)
                0x0085c690                firstudp
 .sbss          0x0085c694        0x8 ../StereoCameraServer_bsp/libucosii_bsp.a(in_pcb.o)
                0x0085c694                inpcb_cachehits
                0x0085c698                inpcb_cachemiss
 .sbss          0x0085c69c       0x20 ../StereoCameraServer_bsp/libucosii_bsp.a(vfsfiles.o)
                0x0085c69c                vfsystems
                0x0085c6a0                vfiles
                0x0085c6a4                vfsfiles
                0x0085c6a8                vfopen_error
                0x0085c6ac                vfs_dir_stale
                0x0085c6b0                vfs_open_files
                0x0085c6b4                vfs_total_rw_space
                0x0085c6b8                vfs_total_dyna_files
 .sbss          0x0085c6bc        0x4 ../StereoCameraServer_bsp/libucosii_bsp.a(icmp.o)
                0x0085c6bc                icmpdu_hook
 *(.sbss2 .sbss2.* .gnu.linkonce.sb2.*)
 *(.scommon)
                0x0085c6c0                PROVIDE (__sbss_end, ABSOLUTE (.))
                0x0085c6c0                PROVIDE (___sbss_end, ABSOLUTE (.))
 *(.dynbss)
 *(.bss .bss.* .gnu.linkonce.b.*)
 .bss           0x0085c6c0        0x0 ../StereoCameraServer_bsp/obj/HAL/src/crt0.o
 .bss           0x0085c6c0        0x0 obj/alt_error_handler.o
 .bss           0x0085c6c0        0x0 obj/altera_avalon_uart_init.o
 .bss           0x0085c6c0        0x0 obj/altera_avalon_uart_read.o
 .bss           0x0085c6c0     0xcba0 obj/http.o
 .bss           0x00869260        0x0 obj/network_utilities.o
 .bss           0x00869260        0x0 obj/srec_flash.o
 .bss           0x00869260        0x0 obj/web_server.o
 .bss           0x00869260        0x0 obj/Camera.o
 .bss           0x00869260        0x0 obj/StereoCamera.o
 .bss           0x00869260        0x0 obj/cam_control.o
 .bss           0x00869260        0x0 /opt/altera/10.1sp1/nios2eds/bin/gnu/H-i686-pc-linux-gnu/bin/../lib/gcc/nios2-elf/4.1.2/../../../../nios2-elf/lib/libstdc++.a(eh_personality.o)
 .bss           0x00869260        0x0 /opt/altera/10.1sp1/nios2eds/bin/gnu/H-i686-pc-linux-gnu/bin/../lib/gcc/nios2-elf/4.1.2/../../../../nios2-elf/lib/libstdc++.a(eh_globals.o)
 .bss           0x00869260        0x0 /opt/altera/10.1sp1/nios2eds/bin/gnu/H-i686-pc-linux-gnu/bin/../lib/gcc/nios2-elf/4.1.2/../../../../nios2-elf/lib/libstdc++.a(eh_throw.o)
 .bss           0x00869260        0x0 /opt/altera/10.1sp1/nios2eds/bin/gnu/H-i686-pc-linux-gnu/bin/../lib/gcc/nios2-elf/4.1.2/../../../../nios2-elf/lib/libstdc++.a(eh_call.o)
 .bss           0x00869260        0x0 /opt/altera/10.1sp1/nios2eds/bin/gnu/H-i686-pc-linux-gnu/bin/../lib/gcc/nios2-elf/4.1.2/../../../../nios2-elf/lib/libstdc++.a(eh_catch.o)
 .bss           0x00869260        0x0 /opt/altera/10.1sp1/nios2eds/bin/gnu/H-i686-pc-linux-gnu/bin/../lib/gcc/nios2-elf/4.1.2/../../../../nios2-elf/lib/libstdc++.a(eh_exception.o)
 .bss           0x00869260        0x0 /opt/altera/10.1sp1/nios2eds/bin/gnu/H-i686-pc-linux-gnu/bin/../lib/gcc/nios2-elf/4.1.2/../../../../nios2-elf/lib/libstdc++.a(eh_terminate.o)
 .bss           0x00869260        0x0 /opt/altera/10.1sp1/nios2eds/bin/gnu/H-i686-pc-linux-gnu/bin/../lib/gcc/nios2-elf/4.1.2/../../../../nios2-elf/lib/libstdc++.a(si_class_type_info.o)
 .bss           0x00869260      0x800 /opt/altera/10.1sp1/nios2eds/bin/gnu/H-i686-pc-linux-gnu/bin/../lib/gcc/nios2-elf/4.1.2/../../../../nios2-elf/lib/libstdc++.a(eh_alloc.o)
 .bss           0x00869a60        0x0 /opt/altera/10.1sp1/nios2eds/bin/gnu/H-i686-pc-linux-gnu/bin/../lib/gcc/nios2-elf/4.1.2/../../../../nios2-elf/lib/libstdc++.a(eh_term_handler.o)
 .bss           0x00869a60        0x0 /opt/altera/10.1sp1/nios2eds/bin/gnu/H-i686-pc-linux-gnu/bin/../lib/gcc/nios2-elf/4.1.2/../../../../nios2-elf/lib/libstdc++.a(tinfo.o)
 .bss           0x00869a60        0x0 /opt/altera/10.1sp1/nios2eds/bin/gnu/H-i686-pc-linux-gnu/bin/../lib/gcc/nios2-elf/4.1.2/../../../../nios2-elf/lib/libstdc++.a(del_op.o)
 .bss           0x00869a60        0x0 /opt/altera/10.1sp1/nios2eds/bin/gnu/H-i686-pc-linux-gnu/bin/../lib/gcc/nios2-elf/4.1.2/../../../../nios2-elf/lib/libstdc++.a(class_type_info.o)
 .bss           0x00869a60        0x0 /opt/altera/10.1sp1/nios2eds/bin/gnu/H-i686-pc-linux-gnu/bin/../lib/gcc/nios2-elf/4.1.2/../../../../nios2-elf/lib/libstdc++.a(eh_unex_handler.o)
 .bss           0x00869a60        0x0 /opt/altera/10.1sp1/nios2eds/bin/gnu/H-i686-pc-linux-gnu/bin/../lib/gcc/nios2-elf/4.1.2/libgcc.a(lib2-divmod.o)
 .bss           0x00869a60       0x29 /opt/altera/10.1sp1/nios2eds/bin/gnu/H-i686-pc-linux-gnu/bin/../lib/gcc/nios2-elf/4.1.2/libgcc.a(unwind-dw2.o)
 .bss           0x00869a89        0x0 /opt/altera/10.1sp1/nios2eds/bin/gnu/H-i686-pc-linux-gnu/bin/../lib/gcc/nios2-elf/4.1.2/libgcc.a(unwind-dw2-fde.o)
 .bss           0x00869a89        0x0 /opt/altera/10.1sp1/nios2eds/bin/gnu/H-i686-pc-linux-gnu/bin/../lib/gcc/nios2-elf/4.1.2/../../../../nios2-elf/lib/libc.a(lib_a-abort.o)
 .bss           0x00869a89        0x0 /opt/altera/10.1sp1/nios2eds/bin/gnu/H-i686-pc-linux-gnu/bin/../lib/gcc/nios2-elf/4.1.2/../../../../nios2-elf/lib/libc.a(lib_a-atoi.o)
 .bss           0x00869a89        0x0 /opt/altera/10.1sp1/nios2eds/bin/gnu/H-i686-pc-linux-gnu/bin/../lib/gcc/nios2-elf/4.1.2/../../../../nios2-elf/lib/libc.a(lib_a-ctype_.o)
 .bss           0x00869a89        0x0 /opt/altera/10.1sp1/nios2eds/bin/gnu/H-i686-pc-linux-gnu/bin/../lib/gcc/nios2-elf/4.1.2/../../../../nios2-elf/lib/libc.a(lib_a-fclose.o)
 .bss           0x00869a89        0x0 /opt/altera/10.1sp1/nios2eds/bin/gnu/H-i686-pc-linux-gnu/bin/../lib/gcc/nios2-elf/4.1.2/../../../../nios2-elf/lib/libc.a(lib_a-fflush.o)
 .bss           0x00869a89        0x0 /opt/altera/10.1sp1/nios2eds/bin/gnu/H-i686-pc-linux-gnu/bin/../lib/gcc/nios2-elf/4.1.2/../../../../nios2-elf/lib/libc.a(lib_a-fgetc.o)
 .bss           0x00869a89        0x0 /opt/altera/10.1sp1/nios2eds/bin/gnu/H-i686-pc-linux-gnu/bin/../lib/gcc/nios2-elf/4.1.2/../../../../nios2-elf/lib/libc.a(lib_a-fgetpos.o)
 .bss           0x00869a89        0x0 /opt/altera/10.1sp1/nios2eds/bin/gnu/H-i686-pc-linux-gnu/bin/../lib/gcc/nios2-elf/4.1.2/../../../../nios2-elf/lib/libc.a(lib_a-fileno.o)
 .bss           0x00869a89        0x0 /opt/altera/10.1sp1/nios2eds/bin/gnu/H-i686-pc-linux-gnu/bin/../lib/gcc/nios2-elf/4.1.2/../../../../nios2-elf/lib/libc.a(lib_a-findfp.o)
 .bss           0x00869a89        0x0 /opt/altera/10.1sp1/nios2eds/bin/gnu/H-i686-pc-linux-gnu/bin/../lib/gcc/nios2-elf/4.1.2/../../../../nios2-elf/lib/libc.a(lib_a-fopen.o)
 .bss           0x00869a89        0x0 /opt/altera/10.1sp1/nios2eds/bin/gnu/H-i686-pc-linux-gnu/bin/../lib/gcc/nios2-elf/4.1.2/../../../../nios2-elf/lib/libc.a(lib_a-fprintf.o)
 .bss           0x00869a89        0x0 /opt/altera/10.1sp1/nios2eds/bin/gnu/H-i686-pc-linux-gnu/bin/../lib/gcc/nios2-elf/4.1.2/../../../../nios2-elf/lib/libc.a(lib_a-fputc.o)
 .bss           0x00869a89        0x0 /opt/altera/10.1sp1/nios2eds/bin/gnu/H-i686-pc-linux-gnu/bin/../lib/gcc/nios2-elf/4.1.2/../../../../nios2-elf/lib/libc.a(lib_a-fread.o)
 .bss           0x00869a89        0x0 /opt/altera/10.1sp1/nios2eds/bin/gnu/H-i686-pc-linux-gnu/bin/../lib/gcc/nios2-elf/4.1.2/../../../../nios2-elf/lib/libc.a(lib_a-freer.o)
 .bss           0x00869a89        0x0 /opt/altera/10.1sp1/nios2eds/bin/gnu/H-i686-pc-linux-gnu/bin/../lib/gcc/nios2-elf/4.1.2/../../../../nios2-elf/lib/libc.a(lib_a-fseek.o)
 .bss           0x00869a89        0x0 /opt/altera/10.1sp1/nios2eds/bin/gnu/H-i686-pc-linux-gnu/bin/../lib/gcc/nios2-elf/4.1.2/../../../../nios2-elf/lib/libc.a(lib_a-fstatr.o)
 .bss           0x00869a89        0x0 /opt/altera/10.1sp1/nios2eds/bin/gnu/H-i686-pc-linux-gnu/bin/../lib/gcc/nios2-elf/4.1.2/../../../../nios2-elf/lib/libc.a(lib_a-ftell.o)
 .bss           0x00869a89        0x0 /opt/altera/10.1sp1/nios2eds/bin/gnu/H-i686-pc-linux-gnu/bin/../lib/gcc/nios2-elf/4.1.2/../../../../nios2-elf/lib/libc.a(lib_a-fwalk.o)
 .bss           0x00869a89        0x0 /opt/altera/10.1sp1/nios2eds/bin/gnu/H-i686-pc-linux-gnu/bin/../lib/gcc/nios2-elf/4.1.2/../../../../nios2-elf/lib/libc.a(lib_a-fwrite.o)
 .bss           0x00869a89        0x0 /opt/altera/10.1sp1/nios2eds/bin/gnu/H-i686-pc-linux-gnu/bin/../lib/gcc/nios2-elf/4.1.2/../../../../nios2-elf/lib/libc.a(lib_a-getc.o)
 .bss           0x00869a89        0x0 /opt/altera/10.1sp1/nios2eds/bin/gnu/H-i686-pc-linux-gnu/bin/../lib/gcc/nios2-elf/4.1.2/../../../../nios2-elf/lib/libc.a(lib_a-impure.o)
 .bss           0x00869a89        0x0 /opt/altera/10.1sp1/nios2eds/bin/gnu/H-i686-pc-linux-gnu/bin/../lib/gcc/nios2-elf/4.1.2/../../../../nios2-elf/lib/libc.a(lib_a-int_errno.o)
 .bss           0x00869a89        0x0 /opt/altera/10.1sp1/nios2eds/bin/gnu/H-i686-pc-linux-gnu/bin/../lib/gcc/nios2-elf/4.1.2/../../../../nios2-elf/lib/libc.a(lib_a-makebuf.o)
 .bss           0x00869a89        0x0 /opt/altera/10.1sp1/nios2eds/bin/gnu/H-i686-pc-linux-gnu/bin/../lib/gcc/nios2-elf/4.1.2/../../../../nios2-elf/lib/libc.a(lib_a-malloc.o)
 *fill*         0x00869a89        0x3 00
 .bss           0x00869a8c       0x28 /opt/altera/10.1sp1/nios2eds/bin/gnu/H-i686-pc-linux-gnu/bin/../lib/gcc/nios2-elf/4.1.2/../../../../nios2-elf/lib/libc.a(lib_a-mallocr.o)
                0x00869a8c                __malloc_current_mallinfo
 .bss           0x00869ab4        0x0 /opt/altera/10.1sp1/nios2eds/bin/gnu/H-i686-pc-linux-gnu/bin/../lib/gcc/nios2-elf/4.1.2/../../../../nios2-elf/lib/libc.a(lib_a-memcpy.o)
 .bss           0x00869ab4        0x0 /opt/altera/10.1sp1/nios2eds/bin/gnu/H-i686-pc-linux-gnu/bin/../lib/gcc/nios2-elf/4.1.2/../../../../nios2-elf/lib/libc.a(lib_a-memmove.o)
 .bss           0x00869ab4        0x0 /opt/altera/10.1sp1/nios2eds/bin/gnu/H-i686-pc-linux-gnu/bin/../lib/gcc/nios2-elf/4.1.2/../../../../nios2-elf/lib/libc.a(lib_a-memset.o)
 .bss           0x00869ab4        0x0 /opt/altera/10.1sp1/nios2eds/bin/gnu/H-i686-pc-linux-gnu/bin/../lib/gcc/nios2-elf/4.1.2/../../../../nios2-elf/lib/libc.a(lib_a-openr.o)
 .bss           0x00869ab4        0x0 /opt/altera/10.1sp1/nios2eds/bin/gnu/H-i686-pc-linux-gnu/bin/../lib/gcc/nios2-elf/4.1.2/../../../../nios2-elf/lib/libc.a(lib_a-perror.o)
 .bss           0x00869ab4        0x0 /opt/altera/10.1sp1/nios2eds/bin/gnu/H-i686-pc-linux-gnu/bin/../lib/gcc/nios2-elf/4.1.2/../../../../nios2-elf/lib/libc.a(lib_a-printf.o)
 .bss           0x00869ab4        0x0 /opt/altera/10.1sp1/nios2eds/bin/gnu/H-i686-pc-linux-gnu/bin/../lib/gcc/nios2-elf/4.1.2/../../../../nios2-elf/lib/libc.a(lib_a-putc.o)
 .bss           0x00869ab4        0x0 /opt/altera/10.1sp1/nios2eds/bin/gnu/H-i686-pc-linux-gnu/bin/../lib/gcc/nios2-elf/4.1.2/../../../../nios2-elf/lib/libc.a(lib_a-putchar.o)
 .bss           0x00869ab4        0x0 /opt/altera/10.1sp1/nios2eds/bin/gnu/H-i686-pc-linux-gnu/bin/../lib/gcc/nios2-elf/4.1.2/../../../../nios2-elf/lib/libc.a(lib_a-puts.o)
 .bss           0x00869ab4        0x0 /opt/altera/10.1sp1/nios2eds/bin/gnu/H-i686-pc-linux-gnu/bin/../lib/gcc/nios2-elf/4.1.2/../../../../nios2-elf/lib/libc.a(lib_a-refill.o)
 .bss           0x00869ab4        0x0 /opt/altera/10.1sp1/nios2eds/bin/gnu/H-i686-pc-linux-gnu/bin/../lib/gcc/nios2-elf/4.1.2/../../../../nios2-elf/lib/libc.a(lib_a-rget.o)
 .bss           0x00869ab4        0x0 /opt/altera/10.1sp1/nios2eds/bin/gnu/H-i686-pc-linux-gnu/bin/../lib/gcc/nios2-elf/4.1.2/../../../../nios2-elf/lib/libc.a(lib_a-sbrkr.o)
 .bss           0x00869ab4        0x0 /opt/altera/10.1sp1/nios2eds/bin/gnu/H-i686-pc-linux-gnu/bin/../lib/gcc/nios2-elf/4.1.2/../../../../nios2-elf/lib/libc.a(lib_a-signal.o)
 .bss           0x00869ab4        0x0 /opt/altera/10.1sp1/nios2eds/bin/gnu/H-i686-pc-linux-gnu/bin/../lib/gcc/nios2-elf/4.1.2/../../../../nios2-elf/lib/libc.a(lib_a-signalr.o)
 .bss           0x00869ab4        0x0 /opt/altera/10.1sp1/nios2eds/bin/gnu/H-i686-pc-linux-gnu/bin/../lib/gcc/nios2-elf/4.1.2/../../../../nios2-elf/lib/libc.a(lib_a-sprintf.o)
 .bss           0x00869ab4        0x0 /opt/altera/10.1sp1/nios2eds/bin/gnu/H-i686-pc-linux-gnu/bin/../lib/gcc/nios2-elf/4.1.2/../../../../nios2-elf/lib/libc.a(lib_a-sscanf.o)
 .bss           0x00869ab4        0x0 /opt/altera/10.1sp1/nios2eds/bin/gnu/H-i686-pc-linux-gnu/bin/../lib/gcc/nios2-elf/4.1.2/../../../../nios2-elf/lib/libc.a(lib_a-stdio.o)
 .bss           0x00869ab4        0x0 /opt/altera/10.1sp1/nios2eds/bin/gnu/H-i686-pc-linux-gnu/bin/../lib/gcc/nios2-elf/4.1.2/../../../../nios2-elf/lib/libc.a(lib_a-strcasecmp.o)
 .bss           0x00869ab4        0x0 /opt/altera/10.1sp1/nios2eds/bin/gnu/H-i686-pc-linux-gnu/bin/../lib/gcc/nios2-elf/4.1.2/../../../../nios2-elf/lib/libc.a(lib_a-strcat.o)
 .bss           0x00869ab4        0x0 /opt/altera/10.1sp1/nios2eds/bin/gnu/H-i686-pc-linux-gnu/bin/../lib/gcc/nios2-elf/4.1.2/../../../../nios2-elf/lib/libc.a(lib_a-strchr.o)
 .bss           0x00869ab4        0x0 /opt/altera/10.1sp1/nios2eds/bin/gnu/H-i686-pc-linux-gnu/bin/../lib/gcc/nios2-elf/4.1.2/../../../../nios2-elf/lib/libc.a(lib_a-strcmp.o)
 .bss           0x00869ab4        0x0 /opt/altera/10.1sp1/nios2eds/bin/gnu/H-i686-pc-linux-gnu/bin/../lib/gcc/nios2-elf/4.1.2/../../../../nios2-elf/lib/libc.a(lib_a-strcpy.o)
 .bss           0x00869ab4        0x0 /opt/altera/10.1sp1/nios2eds/bin/gnu/H-i686-pc-linux-gnu/bin/../lib/gcc/nios2-elf/4.1.2/../../../../nios2-elf/lib/libc.a(lib_a-strerror.o)
 .bss           0x00869ab4        0x0 /opt/altera/10.1sp1/nios2eds/bin/gnu/H-i686-pc-linux-gnu/bin/../lib/gcc/nios2-elf/4.1.2/../../../../nios2-elf/lib/libc.a(lib_a-strlen.o)
 .bss           0x00869ab4        0x0 /opt/altera/10.1sp1/nios2eds/bin/gnu/H-i686-pc-linux-gnu/bin/../lib/gcc/nios2-elf/4.1.2/../../../../nios2-elf/lib/libc.a(lib_a-strncmp.o)
 .bss           0x00869ab4        0x0 /opt/altera/10.1sp1/nios2eds/bin/gnu/H-i686-pc-linux-gnu/bin/../lib/gcc/nios2-elf/4.1.2/../../../../nios2-elf/lib/libc.a(lib_a-strncpy.o)
 .bss           0x00869ab4        0x0 /opt/altera/10.1sp1/nios2eds/bin/gnu/H-i686-pc-linux-gnu/bin/../lib/gcc/nios2-elf/4.1.2/../../../../nios2-elf/lib/libc.a(lib_a-strstr.o)
 .bss           0x00869ab4        0x0 /opt/altera/10.1sp1/nios2eds/bin/gnu/H-i686-pc-linux-gnu/bin/../lib/gcc/nios2-elf/4.1.2/../../../../nios2-elf/lib/libc.a(lib_a-strtok.o)
 .bss           0x00869ab4        0x0 /opt/altera/10.1sp1/nios2eds/bin/gnu/H-i686-pc-linux-gnu/bin/../lib/gcc/nios2-elf/4.1.2/../../../../nios2-elf/lib/libc.a(lib_a-strtok_r.o)
 .bss           0x00869ab4        0x0 /opt/altera/10.1sp1/nios2eds/bin/gnu/H-i686-pc-linux-gnu/bin/../lib/gcc/nios2-elf/4.1.2/../../../../nios2-elf/lib/libc.a(lib_a-strtol.o)
 .bss           0x00869ab4        0x0 /opt/altera/10.1sp1/nios2eds/bin/gnu/H-i686-pc-linux-gnu/bin/../lib/gcc/nios2-elf/4.1.2/../../../../nios2-elf/lib/libc.a(lib_a-u_strerr.o)
 .bss           0x00869ab4        0x0 /opt/altera/10.1sp1/nios2eds/bin/gnu/H-i686-pc-linux-gnu/bin/../lib/gcc/nios2-elf/4.1.2/../../../../nios2-elf/lib/libc.a(lib_a-vfprintf.o)
 .bss           0x00869ab4        0x0 /opt/altera/10.1sp1/nios2eds/bin/gnu/H-i686-pc-linux-gnu/bin/../lib/gcc/nios2-elf/4.1.2/../../../../nios2-elf/lib/libc.a(lib_a-vfscanf.o)
 .bss           0x00869ab4        0x0 /opt/altera/10.1sp1/nios2eds/bin/gnu/H-i686-pc-linux-gnu/bin/../lib/gcc/nios2-elf/4.1.2/../../../../nios2-elf/lib/libc.a(lib_a-wbuf.o)
 .bss           0x00869ab4        0x0 /opt/altera/10.1sp1/nios2eds/bin/gnu/H-i686-pc-linux-gnu/bin/../lib/gcc/nios2-elf/4.1.2/../../../../nios2-elf/lib/libc.a(lib_a-writer.o)
 .bss           0x00869ab4        0x0 /opt/altera/10.1sp1/nios2eds/bin/gnu/H-i686-pc-linux-gnu/bin/../lib/gcc/nios2-elf/4.1.2/../../../../nios2-elf/lib/libc.a(lib_a-wsetup.o)
 .bss           0x00869ab4        0x0 /opt/altera/10.1sp1/nios2eds/bin/gnu/H-i686-pc-linux-gnu/bin/../lib/gcc/nios2-elf/4.1.2/../../../../nios2-elf/lib/libc.a(lib_a-closer.o)
 .bss           0x00869ab4        0x0 /opt/altera/10.1sp1/nios2eds/bin/gnu/H-i686-pc-linux-gnu/bin/../lib/gcc/nios2-elf/4.1.2/../../../../nios2-elf/lib/libc.a(lib_a-dtoa.o)
 .bss           0x00869ab4        0x0 /opt/altera/10.1sp1/nios2eds/bin/gnu/H-i686-pc-linux-gnu/bin/../lib/gcc/nios2-elf/4.1.2/../../../../nios2-elf/lib/libc.a(lib_a-flags.o)
 .bss           0x00869ab4        0x0 /opt/altera/10.1sp1/nios2eds/bin/gnu/H-i686-pc-linux-gnu/bin/../lib/gcc/nios2-elf/4.1.2/../../../../nios2-elf/lib/libc.a(lib_a-fputs.o)
 .bss           0x00869ab4        0x0 /opt/altera/10.1sp1/nios2eds/bin/gnu/H-i686-pc-linux-gnu/bin/../lib/gcc/nios2-elf/4.1.2/../../../../nios2-elf/lib/libc.a(lib_a-fvwrite.o)
 .bss           0x00869ab4        0x0 /opt/altera/10.1sp1/nios2eds/bin/gnu/H-i686-pc-linux-gnu/bin/../lib/gcc/nios2-elf/4.1.2/../../../../nios2-elf/lib/libc.a(lib_a-isattyr.o)
 .bss           0x00869ab4        0x0 /opt/altera/10.1sp1/nios2eds/bin/gnu/H-i686-pc-linux-gnu/bin/../lib/gcc/nios2-elf/4.1.2/../../../../nios2-elf/lib/libc.a(lib_a-iswspace.o)
 .bss           0x00869ab4        0x0 /opt/altera/10.1sp1/nios2eds/bin/gnu/H-i686-pc-linux-gnu/bin/../lib/gcc/nios2-elf/4.1.2/../../../../nios2-elf/lib/libc.a(lib_a-locale.o)
 .bss           0x00869ab4        0x0 /opt/altera/10.1sp1/nios2eds/bin/gnu/H-i686-pc-linux-gnu/bin/../lib/gcc/nios2-elf/4.1.2/../../../../nios2-elf/lib/libc.a(lib_a-lseekr.o)
 .bss           0x00869ab4        0x0 /opt/altera/10.1sp1/nios2eds/bin/gnu/H-i686-pc-linux-gnu/bin/../lib/gcc/nios2-elf/4.1.2/../../../../nios2-elf/lib/libc.a(lib_a-mbrtowc.o)
 .bss           0x00869ab4        0x0 /opt/altera/10.1sp1/nios2eds/bin/gnu/H-i686-pc-linux-gnu/bin/../lib/gcc/nios2-elf/4.1.2/../../../../nios2-elf/lib/libc.a(lib_a-mbtowc_r.o)
 .bss           0x00869ab4        0x0 /opt/altera/10.1sp1/nios2eds/bin/gnu/H-i686-pc-linux-gnu/bin/../lib/gcc/nios2-elf/4.1.2/../../../../nios2-elf/lib/libc.a(lib_a-memchr.o)
 .bss           0x00869ab4        0x0 /opt/altera/10.1sp1/nios2eds/bin/gnu/H-i686-pc-linux-gnu/bin/../lib/gcc/nios2-elf/4.1.2/../../../../nios2-elf/lib/libc.a(lib_a-memcmp.o)
 .bss           0x00869ab4        0x0 /opt/altera/10.1sp1/nios2eds/bin/gnu/H-i686-pc-linux-gnu/bin/../lib/gcc/nios2-elf/4.1.2/../../../../nios2-elf/lib/libc.a(lib_a-mprec.o)
 .bss           0x00869ab4        0x0 /opt/altera/10.1sp1/nios2eds/bin/gnu/H-i686-pc-linux-gnu/bin/../lib/gcc/nios2-elf/4.1.2/../../../../nios2-elf/lib/libc.a(lib_a-readr.o)
 .bss           0x00869ab4        0x0 /opt/altera/10.1sp1/nios2eds/bin/gnu/H-i686-pc-linux-gnu/bin/../lib/gcc/nios2-elf/4.1.2/../../../../nios2-elf/lib/libc.a(lib_a-reallocr.o)
 .bss           0x00869ab4        0x0 /opt/altera/10.1sp1/nios2eds/bin/gnu/H-i686-pc-linux-gnu/bin/../lib/gcc/nios2-elf/4.1.2/../../../../nios2-elf/lib/libc.a(lib_a-s_isinfd.o)
 .bss           0x00869ab4        0x0 /opt/altera/10.1sp1/nios2eds/bin/gnu/H-i686-pc-linux-gnu/bin/../lib/gcc/nios2-elf/4.1.2/../../../../nios2-elf/lib/libc.a(lib_a-s_isnand.o)
 .bss           0x00869ab4        0x0 /opt/altera/10.1sp1/nios2eds/bin/gnu/H-i686-pc-linux-gnu/bin/../lib/gcc/nios2-elf/4.1.2/../../../../nios2-elf/lib/libc.a(lib_a-sccl.o)
 .bss           0x00869ab4        0x0 /opt/altera/10.1sp1/nios2eds/bin/gnu/H-i686-pc-linux-gnu/bin/../lib/gcc/nios2-elf/4.1.2/../../../../nios2-elf/lib/libc.a(lib_a-sf_nan.o)
 .bss           0x00869ab4        0x0 /opt/altera/10.1sp1/nios2eds/bin/gnu/H-i686-pc-linux-gnu/bin/../lib/gcc/nios2-elf/4.1.2/../../../../nios2-elf/lib/libc.a(lib_a-strtod.o)
 .bss           0x00869ab4        0x0 /opt/altera/10.1sp1/nios2eds/bin/gnu/H-i686-pc-linux-gnu/bin/../lib/gcc/nios2-elf/4.1.2/../../../../nios2-elf/lib/libc.a(lib_a-strtoll_r.o)
 .bss           0x00869ab4        0x0 /opt/altera/10.1sp1/nios2eds/bin/gnu/H-i686-pc-linux-gnu/bin/../lib/gcc/nios2-elf/4.1.2/../../../../nios2-elf/lib/libc.a(lib_a-strtoul.o)
 .bss           0x00869ab4        0x0 /opt/altera/10.1sp1/nios2eds/bin/gnu/H-i686-pc-linux-gnu/bin/../lib/gcc/nios2-elf/4.1.2/../../../../nios2-elf/lib/libc.a(lib_a-strtoull_r.o)
 .bss           0x00869ab4        0x0 /opt/altera/10.1sp1/nios2eds/bin/gnu/H-i686-pc-linux-gnu/bin/../lib/gcc/nios2-elf/4.1.2/../../../../nios2-elf/lib/libc.a(lib_a-ungetc.o)
 .bss           0x00869ab4        0x0 /opt/altera/10.1sp1/nios2eds/bin/gnu/H-i686-pc-linux-gnu/bin/../lib/gcc/nios2-elf/4.1.2/../../../../nios2-elf/lib/libc.a(lib_a-callocr.o)
 .bss           0x00869ab4        0x0 /opt/altera/10.1sp1/nios2eds/bin/gnu/H-i686-pc-linux-gnu/bin/../lib/gcc/nios2-elf/4.1.2/../../../../nios2-elf/lib/libc.a(lib_a-gdtoa-gethex.o)
 .bss           0x00869ab4        0x0 /opt/altera/10.1sp1/nios2eds/bin/gnu/H-i686-pc-linux-gnu/bin/../lib/gcc/nios2-elf/4.1.2/../../../../nios2-elf/lib/libc.a(lib_a-gdtoa-hexnan.o)
 .bss           0x00869ab4        0x0 /opt/altera/10.1sp1/nios2eds/bin/gnu/H-i686-pc-linux-gnu/bin/../lib/gcc/nios2-elf/4.1.2/libgcc.a(_muldi3.o)
 .bss           0x00869ab4        0x0 /opt/altera/10.1sp1/nios2eds/bin/gnu/H-i686-pc-linux-gnu/bin/../lib/gcc/nios2-elf/4.1.2/libgcc.a(_fixunsdfsi.o)
 .bss           0x00869ab4        0x0 /opt/altera/10.1sp1/nios2eds/bin/gnu/H-i686-pc-linux-gnu/bin/../lib/gcc/nios2-elf/4.1.2/libgcc.a(_udivdi3.o)
 .bss           0x00869ab4        0x0 /opt/altera/10.1sp1/nios2eds/bin/gnu/H-i686-pc-linux-gnu/bin/../lib/gcc/nios2-elf/4.1.2/libgcc.a(_umoddi3.o)
 .bss           0x00869ab4        0x0 /opt/altera/10.1sp1/nios2eds/bin/gnu/H-i686-pc-linux-gnu/bin/../lib/gcc/nios2-elf/4.1.2/libgcc.a(_ne_sf.o)
 .bss           0x00869ab4        0x0 /opt/altera/10.1sp1/nios2eds/bin/gnu/H-i686-pc-linux-gnu/bin/../lib/gcc/nios2-elf/4.1.2/libgcc.a(_gt_sf.o)
 .bss           0x00869ab4        0x0 /opt/altera/10.1sp1/nios2eds/bin/gnu/H-i686-pc-linux-gnu/bin/../lib/gcc/nios2-elf/4.1.2/libgcc.a(_lt_sf.o)
 .bss           0x00869ab4        0x0 /opt/altera/10.1sp1/nios2eds/bin/gnu/H-i686-pc-linux-gnu/bin/../lib/gcc/nios2-elf/4.1.2/libgcc.a(_addsub_df.o)
 .bss           0x00869ab4        0x0 /opt/altera/10.1sp1/nios2eds/bin/gnu/H-i686-pc-linux-gnu/bin/../lib/gcc/nios2-elf/4.1.2/libgcc.a(_mul_df.o)
 .bss           0x00869ab4        0x0 /opt/altera/10.1sp1/nios2eds/bin/gnu/H-i686-pc-linux-gnu/bin/../lib/gcc/nios2-elf/4.1.2/libgcc.a(_div_df.o)
 .bss           0x00869ab4        0x0 /opt/altera/10.1sp1/nios2eds/bin/gnu/H-i686-pc-linux-gnu/bin/../lib/gcc/nios2-elf/4.1.2/libgcc.a(_eq_df.o)
 .bss           0x00869ab4        0x0 /opt/altera/10.1sp1/nios2eds/bin/gnu/H-i686-pc-linux-gnu/bin/../lib/gcc/nios2-elf/4.1.2/libgcc.a(_ne_df.o)
 .bss           0x00869ab4        0x0 /opt/altera/10.1sp1/nios2eds/bin/gnu/H-i686-pc-linux-gnu/bin/../lib/gcc/nios2-elf/4.1.2/libgcc.a(_gt_df.o)
 .bss           0x00869ab4        0x0 /opt/altera/10.1sp1/nios2eds/bin/gnu/H-i686-pc-linux-gnu/bin/../lib/gcc/nios2-elf/4.1.2/libgcc.a(_ge_df.o)
 .bss           0x00869ab4        0x0 /opt/altera/10.1sp1/nios2eds/bin/gnu/H-i686-pc-linux-gnu/bin/../lib/gcc/nios2-elf/4.1.2/libgcc.a(_lt_df.o)
 .bss           0x00869ab4        0x0 /opt/altera/10.1sp1/nios2eds/bin/gnu/H-i686-pc-linux-gnu/bin/../lib/gcc/nios2-elf/4.1.2/libgcc.a(_le_df.o)
 .bss           0x00869ab4        0x0 /opt/altera/10.1sp1/nios2eds/bin/gnu/H-i686-pc-linux-gnu/bin/../lib/gcc/nios2-elf/4.1.2/libgcc.a(_si_to_df.o)
 .bss           0x00869ab4        0x0 /opt/altera/10.1sp1/nios2eds/bin/gnu/H-i686-pc-linux-gnu/bin/../lib/gcc/nios2-elf/4.1.2/libgcc.a(_df_to_si.o)
 .bss           0x00869ab4        0x0 /opt/altera/10.1sp1/nios2eds/bin/gnu/H-i686-pc-linux-gnu/bin/../lib/gcc/nios2-elf/4.1.2/libgcc.a(_df_to_sf.o)
 .bss           0x00869ab4        0x0 /opt/altera/10.1sp1/nios2eds/bin/gnu/H-i686-pc-linux-gnu/bin/../lib/gcc/nios2-elf/4.1.2/libgcc.a(_thenan_df.o)
 .bss           0x00869ab4        0x0 /opt/altera/10.1sp1/nios2eds/bin/gnu/H-i686-pc-linux-gnu/bin/../lib/gcc/nios2-elf/4.1.2/libgcc.a(_usi_to_df.o)
 .bss           0x00869ab4        0x0 /opt/altera/10.1sp1/nios2eds/bin/gnu/H-i686-pc-linux-gnu/bin/../lib/gcc/nios2-elf/4.1.2/libgcc.a(_clz.o)
 .bss           0x00869ab4        0x0 /opt/altera/10.1sp1/nios2eds/bin/gnu/H-i686-pc-linux-gnu/bin/../lib/gcc/nios2-elf/4.1.2/libgcc.a(_clzsi2.o)
 .bss           0x00869ab4        0x0 /opt/altera/10.1sp1/nios2eds/bin/gnu/H-i686-pc-linux-gnu/bin/../lib/gcc/nios2-elf/4.1.2/libgcc.a(_unpack_sf.o)
 .bss           0x00869ab4        0x0 /opt/altera/10.1sp1/nios2eds/bin/gnu/H-i686-pc-linux-gnu/bin/../lib/gcc/nios2-elf/4.1.2/libgcc.a(_fpcmp_parts_sf.o)
 .bss           0x00869ab4        0x0 /opt/altera/10.1sp1/nios2eds/bin/gnu/H-i686-pc-linux-gnu/bin/../lib/gcc/nios2-elf/4.1.2/libgcc.a(_make_sf.o)
 .bss           0x00869ab4        0x0 /opt/altera/10.1sp1/nios2eds/bin/gnu/H-i686-pc-linux-gnu/bin/../lib/gcc/nios2-elf/4.1.2/libgcc.a(_pack_df.o)
 .bss           0x00869ab4        0x0 /opt/altera/10.1sp1/nios2eds/bin/gnu/H-i686-pc-linux-gnu/bin/../lib/gcc/nios2-elf/4.1.2/libgcc.a(_unpack_df.o)
 .bss           0x00869ab4        0x0 /opt/altera/10.1sp1/nios2eds/bin/gnu/H-i686-pc-linux-gnu/bin/../lib/gcc/nios2-elf/4.1.2/libgcc.a(_fpcmp_parts_df.o)
 .bss           0x00869ab4        0x0 /opt/altera/10.1sp1/nios2eds/bin/gnu/H-i686-pc-linux-gnu/bin/../lib/gcc/nios2-elf/4.1.2/libgcc.a(_pack_sf.o)
 .bss           0x00869ab4        0x0 ../StereoCameraServer_bsp/libucosii_bsp.a(alt_dcache_flush.o)
 .bss           0x00869ab4        0x0 ../StereoCameraServer_bsp/libucosii_bsp.a(alt_errno.o)
 .bss           0x00869ab4        0x0 ../StereoCameraServer_bsp/libucosii_bsp.a(alt_exit.o)
 .bss           0x00869ab4        0x0 ../StereoCameraServer_bsp/libucosii_bsp.a(alt_flash_dev.o)
 .bss           0x00869ab4        0x0 ../StereoCameraServer_bsp/libucosii_bsp.a(alt_fstat.o)
 .bss           0x00869ab4        0x0 ../StereoCameraServer_bsp/libucosii_bsp.a(alt_getpid.o)
 .bss           0x00869ab4        0x0 ../StereoCameraServer_bsp/libucosii_bsp.a(alt_irq_register.o)
 .bss           0x00869ab4        0x0 ../StereoCameraServer_bsp/libucosii_bsp.a(alt_irq_vars.o)
 .bss           0x00869ab4        0x0 ../StereoCameraServer_bsp/libucosii_bsp.a(alt_isatty.o)
 .bss           0x00869ab4        0x0 ../StereoCameraServer_bsp/libucosii_bsp.a(alt_kill.o)
 .bss           0x00869ab4        0x0 ../StereoCameraServer_bsp/libucosii_bsp.a(alt_load.o)
 .bss           0x00869ab4        0x0 ../StereoCameraServer_bsp/libucosii_bsp.a(alt_lseek.o)
 .bss           0x00869ab4        0x0 ../StereoCameraServer_bsp/libucosii_bsp.a(alt_main.o)
 .bss           0x00869ab4        0x0 ../StereoCameraServer_bsp/libucosii_bsp.a(alt_open.o)
 .bss           0x00869ab4        0x0 ../StereoCameraServer_bsp/libucosii_bsp.a(alt_release_fd.o)
 .bss           0x00869ab4        0x0 ../StereoCameraServer_bsp/libucosii_bsp.a(alt_sbrk.o)
 .bss           0x00869ab4        0x0 ../StereoCameraServer_bsp/libucosii_bsp.a(alt_tick.o)
 .bss           0x00869ab4        0x0 ../StereoCameraServer_bsp/libucosii_bsp.a(alt_env_lock.o)
 .bss           0x00869ab4        0x0 ../StereoCameraServer_bsp/libucosii_bsp.a(alt_malloc_lock.o)
 .bss           0x00869ab4        0x0 ../StereoCameraServer_bsp/libucosii_bsp.a(os_core.o)
 .bss           0x00869ab4        0x0 ../StereoCameraServer_bsp/libucosii_bsp.a(os_dbg.o)
 .bss           0x00869ab4        0x0 ../StereoCameraServer_bsp/libucosii_bsp.a(os_flag.o)
 .bss           0x00869ab4        0x0 ../StereoCameraServer_bsp/libucosii_bsp.a(os_mbox.o)
 .bss           0x00869ab4        0x0 ../StereoCameraServer_bsp/libucosii_bsp.a(os_mem.o)
 .bss           0x00869ab4        0x0 ../StereoCameraServer_bsp/libucosii_bsp.a(os_q.o)
 .bss           0x00869ab4        0x0 ../StereoCameraServer_bsp/libucosii_bsp.a(os_sem.o)
 .bss           0x00869ab4        0x0 ../StereoCameraServer_bsp/libucosii_bsp.a(os_task.o)
 .bss           0x00869ab4        0x0 ../StereoCameraServer_bsp/libucosii_bsp.a(os_time.o)
 .bss           0x00869ab4        0x0 ../StereoCameraServer_bsp/libucosii_bsp.a(alt_sys_init.o)
 .bss           0x00869ab4        0x0 ../StereoCameraServer_bsp/libucosii_bsp.a(altera_avalon_cfi_flash.o)
 .bss           0x00869ab4        0x0 ../StereoCameraServer_bsp/libucosii_bsp.a(altera_avalon_cfi_flash_table.o)
 .bss           0x00869ab4        0x0 ../StereoCameraServer_bsp/libucosii_bsp.a(altera_avalon_jtag_uart_fd.o)
 .bss           0x00869ab4        0x0 ../StereoCameraServer_bsp/libucosii_bsp.a(altera_avalon_jtag_uart_init.o)
 .bss           0x00869ab4        0x0 ../StereoCameraServer_bsp/libucosii_bsp.a(altera_avalon_jtag_uart_ioctl.o)
 .bss           0x00869ab4        0x0 ../StereoCameraServer_bsp/libucosii_bsp.a(altera_avalon_jtag_uart_read.o)
 .bss           0x00869ab4        0x0 ../StereoCameraServer_bsp/libucosii_bsp.a(altera_avalon_jtag_uart_write.o)
 .bss           0x00869ab4        0x0 ../StereoCameraServer_bsp/libucosii_bsp.a(altera_avalon_lcd_16207.o)
 .bss           0x00869ab4        0x0 ../StereoCameraServer_bsp/libucosii_bsp.a(altera_avalon_lcd_16207_fd.o)
 .bss           0x00869ab4        0x0 ../StereoCameraServer_bsp/libucosii_bsp.a(altera_avalon_timer_sc.o)
 .bss           0x00869ab4        0x0 ../StereoCameraServer_bsp/libucosii_bsp.a(altera_avalon_uart_fd.o)
 .bss           0x00869ab4        0x0 ../StereoCameraServer_bsp/libucosii_bsp.a(altera_avalon_uart_write.o)
 .bss           0x00869ab4        0x0 ../StereoCameraServer_bsp/libucosii_bsp.a(altera_ro_zipfs.o)
 .bss           0x00869ab4        0x0 ../StereoCameraServer_bsp/libucosii_bsp.a(dm9000a.o)
 .bss           0x00869ab4        0x0 ../StereoCameraServer_bsp/libucosii_bsp.a(alt_iniche_close.o)
 .bss           0x00869ab4        0x0 ../StereoCameraServer_bsp/libucosii_bsp.a(alt_iniche_dev.o)
 .bss           0x00869ab4        0x0 ../StereoCameraServer_bsp/libucosii_bsp.a(alt_iniche_fcntl.o)
 .bss           0x00869ab4        0x0 ../StereoCameraServer_bsp/libucosii_bsp.a(alt_iniche_read.o)
 .bss           0x00869ab4        0x0 ../StereoCameraServer_bsp/libucosii_bsp.a(alt_iniche_write.o)
 .bss           0x00869ab4        0x0 ../StereoCameraServer_bsp/libucosii_bsp.a(ipnet.o)
 .bss           0x00869ab4       0x3c ../StereoCameraServer_bsp/libucosii_bsp.a(ipstart.o)
 .bss           0x00869af0        0x0 ../StereoCameraServer_bsp/libucosii_bsp.a(igmp_cmn.o)
 .bss           0x00869af0        0x0 ../StereoCameraServer_bsp/libucosii_bsp.a(bsdsock.o)
 .bss           0x00869af0        0x0 ../StereoCameraServer_bsp/libucosii_bsp.a(cksum.o)
 .bss           0x00869af0       0x18 ../StereoCameraServer_bsp/libucosii_bsp.a(in_utils.o)
 .bss           0x00869b08        0x0 ../StereoCameraServer_bsp/libucosii_bsp.a(netmain.o)
 .bss           0x00869b08        0x0 ../StereoCameraServer_bsp/libucosii_bsp.a(tk_crnos.o)
 .bss           0x00869b08        0x0 ../StereoCameraServer_bsp/libucosii_bsp.a(pktalloc.o)
 .bss           0x00869b08        0x0 ../StereoCameraServer_bsp/libucosii_bsp.a(q.o)
 .bss           0x00869b08        0x0 ../StereoCameraServer_bsp/libucosii_bsp.a(asm_cksum.o)
 .bss           0x00869b08        0x0 ../StereoCameraServer_bsp/libucosii_bsp.a(brdutils.o)
 .bss           0x00869b08        0x0 ../StereoCameraServer_bsp/libucosii_bsp.a(osportco.o)
 .bss           0x00869b08        0x0 ../StereoCameraServer_bsp/libucosii_bsp.a(targnios.o)
 .bss           0x00869b08        0x0 ../StereoCameraServer_bsp/libucosii_bsp.a(nptcp.o)
 .bss           0x00869b08        0x0 ../StereoCameraServer_bsp/libucosii_bsp.a(rawsock.o)
 .bss           0x00869b08        0x0 ../StereoCameraServer_bsp/libucosii_bsp.a(sockcall.o)
 .bss           0x00869b08        0x0 ../StereoCameraServer_bsp/libucosii_bsp.a(socket.o)
 .bss           0x00869b08        0x0 ../StereoCameraServer_bsp/libucosii_bsp.a(socket2.o)
 .bss           0x00869b08        0x0 ../StereoCameraServer_bsp/libucosii_bsp.a(soselect.o)
 .bss           0x00869b08        0x0 ../StereoCameraServer_bsp/libucosii_bsp.a(tcp_in.o)
 .bss           0x00869b08        0x0 ../StereoCameraServer_bsp/libucosii_bsp.a(tcp_out.o)
 .bss           0x00869b08        0x0 ../StereoCameraServer_bsp/libucosii_bsp.a(tcp_subr.o)
 .bss           0x00869b08        0x0 ../StereoCameraServer_bsp/libucosii_bsp.a(tcp_timr.o)
 .bss           0x00869b08        0x0 ../StereoCameraServer_bsp/libucosii_bsp.a(tcp_usr.o)
 .bss           0x00869b08        0x0 ../StereoCameraServer_bsp/libucosii_bsp.a(tcpport.o)
 .bss           0x00869b08        0x0 ../StereoCameraServer_bsp/libucosii_bsp.a(udpsock.o)
 .bss           0x00869b08        0x0 ../StereoCameraServer_bsp/libucosii_bsp.a(alt_alarm_start.o)
 .bss           0x00869b08        0x0 ../StereoCameraServer_bsp/libucosii_bsp.a(alt_close.o)
 .bss           0x00869b08        0x0 ../StereoCameraServer_bsp/libucosii_bsp.a(alt_dcache_flush_all.o)
 .bss           0x00869b08        0x0 ../StereoCameraServer_bsp/libucosii_bsp.a(alt_dev.o)
 .bss           0x00869b08        0x0 ../StereoCameraServer_bsp/libucosii_bsp.a(alt_dev_llist_insert.o)
 .bss           0x00869b08        0x0 ../StereoCameraServer_bsp/libucosii_bsp.a(alt_do_ctors.o)
 .bss           0x00869b08        0x0 ../StereoCameraServer_bsp/libucosii_bsp.a(alt_do_dtors.o)
 .bss           0x00869b08        0x0 ../StereoCameraServer_bsp/libucosii_bsp.a(alt_fcntl.o)
 .bss           0x00869b08        0x0 ../StereoCameraServer_bsp/libucosii_bsp.a(alt_find_dev.o)
 .bss           0x00869b08        0x0 ../StereoCameraServer_bsp/libucosii_bsp.a(alt_find_file.o)
 .bss           0x00869b08        0x0 ../StereoCameraServer_bsp/libucosii_bsp.a(alt_fs_reg.o)
 .bss           0x00869b08        0x0 ../StereoCameraServer_bsp/libucosii_bsp.a(alt_get_fd.o)
 .bss           0x00869b08        0x0 ../StereoCameraServer_bsp/libucosii_bsp.a(alt_icache_flush_all.o)
 .bss           0x00869b08        0x0 ../StereoCameraServer_bsp/libucosii_bsp.a(alt_io_redirect.o)
 .bss           0x00869b08        0x0 ../StereoCameraServer_bsp/libucosii_bsp.a(alt_irq_entry.o)
 .bss           0x00869b08        0x0 ../StereoCameraServer_bsp/libucosii_bsp.a(alt_irq_handler.o)
 .bss           0x00869b08        0x0 ../StereoCameraServer_bsp/libucosii_bsp.a(alt_read.o)
 .bss           0x00869b08        0x0 ../StereoCameraServer_bsp/libucosii_bsp.a(alt_remap_cached.o)
 .bss           0x00869b08        0x0 ../StereoCameraServer_bsp/libucosii_bsp.a(alt_remap_uncached.o)
 .bss           0x00869b08        0x0 ../StereoCameraServer_bsp/libucosii_bsp.a(alt_usleep.o)
 .bss           0x00869b08        0x0 ../StereoCameraServer_bsp/libucosii_bsp.a(alt_write.o)
 .bss           0x00869b08        0x0 ../StereoCameraServer_bsp/libucosii_bsp.a(altera_nios2_irq.o)
 .bss           0x00869b08        0x0 ../StereoCameraServer_bsp/libucosii_bsp.a(os_cpu_a.o)
 .bss           0x00869b08        0x0 ../StereoCameraServer_bsp/libucosii_bsp.a(os_cpu_c.o)
 .bss           0x00869b08        0x0 ../StereoCameraServer_bsp/libucosii_bsp.a(altera_avalon_cfi_flash_amd.o)
 .bss           0x00869b08        0x0 ../StereoCameraServer_bsp/libucosii_bsp.a(altera_avalon_cfi_flash_intel.o)
 .bss           0x00869b08        0x0 ../StereoCameraServer_bsp/libucosii_bsp.a(allports.o)
 .bss           0x00869b08        0x0 ../StereoCameraServer_bsp/libucosii_bsp.a(timeouts.o)
 .bss           0x00869b08        0x0 ../StereoCameraServer_bsp/libucosii_bsp.a(tk_misc.o)
 .bss           0x00869b08        0x0 ../StereoCameraServer_bsp/libucosii_bsp.a(et_arp.o)
 .bss           0x00869b08        0x0 ../StereoCameraServer_bsp/libucosii_bsp.a(iface.o)
 .bss           0x00869b08        0x0 ../StereoCameraServer_bsp/libucosii_bsp.a(ip.o)
 .bss           0x00869b08        0x0 ../StereoCameraServer_bsp/libucosii_bsp.a(ip_reasm.o)
 .bss           0x00869b08        0x0 ../StereoCameraServer_bsp/libucosii_bsp.a(ipdemux.o)
 .bss           0x00869b08        0x0 ../StereoCameraServer_bsp/libucosii_bsp.a(ipmc.o)
 .bss           0x00869b08        0x0 ../StereoCameraServer_bsp/libucosii_bsp.a(ipport.o)
 .bss           0x00869b08        0x0 ../StereoCameraServer_bsp/libucosii_bsp.a(ipraw.o)
 .bss           0x00869b08        0x0 ../StereoCameraServer_bsp/libucosii_bsp.a(iproute.o)
 .bss           0x00869b08        0x0 ../StereoCameraServer_bsp/libucosii_bsp.a(udp.o)
 .bss           0x00869b08        0x0 ../StereoCameraServer_bsp/libucosii_bsp.a(igmp.o)
 .bss           0x00869b08        0x0 ../StereoCameraServer_bsp/libucosii_bsp.a(igmp2.o)
 .bss           0x00869b08        0x0 ../StereoCameraServer_bsp/libucosii_bsp.a(ipopt.o)
 .bss           0x00869b08        0x0 ../StereoCameraServer_bsp/libucosii_bsp.a(u_mctest.o)
 .bss           0x00869b08        0x0 ../StereoCameraServer_bsp/libucosii_bsp.a(memdev.o)
 .bss           0x00869b08       0x1e ../StereoCameraServer_bsp/libucosii_bsp.a(parseip.o)
 .bss           0x00869b26        0x0 ../StereoCameraServer_bsp/libucosii_bsp.a(tcpcksum.o)
 .bss           0x00869b26        0x0 ../StereoCameraServer_bsp/libucosii_bsp.a(udp_open.o)
 .bss           0x00869b26        0x0 ../StereoCameraServer_bsp/libucosii_bsp.a(in_pcb.o)
 .bss           0x00869b26        0x0 ../StereoCameraServer_bsp/libucosii_bsp.a(vfsfiles.o)
 .bss           0x00869b26        0x0 ../StereoCameraServer_bsp/libucosii_bsp.a(vfsport.o)
 .bss           0x00869b26        0x0 ../StereoCameraServer_bsp/libucosii_bsp.a(alt_busy_sleep.o)
 .bss           0x00869b26        0x0 ../StereoCameraServer_bsp/libucosii_bsp.a(alt_exception_entry.o)
 .bss           0x00869b26        0x0 ../StereoCameraServer_bsp/libucosii_bsp.a(alt_icache_flush.o)
 .bss           0x00869b26        0x0 ../StereoCameraServer_bsp/libucosii_bsp.a(icmp.o)
 .bss           0x00869b26        0x0 /opt/altera/10.1sp1/nios2eds/bin/gnu/H-i686-pc-linux-gnu/bin/../lib/gcc/nios2-elf/4.1.2/../../../../nios2-elf/lib/libc.a(lib_a-atexit.o)
 .bss           0x00869b26        0x0 /opt/altera/10.1sp1/nios2eds/bin/gnu/H-i686-pc-linux-gnu/bin/../lib/gcc/nios2-elf/4.1.2/../../../../nios2-elf/lib/libc.a(lib_a-calloc.o)
 .bss           0x00869b26        0x0 /opt/altera/10.1sp1/nios2eds/bin/gnu/H-i686-pc-linux-gnu/bin/../lib/gcc/nios2-elf/4.1.2/../../../../nios2-elf/lib/libc.a(lib_a-exit.o)
 .bss           0x00869b26        0x0 /opt/altera/10.1sp1/nios2eds/bin/gnu/H-i686-pc-linux-gnu/bin/../lib/gcc/nios2-elf/4.1.2/../../../../nios2-elf/lib/libc.a(lib_a-vprintf.o)
 .bss           0x00869b26        0x0 /opt/altera/10.1sp1/nios2eds/bin/gnu/H-i686-pc-linux-gnu/bin/../lib/gcc/nios2-elf/4.1.2/../../../../nios2-elf/lib/libc.a(lib_a-vsprintf.o)
 .bss           0x00869b26        0x0 /opt/altera/10.1sp1/nios2eds/bin/gnu/H-i686-pc-linux-gnu/bin/../lib/gcc/nios2-elf/4.1.2/../../../../nios2-elf/lib/libc.a(lib_a-__atexit.o)
 .bss           0x00869b26        0x0 /opt/altera/10.1sp1/nios2eds/bin/gnu/H-i686-pc-linux-gnu/bin/../lib/gcc/nios2-elf/4.1.2/../../../../nios2-elf/lib/libc.a(lib_a-__call_atexit.o)
 *(COMMON)
 *fill*         0x00869b26        0x2 00
 COMMON         0x00869b28   0x5d0de4 obj/http.o
                0x00869b28                upload_buf
                0x00e228b0                board_funcs
                0x00e228da                http_rx_buffer
                0x00e2e8dc                flash_inf
                0x00e2e90c                http_tx_buffer
 COMMON         0x00e3a90c      0x104 obj/srec_flash.o
                0x00e3a90c                frag
 COMMON         0x00e3aa10     0xa000 obj/web_server.o
                0x00e3aa10                SSDTaskStk
                0x00e3ca10                WSInitialTaskStk
                0x00e3ea10                LEDTaskStk
                0x00e40a10                CAMTaskStk
                0x00e42a10                BCTaskStk
 COMMON         0x00e44a10      0x100 /opt/altera/10.1sp1/nios2eds/bin/gnu/H-i686-pc-linux-gnu/bin/../lib/gcc/nios2-elf/4.1.2/../../../../nios2-elf/lib/libc.a(lib_a-gdtoa-gethex.o)
                0x00e44a10                __hexdig
 COMMON         0x00e44b10     0x3224 ../StereoCameraServer_bsp/libucosii_bsp.a(os_core.o)
                0x00e44b10                OSFlagTbl
                0x00e44e80                OSMemTbl
                0x00e45ab0                OSTaskStatStk
                0x00e462b0                OSQTbl
                0x00e46490                OSTaskIdleStk
                0x00e46c90                OSEventTbl
                0x00e477d0                OSTCBTbl
                0x00e47ce0                OSTCBPrioTbl
 COMMON         0x00e47d34       0x44 ../StereoCameraServer_bsp/libucosii_bsp.a(dm9000a.o)
                0x00e47d34                g_dm9ka
 COMMON         0x00e47d78       0x14 ../StereoCameraServer_bsp/libucosii_bsp.a(ipnet.o)
                0x00e47d78                rcvdq
 COMMON         0x00e47d8c      0x310 ../StereoCameraServer_bsp/libucosii_bsp.a(ipstart.o)
                0x00e47d8c                netstatic
                0x00e4808c                nets
 COMMON         0x00e4809c       0x64 ../StereoCameraServer_bsp/libucosii_bsp.a(igmp_cmn.o)
                0x00e4809c                igmpstats
 COMMON         0x00e48100       0x24 ../StereoCameraServer_bsp/libucosii_bsp.a(in_utils.o)
                0x00e48100                eth_prt_buf
                0x00e48112                ipreturn
 COMMON         0x00e48124      0x128 ../StereoCameraServer_bsp/libucosii_bsp.a(pktalloc.o)
                0x00e48124                lilfreeq
                0x00e48138                memestats
                0x00e48148                pktlog
                0x00e48238                bigfreeq
 COMMON         0x00e4824c      0x1ec ../StereoCameraServer_bsp/libucosii_bsp.a(osportco.o)
                0x00e4824c                global_tcb_ext
                0x00e48348                global_TCPwakeup_set
 COMMON         0x00e48438       0x58 ../StereoCameraServer_bsp/libucosii_bsp.a(targnios.o)
                0x00e48438                resid_semaphore
                0x00e48478                app_semaphore
 COMMON         0x00e48490       0x78 ../StereoCameraServer_bsp/libucosii_bsp.a(nptcp.o)
                0x00e48490                soq
                0x00e484a4                tcpmib
                0x00e484e0                mbufq
                0x00e484f4                mfreeq
 COMMON         0x00e48508       0x28 ../StereoCameraServer_bsp/libucosii_bsp.a(tcp_in.o)
                0x00e48508                tcp_saveti
 COMMON         0x00e48530      0x10c ../StereoCameraServer_bsp/libucosii_bsp.a(tcp_subr.o)
                0x00e48530                tcb
                0x00e4855c                tcpstat
 COMMON         0x00e4863c      0x100 ../StereoCameraServer_bsp/libucosii_bsp.a(alt_irq_handler.o)
                0x00e4863c                alt_irq
 COMMON         0x00e4873c       0x64 ../StereoCameraServer_bsp/libucosii_bsp.a(timeouts.o)
                0x00e4873c                intimers
 COMMON         0x00e487a0      0x100 ../StereoCameraServer_bsp/libucosii_bsp.a(et_arp.o)
                0x00e487a0                arp_table
 COMMON         0x00e488a0       0x14 ../StereoCameraServer_bsp/libucosii_bsp.a(iface.o)
                0x00e488a0                netlist
 COMMON         0x00e488b4       0x50 ../StereoCameraServer_bsp/libucosii_bsp.a(ip.o)
                0x00e488b4                ip_mib
 COMMON         0x00e48904       0x18 ../StereoCameraServer_bsp/libucosii_bsp.a(ip_reasm.o)
                0x00e48904                ire_stats
 COMMON         0x00e4891c       0x10 ../StereoCameraServer_bsp/libucosii_bsp.a(udp.o)
                0x00e4891c                udp_mib
 COMMON         0x00e4892c       0x68 ../StereoCameraServer_bsp/libucosii_bsp.a(icmp.o)
                0x00e4892c                icmp_mib
 COMMON         0x00e48994      0x190 /opt/altera/10.1sp1/nios2eds/bin/gnu/H-i686-pc-linux-gnu/bin/../lib/gcc/nios2-elf/4.1.2/../../../../nios2-elf/lib/libc.a(lib_a-atexit.o)
                0x00e48994                _atexit0
                0x00e48b24                . = ALIGN (0x4)
                0x00e48b24                __bss_end = ABSOLUTE (.)

.sdram          0x00e48b24        0x0
                0x00e48b24                PROVIDE (_alt_partition_sdram_start, ABSOLUTE (.))
 *(.sdram. sdram.*)
                0x00e48b24                . = ALIGN (0x4)
                0x00e48b24                PROVIDE (_alt_partition_sdram_end, ABSOLUTE (.))
                0x00e48b24                _end = ABSOLUTE (.)
                0x00e48b24                end = ABSOLUTE (.)
                0x00e48b24                __alt_stack_base = ABSOLUTE (.)
                0x00e48b24                PROVIDE (_alt_partition_sdram_load_addr, LOADADDR (.sdram))

.ext_flash      0x01400020        0x0 load address 0x00e48b24
                0x01400020                PROVIDE (_alt_partition_ext_flash_start, ABSOLUTE (.))
 *(.ext_flash. ext_flash.*)
                0x01400020                . = ALIGN (0x4)
                0x01400020                PROVIDE (_alt_partition_ext_flash_end, ABSOLUTE (.))
                0x00e48b24                PROVIDE (_alt_partition_ext_flash_load_addr, LOADADDR (.ext_flash))

.memory         0x019041c0        0x0 load address 0x00e48b24
                0x019041c0                PROVIDE (_alt_partition_memory_start, ABSOLUTE (.))
 *(.memory. memory.*)
                0x019041c0                . = ALIGN (0x4)
                0x019041c0                PROVIDE (_alt_partition_memory_end, ABSOLUTE (.))
                0x00e48b24                PROVIDE (_alt_partition_memory_load_addr, LOADADDR (.memory))

.stab
 *(.stab)

.stabstr
 *(.stabstr)

.stab.excl
 *(.stab.excl)

.stab.exclstr
 *(.stab.exclstr)

.stab.index
 *(.stab.index)

.stab.indexstr
 *(.stab.indexstr)

.comment        0x00000000       0x23
 *(.comment)
 .comment       0x00000000       0x23 obj/alt_error_handler.o
                                 0x24 (size before relaxing)
 .comment       0x00000000       0x24 obj/altera_avalon_uart_init.o
 .comment       0x00000000       0x24 obj/altera_avalon_uart_read.o
 .comment       0x00000000       0x24 obj/http.o
 .comment       0x00000000       0x24 obj/network_utilities.o
 .comment       0x00000000       0x24 obj/srec_flash.o
 .comment       0x00000000       0x24 obj/web_server.o
 .comment       0x00000000       0x24 obj/Camera.o
 .comment       0x00000000       0x24 obj/StereoCamera.o
 .comment       0x00000000       0x24 obj/cam_control.o
 .comment       0x00000000       0x24 /opt/altera/10.1sp1/nios2eds/bin/gnu/H-i686-pc-linux-gnu/bin/../lib/gcc/nios2-elf/4.1.2/../../../../nios2-elf/lib/libstdc++.a(eh_personality.o)
 .comment       0x00000000       0x24 /opt/altera/10.1sp1/nios2eds/bin/gnu/H-i686-pc-linux-gnu/bin/../lib/gcc/nios2-elf/4.1.2/../../../../nios2-elf/lib/libstdc++.a(eh_globals.o)
 .comment       0x00000000       0x24 /opt/altera/10.1sp1/nios2eds/bin/gnu/H-i686-pc-linux-gnu/bin/../lib/gcc/nios2-elf/4.1.2/../../../../nios2-elf/lib/libstdc++.a(eh_throw.o)
 .comment       0x00000000       0x24 /opt/altera/10.1sp1/nios2eds/bin/gnu/H-i686-pc-linux-gnu/bin/../lib/gcc/nios2-elf/4.1.2/../../../../nios2-elf/lib/libstdc++.a(eh_call.o)
 .comment       0x00000000       0x24 /opt/altera/10.1sp1/nios2eds/bin/gnu/H-i686-pc-linux-gnu/bin/../lib/gcc/nios2-elf/4.1.2/../../../../nios2-elf/lib/libstdc++.a(eh_catch.o)
 .comment       0x00000000       0x24 /opt/altera/10.1sp1/nios2eds/bin/gnu/H-i686-pc-linux-gnu/bin/../lib/gcc/nios2-elf/4.1.2/../../../../nios2-elf/lib/libstdc++.a(eh_exception.o)
 .comment       0x00000000       0x24 /opt/altera/10.1sp1/nios2eds/bin/gnu/H-i686-pc-linux-gnu/bin/../lib/gcc/nios2-elf/4.1.2/../../../../nios2-elf/lib/libstdc++.a(eh_terminate.o)
 .comment       0x00000000       0x24 /opt/altera/10.1sp1/nios2eds/bin/gnu/H-i686-pc-linux-gnu/bin/../lib/gcc/nios2-elf/4.1.2/../../../../nios2-elf/lib/libstdc++.a(si_class_type_info.o)
 .comment       0x00000000       0x24 /opt/altera/10.1sp1/nios2eds/bin/gnu/H-i686-pc-linux-gnu/bin/../lib/gcc/nios2-elf/4.1.2/../../../../nios2-elf/lib/libstdc++.a(eh_alloc.o)
 .comment       0x00000000       0x24 /opt/altera/10.1sp1/nios2eds/bin/gnu/H-i686-pc-linux-gnu/bin/../lib/gcc/nios2-elf/4.1.2/../../../../nios2-elf/lib/libstdc++.a(eh_term_handler.o)
 .comment       0x00000000       0x24 /opt/altera/10.1sp1/nios2eds/bin/gnu/H-i686-pc-linux-gnu/bin/../lib/gcc/nios2-elf/4.1.2/../../../../nios2-elf/lib/libstdc++.a(tinfo.o)
 .comment       0x00000000       0x24 /opt/altera/10.1sp1/nios2eds/bin/gnu/H-i686-pc-linux-gnu/bin/../lib/gcc/nios2-elf/4.1.2/../../../../nios2-elf/lib/libstdc++.a(del_op.o)
 .comment       0x00000000       0x24 /opt/altera/10.1sp1/nios2eds/bin/gnu/H-i686-pc-linux-gnu/bin/../lib/gcc/nios2-elf/4.1.2/../../../../nios2-elf/lib/libstdc++.a(class_type_info.o)
 .comment       0x00000000       0x24 /opt/altera/10.1sp1/nios2eds/bin/gnu/H-i686-pc-linux-gnu/bin/../lib/gcc/nios2-elf/4.1.2/../../../../nios2-elf/lib/libstdc++.a(eh_unex_handler.o)
 .comment       0x00000000       0x24 /opt/altera/10.1sp1/nios2eds/bin/gnu/H-i686-pc-linux-gnu/bin/../lib/gcc/nios2-elf/4.1.2/libgcc.a(lib2-divmod.o)
 .comment       0x00000000       0x24 /opt/altera/10.1sp1/nios2eds/bin/gnu/H-i686-pc-linux-gnu/bin/../lib/gcc/nios2-elf/4.1.2/libgcc.a(unwind-dw2.o)
 .comment       0x00000000       0x24 /opt/altera/10.1sp1/nios2eds/bin/gnu/H-i686-pc-linux-gnu/bin/../lib/gcc/nios2-elf/4.1.2/libgcc.a(unwind-dw2-fde.o)
 .comment       0x00000000       0x24 /opt/altera/10.1sp1/nios2eds/bin/gnu/H-i686-pc-linux-gnu/bin/../lib/gcc/nios2-elf/4.1.2/../../../../nios2-elf/lib/libc.a(lib_a-abort.o)
 .comment       0x00000000       0x24 /opt/altera/10.1sp1/nios2eds/bin/gnu/H-i686-pc-linux-gnu/bin/../lib/gcc/nios2-elf/4.1.2/../../../../nios2-elf/lib/libc.a(lib_a-atoi.o)
 .comment       0x00000000       0x24 /opt/altera/10.1sp1/nios2eds/bin/gnu/H-i686-pc-linux-gnu/bin/../lib/gcc/nios2-elf/4.1.2/../../../../nios2-elf/lib/libc.a(lib_a-ctype_.o)
 .comment       0x00000000       0x24 /opt/altera/10.1sp1/nios2eds/bin/gnu/H-i686-pc-linux-gnu/bin/../lib/gcc/nios2-elf/4.1.2/../../../../nios2-elf/lib/libc.a(lib_a-fclose.o)
 .comment       0x00000000       0x24 /opt/altera/10.1sp1/nios2eds/bin/gnu/H-i686-pc-linux-gnu/bin/../lib/gcc/nios2-elf/4.1.2/../../../../nios2-elf/lib/libc.a(lib_a-fflush.o)
 .comment       0x00000000       0x24 /opt/altera/10.1sp1/nios2eds/bin/gnu/H-i686-pc-linux-gnu/bin/../lib/gcc/nios2-elf/4.1.2/../../../../nios2-elf/lib/libc.a(lib_a-fgetc.o)
 .comment       0x00000000       0x24 /opt/altera/10.1sp1/nios2eds/bin/gnu/H-i686-pc-linux-gnu/bin/../lib/gcc/nios2-elf/4.1.2/../../../../nios2-elf/lib/libc.a(lib_a-fgetpos.o)
 .comment       0x00000000       0x24 /opt/altera/10.1sp1/nios2eds/bin/gnu/H-i686-pc-linux-gnu/bin/../lib/gcc/nios2-elf/4.1.2/../../../../nios2-elf/lib/libc.a(lib_a-fileno.o)
 .comment       0x00000000       0x24 /opt/altera/10.1sp1/nios2eds/bin/gnu/H-i686-pc-linux-gnu/bin/../lib/gcc/nios2-elf/4.1.2/../../../../nios2-elf/lib/libc.a(lib_a-findfp.o)
 .comment       0x00000000       0x24 /opt/altera/10.1sp1/nios2eds/bin/gnu/H-i686-pc-linux-gnu/bin/../lib/gcc/nios2-elf/4.1.2/../../../../nios2-elf/lib/libc.a(lib_a-fopen.o)
 .comment       0x00000000       0x24 /opt/altera/10.1sp1/nios2eds/bin/gnu/H-i686-pc-linux-gnu/bin/../lib/gcc/nios2-elf/4.1.2/../../../../nios2-elf/lib/libc.a(lib_a-fprintf.o)
 .comment       0x00000000       0x24 /opt/altera/10.1sp1/nios2eds/bin/gnu/H-i686-pc-linux-gnu/bin/../lib/gcc/nios2-elf/4.1.2/../../../../nios2-elf/lib/libc.a(lib_a-fputc.o)
 .comment       0x00000000       0x24 /opt/altera/10.1sp1/nios2eds/bin/gnu/H-i686-pc-linux-gnu/bin/../lib/gcc/nios2-elf/4.1.2/../../../../nios2-elf/lib/libc.a(lib_a-fread.o)
 .comment       0x00000000       0x24 /opt/altera/10.1sp1/nios2eds/bin/gnu/H-i686-pc-linux-gnu/bin/../lib/gcc/nios2-elf/4.1.2/../../../../nios2-elf/lib/libc.a(lib_a-freer.o)
 .comment       0x00000000       0x24 /opt/altera/10.1sp1/nios2eds/bin/gnu/H-i686-pc-linux-gnu/bin/../lib/gcc/nios2-elf/4.1.2/../../../../nios2-elf/lib/libc.a(lib_a-fseek.o)
 .comment       0x00000000       0x24 /opt/altera/10.1sp1/nios2eds/bin/gnu/H-i686-pc-linux-gnu/bin/../lib/gcc/nios2-elf/4.1.2/../../../../nios2-elf/lib/libc.a(lib_a-fstatr.o)
 .comment       0x00000000       0x24 /opt/altera/10.1sp1/nios2eds/bin/gnu/H-i686-pc-linux-gnu/bin/../lib/gcc/nios2-elf/4.1.2/../../../../nios2-elf/lib/libc.a(lib_a-ftell.o)
 .comment       0x00000000       0x24 /opt/altera/10.1sp1/nios2eds/bin/gnu/H-i686-pc-linux-gnu/bin/../lib/gcc/nios2-elf/4.1.2/../../../../nios2-elf/lib/libc.a(lib_a-fwalk.o)
 .comment       0x00000000       0x24 /opt/altera/10.1sp1/nios2eds/bin/gnu/H-i686-pc-linux-gnu/bin/../lib/gcc/nios2-elf/4.1.2/../../../../nios2-elf/lib/libc.a(lib_a-fwrite.o)
 .comment       0x00000000       0x24 /opt/altera/10.1sp1/nios2eds/bin/gnu/H-i686-pc-linux-gnu/bin/../lib/gcc/nios2-elf/4.1.2/../../../../nios2-elf/lib/libc.a(lib_a-getc.o)
 .comment       0x00000000       0x24 /opt/altera/10.1sp1/nios2eds/bin/gnu/H-i686-pc-linux-gnu/bin/../lib/gcc/nios2-elf/4.1.2/../../../../nios2-elf/lib/libc.a(lib_a-impure.o)
 .comment       0x00000000       0x24 /opt/altera/10.1sp1/nios2eds/bin/gnu/H-i686-pc-linux-gnu/bin/../lib/gcc/nios2-elf/4.1.2/../../../../nios2-elf/lib/libc.a(lib_a-int_errno.o)
 .comment       0x00000000       0x24 /opt/altera/10.1sp1/nios2eds/bin/gnu/H-i686-pc-linux-gnu/bin/../lib/gcc/nios2-elf/4.1.2/../../../../nios2-elf/lib/libc.a(lib_a-makebuf.o)
 .comment       0x00000000       0x24 /opt/altera/10.1sp1/nios2eds/bin/gnu/H-i686-pc-linux-gnu/bin/../lib/gcc/nios2-elf/4.1.2/../../../../nios2-elf/lib/libc.a(lib_a-malloc.o)
 .comment       0x00000000       0x24 /opt/altera/10.1sp1/nios2eds/bin/gnu/H-i686-pc-linux-gnu/bin/../lib/gcc/nios2-elf/4.1.2/../../../../nios2-elf/lib/libc.a(lib_a-mallocr.o)
 .comment       0x00000000       0x24 /opt/altera/10.1sp1/nios2eds/bin/gnu/H-i686-pc-linux-gnu/bin/../lib/gcc/nios2-elf/4.1.2/../../../../nios2-elf/lib/libc.a(lib_a-memcpy.o)
 .comment       0x00000000       0x24 /opt/altera/10.1sp1/nios2eds/bin/gnu/H-i686-pc-linux-gnu/bin/../lib/gcc/nios2-elf/4.1.2/../../../../nios2-elf/lib/libc.a(lib_a-memmove.o)
 .comment       0x00000000       0x24 /opt/altera/10.1sp1/nios2eds/bin/gnu/H-i686-pc-linux-gnu/bin/../lib/gcc/nios2-elf/4.1.2/../../../../nios2-elf/lib/libc.a(lib_a-memset.o)
 .comment       0x00000000       0x24 /opt/altera/10.1sp1/nios2eds/bin/gnu/H-i686-pc-linux-gnu/bin/../lib/gcc/nios2-elf/4.1.2/../../../../nios2-elf/lib/libc.a(lib_a-openr.o)
 .comment       0x00000000       0x24 /opt/altera/10.1sp1/nios2eds/bin/gnu/H-i686-pc-linux-gnu/bin/../lib/gcc/nios2-elf/4.1.2/../../../../nios2-elf/lib/libc.a(lib_a-perror.o)
 .comment       0x00000000       0x24 /opt/altera/10.1sp1/nios2eds/bin/gnu/H-i686-pc-linux-gnu/bin/../lib/gcc/nios2-elf/4.1.2/../../../../nios2-elf/lib/libc.a(lib_a-printf.o)
 .comment       0x00000000       0x24 /opt/altera/10.1sp1/nios2eds/bin/gnu/H-i686-pc-linux-gnu/bin/../lib/gcc/nios2-elf/4.1.2/../../../../nios2-elf/lib/libc.a(lib_a-putc.o)
 .comment       0x00000000       0x24 /opt/altera/10.1sp1/nios2eds/bin/gnu/H-i686-pc-linux-gnu/bin/../lib/gcc/nios2-elf/4.1.2/../../../../nios2-elf/lib/libc.a(lib_a-putchar.o)
 .comment       0x00000000       0x24 /opt/altera/10.1sp1/nios2eds/bin/gnu/H-i686-pc-linux-gnu/bin/../lib/gcc/nios2-elf/4.1.2/../../../../nios2-elf/lib/libc.a(lib_a-puts.o)
 .comment       0x00000000       0x24 /opt/altera/10.1sp1/nios2eds/bin/gnu/H-i686-pc-linux-gnu/bin/../lib/gcc/nios2-elf/4.1.2/../../../../nios2-elf/lib/libc.a(lib_a-refill.o)
 .comment       0x00000000       0x24 /opt/altera/10.1sp1/nios2eds/bin/gnu/H-i686-pc-linux-gnu/bin/../lib/gcc/nios2-elf/4.1.2/../../../../nios2-elf/lib/libc.a(lib_a-rget.o)
 .comment       0x00000000       0x24 /opt/altera/10.1sp1/nios2eds/bin/gnu/H-i686-pc-linux-gnu/bin/../lib/gcc/nios2-elf/4.1.2/../../../../nios2-elf/lib/libc.a(lib_a-sbrkr.o)
 .comment       0x00000000       0x24 /opt/altera/10.1sp1/nios2eds/bin/gnu/H-i686-pc-linux-gnu/bin/../lib/gcc/nios2-elf/4.1.2/../../../../nios2-elf/lib/libc.a(lib_a-signal.o)
 .comment       0x00000000       0x24 /opt/altera/10.1sp1/nios2eds/bin/gnu/H-i686-pc-linux-gnu/bin/../lib/gcc/nios2-elf/4.1.2/../../../../nios2-elf/lib/libc.a(lib_a-signalr.o)
 .comment       0x00000000       0x24 /opt/altera/10.1sp1/nios2eds/bin/gnu/H-i686-pc-linux-gnu/bin/../lib/gcc/nios2-elf/4.1.2/../../../../nios2-elf/lib/libc.a(lib_a-sprintf.o)
 .comment       0x00000000       0x24 /opt/altera/10.1sp1/nios2eds/bin/gnu/H-i686-pc-linux-gnu/bin/../lib/gcc/nios2-elf/4.1.2/../../../../nios2-elf/lib/libc.a(lib_a-sscanf.o)
 .comment       0x00000000       0x24 /opt/altera/10.1sp1/nios2eds/bin/gnu/H-i686-pc-linux-gnu/bin/../lib/gcc/nios2-elf/4.1.2/../../../../nios2-elf/lib/libc.a(lib_a-stdio.o)
 .comment       0x00000000       0x24 /opt/altera/10.1sp1/nios2eds/bin/gnu/H-i686-pc-linux-gnu/bin/../lib/gcc/nios2-elf/4.1.2/../../../../nios2-elf/lib/libc.a(lib_a-strcasecmp.o)
 .comment       0x00000000       0x24 /opt/altera/10.1sp1/nios2eds/bin/gnu/H-i686-pc-linux-gnu/bin/../lib/gcc/nios2-elf/4.1.2/../../../../nios2-elf/lib/libc.a(lib_a-strcat.o)
 .comment       0x00000000       0x24 /opt/altera/10.1sp1/nios2eds/bin/gnu/H-i686-pc-linux-gnu/bin/../lib/gcc/nios2-elf/4.1.2/../../../../nios2-elf/lib/libc.a(lib_a-strchr.o)
 .comment       0x00000000       0x24 /opt/altera/10.1sp1/nios2eds/bin/gnu/H-i686-pc-linux-gnu/bin/../lib/gcc/nios2-elf/4.1.2/../../../../nios2-elf/lib/libc.a(lib_a-strcmp.o)
 .comment       0x00000000       0x24 /opt/altera/10.1sp1/nios2eds/bin/gnu/H-i686-pc-linux-gnu/bin/../lib/gcc/nios2-elf/4.1.2/../../../../nios2-elf/lib/libc.a(lib_a-strcpy.o)
 .comment       0x00000000       0x24 /opt/altera/10.1sp1/nios2eds/bin/gnu/H-i686-pc-linux-gnu/bin/../lib/gcc/nios2-elf/4.1.2/../../../../nios2-elf/lib/libc.a(lib_a-strerror.o)
 .comment       0x00000000       0x24 /opt/altera/10.1sp1/nios2eds/bin/gnu/H-i686-pc-linux-gnu/bin/../lib/gcc/nios2-elf/4.1.2/../../../../nios2-elf/lib/libc.a(lib_a-strlen.o)
 .comment       0x00000000       0x24 /opt/altera/10.1sp1/nios2eds/bin/gnu/H-i686-pc-linux-gnu/bin/../lib/gcc/nios2-elf/4.1.2/../../../../nios2-elf/lib/libc.a(lib_a-strncmp.o)
 .comment       0x00000000       0x24 /opt/altera/10.1sp1/nios2eds/bin/gnu/H-i686-pc-linux-gnu/bin/../lib/gcc/nios2-elf/4.1.2/../../../../nios2-elf/lib/libc.a(lib_a-strncpy.o)
 .comment       0x00000000       0x24 /opt/altera/10.1sp1/nios2eds/bin/gnu/H-i686-pc-linux-gnu/bin/../lib/gcc/nios2-elf/4.1.2/../../../../nios2-elf/lib/libc.a(lib_a-strstr.o)
 .comment       0x00000000       0x24 /opt/altera/10.1sp1/nios2eds/bin/gnu/H-i686-pc-linux-gnu/bin/../lib/gcc/nios2-elf/4.1.2/../../../../nios2-elf/lib/libc.a(lib_a-strtok.o)
 .comment       0x00000000       0x24 /opt/altera/10.1sp1/nios2eds/bin/gnu/H-i686-pc-linux-gnu/bin/../lib/gcc/nios2-elf/4.1.2/../../../../nios2-elf/lib/libc.a(lib_a-strtok_r.o)
 .comment       0x00000000       0x24 /opt/altera/10.1sp1/nios2eds/bin/gnu/H-i686-pc-linux-gnu/bin/../lib/gcc/nios2-elf/4.1.2/../../../../nios2-elf/lib/libc.a(lib_a-strtol.o)
 .comment       0x00000000       0x24 /opt/altera/10.1sp1/nios2eds/bin/gnu/H-i686-pc-linux-gnu/bin/../lib/gcc/nios2-elf/4.1.2/../../../../nios2-elf/lib/libc.a(lib_a-u_strerr.o)
 .comment       0x00000000       0x24 /opt/altera/10.1sp1/nios2eds/bin/gnu/H-i686-pc-linux-gnu/bin/../lib/gcc/nios2-elf/4.1.2/../../../../nios2-elf/lib/libc.a(lib_a-vfprintf.o)
 .comment       0x00000000       0x24 /opt/altera/10.1sp1/nios2eds/bin/gnu/H-i686-pc-linux-gnu/bin/../lib/gcc/nios2-elf/4.1.2/../../../../nios2-elf/lib/libc.a(lib_a-vfscanf.o)
 .comment       0x00000000       0x24 /opt/altera/10.1sp1/nios2eds/bin/gnu/H-i686-pc-linux-gnu/bin/../lib/gcc/nios2-elf/4.1.2/../../../../nios2-elf/lib/libc.a(lib_a-wbuf.o)
 .comment       0x00000000       0x24 /opt/altera/10.1sp1/nios2eds/bin/gnu/H-i686-pc-linux-gnu/bin/../lib/gcc/nios2-elf/4.1.2/../../../../nios2-elf/lib/libc.a(lib_a-writer.o)
 .comment       0x00000000       0x24 /opt/altera/10.1sp1/nios2eds/bin/gnu/H-i686-pc-linux-gnu/bin/../lib/gcc/nios2-elf/4.1.2/../../../../nios2-elf/lib/libc.a(lib_a-wsetup.o)
 .comment       0x00000000       0x24 /opt/altera/10.1sp1/nios2eds/bin/gnu/H-i686-pc-linux-gnu/bin/../lib/gcc/nios2-elf/4.1.2/../../../../nios2-elf/lib/libc.a(lib_a-closer.o)
 .comment       0x00000000       0x24 /opt/altera/10.1sp1/nios2eds/bin/gnu/H-i686-pc-linux-gnu/bin/../lib/gcc/nios2-elf/4.1.2/../../../../nios2-elf/lib/libc.a(lib_a-dtoa.o)
 .comment       0x00000000       0x24 /opt/altera/10.1sp1/nios2eds/bin/gnu/H-i686-pc-linux-gnu/bin/../lib/gcc/nios2-elf/4.1.2/../../../../nios2-elf/lib/libc.a(lib_a-flags.o)
 .comment       0x00000000       0x24 /opt/altera/10.1sp1/nios2eds/bin/gnu/H-i686-pc-linux-gnu/bin/../lib/gcc/nios2-elf/4.1.2/../../../../nios2-elf/lib/libc.a(lib_a-fputs.o)
 .comment       0x00000000       0x24 /opt/altera/10.1sp1/nios2eds/bin/gnu/H-i686-pc-linux-gnu/bin/../lib/gcc/nios2-elf/4.1.2/../../../../nios2-elf/lib/libc.a(lib_a-fvwrite.o)
 .comment       0x00000000       0x24 /opt/altera/10.1sp1/nios2eds/bin/gnu/H-i686-pc-linux-gnu/bin/../lib/gcc/nios2-elf/4.1.2/../../../../nios2-elf/lib/libc.a(lib_a-isattyr.o)
 .comment       0x00000000       0x24 /opt/altera/10.1sp1/nios2eds/bin/gnu/H-i686-pc-linux-gnu/bin/../lib/gcc/nios2-elf/4.1.2/../../../../nios2-elf/lib/libc.a(lib_a-iswspace.o)
 .comment       0x00000000       0x24 /opt/altera/10.1sp1/nios2eds/bin/gnu/H-i686-pc-linux-gnu/bin/../lib/gcc/nios2-elf/4.1.2/../../../../nios2-elf/lib/libc.a(lib_a-locale.o)
 .comment       0x00000000       0x24 /opt/altera/10.1sp1/nios2eds/bin/gnu/H-i686-pc-linux-gnu/bin/../lib/gcc/nios2-elf/4.1.2/../../../../nios2-elf/lib/libc.a(lib_a-lseekr.o)
 .comment       0x00000000       0x24 /opt/altera/10.1sp1/nios2eds/bin/gnu/H-i686-pc-linux-gnu/bin/../lib/gcc/nios2-elf/4.1.2/../../../../nios2-elf/lib/libc.a(lib_a-mbrtowc.o)
 .comment       0x00000000       0x24 /opt/altera/10.1sp1/nios2eds/bin/gnu/H-i686-pc-linux-gnu/bin/../lib/gcc/nios2-elf/4.1.2/../../../../nios2-elf/lib/libc.a(lib_a-mbtowc_r.o)
 .comment       0x00000000       0x24 /opt/altera/10.1sp1/nios2eds/bin/gnu/H-i686-pc-linux-gnu/bin/../lib/gcc/nios2-elf/4.1.2/../../../../nios2-elf/lib/libc.a(lib_a-memchr.o)
 .comment       0x00000000       0x24 /opt/altera/10.1sp1/nios2eds/bin/gnu/H-i686-pc-linux-gnu/bin/../lib/gcc/nios2-elf/4.1.2/../../../../nios2-elf/lib/libc.a(lib_a-memcmp.o)
 .comment       0x00000000       0x24 /opt/altera/10.1sp1/nios2eds/bin/gnu/H-i686-pc-linux-gnu/bin/../lib/gcc/nios2-elf/4.1.2/../../../../nios2-elf/lib/libc.a(lib_a-mprec.o)
 .comment       0x00000000       0x24 /opt/altera/10.1sp1/nios2eds/bin/gnu/H-i686-pc-linux-gnu/bin/../lib/gcc/nios2-elf/4.1.2/../../../../nios2-elf/lib/libc.a(lib_a-readr.o)
 .comment       0x00000000       0x24 /opt/altera/10.1sp1/nios2eds/bin/gnu/H-i686-pc-linux-gnu/bin/../lib/gcc/nios2-elf/4.1.2/../../../../nios2-elf/lib/libc.a(lib_a-reallocr.o)
 .comment       0x00000000       0x24 /opt/altera/10.1sp1/nios2eds/bin/gnu/H-i686-pc-linux-gnu/bin/../lib/gcc/nios2-elf/4.1.2/../../../../nios2-elf/lib/libc.a(lib_a-s_isinfd.o)
 .comment       0x00000000       0x24 /opt/altera/10.1sp1/nios2eds/bin/gnu/H-i686-pc-linux-gnu/bin/../lib/gcc/nios2-elf/4.1.2/../../../../nios2-elf/lib/libc.a(lib_a-s_isnand.o)
 .comment       0x00000000       0x24 /opt/altera/10.1sp1/nios2eds/bin/gnu/H-i686-pc-linux-gnu/bin/../lib/gcc/nios2-elf/4.1.2/../../../../nios2-elf/lib/libc.a(lib_a-sccl.o)
 .comment       0x00000000       0x24 /opt/altera/10.1sp1/nios2eds/bin/gnu/H-i686-pc-linux-gnu/bin/../lib/gcc/nios2-elf/4.1.2/../../../../nios2-elf/lib/libc.a(lib_a-sf_nan.o)
 .comment       0x00000000       0x24 /opt/altera/10.1sp1/nios2eds/bin/gnu/H-i686-pc-linux-gnu/bin/../lib/gcc/nios2-elf/4.1.2/../../../../nios2-elf/lib/libc.a(lib_a-strtod.o)
 .comment       0x00000000       0x24 /opt/altera/10.1sp1/nios2eds/bin/gnu/H-i686-pc-linux-gnu/bin/../lib/gcc/nios2-elf/4.1.2/../../../../nios2-elf/lib/libc.a(lib_a-strtoll_r.o)
 .comment       0x00000000       0x24 /opt/altera/10.1sp1/nios2eds/bin/gnu/H-i686-pc-linux-gnu/bin/../lib/gcc/nios2-elf/4.1.2/../../../../nios2-elf/lib/libc.a(lib_a-strtoul.o)
 .comment       0x00000000       0x24 /opt/altera/10.1sp1/nios2eds/bin/gnu/H-i686-pc-linux-gnu/bin/../lib/gcc/nios2-elf/4.1.2/../../../../nios2-elf/lib/libc.a(lib_a-strtoull_r.o)
 .comment       0x00000000       0x24 /opt/altera/10.1sp1/nios2eds/bin/gnu/H-i686-pc-linux-gnu/bin/../lib/gcc/nios2-elf/4.1.2/../../../../nios2-elf/lib/libc.a(lib_a-ungetc.o)
 .comment       0x00000000       0x24 /opt/altera/10.1sp1/nios2eds/bin/gnu/H-i686-pc-linux-gnu/bin/../lib/gcc/nios2-elf/4.1.2/../../../../nios2-elf/lib/libc.a(lib_a-callocr.o)
 .comment       0x00000000       0x24 /opt/altera/10.1sp1/nios2eds/bin/gnu/H-i686-pc-linux-gnu/bin/../lib/gcc/nios2-elf/4.1.2/../../../../nios2-elf/lib/libc.a(lib_a-gdtoa-gethex.o)
 .comment       0x00000000       0x24 /opt/altera/10.1sp1/nios2eds/bin/gnu/H-i686-pc-linux-gnu/bin/../lib/gcc/nios2-elf/4.1.2/../../../../nios2-elf/lib/libc.a(lib_a-gdtoa-hexnan.o)
 .comment       0x00000000       0x24 /opt/altera/10.1sp1/nios2eds/bin/gnu/H-i686-pc-linux-gnu/bin/../lib/gcc/nios2-elf/4.1.2/libgcc.a(_muldi3.o)
 .comment       0x00000000       0x24 /opt/altera/10.1sp1/nios2eds/bin/gnu/H-i686-pc-linux-gnu/bin/../lib/gcc/nios2-elf/4.1.2/libgcc.a(_fixunsdfsi.o)
 .comment       0x00000000       0x24 /opt/altera/10.1sp1/nios2eds/bin/gnu/H-i686-pc-linux-gnu/bin/../lib/gcc/nios2-elf/4.1.2/libgcc.a(_udivdi3.o)
 .comment       0x00000000       0x24 /opt/altera/10.1sp1/nios2eds/bin/gnu/H-i686-pc-linux-gnu/bin/../lib/gcc/nios2-elf/4.1.2/libgcc.a(_umoddi3.o)
 .comment       0x00000000       0x24 /opt/altera/10.1sp1/nios2eds/bin/gnu/H-i686-pc-linux-gnu/bin/../lib/gcc/nios2-elf/4.1.2/libgcc.a(_ne_sf.o)
 .comment       0x00000000       0x24 /opt/altera/10.1sp1/nios2eds/bin/gnu/H-i686-pc-linux-gnu/bin/../lib/gcc/nios2-elf/4.1.2/libgcc.a(_gt_sf.o)
 .comment       0x00000000       0x24 /opt/altera/10.1sp1/nios2eds/bin/gnu/H-i686-pc-linux-gnu/bin/../lib/gcc/nios2-elf/4.1.2/libgcc.a(_lt_sf.o)
 .comment       0x00000000       0x24 /opt/altera/10.1sp1/nios2eds/bin/gnu/H-i686-pc-linux-gnu/bin/../lib/gcc/nios2-elf/4.1.2/libgcc.a(_addsub_df.o)
 .comment       0x00000000       0x24 /opt/altera/10.1sp1/nios2eds/bin/gnu/H-i686-pc-linux-gnu/bin/../lib/gcc/nios2-elf/4.1.2/libgcc.a(_mul_df.o)
 .comment       0x00000000       0x24 /opt/altera/10.1sp1/nios2eds/bin/gnu/H-i686-pc-linux-gnu/bin/../lib/gcc/nios2-elf/4.1.2/libgcc.a(_div_df.o)
 .comment       0x00000000       0x24 /opt/altera/10.1sp1/nios2eds/bin/gnu/H-i686-pc-linux-gnu/bin/../lib/gcc/nios2-elf/4.1.2/libgcc.a(_eq_df.o)
 .comment       0x00000000       0x24 /opt/altera/10.1sp1/nios2eds/bin/gnu/H-i686-pc-linux-gnu/bin/../lib/gcc/nios2-elf/4.1.2/libgcc.a(_ne_df.o)
 .comment       0x00000000       0x24 /opt/altera/10.1sp1/nios2eds/bin/gnu/H-i686-pc-linux-gnu/bin/../lib/gcc/nios2-elf/4.1.2/libgcc.a(_gt_df.o)
 .comment       0x00000000       0x24 /opt/altera/10.1sp1/nios2eds/bin/gnu/H-i686-pc-linux-gnu/bin/../lib/gcc/nios2-elf/4.1.2/libgcc.a(_ge_df.o)
 .comment       0x00000000       0x24 /opt/altera/10.1sp1/nios2eds/bin/gnu/H-i686-pc-linux-gnu/bin/../lib/gcc/nios2-elf/4.1.2/libgcc.a(_lt_df.o)
 .comment       0x00000000       0x24 /opt/altera/10.1sp1/nios2eds/bin/gnu/H-i686-pc-linux-gnu/bin/../lib/gcc/nios2-elf/4.1.2/libgcc.a(_le_df.o)
 .comment       0x00000000       0x24 /opt/altera/10.1sp1/nios2eds/bin/gnu/H-i686-pc-linux-gnu/bin/../lib/gcc/nios2-elf/4.1.2/libgcc.a(_si_to_df.o)
 .comment       0x00000000       0x24 /opt/altera/10.1sp1/nios2eds/bin/gnu/H-i686-pc-linux-gnu/bin/../lib/gcc/nios2-elf/4.1.2/libgcc.a(_df_to_si.o)
 .comment       0x00000000       0x24 /opt/altera/10.1sp1/nios2eds/bin/gnu/H-i686-pc-linux-gnu/bin/../lib/gcc/nios2-elf/4.1.2/libgcc.a(_df_to_sf.o)
 .comment       0x00000000       0x24 /opt/altera/10.1sp1/nios2eds/bin/gnu/H-i686-pc-linux-gnu/bin/../lib/gcc/nios2-elf/4.1.2/libgcc.a(_thenan_df.o)
 .comment       0x00000000       0x24 /opt/altera/10.1sp1/nios2eds/bin/gnu/H-i686-pc-linux-gnu/bin/../lib/gcc/nios2-elf/4.1.2/libgcc.a(_usi_to_df.o)
 .comment       0x00000000       0x24 /opt/altera/10.1sp1/nios2eds/bin/gnu/H-i686-pc-linux-gnu/bin/../lib/gcc/nios2-elf/4.1.2/libgcc.a(_clz.o)
 .comment       0x00000000       0x24 /opt/altera/10.1sp1/nios2eds/bin/gnu/H-i686-pc-linux-gnu/bin/../lib/gcc/nios2-elf/4.1.2/libgcc.a(_clzsi2.o)
 .comment       0x00000000       0x24 /opt/altera/10.1sp1/nios2eds/bin/gnu/H-i686-pc-linux-gnu/bin/../lib/gcc/nios2-elf/4.1.2/libgcc.a(_unpack_sf.o)
 .comment       0x00000000       0x24 /opt/altera/10.1sp1/nios2eds/bin/gnu/H-i686-pc-linux-gnu/bin/../lib/gcc/nios2-elf/4.1.2/libgcc.a(_fpcmp_parts_sf.o)
 .comment       0x00000000       0x24 /opt/altera/10.1sp1/nios2eds/bin/gnu/H-i686-pc-linux-gnu/bin/../lib/gcc/nios2-elf/4.1.2/libgcc.a(_make_sf.o)
 .comment       0x00000000       0x24 /opt/altera/10.1sp1/nios2eds/bin/gnu/H-i686-pc-linux-gnu/bin/../lib/gcc/nios2-elf/4.1.2/libgcc.a(_pack_df.o)
 .comment       0x00000000       0x24 /opt/altera/10.1sp1/nios2eds/bin/gnu/H-i686-pc-linux-gnu/bin/../lib/gcc/nios2-elf/4.1.2/libgcc.a(_unpack_df.o)
 .comment       0x00000000       0x24 /opt/altera/10.1sp1/nios2eds/bin/gnu/H-i686-pc-linux-gnu/bin/../lib/gcc/nios2-elf/4.1.2/libgcc.a(_fpcmp_parts_df.o)
 .comment       0x00000000       0x24 /opt/altera/10.1sp1/nios2eds/bin/gnu/H-i686-pc-linux-gnu/bin/../lib/gcc/nios2-elf/4.1.2/libgcc.a(_pack_sf.o)
 .comment       0x00000000       0x24 ../StereoCameraServer_bsp/libucosii_bsp.a(alt_dcache_flush.o)
 .comment       0x00000000       0x24 ../StereoCameraServer_bsp/libucosii_bsp.a(alt_errno.o)
 .comment       0x00000000       0x24 ../StereoCameraServer_bsp/libucosii_bsp.a(alt_exit.o)
 .comment       0x00000000       0x24 ../StereoCameraServer_bsp/libucosii_bsp.a(alt_flash_dev.o)
 .comment       0x00000000       0x24 ../StereoCameraServer_bsp/libucosii_bsp.a(alt_fstat.o)
 .comment       0x00000000       0x24 ../StereoCameraServer_bsp/libucosii_bsp.a(alt_getpid.o)
 .comment       0x00000000       0x24 ../StereoCameraServer_bsp/libucosii_bsp.a(alt_irq_register.o)
 .comment       0x00000000       0x24 ../StereoCameraServer_bsp/libucosii_bsp.a(alt_irq_vars.o)
 .comment       0x00000000       0x24 ../StereoCameraServer_bsp/libucosii_bsp.a(alt_isatty.o)
 .comment       0x00000000       0x24 ../StereoCameraServer_bsp/libucosii_bsp.a(alt_kill.o)
 .comment       0x00000000       0x24 ../StereoCameraServer_bsp/libucosii_bsp.a(alt_load.o)
 .comment       0x00000000       0x24 ../StereoCameraServer_bsp/libucosii_bsp.a(alt_lseek.o)
 .comment       0x00000000       0x24 ../StereoCameraServer_bsp/libucosii_bsp.a(alt_main.o)
 .comment       0x00000000       0x24 ../StereoCameraServer_bsp/libucosii_bsp.a(alt_open.o)
 .comment       0x00000000       0x24 ../StereoCameraServer_bsp/libucosii_bsp.a(alt_release_fd.o)
 .comment       0x00000000       0x24 ../StereoCameraServer_bsp/libucosii_bsp.a(alt_sbrk.o)
 .comment       0x00000000       0x24 ../StereoCameraServer_bsp/libucosii_bsp.a(alt_tick.o)
 .comment       0x00000000       0x24 ../StereoCameraServer_bsp/libucosii_bsp.a(alt_env_lock.o)
 .comment       0x00000000       0x24 ../StereoCameraServer_bsp/libucosii_bsp.a(alt_malloc_lock.o)
 .comment       0x00000000       0x24 ../StereoCameraServer_bsp/libucosii_bsp.a(os_core.o)
 .comment       0x00000000       0x24 ../StereoCameraServer_bsp/libucosii_bsp.a(os_dbg.o)
 .comment       0x00000000       0x24 ../StereoCameraServer_bsp/libucosii_bsp.a(os_flag.o)
 .comment       0x00000000       0x24 ../StereoCameraServer_bsp/libucosii_bsp.a(os_mbox.o)
 .comment       0x00000000       0x24 ../StereoCameraServer_bsp/libucosii_bsp.a(os_mem.o)
 .comment       0x00000000       0x24 ../StereoCameraServer_bsp/libucosii_bsp.a(os_q.o)
 .comment       0x00000000       0x24 ../StereoCameraServer_bsp/libucosii_bsp.a(os_sem.o)
 .comment       0x00000000       0x24 ../StereoCameraServer_bsp/libucosii_bsp.a(os_task.o)
 .comment       0x00000000       0x24 ../StereoCameraServer_bsp/libucosii_bsp.a(os_time.o)
 .comment       0x00000000       0x24 ../StereoCameraServer_bsp/libucosii_bsp.a(alt_sys_init.o)
 .comment       0x00000000       0x24 ../StereoCameraServer_bsp/libucosii_bsp.a(altera_avalon_cfi_flash.o)
 .comment       0x00000000       0x24 ../StereoCameraServer_bsp/libucosii_bsp.a(altera_avalon_cfi_flash_table.o)
 .comment       0x00000000       0x24 ../StereoCameraServer_bsp/libucosii_bsp.a(altera_avalon_jtag_uart_fd.o)
 .comment       0x00000000       0x24 ../StereoCameraServer_bsp/libucosii_bsp.a(altera_avalon_jtag_uart_init.o)
 .comment       0x00000000       0x24 ../StereoCameraServer_bsp/libucosii_bsp.a(altera_avalon_jtag_uart_ioctl.o)
 .comment       0x00000000       0x24 ../StereoCameraServer_bsp/libucosii_bsp.a(altera_avalon_jtag_uart_read.o)
 .comment       0x00000000       0x24 ../StereoCameraServer_bsp/libucosii_bsp.a(altera_avalon_jtag_uart_write.o)
 .comment       0x00000000       0x24 ../StereoCameraServer_bsp/libucosii_bsp.a(altera_avalon_lcd_16207.o)
 .comment       0x00000000       0x24 ../StereoCameraServer_bsp/libucosii_bsp.a(altera_avalon_lcd_16207_fd.o)
 .comment       0x00000000       0x24 ../StereoCameraServer_bsp/libucosii_bsp.a(altera_avalon_timer_sc.o)
 .comment       0x00000000       0x24 ../StereoCameraServer_bsp/libucosii_bsp.a(altera_avalon_uart_fd.o)
 .comment       0x00000000       0x24 ../StereoCameraServer_bsp/libucosii_bsp.a(altera_avalon_uart_write.o)
 .comment       0x00000000       0x24 ../StereoCameraServer_bsp/libucosii_bsp.a(altera_ro_zipfs.o)
 .comment       0x00000000       0x24 ../StereoCameraServer_bsp/libucosii_bsp.a(dm9000a.o)
 .comment       0x00000000       0x24 ../StereoCameraServer_bsp/libucosii_bsp.a(alt_iniche_close.o)
 .comment       0x00000000       0x24 ../StereoCameraServer_bsp/libucosii_bsp.a(alt_iniche_dev.o)
 .comment       0x00000000       0x24 ../StereoCameraServer_bsp/libucosii_bsp.a(alt_iniche_fcntl.o)
 .comment       0x00000000       0x24 ../StereoCameraServer_bsp/libucosii_bsp.a(alt_iniche_read.o)
 .comment       0x00000000       0x24 ../StereoCameraServer_bsp/libucosii_bsp.a(alt_iniche_write.o)
 .comment       0x00000000       0x24 ../StereoCameraServer_bsp/libucosii_bsp.a(ipnet.o)
 .comment       0x00000000       0x24 ../StereoCameraServer_bsp/libucosii_bsp.a(ipstart.o)
 .comment       0x00000000       0x24 ../StereoCameraServer_bsp/libucosii_bsp.a(igmp_cmn.o)
 .comment       0x00000000       0x24 ../StereoCameraServer_bsp/libucosii_bsp.a(bsdsock.o)
 .comment       0x00000000       0x24 ../StereoCameraServer_bsp/libucosii_bsp.a(cksum.o)
 .comment       0x00000000       0x24 ../StereoCameraServer_bsp/libucosii_bsp.a(in_utils.o)
 .comment       0x00000000       0x24 ../StereoCameraServer_bsp/libucosii_bsp.a(netmain.o)
 .comment       0x00000000       0x24 ../StereoCameraServer_bsp/libucosii_bsp.a(tk_crnos.o)
 .comment       0x00000000       0x24 ../StereoCameraServer_bsp/libucosii_bsp.a(pktalloc.o)
 .comment       0x00000000       0x24 ../StereoCameraServer_bsp/libucosii_bsp.a(q.o)
 .comment       0x00000000       0x24 ../StereoCameraServer_bsp/libucosii_bsp.a(brdutils.o)
 .comment       0x00000000       0x24 ../StereoCameraServer_bsp/libucosii_bsp.a(osportco.o)
 .comment       0x00000000       0x24 ../StereoCameraServer_bsp/libucosii_bsp.a(targnios.o)
 .comment       0x00000000       0x24 ../StereoCameraServer_bsp/libucosii_bsp.a(nptcp.o)
 .comment       0x00000000       0x24 ../StereoCameraServer_bsp/libucosii_bsp.a(rawsock.o)
 .comment       0x00000000       0x24 ../StereoCameraServer_bsp/libucosii_bsp.a(sockcall.o)
 .comment       0x00000000       0x24 ../StereoCameraServer_bsp/libucosii_bsp.a(socket.o)
 .comment       0x00000000       0x24 ../StereoCameraServer_bsp/libucosii_bsp.a(socket2.o)
 .comment       0x00000000       0x24 ../StereoCameraServer_bsp/libucosii_bsp.a(soselect.o)
 .comment       0x00000000       0x24 ../StereoCameraServer_bsp/libucosii_bsp.a(tcp_in.o)
 .comment       0x00000000       0x24 ../StereoCameraServer_bsp/libucosii_bsp.a(tcp_out.o)
 .comment       0x00000000       0x24 ../StereoCameraServer_bsp/libucosii_bsp.a(tcp_subr.o)
 .comment       0x00000000       0x24 ../StereoCameraServer_bsp/libucosii_bsp.a(tcp_timr.o)
 .comment       0x00000000       0x24 ../StereoCameraServer_bsp/libucosii_bsp.a(tcp_usr.o)
 .comment       0x00000000       0x24 ../StereoCameraServer_bsp/libucosii_bsp.a(tcpport.o)
 .comment       0x00000000       0x24 ../StereoCameraServer_bsp/libucosii_bsp.a(udpsock.o)
 .comment       0x00000000       0x24 ../StereoCameraServer_bsp/libucosii_bsp.a(alt_alarm_start.o)
 .comment       0x00000000       0x24 ../StereoCameraServer_bsp/libucosii_bsp.a(alt_close.o)
 .comment       0x00000000       0x24 ../StereoCameraServer_bsp/libucosii_bsp.a(alt_dcache_flush_all.o)
 .comment       0x00000000       0x24 ../StereoCameraServer_bsp/libucosii_bsp.a(alt_dev.o)
 .comment       0x00000000       0x24 ../StereoCameraServer_bsp/libucosii_bsp.a(alt_dev_llist_insert.o)
 .comment       0x00000000       0x24 ../StereoCameraServer_bsp/libucosii_bsp.a(alt_do_ctors.o)
 .comment       0x00000000       0x24 ../StereoCameraServer_bsp/libucosii_bsp.a(alt_do_dtors.o)
 .comment       0x00000000       0x24 ../StereoCameraServer_bsp/libucosii_bsp.a(alt_fcntl.o)
 .comment       0x00000000       0x24 ../StereoCameraServer_bsp/libucosii_bsp.a(alt_find_dev.o)
 .comment       0x00000000       0x24 ../StereoCameraServer_bsp/libucosii_bsp.a(alt_find_file.o)
 .comment       0x00000000       0x24 ../StereoCameraServer_bsp/libucosii_bsp.a(alt_fs_reg.o)
 .comment       0x00000000       0x24 ../StereoCameraServer_bsp/libucosii_bsp.a(alt_get_fd.o)
 .comment       0x00000000       0x24 ../StereoCameraServer_bsp/libucosii_bsp.a(alt_icache_flush_all.o)
 .comment       0x00000000       0x24 ../StereoCameraServer_bsp/libucosii_bsp.a(alt_io_redirect.o)
 .comment       0x00000000       0x24 ../StereoCameraServer_bsp/libucosii_bsp.a(alt_irq_handler.o)
 .comment       0x00000000       0x24 ../StereoCameraServer_bsp/libucosii_bsp.a(alt_read.o)
 .comment       0x00000000       0x24 ../StereoCameraServer_bsp/libucosii_bsp.a(alt_remap_cached.o)
 .comment       0x00000000       0x24 ../StereoCameraServer_bsp/libucosii_bsp.a(alt_remap_uncached.o)
 .comment       0x00000000       0x24 ../StereoCameraServer_bsp/libucosii_bsp.a(alt_usleep.o)
 .comment       0x00000000       0x24 ../StereoCameraServer_bsp/libucosii_bsp.a(alt_write.o)
 .comment       0x00000000       0x24 ../StereoCameraServer_bsp/libucosii_bsp.a(altera_nios2_irq.o)
 .comment       0x00000000       0x24 ../StereoCameraServer_bsp/libucosii_bsp.a(os_cpu_c.o)
 .comment       0x00000000       0x24 ../StereoCameraServer_bsp/libucosii_bsp.a(altera_avalon_cfi_flash_amd.o)
 .comment       0x00000000       0x24 ../StereoCameraServer_bsp/libucosii_bsp.a(altera_avalon_cfi_flash_intel.o)
 .comment       0x00000000       0x24 ../StereoCameraServer_bsp/libucosii_bsp.a(allports.o)
 .comment       0x00000000       0x24 ../StereoCameraServer_bsp/libucosii_bsp.a(timeouts.o)
 .comment       0x00000000       0x24 ../StereoCameraServer_bsp/libucosii_bsp.a(tk_misc.o)
 .comment       0x00000000       0x24 ../StereoCameraServer_bsp/libucosii_bsp.a(et_arp.o)
 .comment       0x00000000       0x24 ../StereoCameraServer_bsp/libucosii_bsp.a(iface.o)
 .comment       0x00000000       0x24 ../StereoCameraServer_bsp/libucosii_bsp.a(ip.o)
 .comment       0x00000000       0x24 ../StereoCameraServer_bsp/libucosii_bsp.a(ip_reasm.o)
 .comment       0x00000000       0x24 ../StereoCameraServer_bsp/libucosii_bsp.a(ipdemux.o)
 .comment       0x00000000       0x24 ../StereoCameraServer_bsp/libucosii_bsp.a(ipmc.o)
 .comment       0x00000000       0x24 ../StereoCameraServer_bsp/libucosii_bsp.a(ipport.o)
 .comment       0x00000000       0x24 ../StereoCameraServer_bsp/libucosii_bsp.a(ipraw.o)
 .comment       0x00000000       0x24 ../StereoCameraServer_bsp/libucosii_bsp.a(iproute.o)
 .comment       0x00000000       0x24 ../StereoCameraServer_bsp/libucosii_bsp.a(udp.o)
 .comment       0x00000000       0x24 ../StereoCameraServer_bsp/libucosii_bsp.a(igmp.o)
 .comment       0x00000000       0x24 ../StereoCameraServer_bsp/libucosii_bsp.a(igmp2.o)
 .comment       0x00000000       0x24 ../StereoCameraServer_bsp/libucosii_bsp.a(ipopt.o)
 .comment       0x00000000       0x24 ../StereoCameraServer_bsp/libucosii_bsp.a(u_mctest.o)
 .comment       0x00000000       0x24 ../StereoCameraServer_bsp/libucosii_bsp.a(memdev.o)
 .comment       0x00000000       0x24 ../StereoCameraServer_bsp/libucosii_bsp.a(parseip.o)
 .comment       0x00000000       0x24 ../StereoCameraServer_bsp/libucosii_bsp.a(tcpcksum.o)
 .comment       0x00000000       0x24 ../StereoCameraServer_bsp/libucosii_bsp.a(udp_open.o)
 .comment       0x00000000       0x24 ../StereoCameraServer_bsp/libucosii_bsp.a(in_pcb.o)
 .comment       0x00000000       0x24 ../StereoCameraServer_bsp/libucosii_bsp.a(vfsfiles.o)
 .comment       0x00000000       0x24 ../StereoCameraServer_bsp/libucosii_bsp.a(vfsport.o)
 .comment       0x00000000       0x24 ../StereoCameraServer_bsp/libucosii_bsp.a(alt_busy_sleep.o)
 .comment       0x00000000       0x24 ../StereoCameraServer_bsp/libucosii_bsp.a(alt_icache_flush.o)
 .comment       0x00000000       0x24 ../StereoCameraServer_bsp/libucosii_bsp.a(icmp.o)
 .comment       0x00000000       0x24 /opt/altera/10.1sp1/nios2eds/bin/gnu/H-i686-pc-linux-gnu/bin/../lib/gcc/nios2-elf/4.1.2/../../../../nios2-elf/lib/libc.a(lib_a-atexit.o)
 .comment       0x00000000       0x24 /opt/altera/10.1sp1/nios2eds/bin/gnu/H-i686-pc-linux-gnu/bin/../lib/gcc/nios2-elf/4.1.2/../../../../nios2-elf/lib/libc.a(lib_a-calloc.o)
 .comment       0x00000000       0x24 /opt/altera/10.1sp1/nios2eds/bin/gnu/H-i686-pc-linux-gnu/bin/../lib/gcc/nios2-elf/4.1.2/../../../../nios2-elf/lib/libc.a(lib_a-exit.o)
 .comment       0x00000000       0x24 /opt/altera/10.1sp1/nios2eds/bin/gnu/H-i686-pc-linux-gnu/bin/../lib/gcc/nios2-elf/4.1.2/../../../../nios2-elf/lib/libc.a(lib_a-vprintf.o)
 .comment       0x00000000       0x24 /opt/altera/10.1sp1/nios2eds/bin/gnu/H-i686-pc-linux-gnu/bin/../lib/gcc/nios2-elf/4.1.2/../../../../nios2-elf/lib/libc.a(lib_a-vsprintf.o)
 .comment       0x00000000       0x24 /opt/altera/10.1sp1/nios2eds/bin/gnu/H-i686-pc-linux-gnu/bin/../lib/gcc/nios2-elf/4.1.2/../../../../nios2-elf/lib/libc.a(lib_a-__atexit.o)
 .comment       0x00000000       0x24 /opt/altera/10.1sp1/nios2eds/bin/gnu/H-i686-pc-linux-gnu/bin/../lib/gcc/nios2-elf/4.1.2/../../../../nios2-elf/lib/libc.a(lib_a-__call_atexit.o)

.debug
 *(.debug)

.line
 *(.line)

.debug_srcinfo
 *(.debug_srcinfo)

.debug_sfnames
 *(.debug_sfnames)

.debug_aranges  0x00000000     0x2278
 *(.debug_aranges)
 .debug_aranges
                0x00000000       0x28 ../StereoCameraServer_bsp/obj/HAL/src/crt0.o
 .debug_aranges
                0x00000028       0x20 obj/alt_error_handler.o
 .debug_aranges
                0x00000048       0x20 obj/altera_avalon_uart_init.o
 .debug_aranges
                0x00000068       0x20 obj/altera_avalon_uart_read.o
 .debug_aranges
                0x00000088       0x20 obj/http.o
 .debug_aranges
                0x000000a8       0x20 obj/network_utilities.o
 .debug_aranges
                0x000000c8       0x20 obj/srec_flash.o
 .debug_aranges
                0x000000e8       0x20 obj/web_server.o
 .debug_aranges
                0x00000108       0x20 obj/Camera.o
 .debug_aranges
                0x00000128       0x20 obj/StereoCamera.o
 .debug_aranges
                0x00000148       0x20 obj/cam_control.o
 .debug_aranges
                0x00000168       0x20 /opt/altera/10.1sp1/nios2eds/bin/gnu/H-i686-pc-linux-gnu/bin/../lib/gcc/nios2-elf/4.1.2/../../../../nios2-elf/lib/libstdc++.a(eh_personality.o)
 .debug_aranges
                0x00000188       0x20 /opt/altera/10.1sp1/nios2eds/bin/gnu/H-i686-pc-linux-gnu/bin/../lib/gcc/nios2-elf/4.1.2/../../../../nios2-elf/lib/libstdc++.a(eh_globals.o)
 .debug_aranges
                0x000001a8       0x20 /opt/altera/10.1sp1/nios2eds/bin/gnu/H-i686-pc-linux-gnu/bin/../lib/gcc/nios2-elf/4.1.2/../../../../nios2-elf/lib/libstdc++.a(eh_throw.o)
 .debug_aranges
                0x000001c8       0x20 /opt/altera/10.1sp1/nios2eds/bin/gnu/H-i686-pc-linux-gnu/bin/../lib/gcc/nios2-elf/4.1.2/../../../../nios2-elf/lib/libstdc++.a(eh_call.o)
 .debug_aranges
                0x000001e8       0x20 /opt/altera/10.1sp1/nios2eds/bin/gnu/H-i686-pc-linux-gnu/bin/../lib/gcc/nios2-elf/4.1.2/../../../../nios2-elf/lib/libstdc++.a(eh_catch.o)
 .debug_aranges
                0x00000208       0x20 /opt/altera/10.1sp1/nios2eds/bin/gnu/H-i686-pc-linux-gnu/bin/../lib/gcc/nios2-elf/4.1.2/../../../../nios2-elf/lib/libstdc++.a(eh_exception.o)
 .debug_aranges
                0x00000228       0x20 /opt/altera/10.1sp1/nios2eds/bin/gnu/H-i686-pc-linux-gnu/bin/../lib/gcc/nios2-elf/4.1.2/../../../../nios2-elf/lib/libstdc++.a(eh_terminate.o)
 .debug_aranges
                0x00000248       0x20 /opt/altera/10.1sp1/nios2eds/bin/gnu/H-i686-pc-linux-gnu/bin/../lib/gcc/nios2-elf/4.1.2/../../../../nios2-elf/lib/libstdc++.a(si_class_type_info.o)
 .debug_aranges
                0x00000268       0x20 /opt/altera/10.1sp1/nios2eds/bin/gnu/H-i686-pc-linux-gnu/bin/../lib/gcc/nios2-elf/4.1.2/../../../../nios2-elf/lib/libstdc++.a(eh_alloc.o)
 .debug_aranges
                0x00000288       0x20 /opt/altera/10.1sp1/nios2eds/bin/gnu/H-i686-pc-linux-gnu/bin/../lib/gcc/nios2-elf/4.1.2/../../../../nios2-elf/lib/libstdc++.a(tinfo.o)
 .debug_aranges
                0x000002a8       0x20 /opt/altera/10.1sp1/nios2eds/bin/gnu/H-i686-pc-linux-gnu/bin/../lib/gcc/nios2-elf/4.1.2/../../../../nios2-elf/lib/libstdc++.a(del_op.o)
 .debug_aranges
                0x000002c8       0x20 /opt/altera/10.1sp1/nios2eds/bin/gnu/H-i686-pc-linux-gnu/bin/../lib/gcc/nios2-elf/4.1.2/../../../../nios2-elf/lib/libstdc++.a(class_type_info.o)
 .debug_aranges
                0x000002e8       0x20 /opt/altera/10.1sp1/nios2eds/bin/gnu/H-i686-pc-linux-gnu/bin/../lib/gcc/nios2-elf/4.1.2/libgcc.a(lib2-divmod.o)
 .debug_aranges
                0x00000308       0x20 /opt/altera/10.1sp1/nios2eds/bin/gnu/H-i686-pc-linux-gnu/bin/../lib/gcc/nios2-elf/4.1.2/libgcc.a(unwind-dw2.o)
 .debug_aranges
                0x00000328       0x20 /opt/altera/10.1sp1/nios2eds/bin/gnu/H-i686-pc-linux-gnu/bin/../lib/gcc/nios2-elf/4.1.2/libgcc.a(unwind-dw2-fde.o)
 .debug_aranges
                0x00000348       0x20 /opt/altera/10.1sp1/nios2eds/bin/gnu/H-i686-pc-linux-gnu/bin/../lib/gcc/nios2-elf/4.1.2/../../../../nios2-elf/lib/libc.a(lib_a-abort.o)
 .debug_aranges
                0x00000368       0x20 /opt/altera/10.1sp1/nios2eds/bin/gnu/H-i686-pc-linux-gnu/bin/../lib/gcc/nios2-elf/4.1.2/../../../../nios2-elf/lib/libc.a(lib_a-atoi.o)
 .debug_aranges
                0x00000388       0x20 /opt/altera/10.1sp1/nios2eds/bin/gnu/H-i686-pc-linux-gnu/bin/../lib/gcc/nios2-elf/4.1.2/../../../../nios2-elf/lib/libc.a(lib_a-fclose.o)
 .debug_aranges
                0x000003a8       0x20 /opt/altera/10.1sp1/nios2eds/bin/gnu/H-i686-pc-linux-gnu/bin/../lib/gcc/nios2-elf/4.1.2/../../../../nios2-elf/lib/libc.a(lib_a-fflush.o)
 .debug_aranges
                0x000003c8       0x20 /opt/altera/10.1sp1/nios2eds/bin/gnu/H-i686-pc-linux-gnu/bin/../lib/gcc/nios2-elf/4.1.2/../../../../nios2-elf/lib/libc.a(lib_a-fgetc.o)
 .debug_aranges
                0x000003e8       0x20 /opt/altera/10.1sp1/nios2eds/bin/gnu/H-i686-pc-linux-gnu/bin/../lib/gcc/nios2-elf/4.1.2/../../../../nios2-elf/lib/libc.a(lib_a-fgetpos.o)
 .debug_aranges
                0x00000408       0x20 /opt/altera/10.1sp1/nios2eds/bin/gnu/H-i686-pc-linux-gnu/bin/../lib/gcc/nios2-elf/4.1.2/../../../../nios2-elf/lib/libc.a(lib_a-fileno.o)
 .debug_aranges
                0x00000428       0x20 /opt/altera/10.1sp1/nios2eds/bin/gnu/H-i686-pc-linux-gnu/bin/../lib/gcc/nios2-elf/4.1.2/../../../../nios2-elf/lib/libc.a(lib_a-findfp.o)
 .debug_aranges
                0x00000448       0x20 /opt/altera/10.1sp1/nios2eds/bin/gnu/H-i686-pc-linux-gnu/bin/../lib/gcc/nios2-elf/4.1.2/../../../../nios2-elf/lib/libc.a(lib_a-fopen.o)
 .debug_aranges
                0x00000468       0x20 /opt/altera/10.1sp1/nios2eds/bin/gnu/H-i686-pc-linux-gnu/bin/../lib/gcc/nios2-elf/4.1.2/../../../../nios2-elf/lib/libc.a(lib_a-fprintf.o)
 .debug_aranges
                0x00000488       0x20 /opt/altera/10.1sp1/nios2eds/bin/gnu/H-i686-pc-linux-gnu/bin/../lib/gcc/nios2-elf/4.1.2/../../../../nios2-elf/lib/libc.a(lib_a-fputc.o)
 .debug_aranges
                0x000004a8       0x20 /opt/altera/10.1sp1/nios2eds/bin/gnu/H-i686-pc-linux-gnu/bin/../lib/gcc/nios2-elf/4.1.2/../../../../nios2-elf/lib/libc.a(lib_a-fread.o)
 .debug_aranges
                0x000004c8       0x20 /opt/altera/10.1sp1/nios2eds/bin/gnu/H-i686-pc-linux-gnu/bin/../lib/gcc/nios2-elf/4.1.2/../../../../nios2-elf/lib/libc.a(lib_a-freer.o)
 .debug_aranges
                0x000004e8       0x20 /opt/altera/10.1sp1/nios2eds/bin/gnu/H-i686-pc-linux-gnu/bin/../lib/gcc/nios2-elf/4.1.2/../../../../nios2-elf/lib/libc.a(lib_a-fseek.o)
 .debug_aranges
                0x00000508       0x20 /opt/altera/10.1sp1/nios2eds/bin/gnu/H-i686-pc-linux-gnu/bin/../lib/gcc/nios2-elf/4.1.2/../../../../nios2-elf/lib/libc.a(lib_a-fstatr.o)
 .debug_aranges
                0x00000528       0x20 /opt/altera/10.1sp1/nios2eds/bin/gnu/H-i686-pc-linux-gnu/bin/../lib/gcc/nios2-elf/4.1.2/../../../../nios2-elf/lib/libc.a(lib_a-ftell.o)
 .debug_aranges
                0x00000548       0x20 /opt/altera/10.1sp1/nios2eds/bin/gnu/H-i686-pc-linux-gnu/bin/../lib/gcc/nios2-elf/4.1.2/../../../../nios2-elf/lib/libc.a(lib_a-fwalk.o)
 .debug_aranges
                0x00000568       0x20 /opt/altera/10.1sp1/nios2eds/bin/gnu/H-i686-pc-linux-gnu/bin/../lib/gcc/nios2-elf/4.1.2/../../../../nios2-elf/lib/libc.a(lib_a-fwrite.o)
 .debug_aranges
                0x00000588       0x20 /opt/altera/10.1sp1/nios2eds/bin/gnu/H-i686-pc-linux-gnu/bin/../lib/gcc/nios2-elf/4.1.2/../../../../nios2-elf/lib/libc.a(lib_a-getc.o)
 .debug_aranges
                0x000005a8       0x20 /opt/altera/10.1sp1/nios2eds/bin/gnu/H-i686-pc-linux-gnu/bin/../lib/gcc/nios2-elf/4.1.2/../../../../nios2-elf/lib/libc.a(lib_a-makebuf.o)
 .debug_aranges
                0x000005c8       0x20 /opt/altera/10.1sp1/nios2eds/bin/gnu/H-i686-pc-linux-gnu/bin/../lib/gcc/nios2-elf/4.1.2/../../../../nios2-elf/lib/libc.a(lib_a-malloc.o)
 .debug_aranges
                0x000005e8       0x20 /opt/altera/10.1sp1/nios2eds/bin/gnu/H-i686-pc-linux-gnu/bin/../lib/gcc/nios2-elf/4.1.2/../../../../nios2-elf/lib/libc.a(lib_a-mallocr.o)
 .debug_aranges
                0x00000608       0x20 /opt/altera/10.1sp1/nios2eds/bin/gnu/H-i686-pc-linux-gnu/bin/../lib/gcc/nios2-elf/4.1.2/../../../../nios2-elf/lib/libc.a(lib_a-memcpy.o)
 .debug_aranges
                0x00000628       0x20 /opt/altera/10.1sp1/nios2eds/bin/gnu/H-i686-pc-linux-gnu/bin/../lib/gcc/nios2-elf/4.1.2/../../../../nios2-elf/lib/libc.a(lib_a-memmove.o)
 .debug_aranges
                0x00000648       0x20 /opt/altera/10.1sp1/nios2eds/bin/gnu/H-i686-pc-linux-gnu/bin/../lib/gcc/nios2-elf/4.1.2/../../../../nios2-elf/lib/libc.a(lib_a-memset.o)
 .debug_aranges
                0x00000668       0x20 /opt/altera/10.1sp1/nios2eds/bin/gnu/H-i686-pc-linux-gnu/bin/../lib/gcc/nios2-elf/4.1.2/../../../../nios2-elf/lib/libc.a(lib_a-openr.o)
 .debug_aranges
                0x00000688       0x20 /opt/altera/10.1sp1/nios2eds/bin/gnu/H-i686-pc-linux-gnu/bin/../lib/gcc/nios2-elf/4.1.2/../../../../nios2-elf/lib/libc.a(lib_a-perror.o)
 .debug_aranges
                0x000006a8       0x20 /opt/altera/10.1sp1/nios2eds/bin/gnu/H-i686-pc-linux-gnu/bin/../lib/gcc/nios2-elf/4.1.2/../../../../nios2-elf/lib/libc.a(lib_a-printf.o)
 .debug_aranges
                0x000006c8       0x20 /opt/altera/10.1sp1/nios2eds/bin/gnu/H-i686-pc-linux-gnu/bin/../lib/gcc/nios2-elf/4.1.2/../../../../nios2-elf/lib/libc.a(lib_a-putc.o)
 .debug_aranges
                0x000006e8       0x20 /opt/altera/10.1sp1/nios2eds/bin/gnu/H-i686-pc-linux-gnu/bin/../lib/gcc/nios2-elf/4.1.2/../../../../nios2-elf/lib/libc.a(lib_a-putchar.o)
 .debug_aranges
                0x00000708       0x20 /opt/altera/10.1sp1/nios2eds/bin/gnu/H-i686-pc-linux-gnu/bin/../lib/gcc/nios2-elf/4.1.2/../../../../nios2-elf/lib/libc.a(lib_a-puts.o)
 .debug_aranges
                0x00000728       0x20 /opt/altera/10.1sp1/nios2eds/bin/gnu/H-i686-pc-linux-gnu/bin/../lib/gcc/nios2-elf/4.1.2/../../../../nios2-elf/lib/libc.a(lib_a-refill.o)
 .debug_aranges
                0x00000748       0x20 /opt/altera/10.1sp1/nios2eds/bin/gnu/H-i686-pc-linux-gnu/bin/../lib/gcc/nios2-elf/4.1.2/../../../../nios2-elf/lib/libc.a(lib_a-rget.o)
 .debug_aranges
                0x00000768       0x20 /opt/altera/10.1sp1/nios2eds/bin/gnu/H-i686-pc-linux-gnu/bin/../lib/gcc/nios2-elf/4.1.2/../../../../nios2-elf/lib/libc.a(lib_a-sbrkr.o)
 .debug_aranges
                0x00000788       0x20 /opt/altera/10.1sp1/nios2eds/bin/gnu/H-i686-pc-linux-gnu/bin/../lib/gcc/nios2-elf/4.1.2/../../../../nios2-elf/lib/libc.a(lib_a-signal.o)
 .debug_aranges
                0x000007a8       0x20 /opt/altera/10.1sp1/nios2eds/bin/gnu/H-i686-pc-linux-gnu/bin/../lib/gcc/nios2-elf/4.1.2/../../../../nios2-elf/lib/libc.a(lib_a-signalr.o)
 .debug_aranges
                0x000007c8       0x20 /opt/altera/10.1sp1/nios2eds/bin/gnu/H-i686-pc-linux-gnu/bin/../lib/gcc/nios2-elf/4.1.2/../../../../nios2-elf/lib/libc.a(lib_a-sprintf.o)
 .debug_aranges
                0x000007e8       0x20 /opt/altera/10.1sp1/nios2eds/bin/gnu/H-i686-pc-linux-gnu/bin/../lib/gcc/nios2-elf/4.1.2/../../../../nios2-elf/lib/libc.a(lib_a-sscanf.o)
 .debug_aranges
                0x00000808       0x20 /opt/altera/10.1sp1/nios2eds/bin/gnu/H-i686-pc-linux-gnu/bin/../lib/gcc/nios2-elf/4.1.2/../../../../nios2-elf/lib/libc.a(lib_a-stdio.o)
 .debug_aranges
                0x00000828       0x20 /opt/altera/10.1sp1/nios2eds/bin/gnu/H-i686-pc-linux-gnu/bin/../lib/gcc/nios2-elf/4.1.2/../../../../nios2-elf/lib/libc.a(lib_a-strcasecmp.o)
 .debug_aranges
                0x00000848       0x20 /opt/altera/10.1sp1/nios2eds/bin/gnu/H-i686-pc-linux-gnu/bin/../lib/gcc/nios2-elf/4.1.2/../../../../nios2-elf/lib/libc.a(lib_a-strcat.o)
 .debug_aranges
                0x00000868       0x20 /opt/altera/10.1sp1/nios2eds/bin/gnu/H-i686-pc-linux-gnu/bin/../lib/gcc/nios2-elf/4.1.2/../../../../nios2-elf/lib/libc.a(lib_a-strchr.o)
 .debug_aranges
                0x00000888       0x20 /opt/altera/10.1sp1/nios2eds/bin/gnu/H-i686-pc-linux-gnu/bin/../lib/gcc/nios2-elf/4.1.2/../../../../nios2-elf/lib/libc.a(lib_a-strcmp.o)
 .debug_aranges
                0x000008a8       0x20 /opt/altera/10.1sp1/nios2eds/bin/gnu/H-i686-pc-linux-gnu/bin/../lib/gcc/nios2-elf/4.1.2/../../../../nios2-elf/lib/libc.a(lib_a-strcpy.o)
 .debug_aranges
                0x000008c8       0x20 /opt/altera/10.1sp1/nios2eds/bin/gnu/H-i686-pc-linux-gnu/bin/../lib/gcc/nios2-elf/4.1.2/../../../../nios2-elf/lib/libc.a(lib_a-strerror.o)
 .debug_aranges
                0x000008e8       0x20 /opt/altera/10.1sp1/nios2eds/bin/gnu/H-i686-pc-linux-gnu/bin/../lib/gcc/nios2-elf/4.1.2/../../../../nios2-elf/lib/libc.a(lib_a-strlen.o)
 .debug_aranges
                0x00000908       0x20 /opt/altera/10.1sp1/nios2eds/bin/gnu/H-i686-pc-linux-gnu/bin/../lib/gcc/nios2-elf/4.1.2/../../../../nios2-elf/lib/libc.a(lib_a-strncmp.o)
 .debug_aranges
                0x00000928       0x20 /opt/altera/10.1sp1/nios2eds/bin/gnu/H-i686-pc-linux-gnu/bin/../lib/gcc/nios2-elf/4.1.2/../../../../nios2-elf/lib/libc.a(lib_a-strncpy.o)
 .debug_aranges
                0x00000948       0x20 /opt/altera/10.1sp1/nios2eds/bin/gnu/H-i686-pc-linux-gnu/bin/../lib/gcc/nios2-elf/4.1.2/../../../../nios2-elf/lib/libc.a(lib_a-strstr.o)
 .debug_aranges
                0x00000968       0x20 /opt/altera/10.1sp1/nios2eds/bin/gnu/H-i686-pc-linux-gnu/bin/../lib/gcc/nios2-elf/4.1.2/../../../../nios2-elf/lib/libc.a(lib_a-strtok.o)
 .debug_aranges
                0x00000988       0x20 /opt/altera/10.1sp1/nios2eds/bin/gnu/H-i686-pc-linux-gnu/bin/../lib/gcc/nios2-elf/4.1.2/../../../../nios2-elf/lib/libc.a(lib_a-strtok_r.o)
 .debug_aranges
                0x000009a8       0x20 /opt/altera/10.1sp1/nios2eds/bin/gnu/H-i686-pc-linux-gnu/bin/../lib/gcc/nios2-elf/4.1.2/../../../../nios2-elf/lib/libc.a(lib_a-strtol.o)
 .debug_aranges
                0x000009c8       0x20 /opt/altera/10.1sp1/nios2eds/bin/gnu/H-i686-pc-linux-gnu/bin/../lib/gcc/nios2-elf/4.1.2/../../../../nios2-elf/lib/libc.a(lib_a-u_strerr.o)
 .debug_aranges
                0x000009e8       0x20 /opt/altera/10.1sp1/nios2eds/bin/gnu/H-i686-pc-linux-gnu/bin/../lib/gcc/nios2-elf/4.1.2/../../../../nios2-elf/lib/libc.a(lib_a-vfprintf.o)
 .debug_aranges
                0x00000a08       0x20 /opt/altera/10.1sp1/nios2eds/bin/gnu/H-i686-pc-linux-gnu/bin/../lib/gcc/nios2-elf/4.1.2/../../../../nios2-elf/lib/libc.a(lib_a-vfscanf.o)
 .debug_aranges
                0x00000a28       0x20 /opt/altera/10.1sp1/nios2eds/bin/gnu/H-i686-pc-linux-gnu/bin/../lib/gcc/nios2-elf/4.1.2/../../../../nios2-elf/lib/libc.a(lib_a-wbuf.o)
 .debug_aranges
                0x00000a48       0x20 /opt/altera/10.1sp1/nios2eds/bin/gnu/H-i686-pc-linux-gnu/bin/../lib/gcc/nios2-elf/4.1.2/../../../../nios2-elf/lib/libc.a(lib_a-writer.o)
 .debug_aranges
                0x00000a68       0x20 /opt/altera/10.1sp1/nios2eds/bin/gnu/H-i686-pc-linux-gnu/bin/../lib/gcc/nios2-elf/4.1.2/../../../../nios2-elf/lib/libc.a(lib_a-wsetup.o)
 .debug_aranges
                0x00000a88       0x20 /opt/altera/10.1sp1/nios2eds/bin/gnu/H-i686-pc-linux-gnu/bin/../lib/gcc/nios2-elf/4.1.2/../../../../nios2-elf/lib/libc.a(lib_a-closer.o)
 .debug_aranges
                0x00000aa8       0x20 /opt/altera/10.1sp1/nios2eds/bin/gnu/H-i686-pc-linux-gnu/bin/../lib/gcc/nios2-elf/4.1.2/../../../../nios2-elf/lib/libc.a(lib_a-dtoa.o)
 .debug_aranges
                0x00000ac8       0x20 /opt/altera/10.1sp1/nios2eds/bin/gnu/H-i686-pc-linux-gnu/bin/../lib/gcc/nios2-elf/4.1.2/../../../../nios2-elf/lib/libc.a(lib_a-flags.o)
 .debug_aranges
                0x00000ae8       0x20 /opt/altera/10.1sp1/nios2eds/bin/gnu/H-i686-pc-linux-gnu/bin/../lib/gcc/nios2-elf/4.1.2/../../../../nios2-elf/lib/libc.a(lib_a-fputs.o)
 .debug_aranges
                0x00000b08       0x20 /opt/altera/10.1sp1/nios2eds/bin/gnu/H-i686-pc-linux-gnu/bin/../lib/gcc/nios2-elf/4.1.2/../../../../nios2-elf/lib/libc.a(lib_a-fvwrite.o)
 .debug_aranges
                0x00000b28       0x20 /opt/altera/10.1sp1/nios2eds/bin/gnu/H-i686-pc-linux-gnu/bin/../lib/gcc/nios2-elf/4.1.2/../../../../nios2-elf/lib/libc.a(lib_a-isattyr.o)
 .debug_aranges
                0x00000b48       0x20 /opt/altera/10.1sp1/nios2eds/bin/gnu/H-i686-pc-linux-gnu/bin/../lib/gcc/nios2-elf/4.1.2/../../../../nios2-elf/lib/libc.a(lib_a-iswspace.o)
 .debug_aranges
                0x00000b68       0x20 /opt/altera/10.1sp1/nios2eds/bin/gnu/H-i686-pc-linux-gnu/bin/../lib/gcc/nios2-elf/4.1.2/../../../../nios2-elf/lib/libc.a(lib_a-locale.o)
 .debug_aranges
                0x00000b88       0x20 /opt/altera/10.1sp1/nios2eds/bin/gnu/H-i686-pc-linux-gnu/bin/../lib/gcc/nios2-elf/4.1.2/../../../../nios2-elf/lib/libc.a(lib_a-lseekr.o)
 .debug_aranges
                0x00000ba8       0x20 /opt/altera/10.1sp1/nios2eds/bin/gnu/H-i686-pc-linux-gnu/bin/../lib/gcc/nios2-elf/4.1.2/../../../../nios2-elf/lib/libc.a(lib_a-mbrtowc.o)
 .debug_aranges
                0x00000bc8       0x20 /opt/altera/10.1sp1/nios2eds/bin/gnu/H-i686-pc-linux-gnu/bin/../lib/gcc/nios2-elf/4.1.2/../../../../nios2-elf/lib/libc.a(lib_a-mbtowc_r.o)
 .debug_aranges
                0x00000be8       0x20 /opt/altera/10.1sp1/nios2eds/bin/gnu/H-i686-pc-linux-gnu/bin/../lib/gcc/nios2-elf/4.1.2/../../../../nios2-elf/lib/libc.a(lib_a-memchr.o)
 .debug_aranges
                0x00000c08       0x20 /opt/altera/10.1sp1/nios2eds/bin/gnu/H-i686-pc-linux-gnu/bin/../lib/gcc/nios2-elf/4.1.2/../../../../nios2-elf/lib/libc.a(lib_a-memcmp.o)
 .debug_aranges
                0x00000c28       0x20 /opt/altera/10.1sp1/nios2eds/bin/gnu/H-i686-pc-linux-gnu/bin/../lib/gcc/nios2-elf/4.1.2/../../../../nios2-elf/lib/libc.a(lib_a-mprec.o)
 .debug_aranges
                0x00000c48       0x20 /opt/altera/10.1sp1/nios2eds/bin/gnu/H-i686-pc-linux-gnu/bin/../lib/gcc/nios2-elf/4.1.2/../../../../nios2-elf/lib/libc.a(lib_a-readr.o)
 .debug_aranges
                0x00000c68       0x20 /opt/altera/10.1sp1/nios2eds/bin/gnu/H-i686-pc-linux-gnu/bin/../lib/gcc/nios2-elf/4.1.2/../../../../nios2-elf/lib/libc.a(lib_a-reallocr.o)
 .debug_aranges
                0x00000c88       0x20 /opt/altera/10.1sp1/nios2eds/bin/gnu/H-i686-pc-linux-gnu/bin/../lib/gcc/nios2-elf/4.1.2/../../../../nios2-elf/lib/libc.a(lib_a-s_isinfd.o)
 .debug_aranges
                0x00000ca8       0x20 /opt/altera/10.1sp1/nios2eds/bin/gnu/H-i686-pc-linux-gnu/bin/../lib/gcc/nios2-elf/4.1.2/../../../../nios2-elf/lib/libc.a(lib_a-s_isnand.o)
 .debug_aranges
                0x00000cc8       0x20 /opt/altera/10.1sp1/nios2eds/bin/gnu/H-i686-pc-linux-gnu/bin/../lib/gcc/nios2-elf/4.1.2/../../../../nios2-elf/lib/libc.a(lib_a-sccl.o)
 .debug_aranges
                0x00000ce8       0x20 /opt/altera/10.1sp1/nios2eds/bin/gnu/H-i686-pc-linux-gnu/bin/../lib/gcc/nios2-elf/4.1.2/../../../../nios2-elf/lib/libc.a(lib_a-sf_nan.o)
 .debug_aranges
                0x00000d08       0x20 /opt/altera/10.1sp1/nios2eds/bin/gnu/H-i686-pc-linux-gnu/bin/../lib/gcc/nios2-elf/4.1.2/../../../../nios2-elf/lib/libc.a(lib_a-strtod.o)
 .debug_aranges
                0x00000d28       0x20 /opt/altera/10.1sp1/nios2eds/bin/gnu/H-i686-pc-linux-gnu/bin/../lib/gcc/nios2-elf/4.1.2/../../../../nios2-elf/lib/libc.a(lib_a-strtoll_r.o)
 .debug_aranges
                0x00000d48       0x20 /opt/altera/10.1sp1/nios2eds/bin/gnu/H-i686-pc-linux-gnu/bin/../lib/gcc/nios2-elf/4.1.2/../../../../nios2-elf/lib/libc.a(lib_a-strtoul.o)
 .debug_aranges
                0x00000d68       0x20 /opt/altera/10.1sp1/nios2eds/bin/gnu/H-i686-pc-linux-gnu/bin/../lib/gcc/nios2-elf/4.1.2/../../../../nios2-elf/lib/libc.a(lib_a-strtoull_r.o)
 .debug_aranges
                0x00000d88       0x20 /opt/altera/10.1sp1/nios2eds/bin/gnu/H-i686-pc-linux-gnu/bin/../lib/gcc/nios2-elf/4.1.2/../../../../nios2-elf/lib/libc.a(lib_a-ungetc.o)
 .debug_aranges
                0x00000da8       0x20 /opt/altera/10.1sp1/nios2eds/bin/gnu/H-i686-pc-linux-gnu/bin/../lib/gcc/nios2-elf/4.1.2/../../../../nios2-elf/lib/libc.a(lib_a-callocr.o)
 .debug_aranges
                0x00000dc8       0x20 /opt/altera/10.1sp1/nios2eds/bin/gnu/H-i686-pc-linux-gnu/bin/../lib/gcc/nios2-elf/4.1.2/../../../../nios2-elf/lib/libc.a(lib_a-gdtoa-gethex.o)
 .debug_aranges
                0x00000de8       0x20 /opt/altera/10.1sp1/nios2eds/bin/gnu/H-i686-pc-linux-gnu/bin/../lib/gcc/nios2-elf/4.1.2/../../../../nios2-elf/lib/libc.a(lib_a-gdtoa-hexnan.o)
 .debug_aranges
                0x00000e08       0x20 /opt/altera/10.1sp1/nios2eds/bin/gnu/H-i686-pc-linux-gnu/bin/../lib/gcc/nios2-elf/4.1.2/libgcc.a(_muldi3.o)
 .debug_aranges
                0x00000e28       0x20 /opt/altera/10.1sp1/nios2eds/bin/gnu/H-i686-pc-linux-gnu/bin/../lib/gcc/nios2-elf/4.1.2/libgcc.a(_fixunsdfsi.o)
 .debug_aranges
                0x00000e48       0x20 /opt/altera/10.1sp1/nios2eds/bin/gnu/H-i686-pc-linux-gnu/bin/../lib/gcc/nios2-elf/4.1.2/libgcc.a(_udivdi3.o)
 .debug_aranges
                0x00000e68       0x20 /opt/altera/10.1sp1/nios2eds/bin/gnu/H-i686-pc-linux-gnu/bin/../lib/gcc/nios2-elf/4.1.2/libgcc.a(_umoddi3.o)
 .debug_aranges
                0x00000e88       0x20 /opt/altera/10.1sp1/nios2eds/bin/gnu/H-i686-pc-linux-gnu/bin/../lib/gcc/nios2-elf/4.1.2/libgcc.a(_ne_sf.o)
 .debug_aranges
                0x00000ea8       0x20 /opt/altera/10.1sp1/nios2eds/bin/gnu/H-i686-pc-linux-gnu/bin/../lib/gcc/nios2-elf/4.1.2/libgcc.a(_gt_sf.o)
 .debug_aranges
                0x00000ec8       0x20 /opt/altera/10.1sp1/nios2eds/bin/gnu/H-i686-pc-linux-gnu/bin/../lib/gcc/nios2-elf/4.1.2/libgcc.a(_lt_sf.o)
 .debug_aranges
                0x00000ee8       0x20 /opt/altera/10.1sp1/nios2eds/bin/gnu/H-i686-pc-linux-gnu/bin/../lib/gcc/nios2-elf/4.1.2/libgcc.a(_addsub_df.o)
 .debug_aranges
                0x00000f08       0x20 /opt/altera/10.1sp1/nios2eds/bin/gnu/H-i686-pc-linux-gnu/bin/../lib/gcc/nios2-elf/4.1.2/libgcc.a(_mul_df.o)
 .debug_aranges
                0x00000f28       0x20 /opt/altera/10.1sp1/nios2eds/bin/gnu/H-i686-pc-linux-gnu/bin/../lib/gcc/nios2-elf/4.1.2/libgcc.a(_div_df.o)
 .debug_aranges
                0x00000f48       0x20 /opt/altera/10.1sp1/nios2eds/bin/gnu/H-i686-pc-linux-gnu/bin/../lib/gcc/nios2-elf/4.1.2/libgcc.a(_eq_df.o)
 .debug_aranges
                0x00000f68       0x20 /opt/altera/10.1sp1/nios2eds/bin/gnu/H-i686-pc-linux-gnu/bin/../lib/gcc/nios2-elf/4.1.2/libgcc.a(_ne_df.o)
 .debug_aranges
                0x00000f88       0x20 /opt/altera/10.1sp1/nios2eds/bin/gnu/H-i686-pc-linux-gnu/bin/../lib/gcc/nios2-elf/4.1.2/libgcc.a(_gt_df.o)
 .debug_aranges
                0x00000fa8       0x20 /opt/altera/10.1sp1/nios2eds/bin/gnu/H-i686-pc-linux-gnu/bin/../lib/gcc/nios2-elf/4.1.2/libgcc.a(_ge_df.o)
 .debug_aranges
                0x00000fc8       0x20 /opt/altera/10.1sp1/nios2eds/bin/gnu/H-i686-pc-linux-gnu/bin/../lib/gcc/nios2-elf/4.1.2/libgcc.a(_lt_df.o)
 .debug_aranges
                0x00000fe8       0x20 /opt/altera/10.1sp1/nios2eds/bin/gnu/H-i686-pc-linux-gnu/bin/../lib/gcc/nios2-elf/4.1.2/libgcc.a(_le_df.o)
 .debug_aranges
                0x00001008       0x20 /opt/altera/10.1sp1/nios2eds/bin/gnu/H-i686-pc-linux-gnu/bin/../lib/gcc/nios2-elf/4.1.2/libgcc.a(_si_to_df.o)
 .debug_aranges
                0x00001028       0x20 /opt/altera/10.1sp1/nios2eds/bin/gnu/H-i686-pc-linux-gnu/bin/../lib/gcc/nios2-elf/4.1.2/libgcc.a(_df_to_si.o)
 .debug_aranges
                0x00001048       0x20 /opt/altera/10.1sp1/nios2eds/bin/gnu/H-i686-pc-linux-gnu/bin/../lib/gcc/nios2-elf/4.1.2/libgcc.a(_df_to_sf.o)
 .debug_aranges
                0x00001068       0x20 /opt/altera/10.1sp1/nios2eds/bin/gnu/H-i686-pc-linux-gnu/bin/../lib/gcc/nios2-elf/4.1.2/libgcc.a(_usi_to_df.o)
 .debug_aranges
                0x00001088       0x20 /opt/altera/10.1sp1/nios2eds/bin/gnu/H-i686-pc-linux-gnu/bin/../lib/gcc/nios2-elf/4.1.2/libgcc.a(_clzsi2.o)
 .debug_aranges
                0x000010a8       0x20 /opt/altera/10.1sp1/nios2eds/bin/gnu/H-i686-pc-linux-gnu/bin/../lib/gcc/nios2-elf/4.1.2/libgcc.a(_unpack_sf.o)
 .debug_aranges
                0x000010c8       0x20 /opt/altera/10.1sp1/nios2eds/bin/gnu/H-i686-pc-linux-gnu/bin/../lib/gcc/nios2-elf/4.1.2/libgcc.a(_fpcmp_parts_sf.o)
 .debug_aranges
                0x000010e8       0x20 /opt/altera/10.1sp1/nios2eds/bin/gnu/H-i686-pc-linux-gnu/bin/../lib/gcc/nios2-elf/4.1.2/libgcc.a(_make_sf.o)
 .debug_aranges
                0x00001108       0x20 /opt/altera/10.1sp1/nios2eds/bin/gnu/H-i686-pc-linux-gnu/bin/../lib/gcc/nios2-elf/4.1.2/libgcc.a(_pack_df.o)
 .debug_aranges
                0x00001128       0x20 /opt/altera/10.1sp1/nios2eds/bin/gnu/H-i686-pc-linux-gnu/bin/../lib/gcc/nios2-elf/4.1.2/libgcc.a(_unpack_df.o)
 .debug_aranges
                0x00001148       0x20 /opt/altera/10.1sp1/nios2eds/bin/gnu/H-i686-pc-linux-gnu/bin/../lib/gcc/nios2-elf/4.1.2/libgcc.a(_fpcmp_parts_df.o)
 .debug_aranges
                0x00001168       0x20 /opt/altera/10.1sp1/nios2eds/bin/gnu/H-i686-pc-linux-gnu/bin/../lib/gcc/nios2-elf/4.1.2/libgcc.a(_pack_sf.o)
 .debug_aranges
                0x00001188       0x20 ../StereoCameraServer_bsp/libucosii_bsp.a(alt_dcache_flush.o)
 .debug_aranges
                0x000011a8       0x20 ../StereoCameraServer_bsp/libucosii_bsp.a(alt_exit.o)
 .debug_aranges
                0x000011c8       0x20 ../StereoCameraServer_bsp/libucosii_bsp.a(alt_flash_dev.o)
 .debug_aranges
                0x000011e8       0x20 ../StereoCameraServer_bsp/libucosii_bsp.a(alt_fstat.o)
 .debug_aranges
                0x00001208       0x20 ../StereoCameraServer_bsp/libucosii_bsp.a(alt_getpid.o)
 .debug_aranges
                0x00001228       0x20 ../StereoCameraServer_bsp/libucosii_bsp.a(alt_irq_register.o)
 .debug_aranges
                0x00001248       0x20 ../StereoCameraServer_bsp/libucosii_bsp.a(alt_isatty.o)
 .debug_aranges
                0x00001268       0x20 ../StereoCameraServer_bsp/libucosii_bsp.a(alt_kill.o)
 .debug_aranges
                0x00001288       0x20 ../StereoCameraServer_bsp/libucosii_bsp.a(alt_load.o)
 .debug_aranges
                0x000012a8       0x20 ../StereoCameraServer_bsp/libucosii_bsp.a(alt_lseek.o)
 .debug_aranges
                0x000012c8       0x20 ../StereoCameraServer_bsp/libucosii_bsp.a(alt_main.o)
 .debug_aranges
                0x000012e8       0x20 ../StereoCameraServer_bsp/libucosii_bsp.a(alt_open.o)
 .debug_aranges
                0x00001308       0x20 ../StereoCameraServer_bsp/libucosii_bsp.a(alt_release_fd.o)
 .debug_aranges
                0x00001328       0x20 ../StereoCameraServer_bsp/libucosii_bsp.a(alt_sbrk.o)
 .debug_aranges
                0x00001348       0x20 ../StereoCameraServer_bsp/libucosii_bsp.a(alt_tick.o)
 .debug_aranges
                0x00001368       0x20 ../StereoCameraServer_bsp/libucosii_bsp.a(alt_env_lock.o)
 .debug_aranges
                0x00001388       0x20 ../StereoCameraServer_bsp/libucosii_bsp.a(alt_malloc_lock.o)
 .debug_aranges
                0x000013a8       0x20 ../StereoCameraServer_bsp/libucosii_bsp.a(os_core.o)
 .debug_aranges
                0x000013c8       0x20 ../StereoCameraServer_bsp/libucosii_bsp.a(os_dbg.o)
 .debug_aranges
                0x000013e8       0x20 ../StereoCameraServer_bsp/libucosii_bsp.a(os_flag.o)
 .debug_aranges
                0x00001408       0x20 ../StereoCameraServer_bsp/libucosii_bsp.a(os_mbox.o)
 .debug_aranges
                0x00001428       0x20 ../StereoCameraServer_bsp/libucosii_bsp.a(os_mem.o)
 .debug_aranges
                0x00001448       0x20 ../StereoCameraServer_bsp/libucosii_bsp.a(os_q.o)
 .debug_aranges
                0x00001468       0x20 ../StereoCameraServer_bsp/libucosii_bsp.a(os_sem.o)
 .debug_aranges
                0x00001488       0x20 ../StereoCameraServer_bsp/libucosii_bsp.a(os_task.o)
 .debug_aranges
                0x000014a8       0x20 ../StereoCameraServer_bsp/libucosii_bsp.a(os_time.o)
 .debug_aranges
                0x000014c8       0x20 ../StereoCameraServer_bsp/libucosii_bsp.a(alt_sys_init.o)
 .debug_aranges
                0x000014e8       0x20 ../StereoCameraServer_bsp/libucosii_bsp.a(altera_avalon_cfi_flash.o)
 .debug_aranges
                0x00001508       0x20 ../StereoCameraServer_bsp/libucosii_bsp.a(altera_avalon_cfi_flash_table.o)
 .debug_aranges
                0x00001528       0x20 ../StereoCameraServer_bsp/libucosii_bsp.a(altera_avalon_jtag_uart_fd.o)
 .debug_aranges
                0x00001548       0x20 ../StereoCameraServer_bsp/libucosii_bsp.a(altera_avalon_jtag_uart_init.o)
 .debug_aranges
                0x00001568       0x20 ../StereoCameraServer_bsp/libucosii_bsp.a(altera_avalon_jtag_uart_ioctl.o)
 .debug_aranges
                0x00001588       0x20 ../StereoCameraServer_bsp/libucosii_bsp.a(altera_avalon_jtag_uart_read.o)
 .debug_aranges
                0x000015a8       0x20 ../StereoCameraServer_bsp/libucosii_bsp.a(altera_avalon_jtag_uart_write.o)
 .debug_aranges
                0x000015c8       0x20 ../StereoCameraServer_bsp/libucosii_bsp.a(altera_avalon_lcd_16207.o)
 .debug_aranges
                0x000015e8       0x20 ../StereoCameraServer_bsp/libucosii_bsp.a(altera_avalon_lcd_16207_fd.o)
 .debug_aranges
                0x00001608       0x20 ../StereoCameraServer_bsp/libucosii_bsp.a(altera_avalon_timer_sc.o)
 .debug_aranges
                0x00001628       0x20 ../StereoCameraServer_bsp/libucosii_bsp.a(altera_avalon_uart_fd.o)
 .debug_aranges
                0x00001648       0x20 ../StereoCameraServer_bsp/libucosii_bsp.a(altera_avalon_uart_write.o)
 .debug_aranges
                0x00001668       0x20 ../StereoCameraServer_bsp/libucosii_bsp.a(altera_ro_zipfs.o)
 .debug_aranges
                0x00001688       0x20 ../StereoCameraServer_bsp/libucosii_bsp.a(dm9000a.o)
 .debug_aranges
                0x000016a8       0x20 ../StereoCameraServer_bsp/libucosii_bsp.a(alt_iniche_close.o)
 .debug_aranges
                0x000016c8       0x20 ../StereoCameraServer_bsp/libucosii_bsp.a(alt_iniche_dev.o)
 .debug_aranges
                0x000016e8       0x20 ../StereoCameraServer_bsp/libucosii_bsp.a(alt_iniche_fcntl.o)
 .debug_aranges
                0x00001708       0x20 ../StereoCameraServer_bsp/libucosii_bsp.a(alt_iniche_read.o)
 .debug_aranges
                0x00001728       0x20 ../StereoCameraServer_bsp/libucosii_bsp.a(alt_iniche_write.o)
 .debug_aranges
                0x00001748       0x20 ../StereoCameraServer_bsp/libucosii_bsp.a(ipnet.o)
 .debug_aranges
                0x00001768       0x20 ../StereoCameraServer_bsp/libucosii_bsp.a(ipstart.o)
 .debug_aranges
                0x00001788       0x20 ../StereoCameraServer_bsp/libucosii_bsp.a(igmp_cmn.o)
 .debug_aranges
                0x000017a8       0x20 ../StereoCameraServer_bsp/libucosii_bsp.a(bsdsock.o)
 .debug_aranges
                0x000017c8       0x20 ../StereoCameraServer_bsp/libucosii_bsp.a(cksum.o)
 .debug_aranges
                0x000017e8       0x20 ../StereoCameraServer_bsp/libucosii_bsp.a(in_utils.o)
 .debug_aranges
                0x00001808       0x20 ../StereoCameraServer_bsp/libucosii_bsp.a(netmain.o)
 .debug_aranges
                0x00001828       0x20 ../StereoCameraServer_bsp/libucosii_bsp.a(tk_crnos.o)
 .debug_aranges
                0x00001848       0x20 ../StereoCameraServer_bsp/libucosii_bsp.a(pktalloc.o)
 .debug_aranges
                0x00001868       0x20 ../StereoCameraServer_bsp/libucosii_bsp.a(q.o)
 .debug_aranges
                0x00001888       0x20 ../StereoCameraServer_bsp/libucosii_bsp.a(asm_cksum.o)
 .debug_aranges
                0x000018a8       0x20 ../StereoCameraServer_bsp/libucosii_bsp.a(brdutils.o)
 .debug_aranges
                0x000018c8       0x20 ../StereoCameraServer_bsp/libucosii_bsp.a(osportco.o)
 .debug_aranges
                0x000018e8       0x20 ../StereoCameraServer_bsp/libucosii_bsp.a(targnios.o)
 .debug_aranges
                0x00001908       0x20 ../StereoCameraServer_bsp/libucosii_bsp.a(nptcp.o)
 .debug_aranges
                0x00001928       0x20 ../StereoCameraServer_bsp/libucosii_bsp.a(rawsock.o)
 .debug_aranges
                0x00001948       0x20 ../StereoCameraServer_bsp/libucosii_bsp.a(sockcall.o)
 .debug_aranges
                0x00001968       0x20 ../StereoCameraServer_bsp/libucosii_bsp.a(socket.o)
 .debug_aranges
                0x00001988       0x20 ../StereoCameraServer_bsp/libucosii_bsp.a(socket2.o)
 .debug_aranges
                0x000019a8       0x20 ../StereoCameraServer_bsp/libucosii_bsp.a(soselect.o)
 .debug_aranges
                0x000019c8       0x20 ../StereoCameraServer_bsp/libucosii_bsp.a(tcp_in.o)
 .debug_aranges
                0x000019e8       0x20 ../StereoCameraServer_bsp/libucosii_bsp.a(tcp_out.o)
 .debug_aranges
                0x00001a08       0x20 ../StereoCameraServer_bsp/libucosii_bsp.a(tcp_subr.o)
 .debug_aranges
                0x00001a28       0x20 ../StereoCameraServer_bsp/libucosii_bsp.a(tcp_timr.o)
 .debug_aranges
                0x00001a48       0x20 ../StereoCameraServer_bsp/libucosii_bsp.a(tcp_usr.o)
 .debug_aranges
                0x00001a68       0x20 ../StereoCameraServer_bsp/libucosii_bsp.a(tcpport.o)
 .debug_aranges
                0x00001a88       0x20 ../StereoCameraServer_bsp/libucosii_bsp.a(udpsock.o)
 .debug_aranges
                0x00001aa8       0x20 ../StereoCameraServer_bsp/libucosii_bsp.a(alt_alarm_start.o)
 .debug_aranges
                0x00001ac8       0x20 ../StereoCameraServer_bsp/libucosii_bsp.a(alt_close.o)
 .debug_aranges
                0x00001ae8       0x20 ../StereoCameraServer_bsp/libucosii_bsp.a(alt_dcache_flush_all.o)
 .debug_aranges
                0x00001b08       0x20 ../StereoCameraServer_bsp/libucosii_bsp.a(alt_dev.o)
 .debug_aranges
                0x00001b28       0x20 ../StereoCameraServer_bsp/libucosii_bsp.a(alt_dev_llist_insert.o)
 .debug_aranges
                0x00001b48       0x20 ../StereoCameraServer_bsp/libucosii_bsp.a(alt_do_ctors.o)
 .debug_aranges
                0x00001b68       0x20 ../StereoCameraServer_bsp/libucosii_bsp.a(alt_do_dtors.o)
 .debug_aranges
                0x00001b88       0x20 ../StereoCameraServer_bsp/libucosii_bsp.a(alt_fcntl.o)
 .debug_aranges
                0x00001ba8       0x20 ../StereoCameraServer_bsp/libucosii_bsp.a(alt_find_dev.o)
 .debug_aranges
                0x00001bc8       0x20 ../StereoCameraServer_bsp/libucosii_bsp.a(alt_find_file.o)
 .debug_aranges
                0x00001be8       0x20 ../StereoCameraServer_bsp/libucosii_bsp.a(alt_fs_reg.o)
 .debug_aranges
                0x00001c08       0x20 ../StereoCameraServer_bsp/libucosii_bsp.a(alt_get_fd.o)
 .debug_aranges
                0x00001c28       0x20 ../StereoCameraServer_bsp/libucosii_bsp.a(alt_icache_flush_all.o)
 .debug_aranges
                0x00001c48       0x20 ../StereoCameraServer_bsp/libucosii_bsp.a(alt_io_redirect.o)
 .debug_aranges
                0x00001c68       0x30 ../StereoCameraServer_bsp/libucosii_bsp.a(alt_irq_entry.o)
 .debug_aranges
                0x00001c98       0x28 ../StereoCameraServer_bsp/libucosii_bsp.a(alt_irq_handler.o)
 .debug_aranges
                0x00001cc0       0x20 ../StereoCameraServer_bsp/libucosii_bsp.a(alt_read.o)
 .debug_aranges
                0x00001ce0       0x20 ../StereoCameraServer_bsp/libucosii_bsp.a(alt_remap_cached.o)
 .debug_aranges
                0x00001d00       0x20 ../StereoCameraServer_bsp/libucosii_bsp.a(alt_remap_uncached.o)
 .debug_aranges
                0x00001d20       0x20 ../StereoCameraServer_bsp/libucosii_bsp.a(alt_usleep.o)
 .debug_aranges
                0x00001d40       0x20 ../StereoCameraServer_bsp/libucosii_bsp.a(alt_write.o)
 .debug_aranges
                0x00001d60       0x20 ../StereoCameraServer_bsp/libucosii_bsp.a(altera_nios2_irq.o)
 .debug_aranges
                0x00001d80       0x20 ../StereoCameraServer_bsp/libucosii_bsp.a(os_cpu_a.o)
 .debug_aranges
                0x00001da0       0x20 ../StereoCameraServer_bsp/libucosii_bsp.a(os_cpu_c.o)
 .debug_aranges
                0x00001dc0       0x20 ../StereoCameraServer_bsp/libucosii_bsp.a(altera_avalon_cfi_flash_amd.o)
 .debug_aranges
                0x00001de0       0x20 ../StereoCameraServer_bsp/libucosii_bsp.a(altera_avalon_cfi_flash_intel.o)
 .debug_aranges
                0x00001e00       0x20 ../StereoCameraServer_bsp/libucosii_bsp.a(allports.o)
 .debug_aranges
                0x00001e20       0x20 ../StereoCameraServer_bsp/libucosii_bsp.a(timeouts.o)
 .debug_aranges
                0x00001e40       0x20 ../StereoCameraServer_bsp/libucosii_bsp.a(tk_misc.o)
 .debug_aranges
                0x00001e60       0x20 ../StereoCameraServer_bsp/libucosii_bsp.a(et_arp.o)
 .debug_aranges
                0x00001e80       0x20 ../StereoCameraServer_bsp/libucosii_bsp.a(iface.o)
 .debug_aranges
                0x00001ea0       0x20 ../StereoCameraServer_bsp/libucosii_bsp.a(ip.o)
 .debug_aranges
                0x00001ec0       0x20 ../StereoCameraServer_bsp/libucosii_bsp.a(ip_reasm.o)
 .debug_aranges
                0x00001ee0       0x20 ../StereoCameraServer_bsp/libucosii_bsp.a(ipdemux.o)
 .debug_aranges
                0x00001f00       0x20 ../StereoCameraServer_bsp/libucosii_bsp.a(ipmc.o)
 .debug_aranges
                0x00001f20       0x20 ../StereoCameraServer_bsp/libucosii_bsp.a(ipport.o)
 .debug_aranges
                0x00001f40       0x20 ../StereoCameraServer_bsp/libucosii_bsp.a(ipraw.o)
 .debug_aranges
                0x00001f60       0x20 ../StereoCameraServer_bsp/libucosii_bsp.a(iproute.o)
 .debug_aranges
                0x00001f80       0x20 ../StereoCameraServer_bsp/libucosii_bsp.a(udp.o)
 .debug_aranges
                0x00001fa0       0x20 ../StereoCameraServer_bsp/libucosii_bsp.a(igmp.o)
 .debug_aranges
                0x00001fc0       0x20 ../StereoCameraServer_bsp/libucosii_bsp.a(igmp2.o)
 .debug_aranges
                0x00001fe0       0x20 ../StereoCameraServer_bsp/libucosii_bsp.a(ipopt.o)
 .debug_aranges
                0x00002000       0x20 ../StereoCameraServer_bsp/libucosii_bsp.a(u_mctest.o)
 .debug_aranges
                0x00002020       0x20 ../StereoCameraServer_bsp/libucosii_bsp.a(memdev.o)
 .debug_aranges
                0x00002040       0x20 ../StereoCameraServer_bsp/libucosii_bsp.a(parseip.o)
 .debug_aranges
                0x00002060       0x20 ../StereoCameraServer_bsp/libucosii_bsp.a(tcpcksum.o)
 .debug_aranges
                0x00002080       0x20 ../StereoCameraServer_bsp/libucosii_bsp.a(udp_open.o)
 .debug_aranges
                0x000020a0       0x20 ../StereoCameraServer_bsp/libucosii_bsp.a(in_pcb.o)
 .debug_aranges
                0x000020c0       0x20 ../StereoCameraServer_bsp/libucosii_bsp.a(vfsfiles.o)
 .debug_aranges
                0x000020e0       0x20 ../StereoCameraServer_bsp/libucosii_bsp.a(vfsport.o)
 .debug_aranges
                0x00002100       0x20 ../StereoCameraServer_bsp/libucosii_bsp.a(alt_busy_sleep.o)
 .debug_aranges
                0x00002120       0x38 ../StereoCameraServer_bsp/libucosii_bsp.a(alt_exception_entry.o)
 .debug_aranges
                0x00002158       0x20 ../StereoCameraServer_bsp/libucosii_bsp.a(alt_icache_flush.o)
 .debug_aranges
                0x00002178       0x20 ../StereoCameraServer_bsp/libucosii_bsp.a(icmp.o)
 .debug_aranges
                0x00002198       0x20 /opt/altera/10.1sp1/nios2eds/bin/gnu/H-i686-pc-linux-gnu/bin/../lib/gcc/nios2-elf/4.1.2/../../../../nios2-elf/lib/libc.a(lib_a-atexit.o)
 .debug_aranges
                0x000021b8       0x20 /opt/altera/10.1sp1/nios2eds/bin/gnu/H-i686-pc-linux-gnu/bin/../lib/gcc/nios2-elf/4.1.2/../../../../nios2-elf/lib/libc.a(lib_a-calloc.o)
 .debug_aranges
                0x000021d8       0x20 /opt/altera/10.1sp1/nios2eds/bin/gnu/H-i686-pc-linux-gnu/bin/../lib/gcc/nios2-elf/4.1.2/../../../../nios2-elf/lib/libc.a(lib_a-exit.o)
 .debug_aranges
                0x000021f8       0x20 /opt/altera/10.1sp1/nios2eds/bin/gnu/H-i686-pc-linux-gnu/bin/../lib/gcc/nios2-elf/4.1.2/../../../../nios2-elf/lib/libc.a(lib_a-vprintf.o)
 .debug_aranges
                0x00002218       0x20 /opt/altera/10.1sp1/nios2eds/bin/gnu/H-i686-pc-linux-gnu/bin/../lib/gcc/nios2-elf/4.1.2/../../../../nios2-elf/lib/libc.a(lib_a-vsprintf.o)
 .debug_aranges
                0x00002238       0x20 /opt/altera/10.1sp1/nios2eds/bin/gnu/H-i686-pc-linux-gnu/bin/../lib/gcc/nios2-elf/4.1.2/../../../../nios2-elf/lib/libc.a(lib_a-__atexit.o)
 .debug_aranges
                0x00002258       0x20 /opt/altera/10.1sp1/nios2eds/bin/gnu/H-i686-pc-linux-gnu/bin/../lib/gcc/nios2-elf/4.1.2/../../../../nios2-elf/lib/libc.a(lib_a-__call_atexit.o)

.debug_pubnames
                0x00000000     0x69e6
 *(.debug_pubnames)
 .debug_pubnames
                0x00000000       0x2d obj/alt_error_handler.o
 .debug_pubnames
                0x0000002d       0x4b obj/altera_avalon_uart_init.o
 .debug_pubnames
                0x00000078       0x2e obj/altera_avalon_uart_read.o
 .debug_pubnames
                0x000000a6      0x36b obj/http.o
 .debug_pubnames
                0x00000411      0x106 obj/network_utilities.o
 .debug_pubnames
                0x00000517       0x9c obj/srec_flash.o
 .debug_pubnames
                0x000005b3      0x110 obj/web_server.o
 .debug_pubnames
                0x000006c3      0x236 obj/Camera.o
 .debug_pubnames
                0x000008f9      0x11c obj/StereoCamera.o
 .debug_pubnames
                0x00000a15       0xd0 obj/cam_control.o
 .debug_pubnames
                0x00000ae5       0x45 /opt/altera/10.1sp1/nios2eds/bin/gnu/H-i686-pc-linux-gnu/bin/../lib/gcc/nios2-elf/4.1.2/../../../../nios2-elf/lib/libstdc++.a(eh_personality.o)
 .debug_pubnames
                0x00000b2a       0x43 /opt/altera/10.1sp1/nios2eds/bin/gnu/H-i686-pc-linux-gnu/bin/../lib/gcc/nios2-elf/4.1.2/../../../../nios2-elf/lib/libstdc++.a(eh_globals.o)
 .debug_pubnames
                0x00000b6d       0x34 /opt/altera/10.1sp1/nios2eds/bin/gnu/H-i686-pc-linux-gnu/bin/../lib/gcc/nios2-elf/4.1.2/../../../../nios2-elf/lib/libstdc++.a(eh_throw.o)
 .debug_pubnames
                0x00000ba1       0x2b /opt/altera/10.1sp1/nios2eds/bin/gnu/H-i686-pc-linux-gnu/bin/../lib/gcc/nios2-elf/4.1.2/../../../../nios2-elf/lib/libstdc++.a(eh_call.o)
 .debug_pubnames
                0x00000bcc       0x6f /opt/altera/10.1sp1/nios2eds/bin/gnu/H-i686-pc-linux-gnu/bin/../lib/gcc/nios2-elf/4.1.2/../../../../nios2-elf/lib/libstdc++.a(eh_catch.o)
 .debug_pubnames
                0x00000c3b       0xfd /opt/altera/10.1sp1/nios2eds/bin/gnu/H-i686-pc-linux-gnu/bin/../lib/gcc/nios2-elf/4.1.2/../../../../nios2-elf/lib/libstdc++.a(eh_exception.o)
 .debug_pubnames
                0x00000d38       0x75 /opt/altera/10.1sp1/nios2eds/bin/gnu/H-i686-pc-linux-gnu/bin/../lib/gcc/nios2-elf/4.1.2/../../../../nios2-elf/lib/libstdc++.a(eh_terminate.o)
 .debug_pubnames
                0x00000dad      0x166 /opt/altera/10.1sp1/nios2eds/bin/gnu/H-i686-pc-linux-gnu/bin/../lib/gcc/nios2-elf/4.1.2/../../../../nios2-elf/lib/libstdc++.a(si_class_type_info.o)
 .debug_pubnames
                0x00000f13       0x48 /opt/altera/10.1sp1/nios2eds/bin/gnu/H-i686-pc-linux-gnu/bin/../lib/gcc/nios2-elf/4.1.2/../../../../nios2-elf/lib/libstdc++.a(eh_alloc.o)
 .debug_pubnames
                0x00000f5b       0x2a /opt/altera/10.1sp1/nios2eds/bin/gnu/H-i686-pc-linux-gnu/bin/../lib/gcc/nios2-elf/4.1.2/../../../../nios2-elf/lib/libstdc++.a(eh_term_handler.o)
 .debug_pubnames
                0x00000f85       0xf5 /opt/altera/10.1sp1/nios2eds/bin/gnu/H-i686-pc-linux-gnu/bin/../lib/gcc/nios2-elf/4.1.2/../../../../nios2-elf/lib/libstdc++.a(tinfo.o)
 .debug_pubnames
                0x0000107a       0x26 /opt/altera/10.1sp1/nios2eds/bin/gnu/H-i686-pc-linux-gnu/bin/../lib/gcc/nios2-elf/4.1.2/../../../../nios2-elf/lib/libstdc++.a(del_op.o)
 .debug_pubnames
                0x000010a0      0x1a8 /opt/altera/10.1sp1/nios2eds/bin/gnu/H-i686-pc-linux-gnu/bin/../lib/gcc/nios2-elf/4.1.2/../../../../nios2-elf/lib/libstdc++.a(class_type_info.o)
 .debug_pubnames
                0x00001248       0x2b /opt/altera/10.1sp1/nios2eds/bin/gnu/H-i686-pc-linux-gnu/bin/../lib/gcc/nios2-elf/4.1.2/../../../../nios2-elf/lib/libstdc++.a(eh_unex_handler.o)
 .debug_pubnames
                0x00001273       0x48 /opt/altera/10.1sp1/nios2eds/bin/gnu/H-i686-pc-linux-gnu/bin/../lib/gcc/nios2-elf/4.1.2/libgcc.a(lib2-divmod.o)
 .debug_pubnames
                0x000012bb      0x1c7 /opt/altera/10.1sp1/nios2eds/bin/gnu/H-i686-pc-linux-gnu/bin/../lib/gcc/nios2-elf/4.1.2/libgcc.a(unwind-dw2.o)
 .debug_pubnames
                0x00001482      0x12c /opt/altera/10.1sp1/nios2eds/bin/gnu/H-i686-pc-linux-gnu/bin/../lib/gcc/nios2-elf/4.1.2/libgcc.a(unwind-dw2-fde.o)
 .debug_pubnames
                0x000015ae       0x1c /opt/altera/10.1sp1/nios2eds/bin/gnu/H-i686-pc-linux-gnu/bin/../lib/gcc/nios2-elf/4.1.2/../../../../nios2-elf/lib/libc.a(lib_a-abort.o)
 .debug_pubnames
                0x000015ca       0x27 /opt/altera/10.1sp1/nios2eds/bin/gnu/H-i686-pc-linux-gnu/bin/../lib/gcc/nios2-elf/4.1.2/../../../../nios2-elf/lib/libc.a(lib_a-atoi.o)
 .debug_pubnames
                0x000015f1       0x2e /opt/altera/10.1sp1/nios2eds/bin/gnu/H-i686-pc-linux-gnu/bin/../lib/gcc/nios2-elf/4.1.2/../../../../nios2-elf/lib/libc.a(lib_a-ctype_.o)
 .debug_pubnames
                0x0000161f       0x2b /opt/altera/10.1sp1/nios2eds/bin/gnu/H-i686-pc-linux-gnu/bin/../lib/gcc/nios2-elf/4.1.2/../../../../nios2-elf/lib/libc.a(lib_a-fclose.o)
 .debug_pubnames
                0x0000164a       0x2b /opt/altera/10.1sp1/nios2eds/bin/gnu/H-i686-pc-linux-gnu/bin/../lib/gcc/nios2-elf/4.1.2/../../../../nios2-elf/lib/libc.a(lib_a-fflush.o)
 .debug_pubnames
                0x00001675       0x29 /opt/altera/10.1sp1/nios2eds/bin/gnu/H-i686-pc-linux-gnu/bin/../lib/gcc/nios2-elf/4.1.2/../../../../nios2-elf/lib/libc.a(lib_a-fgetc.o)
 .debug_pubnames
                0x0000169e       0x2d /opt/altera/10.1sp1/nios2eds/bin/gnu/H-i686-pc-linux-gnu/bin/../lib/gcc/nios2-elf/4.1.2/../../../../nios2-elf/lib/libc.a(lib_a-fgetpos.o)
 .debug_pubnames
                0x000016cb       0x1d /opt/altera/10.1sp1/nios2eds/bin/gnu/H-i686-pc-linux-gnu/bin/../lib/gcc/nios2-elf/4.1.2/../../../../nios2-elf/lib/libc.a(lib_a-fileno.o)
 .debug_pubnames
                0x000016e8       0xdb /opt/altera/10.1sp1/nios2eds/bin/gnu/H-i686-pc-linux-gnu/bin/../lib/gcc/nios2-elf/4.1.2/../../../../nios2-elf/lib/libc.a(lib_a-findfp.o)
 .debug_pubnames
                0x000017c3       0x29 /opt/altera/10.1sp1/nios2eds/bin/gnu/H-i686-pc-linux-gnu/bin/../lib/gcc/nios2-elf/4.1.2/../../../../nios2-elf/lib/libc.a(lib_a-fopen.o)
 .debug_pubnames
                0x000017ec       0x2d /opt/altera/10.1sp1/nios2eds/bin/gnu/H-i686-pc-linux-gnu/bin/../lib/gcc/nios2-elf/4.1.2/../../../../nios2-elf/lib/libc.a(lib_a-fprintf.o)
 .debug_pubnames
                0x00001819       0x29 /opt/altera/10.1sp1/nios2eds/bin/gnu/H-i686-pc-linux-gnu/bin/../lib/gcc/nios2-elf/4.1.2/../../../../nios2-elf/lib/libc.a(lib_a-fputc.o)
 .debug_pubnames
                0x00001842       0x29 /opt/altera/10.1sp1/nios2eds/bin/gnu/H-i686-pc-linux-gnu/bin/../lib/gcc/nios2-elf/4.1.2/../../../../nios2-elf/lib/libc.a(lib_a-fread.o)
 .debug_pubnames
                0x0000186b       0x31 /opt/altera/10.1sp1/nios2eds/bin/gnu/H-i686-pc-linux-gnu/bin/../lib/gcc/nios2-elf/4.1.2/../../../../nios2-elf/lib/libc.a(lib_a-freer.o)
 .debug_pubnames
                0x0000189c       0x29 /opt/altera/10.1sp1/nios2eds/bin/gnu/H-i686-pc-linux-gnu/bin/../lib/gcc/nios2-elf/4.1.2/../../../../nios2-elf/lib/libc.a(lib_a-fseek.o)
 .debug_pubnames
                0x000018c5       0x1f /opt/altera/10.1sp1/nios2eds/bin/gnu/H-i686-pc-linux-gnu/bin/../lib/gcc/nios2-elf/4.1.2/../../../../nios2-elf/lib/libc.a(lib_a-fstatr.o)
 .debug_pubnames
                0x000018e4       0x29 /opt/altera/10.1sp1/nios2eds/bin/gnu/H-i686-pc-linux-gnu/bin/../lib/gcc/nios2-elf/4.1.2/../../../../nios2-elf/lib/libc.a(lib_a-ftell.o)
 .debug_pubnames
                0x0000190d       0x2e /opt/altera/10.1sp1/nios2eds/bin/gnu/H-i686-pc-linux-gnu/bin/../lib/gcc/nios2-elf/4.1.2/../../../../nios2-elf/lib/libc.a(lib_a-fwalk.o)
 .debug_pubnames
                0x0000193b       0x2b /opt/altera/10.1sp1/nios2eds/bin/gnu/H-i686-pc-linux-gnu/bin/../lib/gcc/nios2-elf/4.1.2/../../../../nios2-elf/lib/libc.a(lib_a-fwrite.o)
 .debug_pubnames
                0x00001966       0x27 /opt/altera/10.1sp1/nios2eds/bin/gnu/H-i686-pc-linux-gnu/bin/../lib/gcc/nios2-elf/4.1.2/../../../../nios2-elf/lib/libc.a(lib_a-getc.o)
 .debug_pubnames
                0x0000198d       0x39 /opt/altera/10.1sp1/nios2eds/bin/gnu/H-i686-pc-linux-gnu/bin/../lib/gcc/nios2-elf/4.1.2/../../../../nios2-elf/lib/libc.a(lib_a-impure.o)
 .debug_pubnames
                0x000019c6       0x1c /opt/altera/10.1sp1/nios2eds/bin/gnu/H-i686-pc-linux-gnu/bin/../lib/gcc/nios2-elf/4.1.2/../../../../nios2-elf/lib/libc.a(lib_a-int_errno.o)
 .debug_pubnames
                0x000019e2       0x23 /opt/altera/10.1sp1/nios2eds/bin/gnu/H-i686-pc-linux-gnu/bin/../lib/gcc/nios2-elf/4.1.2/../../../../nios2-elf/lib/libc.a(lib_a-makebuf.o)
 .debug_pubnames
                0x00001a05       0x26 /opt/altera/10.1sp1/nios2eds/bin/gnu/H-i686-pc-linux-gnu/bin/../lib/gcc/nios2-elf/4.1.2/../../../../nios2-elf/lib/libc.a(lib_a-malloc.o)
 .debug_pubnames
                0x00001a2b       0xce /opt/altera/10.1sp1/nios2eds/bin/gnu/H-i686-pc-linux-gnu/bin/../lib/gcc/nios2-elf/4.1.2/../../../../nios2-elf/lib/libc.a(lib_a-mallocr.o)
 .debug_pubnames
                0x00001af9       0x1d /opt/altera/10.1sp1/nios2eds/bin/gnu/H-i686-pc-linux-gnu/bin/../lib/gcc/nios2-elf/4.1.2/../../../../nios2-elf/lib/libc.a(lib_a-memcpy.o)
 .debug_pubnames
                0x00001b16       0x1e /opt/altera/10.1sp1/nios2eds/bin/gnu/H-i686-pc-linux-gnu/bin/../lib/gcc/nios2-elf/4.1.2/../../../../nios2-elf/lib/libc.a(lib_a-memmove.o)
 .debug_pubnames
                0x00001b34       0x1d /opt/altera/10.1sp1/nios2eds/bin/gnu/H-i686-pc-linux-gnu/bin/../lib/gcc/nios2-elf/4.1.2/../../../../nios2-elf/lib/libc.a(lib_a-memset.o)
 .debug_pubnames
                0x00001b51       0x1e /opt/altera/10.1sp1/nios2eds/bin/gnu/H-i686-pc-linux-gnu/bin/../lib/gcc/nios2-elf/4.1.2/../../../../nios2-elf/lib/libc.a(lib_a-openr.o)
 .debug_pubnames
                0x00001b6f       0x2b /opt/altera/10.1sp1/nios2eds/bin/gnu/H-i686-pc-linux-gnu/bin/../lib/gcc/nios2-elf/4.1.2/../../../../nios2-elf/lib/libc.a(lib_a-perror.o)
 .debug_pubnames
                0x00001b9a       0x2b /opt/altera/10.1sp1/nios2eds/bin/gnu/H-i686-pc-linux-gnu/bin/../lib/gcc/nios2-elf/4.1.2/../../../../nios2-elf/lib/libc.a(lib_a-printf.o)
 .debug_pubnames
                0x00001bc5       0x27 /opt/altera/10.1sp1/nios2eds/bin/gnu/H-i686-pc-linux-gnu/bin/../lib/gcc/nios2-elf/4.1.2/../../../../nios2-elf/lib/libc.a(lib_a-putc.o)
 .debug_pubnames
                0x00001bec       0x2d /opt/altera/10.1sp1/nios2eds/bin/gnu/H-i686-pc-linux-gnu/bin/../lib/gcc/nios2-elf/4.1.2/../../../../nios2-elf/lib/libc.a(lib_a-putchar.o)
 .debug_pubnames
                0x00001c19       0x27 /opt/altera/10.1sp1/nios2eds/bin/gnu/H-i686-pc-linux-gnu/bin/../lib/gcc/nios2-elf/4.1.2/../../../../nios2-elf/lib/libc.a(lib_a-puts.o)
 .debug_pubnames
                0x00001c40       0x22 /opt/altera/10.1sp1/nios2eds/bin/gnu/H-i686-pc-linux-gnu/bin/../lib/gcc/nios2-elf/4.1.2/../../../../nios2-elf/lib/libc.a(lib_a-refill.o)
 .debug_pubnames
                0x00001c62       0x2c /opt/altera/10.1sp1/nios2eds/bin/gnu/H-i686-pc-linux-gnu/bin/../lib/gcc/nios2-elf/4.1.2/../../../../nios2-elf/lib/libc.a(lib_a-rget.o)
 .debug_pubnames
                0x00001c8e       0x1e /opt/altera/10.1sp1/nios2eds/bin/gnu/H-i686-pc-linux-gnu/bin/../lib/gcc/nios2-elf/4.1.2/../../../../nios2-elf/lib/libc.a(lib_a-sbrkr.o)
 .debug_pubnames
                0x00001cac       0x86 /opt/altera/10.1sp1/nios2eds/bin/gnu/H-i686-pc-linux-gnu/bin/../lib/gcc/nios2-elf/4.1.2/../../../../nios2-elf/lib/libc.a(lib_a-signal.o)
 .debug_pubnames
                0x00001d32       0x2c /opt/altera/10.1sp1/nios2eds/bin/gnu/H-i686-pc-linux-gnu/bin/../lib/gcc/nios2-elf/4.1.2/../../../../nios2-elf/lib/libc.a(lib_a-signalr.o)
 .debug_pubnames
                0x00001d5e       0x2d /opt/altera/10.1sp1/nios2eds/bin/gnu/H-i686-pc-linux-gnu/bin/../lib/gcc/nios2-elf/4.1.2/../../../../nios2-elf/lib/libc.a(lib_a-sprintf.o)
 .debug_pubnames
                0x00001d8b       0x2b /opt/altera/10.1sp1/nios2eds/bin/gnu/H-i686-pc-linux-gnu/bin/../lib/gcc/nios2-elf/4.1.2/../../../../nios2-elf/lib/libc.a(lib_a-sscanf.o)
 .debug_pubnames
                0x00001db6       0x44 /opt/altera/10.1sp1/nios2eds/bin/gnu/H-i686-pc-linux-gnu/bin/../lib/gcc/nios2-elf/4.1.2/../../../../nios2-elf/lib/libc.a(lib_a-stdio.o)
 .debug_pubnames
                0x00001dfa       0x21 /opt/altera/10.1sp1/nios2eds/bin/gnu/H-i686-pc-linux-gnu/bin/../lib/gcc/nios2-elf/4.1.2/../../../../nios2-elf/lib/libc.a(lib_a-strcasecmp.o)
 .debug_pubnames
                0x00001e1b       0x1d /opt/altera/10.1sp1/nios2eds/bin/gnu/H-i686-pc-linux-gnu/bin/../lib/gcc/nios2-elf/4.1.2/../../../../nios2-elf/lib/libc.a(lib_a-strcat.o)
 .debug_pubnames
                0x00001e38       0x1d /opt/altera/10.1sp1/nios2eds/bin/gnu/H-i686-pc-linux-gnu/bin/../lib/gcc/nios2-elf/4.1.2/../../../../nios2-elf/lib/libc.a(lib_a-strchr.o)
 .debug_pubnames
                0x00001e55       0x1d /opt/altera/10.1sp1/nios2eds/bin/gnu/H-i686-pc-linux-gnu/bin/../lib/gcc/nios2-elf/4.1.2/../../../../nios2-elf/lib/libc.a(lib_a-strcmp.o)
 .debug_pubnames
                0x00001e72       0x1d /opt/altera/10.1sp1/nios2eds/bin/gnu/H-i686-pc-linux-gnu/bin/../lib/gcc/nios2-elf/4.1.2/../../../../nios2-elf/lib/libc.a(lib_a-strcpy.o)
 .debug_pubnames
                0x00001e8f       0x1f /opt/altera/10.1sp1/nios2eds/bin/gnu/H-i686-pc-linux-gnu/bin/../lib/gcc/nios2-elf/4.1.2/../../../../nios2-elf/lib/libc.a(lib_a-strerror.o)
 .debug_pubnames
                0x00001eae       0x1d /opt/altera/10.1sp1/nios2eds/bin/gnu/H-i686-pc-linux-gnu/bin/../lib/gcc/nios2-elf/4.1.2/../../../../nios2-elf/lib/libc.a(lib_a-strlen.o)
 .debug_pubnames
                0x00001ecb       0x1e /opt/altera/10.1sp1/nios2eds/bin/gnu/H-i686-pc-linux-gnu/bin/../lib/gcc/nios2-elf/4.1.2/../../../../nios2-elf/lib/libc.a(lib_a-strncmp.o)
 .debug_pubnames
                0x00001ee9       0x1e /opt/altera/10.1sp1/nios2eds/bin/gnu/H-i686-pc-linux-gnu/bin/../lib/gcc/nios2-elf/4.1.2/../../../../nios2-elf/lib/libc.a(lib_a-strncpy.o)
 .debug_pubnames
                0x00001f07       0x1d /opt/altera/10.1sp1/nios2eds/bin/gnu/H-i686-pc-linux-gnu/bin/../lib/gcc/nios2-elf/4.1.2/../../../../nios2-elf/lib/libc.a(lib_a-strstr.o)
 .debug_pubnames
                0x00001f24       0x1d /opt/altera/10.1sp1/nios2eds/bin/gnu/H-i686-pc-linux-gnu/bin/../lib/gcc/nios2-elf/4.1.2/../../../../nios2-elf/lib/libc.a(lib_a-strtok.o)
 .debug_pubnames
                0x00001f41       0x2e /opt/altera/10.1sp1/nios2eds/bin/gnu/H-i686-pc-linux-gnu/bin/../lib/gcc/nios2-elf/4.1.2/../../../../nios2-elf/lib/libc.a(lib_a-strtok_r.o)
 .debug_pubnames
                0x00001f6f       0x2b /opt/altera/10.1sp1/nios2eds/bin/gnu/H-i686-pc-linux-gnu/bin/../lib/gcc/nios2-elf/4.1.2/../../../../nios2-elf/lib/libc.a(lib_a-strtol.o)
 .debug_pubnames
                0x00001f9a       0x25 /opt/altera/10.1sp1/nios2eds/bin/gnu/H-i686-pc-linux-gnu/bin/../lib/gcc/nios2-elf/4.1.2/../../../../nios2-elf/lib/libc.a(lib_a-u_strerr.o)
 .debug_pubnames
                0x00001fbf       0x45 /opt/altera/10.1sp1/nios2eds/bin/gnu/H-i686-pc-linux-gnu/bin/../lib/gcc/nios2-elf/4.1.2/../../../../nios2-elf/lib/libc.a(lib_a-vfprintf.o)
 .debug_pubnames
                0x00002004       0x4d /opt/altera/10.1sp1/nios2eds/bin/gnu/H-i686-pc-linux-gnu/bin/../lib/gcc/nios2-elf/4.1.2/../../../../nios2-elf/lib/libc.a(lib_a-vfscanf.o)
 .debug_pubnames
                0x00002051       0x2c /opt/altera/10.1sp1/nios2eds/bin/gnu/H-i686-pc-linux-gnu/bin/../lib/gcc/nios2-elf/4.1.2/../../../../nios2-elf/lib/libc.a(lib_a-wbuf.o)
 .debug_pubnames
                0x0000207d       0x1f /opt/altera/10.1sp1/nios2eds/bin/gnu/H-i686-pc-linux-gnu/bin/../lib/gcc/nios2-elf/4.1.2/../../../../nios2-elf/lib/libc.a(lib_a-writer.o)
 .debug_pubnames
                0x0000209c       0x22 /opt/altera/10.1sp1/nios2eds/bin/gnu/H-i686-pc-linux-gnu/bin/../lib/gcc/nios2-elf/4.1.2/../../../../nios2-elf/lib/libc.a(lib_a-wsetup.o)
 .debug_pubnames
                0x000020be       0x1f /opt/altera/10.1sp1/nios2eds/bin/gnu/H-i686-pc-linux-gnu/bin/../lib/gcc/nios2-elf/4.1.2/../../../../nios2-elf/lib/libc.a(lib_a-closer.o)
 .debug_pubnames
                0x000020dd       0x1e /opt/altera/10.1sp1/nios2eds/bin/gnu/H-i686-pc-linux-gnu/bin/../lib/gcc/nios2-elf/4.1.2/../../../../nios2-elf/lib/libc.a(lib_a-dtoa.o)
 .debug_pubnames
                0x000020fb       0x1f /opt/altera/10.1sp1/nios2eds/bin/gnu/H-i686-pc-linux-gnu/bin/../lib/gcc/nios2-elf/4.1.2/../../../../nios2-elf/lib/libc.a(lib_a-flags.o)
 .debug_pubnames
                0x0000211a       0x29 /opt/altera/10.1sp1/nios2eds/bin/gnu/H-i686-pc-linux-gnu/bin/../lib/gcc/nios2-elf/4.1.2/../../../../nios2-elf/lib/libc.a(lib_a-fputs.o)
 .debug_pubnames
                0x00002143       0x23 /opt/altera/10.1sp1/nios2eds/bin/gnu/H-i686-pc-linux-gnu/bin/../lib/gcc/nios2-elf/4.1.2/../../../../nios2-elf/lib/libc.a(lib_a-fvwrite.o)
 .debug_pubnames
                0x00002166       0x20 /opt/altera/10.1sp1/nios2eds/bin/gnu/H-i686-pc-linux-gnu/bin/../lib/gcc/nios2-elf/4.1.2/../../../../nios2-elf/lib/libc.a(lib_a-isattyr.o)
 .debug_pubnames
                0x00002186       0x1f /opt/altera/10.1sp1/nios2eds/bin/gnu/H-i686-pc-linux-gnu/bin/../lib/gcc/nios2-elf/4.1.2/../../../../nios2-elf/lib/libc.a(lib_a-iswspace.o)
 .debug_pubnames
                0x000021a5       0xc3 /opt/altera/10.1sp1/nios2eds/bin/gnu/H-i686-pc-linux-gnu/bin/../lib/gcc/nios2-elf/4.1.2/../../../../nios2-elf/lib/libc.a(lib_a-locale.o)
 .debug_pubnames
                0x00002268       0x1f /opt/altera/10.1sp1/nios2eds/bin/gnu/H-i686-pc-linux-gnu/bin/../lib/gcc/nios2-elf/4.1.2/../../../../nios2-elf/lib/libc.a(lib_a-lseekr.o)
 .debug_pubnames
                0x00002287       0x2d /opt/altera/10.1sp1/nios2eds/bin/gnu/H-i686-pc-linux-gnu/bin/../lib/gcc/nios2-elf/4.1.2/../../../../nios2-elf/lib/libc.a(lib_a-mbrtowc.o)
 .debug_pubnames
                0x000022b4       0x20 /opt/altera/10.1sp1/nios2eds/bin/gnu/H-i686-pc-linux-gnu/bin/../lib/gcc/nios2-elf/4.1.2/../../../../nios2-elf/lib/libc.a(lib_a-mbtowc_r.o)
 .debug_pubnames
                0x000022d4       0x1d /opt/altera/10.1sp1/nios2eds/bin/gnu/H-i686-pc-linux-gnu/bin/../lib/gcc/nios2-elf/4.1.2/../../../../nios2-elf/lib/libc.a(lib_a-memchr.o)
 .debug_pubnames
                0x000022f1       0x1d /opt/altera/10.1sp1/nios2eds/bin/gnu/H-i686-pc-linux-gnu/bin/../lib/gcc/nios2-elf/4.1.2/../../../../nios2-elf/lib/libc.a(lib_a-memcmp.o)
 .debug_pubnames
                0x0000230e      0x13a /opt/altera/10.1sp1/nios2eds/bin/gnu/H-i686-pc-linux-gnu/bin/../lib/gcc/nios2-elf/4.1.2/../../../../nios2-elf/lib/libc.a(lib_a-mprec.o)
 .debug_pubnames
                0x00002448       0x1e /opt/altera/10.1sp1/nios2eds/bin/gnu/H-i686-pc-linux-gnu/bin/../lib/gcc/nios2-elf/4.1.2/../../../../nios2-elf/lib/libc.a(lib_a-readr.o)
 .debug_pubnames
                0x00002466       0x21 /opt/altera/10.1sp1/nios2eds/bin/gnu/H-i686-pc-linux-gnu/bin/../lib/gcc/nios2-elf/4.1.2/../../../../nios2-elf/lib/libc.a(lib_a-reallocr.o)
 .debug_pubnames
                0x00002487       0x1f /opt/altera/10.1sp1/nios2eds/bin/gnu/H-i686-pc-linux-gnu/bin/../lib/gcc/nios2-elf/4.1.2/../../../../nios2-elf/lib/libc.a(lib_a-s_isinfd.o)
 .debug_pubnames
                0x000024a6       0x1f /opt/altera/10.1sp1/nios2eds/bin/gnu/H-i686-pc-linux-gnu/bin/../lib/gcc/nios2-elf/4.1.2/../../../../nios2-elf/lib/libc.a(lib_a-s_isnand.o)
 .debug_pubnames
                0x000024c5       0x1d /opt/altera/10.1sp1/nios2eds/bin/gnu/H-i686-pc-linux-gnu/bin/../lib/gcc/nios2-elf/4.1.2/../../../../nios2-elf/lib/libc.a(lib_a-sccl.o)
 .debug_pubnames
                0x000024e2       0x1b /opt/altera/10.1sp1/nios2eds/bin/gnu/H-i686-pc-linux-gnu/bin/../lib/gcc/nios2-elf/4.1.2/../../../../nios2-elf/lib/libc.a(lib_a-sf_nan.o)
 .debug_pubnames
                0x000024fd       0x36 /opt/altera/10.1sp1/nios2eds/bin/gnu/H-i686-pc-linux-gnu/bin/../lib/gcc/nios2-elf/4.1.2/../../../../nios2-elf/lib/libc.a(lib_a-strtod.o)
 .debug_pubnames
                0x00002533       0x21 /opt/altera/10.1sp1/nios2eds/bin/gnu/H-i686-pc-linux-gnu/bin/../lib/gcc/nios2-elf/4.1.2/../../../../nios2-elf/lib/libc.a(lib_a-strtoll_r.o)
 .debug_pubnames
                0x00002554       0x2d /opt/altera/10.1sp1/nios2eds/bin/gnu/H-i686-pc-linux-gnu/bin/../lib/gcc/nios2-elf/4.1.2/../../../../nios2-elf/lib/libc.a(lib_a-strtoul.o)
 .debug_pubnames
                0x00002581       0x22 /opt/altera/10.1sp1/nios2eds/bin/gnu/H-i686-pc-linux-gnu/bin/../lib/gcc/nios2-elf/4.1.2/../../../../nios2-elf/lib/libc.a(lib_a-strtoull_r.o)
 .debug_pubnames
                0x000025a3       0x39 /opt/altera/10.1sp1/nios2eds/bin/gnu/H-i686-pc-linux-gnu/bin/../lib/gcc/nios2-elf/4.1.2/../../../../nios2-elf/lib/libc.a(lib_a-ungetc.o)
 .debug_pubnames
                0x000025dc       0x20 /opt/altera/10.1sp1/nios2eds/bin/gnu/H-i686-pc-linux-gnu/bin/../lib/gcc/nios2-elf/4.1.2/../../../../nios2-elf/lib/libc.a(lib_a-callocr.o)
 .debug_pubnames
                0x000025fc       0x3e /opt/altera/10.1sp1/nios2eds/bin/gnu/H-i686-pc-linux-gnu/bin/../lib/gcc/nios2-elf/4.1.2/../../../../nios2-elf/lib/libc.a(lib_a-gdtoa-gethex.o)
 .debug_pubnames
                0x0000263a       0x1f /opt/altera/10.1sp1/nios2eds/bin/gnu/H-i686-pc-linux-gnu/bin/../lib/gcc/nios2-elf/4.1.2/../../../../nios2-elf/lib/libc.a(lib_a-gdtoa-hexnan.o)
 .debug_pubnames
                0x00002659       0x1f /opt/altera/10.1sp1/nios2eds/bin/gnu/H-i686-pc-linux-gnu/bin/../lib/gcc/nios2-elf/4.1.2/libgcc.a(_muldi3.o)
 .debug_pubnames
                0x00002678       0x23 /opt/altera/10.1sp1/nios2eds/bin/gnu/H-i686-pc-linux-gnu/bin/../lib/gcc/nios2-elf/4.1.2/libgcc.a(_fixunsdfsi.o)
 .debug_pubnames
                0x0000269b       0x20 /opt/altera/10.1sp1/nios2eds/bin/gnu/H-i686-pc-linux-gnu/bin/../lib/gcc/nios2-elf/4.1.2/libgcc.a(_udivdi3.o)
 .debug_pubnames
                0x000026bb       0x20 /opt/altera/10.1sp1/nios2eds/bin/gnu/H-i686-pc-linux-gnu/bin/../lib/gcc/nios2-elf/4.1.2/libgcc.a(_umoddi3.o)
 .debug_pubnames
                0x000026db       0x1e /opt/altera/10.1sp1/nios2eds/bin/gnu/H-i686-pc-linux-gnu/bin/../lib/gcc/nios2-elf/4.1.2/libgcc.a(_ne_sf.o)
 .debug_pubnames
                0x000026f9       0x1e /opt/altera/10.1sp1/nios2eds/bin/gnu/H-i686-pc-linux-gnu/bin/../lib/gcc/nios2-elf/4.1.2/libgcc.a(_gt_sf.o)
 .debug_pubnames
                0x00002717       0x1e /opt/altera/10.1sp1/nios2eds/bin/gnu/H-i686-pc-linux-gnu/bin/../lib/gcc/nios2-elf/4.1.2/libgcc.a(_lt_sf.o)
 .debug_pubnames
                0x00002735       0x2c /opt/altera/10.1sp1/nios2eds/bin/gnu/H-i686-pc-linux-gnu/bin/../lib/gcc/nios2-elf/4.1.2/libgcc.a(_addsub_df.o)
 .debug_pubnames
                0x00002761       0x1f /opt/altera/10.1sp1/nios2eds/bin/gnu/H-i686-pc-linux-gnu/bin/../lib/gcc/nios2-elf/4.1.2/libgcc.a(_mul_df.o)
 .debug_pubnames
                0x00002780       0x1f /opt/altera/10.1sp1/nios2eds/bin/gnu/H-i686-pc-linux-gnu/bin/../lib/gcc/nios2-elf/4.1.2/libgcc.a(_div_df.o)
 .debug_pubnames
                0x0000279f       0x1e /opt/altera/10.1sp1/nios2eds/bin/gnu/H-i686-pc-linux-gnu/bin/../lib/gcc/nios2-elf/4.1.2/libgcc.a(_eq_df.o)
 .debug_pubnames
                0x000027bd       0x1e /opt/altera/10.1sp1/nios2eds/bin/gnu/H-i686-pc-linux-gnu/bin/../lib/gcc/nios2-elf/4.1.2/libgcc.a(_ne_df.o)
 .debug_pubnames
                0x000027db       0x1e /opt/altera/10.1sp1/nios2eds/bin/gnu/H-i686-pc-linux-gnu/bin/../lib/gcc/nios2-elf/4.1.2/libgcc.a(_gt_df.o)
 .debug_pubnames
                0x000027f9       0x1e /opt/altera/10.1sp1/nios2eds/bin/gnu/H-i686-pc-linux-gnu/bin/../lib/gcc/nios2-elf/4.1.2/libgcc.a(_ge_df.o)
 .debug_pubnames
                0x00002817       0x1e /opt/altera/10.1sp1/nios2eds/bin/gnu/H-i686-pc-linux-gnu/bin/../lib/gcc/nios2-elf/4.1.2/libgcc.a(_lt_df.o)
 .debug_pubnames
                0x00002835       0x1e /opt/altera/10.1sp1/nios2eds/bin/gnu/H-i686-pc-linux-gnu/bin/../lib/gcc/nios2-elf/4.1.2/libgcc.a(_le_df.o)
 .debug_pubnames
                0x00002853       0x22 /opt/altera/10.1sp1/nios2eds/bin/gnu/H-i686-pc-linux-gnu/bin/../lib/gcc/nios2-elf/4.1.2/libgcc.a(_si_to_df.o)
 .debug_pubnames
                0x00002875       0x20 /opt/altera/10.1sp1/nios2eds/bin/gnu/H-i686-pc-linux-gnu/bin/../lib/gcc/nios2-elf/4.1.2/libgcc.a(_df_to_si.o)
 .debug_pubnames
                0x00002895       0x23 /opt/altera/10.1sp1/nios2eds/bin/gnu/H-i686-pc-linux-gnu/bin/../lib/gcc/nios2-elf/4.1.2/libgcc.a(_df_to_sf.o)
 .debug_pubnames
                0x000028b8       0x22 /opt/altera/10.1sp1/nios2eds/bin/gnu/H-i686-pc-linux-gnu/bin/../lib/gcc/nios2-elf/4.1.2/libgcc.a(_thenan_df.o)
 .debug_pubnames
                0x000028da       0x24 /opt/altera/10.1sp1/nios2eds/bin/gnu/H-i686-pc-linux-gnu/bin/../lib/gcc/nios2-elf/4.1.2/libgcc.a(_usi_to_df.o)
 .debug_pubnames
                0x000028fe       0x20 /opt/altera/10.1sp1/nios2eds/bin/gnu/H-i686-pc-linux-gnu/bin/../lib/gcc/nios2-elf/4.1.2/libgcc.a(_clz.o)
 .debug_pubnames
                0x0000291e       0x1f /opt/altera/10.1sp1/nios2eds/bin/gnu/H-i686-pc-linux-gnu/bin/../lib/gcc/nios2-elf/4.1.2/libgcc.a(_clzsi2.o)
 .debug_pubnames
                0x0000293d       0x21 /opt/altera/10.1sp1/nios2eds/bin/gnu/H-i686-pc-linux-gnu/bin/../lib/gcc/nios2-elf/4.1.2/libgcc.a(_unpack_sf.o)
 .debug_pubnames
                0x0000295e       0x26 /opt/altera/10.1sp1/nios2eds/bin/gnu/H-i686-pc-linux-gnu/bin/../lib/gcc/nios2-elf/4.1.2/libgcc.a(_fpcmp_parts_sf.o)
 .debug_pubnames
                0x00002984       0x20 /opt/altera/10.1sp1/nios2eds/bin/gnu/H-i686-pc-linux-gnu/bin/../lib/gcc/nios2-elf/4.1.2/libgcc.a(_make_sf.o)
 .debug_pubnames
                0x000029a4       0x1f /opt/altera/10.1sp1/nios2eds/bin/gnu/H-i686-pc-linux-gnu/bin/../lib/gcc/nios2-elf/4.1.2/libgcc.a(_pack_df.o)
 .debug_pubnames
                0x000029c3       0x21 /opt/altera/10.1sp1/nios2eds/bin/gnu/H-i686-pc-linux-gnu/bin/../lib/gcc/nios2-elf/4.1.2/libgcc.a(_unpack_df.o)
 .debug_pubnames
                0x000029e4       0x26 /opt/altera/10.1sp1/nios2eds/bin/gnu/H-i686-pc-linux-gnu/bin/../lib/gcc/nios2-elf/4.1.2/libgcc.a(_fpcmp_parts_df.o)
 .debug_pubnames
                0x00002a0a       0x1f /opt/altera/10.1sp1/nios2eds/bin/gnu/H-i686-pc-linux-gnu/bin/../lib/gcc/nios2-elf/4.1.2/libgcc.a(_pack_sf.o)
 .debug_pubnames
                0x00002a29       0x27 ../StereoCameraServer_bsp/libucosii_bsp.a(alt_dcache_flush.o)
 .debug_pubnames
                0x00002a50       0x20 ../StereoCameraServer_bsp/libucosii_bsp.a(alt_errno.o)
 .debug_pubnames
                0x00002a70       0x1c ../StereoCameraServer_bsp/libucosii_bsp.a(alt_exit.o)
 .debug_pubnames
                0x00002a8c       0x58 ../StereoCameraServer_bsp/libucosii_bsp.a(alt_flash_dev.o)
 .debug_pubnames
                0x00002ae4       0x1c ../StereoCameraServer_bsp/libucosii_bsp.a(alt_fstat.o)
 .debug_pubnames
                0x00002b00       0x1d ../StereoCameraServer_bsp/libucosii_bsp.a(alt_getpid.o)
 .debug_pubnames
                0x00002b1d       0x27 ../StereoCameraServer_bsp/libucosii_bsp.a(alt_irq_register.o)
 .debug_pubnames
                0x00002b44       0x3b ../StereoCameraServer_bsp/libucosii_bsp.a(alt_irq_vars.o)
 .debug_pubnames
                0x00002b7f       0x1d ../StereoCameraServer_bsp/libucosii_bsp.a(alt_isatty.o)
 .debug_pubnames
                0x00002b9c       0x1b ../StereoCameraServer_bsp/libucosii_bsp.a(alt_kill.o)
 .debug_pubnames
                0x00002bb7       0x1f ../StereoCameraServer_bsp/libucosii_bsp.a(alt_load.o)
 .debug_pubnames
                0x00002bd6       0x1c ../StereoCameraServer_bsp/libucosii_bsp.a(alt_lseek.o)
 .debug_pubnames
                0x00002bf2       0x46 ../StereoCameraServer_bsp/libucosii_bsp.a(alt_main.o)
 .debug_pubnames
                0x00002c38       0x1b ../StereoCameraServer_bsp/libucosii_bsp.a(alt_open.o)
 .debug_pubnames
                0x00002c53       0x25 ../StereoCameraServer_bsp/libucosii_bsp.a(alt_release_fd.o)
 .debug_pubnames
                0x00002c78       0x1b ../StereoCameraServer_bsp/libucosii_bsp.a(alt_sbrk.o)
 .debug_pubnames
                0x00002c93       0x68 ../StereoCameraServer_bsp/libucosii_bsp.a(alt_tick.o)
 .debug_pubnames
                0x00002cfb       0x41 ../StereoCameraServer_bsp/libucosii_bsp.a(alt_env_lock.o)
 .debug_pubnames
                0x00002d3c       0x48 ../StereoCameraServer_bsp/libucosii_bsp.a(alt_malloc_lock.o)
 .debug_pubnames
                0x00002d84      0x3f8 ../StereoCameraServer_bsp/libucosii_bsp.a(os_core.o)
 .debug_pubnames
                0x0000317c      0x3c5 ../StereoCameraServer_bsp/libucosii_bsp.a(os_dbg.o)
 .debug_pubnames
                0x00003541       0xd0 ../StereoCameraServer_bsp/libucosii_bsp.a(os_flag.o)
 .debug_pubnames
                0x00003611       0x96 ../StereoCameraServer_bsp/libucosii_bsp.a(os_mbox.o)
 .debug_pubnames
                0x000036a7       0x7c ../StereoCameraServer_bsp/libucosii_bsp.a(os_mem.o)
 .debug_pubnames
                0x00003723       0xa9 ../StereoCameraServer_bsp/libucosii_bsp.a(os_q.o)
 .debug_pubnames
                0x000037cc       0x8a ../StereoCameraServer_bsp/libucosii_bsp.a(os_sem.o)
 .debug_pubnames
                0x00003856       0xe5 ../StereoCameraServer_bsp/libucosii_bsp.a(os_task.o)
 .debug_pubnames
                0x0000393b       0x62 ../StereoCameraServer_bsp/libucosii_bsp.a(os_time.o)
 .debug_pubnames
                0x0000399d       0x45 ../StereoCameraServer_bsp/libucosii_bsp.a(alt_sys_init.o)
 .debug_pubnames
                0x000039e2       0xac ../StereoCameraServer_bsp/libucosii_bsp.a(altera_avalon_cfi_flash.o)
 .debug_pubnames
                0x00003a8e      0x27a ../StereoCameraServer_bsp/libucosii_bsp.a(altera_avalon_cfi_flash_table.o)
 .debug_pubnames
                0x00003d08       0xa5 ../StereoCameraServer_bsp/libucosii_bsp.a(altera_avalon_jtag_uart_fd.o)
 .debug_pubnames
                0x00003dad       0x55 ../StereoCameraServer_bsp/libucosii_bsp.a(altera_avalon_jtag_uart_init.o)
 .debug_pubnames
                0x00003e02       0x34 ../StereoCameraServer_bsp/libucosii_bsp.a(altera_avalon_jtag_uart_ioctl.o)
 .debug_pubnames
                0x00003e36       0x33 ../StereoCameraServer_bsp/libucosii_bsp.a(altera_avalon_jtag_uart_read.o)
 .debug_pubnames
                0x00003e69       0x34 ../StereoCameraServer_bsp/libucosii_bsp.a(altera_avalon_jtag_uart_write.o)
 .debug_pubnames
                0x00003e9d       0x55 ../StereoCameraServer_bsp/libucosii_bsp.a(altera_avalon_lcd_16207.o)
 .debug_pubnames
                0x00003ef2       0x37 ../StereoCameraServer_bsp/libucosii_bsp.a(altera_avalon_lcd_16207_fd.o)
 .debug_pubnames
                0x00003f29       0x2f ../StereoCameraServer_bsp/libucosii_bsp.a(altera_avalon_timer_sc.o)
 .debug_pubnames
                0x00003f58       0x71 ../StereoCameraServer_bsp/libucosii_bsp.a(altera_avalon_uart_fd.o)
 .debug_pubnames
                0x00003fc9       0x2f ../StereoCameraServer_bsp/libucosii_bsp.a(altera_avalon_uart_write.o)
 .debug_pubnames
                0x00003ff8       0xa3 ../StereoCameraServer_bsp/libucosii_bsp.a(altera_ro_zipfs.o)
 .debug_pubnames
                0x0000409b      0x102 ../StereoCameraServer_bsp/libucosii_bsp.a(dm9000a.o)
 .debug_pubnames
                0x0000419d       0x1c ../StereoCameraServer_bsp/libucosii_bsp.a(alt_iniche_close.o)
 .debug_pubnames
                0x000041b9       0x42 ../StereoCameraServer_bsp/libucosii_bsp.a(alt_iniche_dev.o)
 .debug_pubnames
                0x000041fb       0x1c ../StereoCameraServer_bsp/libucosii_bsp.a(alt_iniche_fcntl.o)
 .debug_pubnames
                0x00004217       0x1b ../StereoCameraServer_bsp/libucosii_bsp.a(alt_iniche_read.o)
 .debug_pubnames
                0x00004232       0x1c ../StereoCameraServer_bsp/libucosii_bsp.a(alt_iniche_write.o)
 .debug_pubnames
                0x0000424e       0x90 ../StereoCameraServer_bsp/libucosii_bsp.a(ipnet.o)
 .debug_pubnames
                0x000042de       0x81 ../StereoCameraServer_bsp/libucosii_bsp.a(ipstart.o)
 .debug_pubnames
                0x0000435f      0x108 ../StereoCameraServer_bsp/libucosii_bsp.a(igmp_cmn.o)
 .debug_pubnames
                0x00004467       0xc4 ../StereoCameraServer_bsp/libucosii_bsp.a(bsdsock.o)
 .debug_pubnames
                0x0000452b       0x27 ../StereoCameraServer_bsp/libucosii_bsp.a(cksum.o)
 .debug_pubnames
                0x00004552       0xcc ../StereoCameraServer_bsp/libucosii_bsp.a(in_utils.o)
 .debug_pubnames
                0x0000461e       0xb2 ../StereoCameraServer_bsp/libucosii_bsp.a(netmain.o)
 .debug_pubnames
                0x000046d0       0x97 ../StereoCameraServer_bsp/libucosii_bsp.a(tk_crnos.o)
 .debug_pubnames
                0x00004767       0xe2 ../StereoCameraServer_bsp/libucosii_bsp.a(pktalloc.o)
 .debug_pubnames
                0x00004849       0x2d ../StereoCameraServer_bsp/libucosii_bsp.a(q.o)
 .debug_pubnames
                0x00004876       0xc5 ../StereoCameraServer_bsp/libucosii_bsp.a(brdutils.o)
 .debug_pubnames
                0x0000493b      0x10c ../StereoCameraServer_bsp/libucosii_bsp.a(osportco.o)
 .debug_pubnames
                0x00004a47       0xf5 ../StereoCameraServer_bsp/libucosii_bsp.a(targnios.o)
 .debug_pubnames
                0x00004b3c      0x190 ../StereoCameraServer_bsp/libucosii_bsp.a(nptcp.o)
 .debug_pubnames
                0x00004ccc       0x46 ../StereoCameraServer_bsp/libucosii_bsp.a(rawsock.o)
 .debug_pubnames
                0x00004d12      0x108 ../StereoCameraServer_bsp/libucosii_bsp.a(sockcall.o)
 .debug_pubnames
                0x00004e1a       0xfc ../StereoCameraServer_bsp/libucosii_bsp.a(socket.o)
 .debug_pubnames
                0x00004f16      0x178 ../StereoCameraServer_bsp/libucosii_bsp.a(socket2.o)
 .debug_pubnames
                0x0000508e       0x92 ../StereoCameraServer_bsp/libucosii_bsp.a(soselect.o)
 .debug_pubnames
                0x00005120       0xc2 ../StereoCameraServer_bsp/libucosii_bsp.a(tcp_in.o)
 .debug_pubnames
                0x000051e2       0x57 ../StereoCameraServer_bsp/libucosii_bsp.a(tcp_out.o)
 .debug_pubnames
                0x00005239       0xb9 ../StereoCameraServer_bsp/libucosii_bsp.a(tcp_subr.o)
 .debug_pubnames
                0x000052f2       0x96 ../StereoCameraServer_bsp/libucosii_bsp.a(tcp_timr.o)
 .debug_pubnames
                0x00005388       0x79 ../StereoCameraServer_bsp/libucosii_bsp.a(tcp_usr.o)
 .debug_pubnames
                0x00005401       0x1e ../StereoCameraServer_bsp/libucosii_bsp.a(tcpport.o)
 .debug_pubnames
                0x0000541f       0x76 ../StereoCameraServer_bsp/libucosii_bsp.a(udpsock.o)
 .debug_pubnames
                0x00005495       0x26 ../StereoCameraServer_bsp/libucosii_bsp.a(alt_alarm_start.o)
 .debug_pubnames
                0x000054bb       0x20 ../StereoCameraServer_bsp/libucosii_bsp.a(alt_close.o)
 .debug_pubnames
                0x000054db       0x2b ../StereoCameraServer_bsp/libucosii_bsp.a(alt_dcache_flush_all.o)
 .debug_pubnames
                0x00005506       0x78 ../StereoCameraServer_bsp/libucosii_bsp.a(alt_dev.o)
 .debug_pubnames
                0x0000557e       0x2b ../StereoCameraServer_bsp/libucosii_bsp.a(alt_dev_llist_insert.o)
 .debug_pubnames
                0x000055a9       0x20 ../StereoCameraServer_bsp/libucosii_bsp.a(alt_do_ctors.o)
 .debug_pubnames
                0x000055c9       0x20 ../StereoCameraServer_bsp/libucosii_bsp.a(alt_do_dtors.o)
 .debug_pubnames
                0x000055e9       0x20 ../StereoCameraServer_bsp/libucosii_bsp.a(alt_fcntl.o)
 .debug_pubnames
                0x00005609       0x23 ../StereoCameraServer_bsp/libucosii_bsp.a(alt_find_dev.o)
 .debug_pubnames
                0x0000562c       0x24 ../StereoCameraServer_bsp/libucosii_bsp.a(alt_find_file.o)
 .debug_pubnames
                0x00005650       0x21 ../StereoCameraServer_bsp/libucosii_bsp.a(alt_fs_reg.o)
 .debug_pubnames
                0x00005671       0x21 ../StereoCameraServer_bsp/libucosii_bsp.a(alt_get_fd.o)
 .debug_pubnames
                0x00005692       0x2b ../StereoCameraServer_bsp/libucosii_bsp.a(alt_icache_flush_all.o)
 .debug_pubnames
                0x000056bd       0x26 ../StereoCameraServer_bsp/libucosii_bsp.a(alt_io_redirect.o)
 .debug_pubnames
                0x000056e3       0x32 ../StereoCameraServer_bsp/libucosii_bsp.a(alt_irq_handler.o)
 .debug_pubnames
                0x00005715       0x1f ../StereoCameraServer_bsp/libucosii_bsp.a(alt_read.o)
 .debug_pubnames
                0x00005734       0x27 ../StereoCameraServer_bsp/libucosii_bsp.a(alt_remap_cached.o)
 .debug_pubnames
                0x0000575b       0x29 ../StereoCameraServer_bsp/libucosii_bsp.a(alt_remap_uncached.o)
 .debug_pubnames
                0x00005784       0x1d ../StereoCameraServer_bsp/libucosii_bsp.a(alt_usleep.o)
 .debug_pubnames
                0x000057a1       0x20 ../StereoCameraServer_bsp/libucosii_bsp.a(alt_write.o)
 .debug_pubnames
                0x000057c1       0x2c ../StereoCameraServer_bsp/libucosii_bsp.a(altera_nios2_irq.o)
 .debug_pubnames
                0x000057ed       0xcd ../StereoCameraServer_bsp/libucosii_bsp.a(os_cpu_c.o)
 .debug_pubnames
                0x000058ba       0x3e ../StereoCameraServer_bsp/libucosii_bsp.a(altera_avalon_cfi_flash_amd.o)
 .debug_pubnames
                0x000058f8       0x42 ../StereoCameraServer_bsp/libucosii_bsp.a(altera_avalon_cfi_flash_intel.o)
 .debug_pubnames
                0x0000593a       0xd4 ../StereoCameraServer_bsp/libucosii_bsp.a(allports.o)
 .debug_pubnames
                0x00005a0e       0x6f ../StereoCameraServer_bsp/libucosii_bsp.a(timeouts.o)
 .debug_pubnames
                0x00005a7d       0x35 ../StereoCameraServer_bsp/libucosii_bsp.a(tk_misc.o)
 .debug_pubnames
                0x00005ab2      0x134 ../StereoCameraServer_bsp/libucosii_bsp.a(et_arp.o)
 .debug_pubnames
                0x00005be6       0x58 ../StereoCameraServer_bsp/libucosii_bsp.a(iface.o)
 .debug_pubnames
                0x00005c3e       0xea ../StereoCameraServer_bsp/libucosii_bsp.a(ip.o)
 .debug_pubnames
                0x00005d28      0x22e ../StereoCameraServer_bsp/libucosii_bsp.a(ip_reasm.o)
 .debug_pubnames
                0x00005f56       0x3c ../StereoCameraServer_bsp/libucosii_bsp.a(ipdemux.o)
 .debug_pubnames
                0x00005f92       0x43 ../StereoCameraServer_bsp/libucosii_bsp.a(ipmc.o)
 .debug_pubnames
                0x00005fd5       0x99 ../StereoCameraServer_bsp/libucosii_bsp.a(ipport.o)
 .debug_pubnames
                0x0000606e       0x87 ../StereoCameraServer_bsp/libucosii_bsp.a(ipraw.o)
 .debug_pubnames
                0x000060f5       0x5d ../StereoCameraServer_bsp/libucosii_bsp.a(iproute.o)
 .debug_pubnames
                0x00006152       0x7f ../StereoCameraServer_bsp/libucosii_bsp.a(udp.o)
 .debug_pubnames
                0x000061d1       0x23 ../StereoCameraServer_bsp/libucosii_bsp.a(igmp.o)
 .debug_pubnames
                0x000061f4       0x8d ../StereoCameraServer_bsp/libucosii_bsp.a(igmp2.o)
 .debug_pubnames
                0x00006281       0x5f ../StereoCameraServer_bsp/libucosii_bsp.a(ipopt.o)
 .debug_pubnames
                0x000062e0       0x35 ../StereoCameraServer_bsp/libucosii_bsp.a(u_mctest.o)
 .debug_pubnames
                0x00006315       0xb1 ../StereoCameraServer_bsp/libucosii_bsp.a(memdev.o)
 .debug_pubnames
                0x000063c6       0xa6 ../StereoCameraServer_bsp/libucosii_bsp.a(parseip.o)
 .debug_pubnames
                0x0000646c       0x20 ../StereoCameraServer_bsp/libucosii_bsp.a(tcpcksum.o)
 .debug_pubnames
                0x0000648c       0x3a ../StereoCameraServer_bsp/libucosii_bsp.a(udp_open.o)
 .debug_pubnames
                0x000064c6       0xc8 ../StereoCameraServer_bsp/libucosii_bsp.a(in_pcb.o)
 .debug_pubnames
                0x0000658e      0x278 ../StereoCameraServer_bsp/libucosii_bsp.a(vfsfiles.o)
 .debug_pubnames
                0x00006806       0x1f ../StereoCameraServer_bsp/libucosii_bsp.a(vfsport.o)
 .debug_pubnames
                0x00006825       0x25 ../StereoCameraServer_bsp/libucosii_bsp.a(alt_busy_sleep.o)
 .debug_pubnames
                0x0000684a       0x27 ../StereoCameraServer_bsp/libucosii_bsp.a(alt_icache_flush.o)
 .debug_pubnames
                0x00006871       0x66 ../StereoCameraServer_bsp/libucosii_bsp.a(icmp.o)
 .debug_pubnames
                0x000068d7       0x2a /opt/altera/10.1sp1/nios2eds/bin/gnu/H-i686-pc-linux-gnu/bin/../lib/gcc/nios2-elf/4.1.2/../../../../nios2-elf/lib/libc.a(lib_a-atexit.o)
 .debug_pubnames
                0x00006901       0x1d /opt/altera/10.1sp1/nios2eds/bin/gnu/H-i686-pc-linux-gnu/bin/../lib/gcc/nios2-elf/4.1.2/../../../../nios2-elf/lib/libc.a(lib_a-calloc.o)
 .debug_pubnames
                0x0000691e       0x1b /opt/altera/10.1sp1/nios2eds/bin/gnu/H-i686-pc-linux-gnu/bin/../lib/gcc/nios2-elf/4.1.2/../../../../nios2-elf/lib/libc.a(lib_a-exit.o)
 .debug_pubnames
                0x00006939       0x2d /opt/altera/10.1sp1/nios2eds/bin/gnu/H-i686-pc-linux-gnu/bin/../lib/gcc/nios2-elf/4.1.2/../../../../nios2-elf/lib/libc.a(lib_a-vprintf.o)
 .debug_pubnames
                0x00006966       0x2f /opt/altera/10.1sp1/nios2eds/bin/gnu/H-i686-pc-linux-gnu/bin/../lib/gcc/nios2-elf/4.1.2/../../../../nios2-elf/lib/libc.a(lib_a-vsprintf.o)
 .debug_pubnames
                0x00006995       0x2a /opt/altera/10.1sp1/nios2eds/bin/gnu/H-i686-pc-linux-gnu/bin/../lib/gcc/nios2-elf/4.1.2/../../../../nios2-elf/lib/libc.a(lib_a-__atexit.o)
 .debug_pubnames
                0x000069bf       0x27 /opt/altera/10.1sp1/nios2eds/bin/gnu/H-i686-pc-linux-gnu/bin/../lib/gcc/nios2-elf/4.1.2/../../../../nios2-elf/lib/libc.a(lib_a-__call_atexit.o)

.debug_info     0x00000000    0xa451c
 *(.debug_info .gnu.linkonce.wi.*)
 .debug_info    0x00000000       0xe3 ../StereoCameraServer_bsp/obj/HAL/src/crt0.o
 .debug_info    0x000000e3      0xd24 obj/alt_error_handler.o
 .debug_info    0x00000e07      0x89f obj/altera_avalon_uart_init.o
 .debug_info    0x000016a6      0x7f2 obj/altera_avalon_uart_read.o
 .debug_info    0x00001e98     0x235b obj/http.o
 .debug_info    0x000041f3     0x1e49 obj/network_utilities.o
 .debug_info    0x0000603c      0xbd6 obj/srec_flash.o
 .debug_info    0x00006c12     0x1a15 obj/web_server.o
 .debug_info    0x00008627     0x198a obj/Camera.o
 .debug_info    0x00009fb1     0x1724 obj/StereoCamera.o
 .debug_info    0x0000b6d5     0x17a3 obj/cam_control.o
 .debug_info    0x0000ce78     0x14a0 /opt/altera/10.1sp1/nios2eds/bin/gnu/H-i686-pc-linux-gnu/bin/../lib/gcc/nios2-elf/4.1.2/../../../../nios2-elf/lib/libstdc++.a(eh_personality.o)
 .debug_info    0x0000e318      0xaf4 /opt/altera/10.1sp1/nios2eds/bin/gnu/H-i686-pc-linux-gnu/bin/../lib/gcc/nios2-elf/4.1.2/../../../../nios2-elf/lib/libstdc++.a(eh_globals.o)
 .debug_info    0x0000ee0c      0x6e7 /opt/altera/10.1sp1/nios2eds/bin/gnu/H-i686-pc-linux-gnu/bin/../lib/gcc/nios2-elf/4.1.2/../../../../nios2-elf/lib/libstdc++.a(eh_throw.o)
 .debug_info    0x0000f4f3      0x8cd /opt/altera/10.1sp1/nios2eds/bin/gnu/H-i686-pc-linux-gnu/bin/../lib/gcc/nios2-elf/4.1.2/../../../../nios2-elf/lib/libstdc++.a(eh_call.o)
 .debug_info    0x0000fdc0      0xa78 /opt/altera/10.1sp1/nios2eds/bin/gnu/H-i686-pc-linux-gnu/bin/../lib/gcc/nios2-elf/4.1.2/../../../../nios2-elf/lib/libstdc++.a(eh_catch.o)
 .debug_info    0x00010838      0x511 /opt/altera/10.1sp1/nios2eds/bin/gnu/H-i686-pc-linux-gnu/bin/../lib/gcc/nios2-elf/4.1.2/../../../../nios2-elf/lib/libstdc++.a(eh_exception.o)
 .debug_info    0x00010d49      0x9c9 /opt/altera/10.1sp1/nios2eds/bin/gnu/H-i686-pc-linux-gnu/bin/../lib/gcc/nios2-elf/4.1.2/../../../../nios2-elf/lib/libstdc++.a(eh_terminate.o)
 .debug_info    0x00011712      0x9dd /opt/altera/10.1sp1/nios2eds/bin/gnu/H-i686-pc-linux-gnu/bin/../lib/gcc/nios2-elf/4.1.2/../../../../nios2-elf/lib/libstdc++.a(si_class_type_info.o)
 .debug_info    0x000120ef      0xaab /opt/altera/10.1sp1/nios2eds/bin/gnu/H-i686-pc-linux-gnu/bin/../lib/gcc/nios2-elf/4.1.2/../../../../nios2-elf/lib/libstdc++.a(eh_alloc.o)
 .debug_info    0x00012b9a      0x4e6 /opt/altera/10.1sp1/nios2eds/bin/gnu/H-i686-pc-linux-gnu/bin/../lib/gcc/nios2-elf/4.1.2/../../../../nios2-elf/lib/libstdc++.a(eh_term_handler.o)
 .debug_info    0x00013080      0x77c /opt/altera/10.1sp1/nios2eds/bin/gnu/H-i686-pc-linux-gnu/bin/../lib/gcc/nios2-elf/4.1.2/../../../../nios2-elf/lib/libstdc++.a(tinfo.o)
 .debug_info    0x000137fc      0x44c /opt/altera/10.1sp1/nios2eds/bin/gnu/H-i686-pc-linux-gnu/bin/../lib/gcc/nios2-elf/4.1.2/../../../../nios2-elf/lib/libstdc++.a(del_op.o)
 .debug_info    0x00013c48      0x8df /opt/altera/10.1sp1/nios2eds/bin/gnu/H-i686-pc-linux-gnu/bin/../lib/gcc/nios2-elf/4.1.2/../../../../nios2-elf/lib/libstdc++.a(class_type_info.o)
 .debug_info    0x00014527      0x4cc /opt/altera/10.1sp1/nios2eds/bin/gnu/H-i686-pc-linux-gnu/bin/../lib/gcc/nios2-elf/4.1.2/../../../../nios2-elf/lib/libstdc++.a(eh_unex_handler.o)
 .debug_info    0x000149f3      0x21c /opt/altera/10.1sp1/nios2eds/bin/gnu/H-i686-pc-linux-gnu/bin/../lib/gcc/nios2-elf/4.1.2/libgcc.a(lib2-divmod.o)
 .debug_info    0x00014c0f     0x232f /opt/altera/10.1sp1/nios2eds/bin/gnu/H-i686-pc-linux-gnu/bin/../lib/gcc/nios2-elf/4.1.2/libgcc.a(unwind-dw2.o)
 .debug_info    0x00016f3e     0x1678 /opt/altera/10.1sp1/nios2eds/bin/gnu/H-i686-pc-linux-gnu/bin/../lib/gcc/nios2-elf/4.1.2/libgcc.a(unwind-dw2-fde.o)
 .debug_info    0x000185b6       0x8f /opt/altera/10.1sp1/nios2eds/bin/gnu/H-i686-pc-linux-gnu/bin/../lib/gcc/nios2-elf/4.1.2/../../../../nios2-elf/lib/libc.a(lib_a-abort.o)
 .debug_info    0x00018645      0x960 /opt/altera/10.1sp1/nios2eds/bin/gnu/H-i686-pc-linux-gnu/bin/../lib/gcc/nios2-elf/4.1.2/../../../../nios2-elf/lib/libc.a(lib_a-atoi.o)
 .debug_info    0x00018fa5       0xa0 /opt/altera/10.1sp1/nios2eds/bin/gnu/H-i686-pc-linux-gnu/bin/../lib/gcc/nios2-elf/4.1.2/../../../../nios2-elf/lib/libc.a(lib_a-ctype_.o)
 .debug_info    0x00019045      0x994 /opt/altera/10.1sp1/nios2eds/bin/gnu/H-i686-pc-linux-gnu/bin/../lib/gcc/nios2-elf/4.1.2/../../../../nios2-elf/lib/libc.a(lib_a-fclose.o)
 .debug_info    0x000199d9      0x9fe /opt/altera/10.1sp1/nios2eds/bin/gnu/H-i686-pc-linux-gnu/bin/../lib/gcc/nios2-elf/4.1.2/../../../../nios2-elf/lib/libc.a(lib_a-fflush.o)
 .debug_info    0x0001a3d7      0x9a7 /opt/altera/10.1sp1/nios2eds/bin/gnu/H-i686-pc-linux-gnu/bin/../lib/gcc/nios2-elf/4.1.2/../../../../nios2-elf/lib/libc.a(lib_a-fgetc.o)
 .debug_info    0x0001ad7e      0x9ab /opt/altera/10.1sp1/nios2eds/bin/gnu/H-i686-pc-linux-gnu/bin/../lib/gcc/nios2-elf/4.1.2/../../../../nios2-elf/lib/libc.a(lib_a-fgetpos.o)
 .debug_info    0x0001b729      0x958 /opt/altera/10.1sp1/nios2eds/bin/gnu/H-i686-pc-linux-gnu/bin/../lib/gcc/nios2-elf/4.1.2/../../../../nios2-elf/lib/libc.a(lib_a-fileno.o)
 .debug_info    0x0001c081      0xb72 /opt/altera/10.1sp1/nios2eds/bin/gnu/H-i686-pc-linux-gnu/bin/../lib/gcc/nios2-elf/4.1.2/../../../../nios2-elf/lib/libc.a(lib_a-findfp.o)
 .debug_info    0x0001cbf3      0x9e0 /opt/altera/10.1sp1/nios2eds/bin/gnu/H-i686-pc-linux-gnu/bin/../lib/gcc/nios2-elf/4.1.2/../../../../nios2-elf/lib/libc.a(lib_a-fopen.o)
 .debug_info    0x0001d5d3      0x9e1 /opt/altera/10.1sp1/nios2eds/bin/gnu/H-i686-pc-linux-gnu/bin/../lib/gcc/nios2-elf/4.1.2/../../../../nios2-elf/lib/libc.a(lib_a-fprintf.o)
 .debug_info    0x0001dfb4      0x9bd /opt/altera/10.1sp1/nios2eds/bin/gnu/H-i686-pc-linux-gnu/bin/../lib/gcc/nios2-elf/4.1.2/../../../../nios2-elf/lib/libc.a(lib_a-fputc.o)
 .debug_info    0x0001e971      0xa77 /opt/altera/10.1sp1/nios2eds/bin/gnu/H-i686-pc-linux-gnu/bin/../lib/gcc/nios2-elf/4.1.2/../../../../nios2-elf/lib/libc.a(lib_a-fread.o)
 .debug_info    0x0001f3e8      0xbc9 /opt/altera/10.1sp1/nios2eds/bin/gnu/H-i686-pc-linux-gnu/bin/../lib/gcc/nios2-elf/4.1.2/../../../../nios2-elf/lib/libc.a(lib_a-freer.o)
 .debug_info    0x0001ffb1      0xbdc /opt/altera/10.1sp1/nios2eds/bin/gnu/H-i686-pc-linux-gnu/bin/../lib/gcc/nios2-elf/4.1.2/../../../../nios2-elf/lib/libc.a(lib_a-fseek.o)
 .debug_info    0x00020b8d      0xafc /opt/altera/10.1sp1/nios2eds/bin/gnu/H-i686-pc-linux-gnu/bin/../lib/gcc/nios2-elf/4.1.2/../../../../nios2-elf/lib/libc.a(lib_a-fstatr.o)
 .debug_info    0x00021689      0x996 /opt/altera/10.1sp1/nios2eds/bin/gnu/H-i686-pc-linux-gnu/bin/../lib/gcc/nios2-elf/4.1.2/../../../../nios2-elf/lib/libc.a(lib_a-ftell.o)
 .debug_info    0x0002201f      0xaed /opt/altera/10.1sp1/nios2eds/bin/gnu/H-i686-pc-linux-gnu/bin/../lib/gcc/nios2-elf/4.1.2/../../../../nios2-elf/lib/libc.a(lib_a-fwalk.o)
 .debug_info    0x00022b0c      0xa83 /opt/altera/10.1sp1/nios2eds/bin/gnu/H-i686-pc-linux-gnu/bin/../lib/gcc/nios2-elf/4.1.2/../../../../nios2-elf/lib/libc.a(lib_a-fwrite.o)
 .debug_info    0x0002358f      0x9a7 /opt/altera/10.1sp1/nios2eds/bin/gnu/H-i686-pc-linux-gnu/bin/../lib/gcc/nios2-elf/4.1.2/../../../../nios2-elf/lib/libc.a(lib_a-getc.o)
 .debug_info    0x00023f36      0x93d /opt/altera/10.1sp1/nios2eds/bin/gnu/H-i686-pc-linux-gnu/bin/../lib/gcc/nios2-elf/4.1.2/../../../../nios2-elf/lib/libc.a(lib_a-impure.o)
 .debug_info    0x00024873       0x8c /opt/altera/10.1sp1/nios2eds/bin/gnu/H-i686-pc-linux-gnu/bin/../lib/gcc/nios2-elf/4.1.2/../../../../nios2-elf/lib/libc.a(lib_a-int_errno.o)
 .debug_info    0x000248ff      0xb1a /opt/altera/10.1sp1/nios2eds/bin/gnu/H-i686-pc-linux-gnu/bin/../lib/gcc/nios2-elf/4.1.2/../../../../nios2-elf/lib/libc.a(lib_a-makebuf.o)
 .debug_info    0x00025419      0x96e /opt/altera/10.1sp1/nios2eds/bin/gnu/H-i686-pc-linux-gnu/bin/../lib/gcc/nios2-elf/4.1.2/../../../../nios2-elf/lib/libc.a(lib_a-malloc.o)
 .debug_info    0x00025d87      0xcd0 /opt/altera/10.1sp1/nios2eds/bin/gnu/H-i686-pc-linux-gnu/bin/../lib/gcc/nios2-elf/4.1.2/../../../../nios2-elf/lib/libc.a(lib_a-mallocr.o)
 .debug_info    0x00026a57      0x106 /opt/altera/10.1sp1/nios2eds/bin/gnu/H-i686-pc-linux-gnu/bin/../lib/gcc/nios2-elf/4.1.2/../../../../nios2-elf/lib/libc.a(lib_a-memcpy.o)
 .debug_info    0x00026b5d      0x13e /opt/altera/10.1sp1/nios2eds/bin/gnu/H-i686-pc-linux-gnu/bin/../lib/gcc/nios2-elf/4.1.2/../../../../nios2-elf/lib/libc.a(lib_a-memmove.o)
 .debug_info    0x00026c9b      0x113 /opt/altera/10.1sp1/nios2eds/bin/gnu/H-i686-pc-linux-gnu/bin/../lib/gcc/nios2-elf/4.1.2/../../../../nios2-elf/lib/libc.a(lib_a-memset.o)
 .debug_info    0x00026dae      0x977 /opt/altera/10.1sp1/nios2eds/bin/gnu/H-i686-pc-linux-gnu/bin/../lib/gcc/nios2-elf/4.1.2/../../../../nios2-elf/lib/libc.a(lib_a-openr.o)
 .debug_info    0x00027725      0x97b /opt/altera/10.1sp1/nios2eds/bin/gnu/H-i686-pc-linux-gnu/bin/../lib/gcc/nios2-elf/4.1.2/../../../../nios2-elf/lib/libc.a(lib_a-perror.o)
 .debug_info    0x000280a0      0x9d1 /opt/altera/10.1sp1/nios2eds/bin/gnu/H-i686-pc-linux-gnu/bin/../lib/gcc/nios2-elf/4.1.2/../../../../nios2-elf/lib/libc.a(lib_a-printf.o)
 .debug_info    0x00028a71      0x9c1 /opt/altera/10.1sp1/nios2eds/bin/gnu/H-i686-pc-linux-gnu/bin/../lib/gcc/nios2-elf/4.1.2/../../../../nios2-elf/lib/libc.a(lib_a-putc.o)
 .debug_info    0x00029432      0x972 /opt/altera/10.1sp1/nios2eds/bin/gnu/H-i686-pc-linux-gnu/bin/../lib/gcc/nios2-elf/4.1.2/../../../../nios2-elf/lib/libc.a(lib_a-putchar.o)
 .debug_info    0x00029da4      0xa25 /opt/altera/10.1sp1/nios2eds/bin/gnu/H-i686-pc-linux-gnu/bin/../lib/gcc/nios2-elf/4.1.2/../../../../nios2-elf/lib/libc.a(lib_a-puts.o)
 .debug_info    0x0002a7c9      0x98b /opt/altera/10.1sp1/nios2eds/bin/gnu/H-i686-pc-linux-gnu/bin/../lib/gcc/nios2-elf/4.1.2/../../../../nios2-elf/lib/libc.a(lib_a-refill.o)
 .debug_info    0x0002b154      0x987 /opt/altera/10.1sp1/nios2eds/bin/gnu/H-i686-pc-linux-gnu/bin/../lib/gcc/nios2-elf/4.1.2/../../../../nios2-elf/lib/libc.a(lib_a-rget.o)
 .debug_info    0x0002badb      0x962 /opt/altera/10.1sp1/nios2eds/bin/gnu/H-i686-pc-linux-gnu/bin/../lib/gcc/nios2-elf/4.1.2/../../../../nios2-elf/lib/libc.a(lib_a-sbrkr.o)
 .debug_info    0x0002c43d      0xae9 /opt/altera/10.1sp1/nios2eds/bin/gnu/H-i686-pc-linux-gnu/bin/../lib/gcc/nios2-elf/4.1.2/../../../../nios2-elf/lib/libc.a(lib_a-signal.o)
 .debug_info    0x0002cf26      0x99e /opt/altera/10.1sp1/nios2eds/bin/gnu/H-i686-pc-linux-gnu/bin/../lib/gcc/nios2-elf/4.1.2/../../../../nios2-elf/lib/libc.a(lib_a-signalr.o)
 .debug_info    0x0002d8c4      0xa16 /opt/altera/10.1sp1/nios2eds/bin/gnu/H-i686-pc-linux-gnu/bin/../lib/gcc/nios2-elf/4.1.2/../../../../nios2-elf/lib/libc.a(lib_a-sprintf.o)
 .debug_info    0x0002e2da      0xa6a /opt/altera/10.1sp1/nios2eds/bin/gnu/H-i686-pc-linux-gnu/bin/../lib/gcc/nios2-elf/4.1.2/../../../../nios2-elf/lib/libc.a(lib_a-sscanf.o)
 .debug_info    0x0002ed44      0xaac /opt/altera/10.1sp1/nios2eds/bin/gnu/H-i686-pc-linux-gnu/bin/../lib/gcc/nios2-elf/4.1.2/../../../../nios2-elf/lib/libc.a(lib_a-stdio.o)
 .debug_info    0x0002f7f0      0x13a /opt/altera/10.1sp1/nios2eds/bin/gnu/H-i686-pc-linux-gnu/bin/../lib/gcc/nios2-elf/4.1.2/../../../../nios2-elf/lib/libc.a(lib_a-strcasecmp.o)
 .debug_info    0x0002f92a       0xed /opt/altera/10.1sp1/nios2eds/bin/gnu/H-i686-pc-linux-gnu/bin/../lib/gcc/nios2-elf/4.1.2/../../../../nios2-elf/lib/libc.a(lib_a-strcat.o)
 .debug_info    0x0002fa17      0x118 /opt/altera/10.1sp1/nios2eds/bin/gnu/H-i686-pc-linux-gnu/bin/../lib/gcc/nios2-elf/4.1.2/../../../../nios2-elf/lib/libc.a(lib_a-strchr.o)
 .debug_info    0x0002fb2f       0xdd /opt/altera/10.1sp1/nios2eds/bin/gnu/H-i686-pc-linux-gnu/bin/../lib/gcc/nios2-elf/4.1.2/../../../../nios2-elf/lib/libc.a(lib_a-strcmp.o)
 .debug_info    0x0002fc0c      0x110 /opt/altera/10.1sp1/nios2eds/bin/gnu/H-i686-pc-linux-gnu/bin/../lib/gcc/nios2-elf/4.1.2/../../../../nios2-elf/lib/libc.a(lib_a-strcpy.o)
 .debug_info    0x0002fd1c       0xbb /opt/altera/10.1sp1/nios2eds/bin/gnu/H-i686-pc-linux-gnu/bin/../lib/gcc/nios2-elf/4.1.2/../../../../nios2-elf/lib/libc.a(lib_a-strerror.o)
 .debug_info    0x0002fdd7       0xdb /opt/altera/10.1sp1/nios2eds/bin/gnu/H-i686-pc-linux-gnu/bin/../lib/gcc/nios2-elf/4.1.2/../../../../nios2-elf/lib/libc.a(lib_a-strlen.o)
 .debug_info    0x0002feb2       0xf5 /opt/altera/10.1sp1/nios2eds/bin/gnu/H-i686-pc-linux-gnu/bin/../lib/gcc/nios2-elf/4.1.2/../../../../nios2-elf/lib/libc.a(lib_a-strncmp.o)
 .debug_info    0x0002ffa7      0x12a /opt/altera/10.1sp1/nios2eds/bin/gnu/H-i686-pc-linux-gnu/bin/../lib/gcc/nios2-elf/4.1.2/../../../../nios2-elf/lib/libc.a(lib_a-strncpy.o)
 .debug_info    0x000300d1      0x3d1 /opt/altera/10.1sp1/nios2eds/bin/gnu/H-i686-pc-linux-gnu/bin/../lib/gcc/nios2-elf/4.1.2/../../../../nios2-elf/lib/libc.a(lib_a-strstr.o)
 .debug_info    0x000304a2      0x949 /opt/altera/10.1sp1/nios2eds/bin/gnu/H-i686-pc-linux-gnu/bin/../lib/gcc/nios2-elf/4.1.2/../../../../nios2-elf/lib/libc.a(lib_a-strtok.o)
 .debug_info    0x00030deb      0x15e /opt/altera/10.1sp1/nios2eds/bin/gnu/H-i686-pc-linux-gnu/bin/../lib/gcc/nios2-elf/4.1.2/../../../../nios2-elf/lib/libc.a(lib_a-strtok_r.o)
 .debug_info    0x00030f49      0xa2a /opt/altera/10.1sp1/nios2eds/bin/gnu/H-i686-pc-linux-gnu/bin/../lib/gcc/nios2-elf/4.1.2/../../../../nios2-elf/lib/libc.a(lib_a-strtol.o)
 .debug_info    0x00031973       0x63 /opt/altera/10.1sp1/nios2eds/bin/gnu/H-i686-pc-linux-gnu/bin/../lib/gcc/nios2-elf/4.1.2/../../../../nios2-elf/lib/libc.a(lib_a-u_strerr.o)
 .debug_info    0x000319d6     0x10d5 /opt/altera/10.1sp1/nios2eds/bin/gnu/H-i686-pc-linux-gnu/bin/../lib/gcc/nios2-elf/4.1.2/../../../../nios2-elf/lib/libc.a(lib_a-vfprintf.o)
 .debug_info    0x00032aab      0xe8c /opt/altera/10.1sp1/nios2eds/bin/gnu/H-i686-pc-linux-gnu/bin/../lib/gcc/nios2-elf/4.1.2/../../../../nios2-elf/lib/libc.a(lib_a-vfscanf.o)
 .debug_info    0x00033937      0x9ae /opt/altera/10.1sp1/nios2eds/bin/gnu/H-i686-pc-linux-gnu/bin/../lib/gcc/nios2-elf/4.1.2/../../../../nios2-elf/lib/libc.a(lib_a-wbuf.o)
 .debug_info    0x000342e5      0x993 /opt/altera/10.1sp1/nios2eds/bin/gnu/H-i686-pc-linux-gnu/bin/../lib/gcc/nios2-elf/4.1.2/../../../../nios2-elf/lib/libc.a(lib_a-writer.o)
 .debug_info    0x00034c78      0x95d /opt/altera/10.1sp1/nios2eds/bin/gnu/H-i686-pc-linux-gnu/bin/../lib/gcc/nios2-elf/4.1.2/../../../../nios2-elf/lib/libc.a(lib_a-wsetup.o)
 .debug_info    0x000355d5      0x958 /opt/altera/10.1sp1/nios2eds/bin/gnu/H-i686-pc-linux-gnu/bin/../lib/gcc/nios2-elf/4.1.2/../../../../nios2-elf/lib/libc.a(lib_a-closer.o)
 .debug_info    0x00035f2d      0xd6f /opt/altera/10.1sp1/nios2eds/bin/gnu/H-i686-pc-linux-gnu/bin/../lib/gcc/nios2-elf/4.1.2/../../../../nios2-elf/lib/libc.a(lib_a-dtoa.o)
 .debug_info    0x00036c9c      0x977 /opt/altera/10.1sp1/nios2eds/bin/gnu/H-i686-pc-linux-gnu/bin/../lib/gcc/nios2-elf/4.1.2/../../../../nios2-elf/lib/libc.a(lib_a-flags.o)
 .debug_info    0x00037613      0xa40 /opt/altera/10.1sp1/nios2eds/bin/gnu/H-i686-pc-linux-gnu/bin/../lib/gcc/nios2-elf/4.1.2/../../../../nios2-elf/lib/libc.a(lib_a-fputs.o)
 .debug_info    0x00038053      0xa88 /opt/altera/10.1sp1/nios2eds/bin/gnu/H-i686-pc-linux-gnu/bin/../lib/gcc/nios2-elf/4.1.2/../../../../nios2-elf/lib/libc.a(lib_a-fvwrite.o)
 .debug_info    0x00038adb      0x958 /opt/altera/10.1sp1/nios2eds/bin/gnu/H-i686-pc-linux-gnu/bin/../lib/gcc/nios2-elf/4.1.2/../../../../nios2-elf/lib/libc.a(lib_a-isattyr.o)
 .debug_info    0x00039433       0xed /opt/altera/10.1sp1/nios2eds/bin/gnu/H-i686-pc-linux-gnu/bin/../lib/gcc/nios2-elf/4.1.2/../../../../nios2-elf/lib/libc.a(lib_a-iswspace.o)
 .debug_info    0x00039520      0xb97 /opt/altera/10.1sp1/nios2eds/bin/gnu/H-i686-pc-linux-gnu/bin/../lib/gcc/nios2-elf/4.1.2/../../../../nios2-elf/lib/libc.a(lib_a-locale.o)
 .debug_info    0x0003a0b7      0x981 /opt/altera/10.1sp1/nios2eds/bin/gnu/H-i686-pc-linux-gnu/bin/../lib/gcc/nios2-elf/4.1.2/../../../../nios2-elf/lib/libc.a(lib_a-lseekr.o)
 .debug_info    0x0003aa38      0xa07 /opt/altera/10.1sp1/nios2eds/bin/gnu/H-i686-pc-linux-gnu/bin/../lib/gcc/nios2-elf/4.1.2/../../../../nios2-elf/lib/libc.a(lib_a-mbrtowc.o)
 .debug_info    0x0003b43f      0x9a2 /opt/altera/10.1sp1/nios2eds/bin/gnu/H-i686-pc-linux-gnu/bin/../lib/gcc/nios2-elf/4.1.2/../../../../nios2-elf/lib/libc.a(lib_a-mbtowc_r.o)
 .debug_info    0x0003bde1      0x138 /opt/altera/10.1sp1/nios2eds/bin/gnu/H-i686-pc-linux-gnu/bin/../lib/gcc/nios2-elf/4.1.2/../../../../nios2-elf/lib/libc.a(lib_a-memchr.o)
 .debug_info    0x0003bf19      0x115 /opt/altera/10.1sp1/nios2eds/bin/gnu/H-i686-pc-linux-gnu/bin/../lib/gcc/nios2-elf/4.1.2/../../../../nios2-elf/lib/libc.a(lib_a-memcmp.o)
 .debug_info    0x0003c02e     0x1437 /opt/altera/10.1sp1/nios2eds/bin/gnu/H-i686-pc-linux-gnu/bin/../lib/gcc/nios2-elf/4.1.2/../../../../nios2-elf/lib/libc.a(lib_a-mprec.o)
 .debug_info    0x0003d465      0x98c /opt/altera/10.1sp1/nios2eds/bin/gnu/H-i686-pc-linux-gnu/bin/../lib/gcc/nios2-elf/4.1.2/../../../../nios2-elf/lib/libc.a(lib_a-readr.o)
 .debug_info    0x0003ddf1      0xbd7 /opt/altera/10.1sp1/nios2eds/bin/gnu/H-i686-pc-linux-gnu/bin/../lib/gcc/nios2-elf/4.1.2/../../../../nios2-elf/lib/libc.a(lib_a-reallocr.o)
 .debug_info    0x0003e9c8       0xd7 /opt/altera/10.1sp1/nios2eds/bin/gnu/H-i686-pc-linux-gnu/bin/../lib/gcc/nios2-elf/4.1.2/../../../../nios2-elf/lib/libc.a(lib_a-s_isinfd.o)
 .debug_info    0x0003ea9f       0xd5 /opt/altera/10.1sp1/nios2eds/bin/gnu/H-i686-pc-linux-gnu/bin/../lib/gcc/nios2-elf/4.1.2/../../../../nios2-elf/lib/libc.a(lib_a-s_isnand.o)
 .debug_info    0x0003eb74       0xfb /opt/altera/10.1sp1/nios2eds/bin/gnu/H-i686-pc-linux-gnu/bin/../lib/gcc/nios2-elf/4.1.2/../../../../nios2-elf/lib/libc.a(lib_a-sccl.o)
 .debug_info    0x0003ec6f       0xc8 /opt/altera/10.1sp1/nios2eds/bin/gnu/H-i686-pc-linux-gnu/bin/../lib/gcc/nios2-elf/4.1.2/../../../../nios2-elf/lib/libc.a(lib_a-sf_nan.o)
 .debug_info    0x0003ed37      0xecc /opt/altera/10.1sp1/nios2eds/bin/gnu/H-i686-pc-linux-gnu/bin/../lib/gcc/nios2-elf/4.1.2/../../../../nios2-elf/lib/libc.a(lib_a-strtod.o)
 .debug_info    0x0003fc03      0x9d5 /opt/altera/10.1sp1/nios2eds/bin/gnu/H-i686-pc-linux-gnu/bin/../lib/gcc/nios2-elf/4.1.2/../../../../nios2-elf/lib/libc.a(lib_a-strtoll_r.o)
 .debug_info    0x000405d8      0xa22 /opt/altera/10.1sp1/nios2eds/bin/gnu/H-i686-pc-linux-gnu/bin/../lib/gcc/nios2-elf/4.1.2/../../../../nios2-elf/lib/libc.a(lib_a-strtoul.o)
 .debug_info    0x00040ffa      0x9cd /opt/altera/10.1sp1/nios2eds/bin/gnu/H-i686-pc-linux-gnu/bin/../lib/gcc/nios2-elf/4.1.2/../../../../nios2-elf/lib/libc.a(lib_a-strtoull_r.o)
 .debug_info    0x000419c7      0x9f6 /opt/altera/10.1sp1/nios2eds/bin/gnu/H-i686-pc-linux-gnu/bin/../lib/gcc/nios2-elf/4.1.2/../../../../nios2-elf/lib/libc.a(lib_a-ungetc.o)
 .debug_info    0x000423bd      0xa1b /opt/altera/10.1sp1/nios2eds/bin/gnu/H-i686-pc-linux-gnu/bin/../lib/gcc/nios2-elf/4.1.2/../../../../nios2-elf/lib/libc.a(lib_a-callocr.o)
 .debug_info    0x00042dd8      0xccb /opt/altera/10.1sp1/nios2eds/bin/gnu/H-i686-pc-linux-gnu/bin/../lib/gcc/nios2-elf/4.1.2/../../../../nios2-elf/lib/libc.a(lib_a-gdtoa-gethex.o)
 .debug_info    0x00043aa3      0x23e /opt/altera/10.1sp1/nios2eds/bin/gnu/H-i686-pc-linux-gnu/bin/../lib/gcc/nios2-elf/4.1.2/../../../../nios2-elf/lib/libc.a(lib_a-gdtoa-hexnan.o)
 .debug_info    0x00043ce1      0x215 /opt/altera/10.1sp1/nios2eds/bin/gnu/H-i686-pc-linux-gnu/bin/../lib/gcc/nios2-elf/4.1.2/libgcc.a(_muldi3.o)
 .debug_info    0x00043ef6       0xce /opt/altera/10.1sp1/nios2eds/bin/gnu/H-i686-pc-linux-gnu/bin/../lib/gcc/nios2-elf/4.1.2/libgcc.a(_fixunsdfsi.o)
 .debug_info    0x00043fc4      0x724 /opt/altera/10.1sp1/nios2eds/bin/gnu/H-i686-pc-linux-gnu/bin/../lib/gcc/nios2-elf/4.1.2/libgcc.a(_udivdi3.o)
 .debug_info    0x000446e8      0x751 /opt/altera/10.1sp1/nios2eds/bin/gnu/H-i686-pc-linux-gnu/bin/../lib/gcc/nios2-elf/4.1.2/libgcc.a(_umoddi3.o)
 .debug_info    0x00044e39      0x290 /opt/altera/10.1sp1/nios2eds/bin/gnu/H-i686-pc-linux-gnu/bin/../lib/gcc/nios2-elf/4.1.2/libgcc.a(_ne_sf.o)
 .debug_info    0x000450c9      0x290 /opt/altera/10.1sp1/nios2eds/bin/gnu/H-i686-pc-linux-gnu/bin/../lib/gcc/nios2-elf/4.1.2/libgcc.a(_gt_sf.o)
 .debug_info    0x00045359      0x290 /opt/altera/10.1sp1/nios2eds/bin/gnu/H-i686-pc-linux-gnu/bin/../lib/gcc/nios2-elf/4.1.2/libgcc.a(_lt_sf.o)
 .debug_info    0x000455e9      0x493 /opt/altera/10.1sp1/nios2eds/bin/gnu/H-i686-pc-linux-gnu/bin/../lib/gcc/nios2-elf/4.1.2/libgcc.a(_addsub_df.o)
 .debug_info    0x00045a7c      0x488 /opt/altera/10.1sp1/nios2eds/bin/gnu/H-i686-pc-linux-gnu/bin/../lib/gcc/nios2-elf/4.1.2/libgcc.a(_mul_df.o)
 .debug_info    0x00045f04      0x39b /opt/altera/10.1sp1/nios2eds/bin/gnu/H-i686-pc-linux-gnu/bin/../lib/gcc/nios2-elf/4.1.2/libgcc.a(_div_df.o)
 .debug_info    0x0004629f      0x29d /opt/altera/10.1sp1/nios2eds/bin/gnu/H-i686-pc-linux-gnu/bin/../lib/gcc/nios2-elf/4.1.2/libgcc.a(_eq_df.o)
 .debug_info    0x0004653c      0x29d /opt/altera/10.1sp1/nios2eds/bin/gnu/H-i686-pc-linux-gnu/bin/../lib/gcc/nios2-elf/4.1.2/libgcc.a(_ne_df.o)
 .debug_info    0x000467d9      0x29d /opt/altera/10.1sp1/nios2eds/bin/gnu/H-i686-pc-linux-gnu/bin/../lib/gcc/nios2-elf/4.1.2/libgcc.a(_gt_df.o)
 .debug_info    0x00046a76      0x29d /opt/altera/10.1sp1/nios2eds/bin/gnu/H-i686-pc-linux-gnu/bin/../lib/gcc/nios2-elf/4.1.2/libgcc.a(_ge_df.o)
 .debug_info    0x00046d13      0x29d /opt/altera/10.1sp1/nios2eds/bin/gnu/H-i686-pc-linux-gnu/bin/../lib/gcc/nios2-elf/4.1.2/libgcc.a(_lt_df.o)
 .debug_info    0x00046fb0      0x29d /opt/altera/10.1sp1/nios2eds/bin/gnu/H-i686-pc-linux-gnu/bin/../lib/gcc/nios2-elf/4.1.2/libgcc.a(_le_df.o)
 .debug_info    0x0004724d      0x218 /opt/altera/10.1sp1/nios2eds/bin/gnu/H-i686-pc-linux-gnu/bin/../lib/gcc/nios2-elf/4.1.2/libgcc.a(_si_to_df.o)
 .debug_info    0x00047465      0x2cd /opt/altera/10.1sp1/nios2eds/bin/gnu/H-i686-pc-linux-gnu/bin/../lib/gcc/nios2-elf/4.1.2/libgcc.a(_df_to_si.o)
 .debug_info    0x00047732      0x261 /opt/altera/10.1sp1/nios2eds/bin/gnu/H-i686-pc-linux-gnu/bin/../lib/gcc/nios2-elf/4.1.2/libgcc.a(_df_to_sf.o)
 .debug_info    0x00047993      0x164 /opt/altera/10.1sp1/nios2eds/bin/gnu/H-i686-pc-linux-gnu/bin/../lib/gcc/nios2-elf/4.1.2/libgcc.a(_thenan_df.o)
 .debug_info    0x00047af7      0x213 /opt/altera/10.1sp1/nios2eds/bin/gnu/H-i686-pc-linux-gnu/bin/../lib/gcc/nios2-elf/4.1.2/libgcc.a(_usi_to_df.o)
 .debug_info    0x00047d0a       0xc9 /opt/altera/10.1sp1/nios2eds/bin/gnu/H-i686-pc-linux-gnu/bin/../lib/gcc/nios2-elf/4.1.2/libgcc.a(_clz.o)
 .debug_info    0x00047dd3      0x130 /opt/altera/10.1sp1/nios2eds/bin/gnu/H-i686-pc-linux-gnu/bin/../lib/gcc/nios2-elf/4.1.2/libgcc.a(_clzsi2.o)
 .debug_info    0x00047f03      0x25a /opt/altera/10.1sp1/nios2eds/bin/gnu/H-i686-pc-linux-gnu/bin/../lib/gcc/nios2-elf/4.1.2/libgcc.a(_unpack_sf.o)
 .debug_info    0x0004815d      0x21f /opt/altera/10.1sp1/nios2eds/bin/gnu/H-i686-pc-linux-gnu/bin/../lib/gcc/nios2-elf/4.1.2/libgcc.a(_fpcmp_parts_sf.o)
 .debug_info    0x0004837c      0x1d7 /opt/altera/10.1sp1/nios2eds/bin/gnu/H-i686-pc-linux-gnu/bin/../lib/gcc/nios2-elf/4.1.2/libgcc.a(_make_sf.o)
 .debug_info    0x00048553      0x2fc /opt/altera/10.1sp1/nios2eds/bin/gnu/H-i686-pc-linux-gnu/bin/../lib/gcc/nios2-elf/4.1.2/libgcc.a(_pack_df.o)
 .debug_info    0x0004884f      0x268 /opt/altera/10.1sp1/nios2eds/bin/gnu/H-i686-pc-linux-gnu/bin/../lib/gcc/nios2-elf/4.1.2/libgcc.a(_unpack_df.o)
 .debug_info    0x00048ab7      0x21b /opt/altera/10.1sp1/nios2eds/bin/gnu/H-i686-pc-linux-gnu/bin/../lib/gcc/nios2-elf/4.1.2/libgcc.a(_fpcmp_parts_df.o)
 .debug_info    0x00048cd2      0x2f2 /opt/altera/10.1sp1/nios2eds/bin/gnu/H-i686-pc-linux-gnu/bin/../lib/gcc/nios2-elf/4.1.2/libgcc.a(_pack_sf.o)
 .debug_info    0x00048fc4      0x20c ../StereoCameraServer_bsp/libucosii_bsp.a(alt_dcache_flush.o)
 .debug_info    0x000491d0      0x1cc ../StereoCameraServer_bsp/libucosii_bsp.a(alt_errno.o)
 .debug_info    0x0004939c      0x2a3 ../StereoCameraServer_bsp/libucosii_bsp.a(alt_exit.o)
 .debug_info    0x0004963f      0x688 ../StereoCameraServer_bsp/libucosii_bsp.a(alt_flash_dev.o)
 .debug_info    0x00049cc7      0x74f ../StereoCameraServer_bsp/libucosii_bsp.a(alt_fstat.o)
 .debug_info    0x0004a416       0xb7 ../StereoCameraServer_bsp/libucosii_bsp.a(alt_getpid.o)
 .debug_info    0x0004a4cd      0x4d7 ../StereoCameraServer_bsp/libucosii_bsp.a(alt_irq_register.o)
 .debug_info    0x0004a9a4      0x1cf ../StereoCameraServer_bsp/libucosii_bsp.a(alt_irq_vars.o)
 .debug_info    0x0004ab73      0x755 ../StereoCameraServer_bsp/libucosii_bsp.a(alt_isatty.o)
 .debug_info    0x0004b2c8      0x234 ../StereoCameraServer_bsp/libucosii_bsp.a(alt_kill.o)
 .debug_info    0x0004b4fc      0x2f5 ../StereoCameraServer_bsp/libucosii_bsp.a(alt_load.o)
 .debug_info    0x0004b7f1      0x589 ../StereoCameraServer_bsp/libucosii_bsp.a(alt_lseek.o)
 .debug_info    0x0004bd7a      0x478 ../StereoCameraServer_bsp/libucosii_bsp.a(alt_main.o)
 .debug_info    0x0004c1f2      0x605 ../StereoCameraServer_bsp/libucosii_bsp.a(alt_open.o)
 .debug_info    0x0004c7f7      0x4ea ../StereoCameraServer_bsp/libucosii_bsp.a(alt_release_fd.o)
 .debug_info    0x0004cce1      0x366 ../StereoCameraServer_bsp/libucosii_bsp.a(alt_sbrk.o)
 .debug_info    0x0004d047      0x4ac ../StereoCameraServer_bsp/libucosii_bsp.a(alt_tick.o)
 .debug_info    0x0004d4f3     0x126e ../StereoCameraServer_bsp/libucosii_bsp.a(alt_env_lock.o)
 .debug_info    0x0004e761     0x13ca ../StereoCameraServer_bsp/libucosii_bsp.a(alt_malloc_lock.o)
 .debug_info    0x0004fb2b     0x1c84 ../StereoCameraServer_bsp/libucosii_bsp.a(os_core.o)
 .debug_info    0x000517af     0x11c9 ../StereoCameraServer_bsp/libucosii_bsp.a(os_dbg.o)
 .debug_info    0x00052978     0x12df ../StereoCameraServer_bsp/libucosii_bsp.a(os_flag.o)
 .debug_info    0x00053c57      0xddb ../StereoCameraServer_bsp/libucosii_bsp.a(os_mbox.o)
 .debug_info    0x00054a32      0x8a9 ../StereoCameraServer_bsp/libucosii_bsp.a(os_mem.o)
 .debug_info    0x000552db     0x1119 ../StereoCameraServer_bsp/libucosii_bsp.a(os_q.o)
 .debug_info    0x000563f4      0xd81 ../StereoCameraServer_bsp/libucosii_bsp.a(os_sem.o)
 .debug_info    0x00057175     0x13f7 ../StereoCameraServer_bsp/libucosii_bsp.a(os_task.o)
 .debug_info    0x0005856c      0xa7b ../StereoCameraServer_bsp/libucosii_bsp.a(os_time.o)
 .debug_info    0x00058fe7     0x1c44 ../StereoCameraServer_bsp/libucosii_bsp.a(alt_sys_init.o)
 .debug_info    0x0005ac2b      0xbb1 ../StereoCameraServer_bsp/libucosii_bsp.a(altera_avalon_cfi_flash.o)
 .debug_info    0x0005b7dc      0xe9d ../StereoCameraServer_bsp/libucosii_bsp.a(altera_avalon_cfi_flash_table.o)
 .debug_info    0x0005c679      0xa6d ../StereoCameraServer_bsp/libucosii_bsp.a(altera_avalon_jtag_uart_fd.o)
 .debug_info    0x0005d0e6      0x9f8 ../StereoCameraServer_bsp/libucosii_bsp.a(altera_avalon_jtag_uart_init.o)
 .debug_info    0x0005dade      0x6d7 ../StereoCameraServer_bsp/libucosii_bsp.a(altera_avalon_jtag_uart_ioctl.o)
 .debug_info    0x0005e1b5      0x893 ../StereoCameraServer_bsp/libucosii_bsp.a(altera_avalon_jtag_uart_read.o)
 .debug_info    0x0005ea48      0x88a ../StereoCameraServer_bsp/libucosii_bsp.a(altera_avalon_jtag_uart_write.o)
 .debug_info    0x0005f2d2      0xb39 ../StereoCameraServer_bsp/libucosii_bsp.a(altera_avalon_lcd_16207.o)
 .debug_info    0x0005fe0b      0x8d1 ../StereoCameraServer_bsp/libucosii_bsp.a(altera_avalon_lcd_16207_fd.o)
 .debug_info    0x000606dc      0x433 ../StereoCameraServer_bsp/libucosii_bsp.a(altera_avalon_timer_sc.o)
 .debug_info    0x00060b0f      0x90d ../StereoCameraServer_bsp/libucosii_bsp.a(altera_avalon_uart_fd.o)
 .debug_info    0x0006141c      0x84a ../StereoCameraServer_bsp/libucosii_bsp.a(altera_avalon_uart_write.o)
 .debug_info    0x00061c66      0xfb9 ../StereoCameraServer_bsp/libucosii_bsp.a(altera_ro_zipfs.o)
 .debug_info    0x00062c1f     0x1308 ../StereoCameraServer_bsp/libucosii_bsp.a(dm9000a.o)
 .debug_info    0x00063f27      0x251 ../StereoCameraServer_bsp/libucosii_bsp.a(alt_iniche_close.o)
 .debug_info    0x00064178      0xbf8 ../StereoCameraServer_bsp/libucosii_bsp.a(alt_iniche_dev.o)
 .debug_info    0x00064d70      0x2a8 ../StereoCameraServer_bsp/libucosii_bsp.a(alt_iniche_fcntl.o)
 .debug_info    0x00065018      0x27b ../StereoCameraServer_bsp/libucosii_bsp.a(alt_iniche_read.o)
 .debug_info    0x00065293      0x282 ../StereoCameraServer_bsp/libucosii_bsp.a(alt_iniche_write.o)
 .debug_info    0x00065515      0xce4 ../StereoCameraServer_bsp/libucosii_bsp.a(ipnet.o)
 .debug_info    0x000661f9      0xc37 ../StereoCameraServer_bsp/libucosii_bsp.a(ipstart.o)
 .debug_info    0x00066e30     0x15cb ../StereoCameraServer_bsp/libucosii_bsp.a(igmp_cmn.o)
 .debug_info    0x000683fb     0x14fb ../StereoCameraServer_bsp/libucosii_bsp.a(bsdsock.o)
 .debug_info    0x000698f6      0x2ed ../StereoCameraServer_bsp/libucosii_bsp.a(cksum.o)
 .debug_info    0x00069be3      0x7df ../StereoCameraServer_bsp/libucosii_bsp.a(in_utils.o)
 .debug_info    0x0006a3c2      0x5f9 ../StereoCameraServer_bsp/libucosii_bsp.a(netmain.o)
 .debug_info    0x0006a9bb      0xa06 ../StereoCameraServer_bsp/libucosii_bsp.a(tk_crnos.o)
 .debug_info    0x0006b3c1      0xd43 ../StereoCameraServer_bsp/libucosii_bsp.a(pktalloc.o)
 .debug_info    0x0006c104      0x387 ../StereoCameraServer_bsp/libucosii_bsp.a(q.o)
 .debug_info    0x0006c48b       0xf5 ../StereoCameraServer_bsp/libucosii_bsp.a(asm_cksum.o)
 .debug_info    0x0006c580      0xf48 ../StereoCameraServer_bsp/libucosii_bsp.a(brdutils.o)
 .debug_info    0x0006d4c8      0x77a ../StereoCameraServer_bsp/libucosii_bsp.a(osportco.o)
 .debug_info    0x0006dc42      0x6f7 ../StereoCameraServer_bsp/libucosii_bsp.a(targnios.o)
 .debug_info    0x0006e339     0x25be ../StereoCameraServer_bsp/libucosii_bsp.a(nptcp.o)
 .debug_info    0x000708f7     0x1276 ../StereoCameraServer_bsp/libucosii_bsp.a(rawsock.o)
 .debug_info    0x00071b6d     0x1d34 ../StereoCameraServer_bsp/libucosii_bsp.a(sockcall.o)
 .debug_info    0x000738a1     0x1b3a ../StereoCameraServer_bsp/libucosii_bsp.a(socket.o)
 .debug_info    0x000753db     0x1600 ../StereoCameraServer_bsp/libucosii_bsp.a(socket2.o)
 .debug_info    0x000769db     0x1319 ../StereoCameraServer_bsp/libucosii_bsp.a(soselect.o)
 .debug_info    0x00077cf4     0x21cb ../StereoCameraServer_bsp/libucosii_bsp.a(tcp_in.o)
 .debug_info    0x00079ebf     0x1eba ../StereoCameraServer_bsp/libucosii_bsp.a(tcp_out.o)
 .debug_info    0x0007bd79     0x1f22 ../StereoCameraServer_bsp/libucosii_bsp.a(tcp_subr.o)
 .debug_info    0x0007dc9b     0x1d3d ../StereoCameraServer_bsp/libucosii_bsp.a(tcp_timr.o)
 .debug_info    0x0007f9d8     0x1cfa ../StereoCameraServer_bsp/libucosii_bsp.a(tcp_usr.o)
 .debug_info    0x000816d2      0x24d ../StereoCameraServer_bsp/libucosii_bsp.a(tcpport.o)
 .debug_info    0x0008191f     0x13d0 ../StereoCameraServer_bsp/libucosii_bsp.a(udpsock.o)
 .debug_info    0x00082cef      0x4dd ../StereoCameraServer_bsp/libucosii_bsp.a(alt_alarm_start.o)
 .debug_info    0x000831cc      0x55a ../StereoCameraServer_bsp/libucosii_bsp.a(alt_close.o)
 .debug_info    0x00083726      0x1d7 ../StereoCameraServer_bsp/libucosii_bsp.a(alt_dcache_flush_all.o)
 .debug_info    0x000838fd      0x878 ../StereoCameraServer_bsp/libucosii_bsp.a(alt_dev.o)
 .debug_info    0x00084175      0x31f ../StereoCameraServer_bsp/libucosii_bsp.a(alt_dev_llist_insert.o)
 .debug_info    0x00084494      0x11e ../StereoCameraServer_bsp/libucosii_bsp.a(alt_do_ctors.o)
 .debug_info    0x000845b2      0x11d ../StereoCameraServer_bsp/libucosii_bsp.a(alt_do_dtors.o)
 .debug_info    0x000846cf      0x79b ../StereoCameraServer_bsp/libucosii_bsp.a(alt_fcntl.o)
 .debug_info    0x00084e6a      0x507 ../StereoCameraServer_bsp/libucosii_bsp.a(alt_find_dev.o)
 .debug_info    0x00085371      0x50e ../StereoCameraServer_bsp/libucosii_bsp.a(alt_find_file.o)
 .debug_info    0x0008587f      0x51f ../StereoCameraServer_bsp/libucosii_bsp.a(alt_fs_reg.o)
 .debug_info    0x00085d9e      0x6a0 ../StereoCameraServer_bsp/libucosii_bsp.a(alt_get_fd.o)
 .debug_info    0x0008643e      0x1c4 ../StereoCameraServer_bsp/libucosii_bsp.a(alt_icache_flush_all.o)
 .debug_info    0x00086602      0x784 ../StereoCameraServer_bsp/libucosii_bsp.a(alt_io_redirect.o)
 .debug_info    0x00086d86       0xec ../StereoCameraServer_bsp/libucosii_bsp.a(alt_irq_entry.o)
 .debug_info    0x00086e72      0x35a ../StereoCameraServer_bsp/libucosii_bsp.a(alt_irq_handler.o)
 .debug_info    0x000871cc      0x77d ../StereoCameraServer_bsp/libucosii_bsp.a(alt_read.o)
 .debug_info    0x00087949      0x1f9 ../StereoCameraServer_bsp/libucosii_bsp.a(alt_remap_cached.o)
 .debug_info    0x00087b42      0x1fd ../StereoCameraServer_bsp/libucosii_bsp.a(alt_remap_uncached.o)
 .debug_info    0x00087d3f      0x2cf ../StereoCameraServer_bsp/libucosii_bsp.a(alt_usleep.o)
 .debug_info    0x0008800e      0x786 ../StereoCameraServer_bsp/libucosii_bsp.a(alt_write.o)
 .debug_info    0x00088794      0x208 ../StereoCameraServer_bsp/libucosii_bsp.a(altera_nios2_irq.o)
 .debug_info    0x0008899c       0xeb ../StereoCameraServer_bsp/libucosii_bsp.a(os_cpu_a.o)
 .debug_info    0x00088a87     0x136e ../StereoCameraServer_bsp/libucosii_bsp.a(os_cpu_c.o)
 .debug_info    0x00089df5      0x951 ../StereoCameraServer_bsp/libucosii_bsp.a(altera_avalon_cfi_flash_amd.o)
 .debug_info    0x0008a746      0x947 ../StereoCameraServer_bsp/libucosii_bsp.a(altera_avalon_cfi_flash_intel.o)
 .debug_info    0x0008b08d      0xe3a ../StereoCameraServer_bsp/libucosii_bsp.a(allports.o)
 .debug_info    0x0008bec7      0x45c ../StereoCameraServer_bsp/libucosii_bsp.a(timeouts.o)
 .debug_info    0x0008c323      0x2bb ../StereoCameraServer_bsp/libucosii_bsp.a(tk_misc.o)
 .debug_info    0x0008c5de     0x1314 ../StereoCameraServer_bsp/libucosii_bsp.a(et_arp.o)
 .debug_info    0x0008d8f2     0x1032 ../StereoCameraServer_bsp/libucosii_bsp.a(iface.o)
 .debug_info    0x0008e924     0x179f ../StereoCameraServer_bsp/libucosii_bsp.a(ip.o)
 .debug_info    0x000900c3     0x1903 ../StereoCameraServer_bsp/libucosii_bsp.a(ip_reasm.o)
 .debug_info    0x000919c6      0xe84 ../StereoCameraServer_bsp/libucosii_bsp.a(ipdemux.o)
 .debug_info    0x0009284a      0xae0 ../StereoCameraServer_bsp/libucosii_bsp.a(ipmc.o)
 .debug_info    0x0009332a      0x37e ../StereoCameraServer_bsp/libucosii_bsp.a(ipport.o)
 .debug_info    0x000936a8      0xff1 ../StereoCameraServer_bsp/libucosii_bsp.a(ipraw.o)
 .debug_info    0x00094699      0xf9c ../StereoCameraServer_bsp/libucosii_bsp.a(iproute.o)
 .debug_info    0x00095635     0x1333 ../StereoCameraServer_bsp/libucosii_bsp.a(udp.o)
 .debug_info    0x00096968     0x11cd ../StereoCameraServer_bsp/libucosii_bsp.a(igmp.o)
 .debug_info    0x00097b35     0x1401 ../StereoCameraServer_bsp/libucosii_bsp.a(igmp2.o)
 .debug_info    0x00098f36     0x117c ../StereoCameraServer_bsp/libucosii_bsp.a(ipopt.o)
 .debug_info    0x0009a0b2      0xc54 ../StereoCameraServer_bsp/libucosii_bsp.a(u_mctest.o)
 .debug_info    0x0009ad06      0x7da ../StereoCameraServer_bsp/libucosii_bsp.a(memdev.o)
 .debug_info    0x0009b4e0      0x785 ../StereoCameraServer_bsp/libucosii_bsp.a(parseip.o)
 .debug_info    0x0009bc65      0x47f ../StereoCameraServer_bsp/libucosii_bsp.a(tcpcksum.o)
 .debug_info    0x0009c0e4      0xbc2 ../StereoCameraServer_bsp/libucosii_bsp.a(udp_open.o)
 .debug_info    0x0009cca6     0x134e ../StereoCameraServer_bsp/libucosii_bsp.a(in_pcb.o)
 .debug_info    0x0009dff4     0x107f ../StereoCameraServer_bsp/libucosii_bsp.a(vfsfiles.o)
 .debug_info    0x0009f073      0x24e ../StereoCameraServer_bsp/libucosii_bsp.a(vfsport.o)
 .debug_info    0x0009f2c1      0x213 ../StereoCameraServer_bsp/libucosii_bsp.a(alt_busy_sleep.o)
 .debug_info    0x0009f4d4       0xf2 ../StereoCameraServer_bsp/libucosii_bsp.a(alt_exception_entry.o)
 .debug_info    0x0009f5c6      0x20c ../StereoCameraServer_bsp/libucosii_bsp.a(alt_icache_flush.o)
 .debug_info    0x0009f7d2     0x1221 ../StereoCameraServer_bsp/libucosii_bsp.a(icmp.o)
 .debug_info    0x000a09f3      0x181 /opt/altera/10.1sp1/nios2eds/bin/gnu/H-i686-pc-linux-gnu/bin/../lib/gcc/nios2-elf/4.1.2/../../../../nios2-elf/lib/libc.a(lib_a-atexit.o)
 .debug_info    0x000a0b74      0x954 /opt/altera/10.1sp1/nios2eds/bin/gnu/H-i686-pc-linux-gnu/bin/../lib/gcc/nios2-elf/4.1.2/../../../../nios2-elf/lib/libc.a(lib_a-calloc.o)
 .debug_info    0x000a14c8      0x93f /opt/altera/10.1sp1/nios2eds/bin/gnu/H-i686-pc-linux-gnu/bin/../lib/gcc/nios2-elf/4.1.2/../../../../nios2-elf/lib/libc.a(lib_a-exit.o)
 .debug_info    0x000a1e07      0x9aa /opt/altera/10.1sp1/nios2eds/bin/gnu/H-i686-pc-linux-gnu/bin/../lib/gcc/nios2-elf/4.1.2/../../../../nios2-elf/lib/libc.a(lib_a-vprintf.o)
 .debug_info    0x000a27b1      0x9ed /opt/altera/10.1sp1/nios2eds/bin/gnu/H-i686-pc-linux-gnu/bin/../lib/gcc/nios2-elf/4.1.2/../../../../nios2-elf/lib/libc.a(lib_a-vsprintf.o)
 .debug_info    0x000a319e      0x99c /opt/altera/10.1sp1/nios2eds/bin/gnu/H-i686-pc-linux-gnu/bin/../lib/gcc/nios2-elf/4.1.2/../../../../nios2-elf/lib/libc.a(lib_a-__atexit.o)
 .debug_info    0x000a3b3a      0x9e2 /opt/altera/10.1sp1/nios2eds/bin/gnu/H-i686-pc-linux-gnu/bin/../lib/gcc/nios2-elf/4.1.2/../../../../nios2-elf/lib/libc.a(lib_a-__call_atexit.o)

.debug_abbrev   0x00000000    0x199a6
 *(.debug_abbrev)
 .debug_abbrev  0x00000000       0x12 ../StereoCameraServer_bsp/obj/HAL/src/crt0.o
 .debug_abbrev  0x00000012      0x1bc obj/alt_error_handler.o
 .debug_abbrev  0x000001ce      0x219 obj/altera_avalon_uart_init.o
 .debug_abbrev  0x000003e7      0x1b9 obj/altera_avalon_uart_read.o
 .debug_abbrev  0x000005a0      0x327 obj/http.o
 .debug_abbrev  0x000008c7      0x2c4 obj/network_utilities.o
 .debug_abbrev  0x00000b8b      0x1ef obj/srec_flash.o
 .debug_abbrev  0x00000d7a      0x285 obj/web_server.o
 .debug_abbrev  0x00000fff      0x2df obj/Camera.o
 .debug_abbrev  0x000012de      0x329 obj/StereoCamera.o
 .debug_abbrev  0x00001607      0x305 obj/cam_control.o
 .debug_abbrev  0x0000190c      0x546 /opt/altera/10.1sp1/nios2eds/bin/gnu/H-i686-pc-linux-gnu/bin/../lib/gcc/nios2-elf/4.1.2/../../../../nios2-elf/lib/libstdc++.a(eh_personality.o)
 .debug_abbrev  0x00001e52      0x340 /opt/altera/10.1sp1/nios2eds/bin/gnu/H-i686-pc-linux-gnu/bin/../lib/gcc/nios2-elf/4.1.2/../../../../nios2-elf/lib/libstdc++.a(eh_globals.o)
 .debug_abbrev  0x00002192      0x2a1 /opt/altera/10.1sp1/nios2eds/bin/gnu/H-i686-pc-linux-gnu/bin/../lib/gcc/nios2-elf/4.1.2/../../../../nios2-elf/lib/libstdc++.a(eh_throw.o)
 .debug_abbrev  0x00002433      0x2ad /opt/altera/10.1sp1/nios2eds/bin/gnu/H-i686-pc-linux-gnu/bin/../lib/gcc/nios2-elf/4.1.2/../../../../nios2-elf/lib/libstdc++.a(eh_call.o)
 .debug_abbrev  0x000026e0      0x321 /opt/altera/10.1sp1/nios2eds/bin/gnu/H-i686-pc-linux-gnu/bin/../lib/gcc/nios2-elf/4.1.2/../../../../nios2-elf/lib/libstdc++.a(eh_catch.o)
 .debug_abbrev  0x00002a01      0x21c /opt/altera/10.1sp1/nios2eds/bin/gnu/H-i686-pc-linux-gnu/bin/../lib/gcc/nios2-elf/4.1.2/../../../../nios2-elf/lib/libstdc++.a(eh_exception.o)
 .debug_abbrev  0x00002c1d      0x2dc /opt/altera/10.1sp1/nios2eds/bin/gnu/H-i686-pc-linux-gnu/bin/../lib/gcc/nios2-elf/4.1.2/../../../../nios2-elf/lib/libstdc++.a(eh_terminate.o)
 .debug_abbrev  0x00002ef9      0x3e2 /opt/altera/10.1sp1/nios2eds/bin/gnu/H-i686-pc-linux-gnu/bin/../lib/gcc/nios2-elf/4.1.2/../../../../nios2-elf/lib/libstdc++.a(si_class_type_info.o)
 .debug_abbrev  0x000032db      0x2e9 /opt/altera/10.1sp1/nios2eds/bin/gnu/H-i686-pc-linux-gnu/bin/../lib/gcc/nios2-elf/4.1.2/../../../../nios2-elf/lib/libstdc++.a(eh_alloc.o)
 .debug_abbrev  0x000035c4      0x1fc /opt/altera/10.1sp1/nios2eds/bin/gnu/H-i686-pc-linux-gnu/bin/../lib/gcc/nios2-elf/4.1.2/../../../../nios2-elf/lib/libstdc++.a(eh_term_handler.o)
 .debug_abbrev  0x000037c0      0x34f /opt/altera/10.1sp1/nios2eds/bin/gnu/H-i686-pc-linux-gnu/bin/../lib/gcc/nios2-elf/4.1.2/../../../../nios2-elf/lib/libstdc++.a(tinfo.o)
 .debug_abbrev  0x00003b0f      0x13d /opt/altera/10.1sp1/nios2eds/bin/gnu/H-i686-pc-linux-gnu/bin/../lib/gcc/nios2-elf/4.1.2/../../../../nios2-elf/lib/libstdc++.a(del_op.o)
 .debug_abbrev  0x00003c4c      0x3cb /opt/altera/10.1sp1/nios2eds/bin/gnu/H-i686-pc-linux-gnu/bin/../lib/gcc/nios2-elf/4.1.2/../../../../nios2-elf/lib/libstdc++.a(class_type_info.o)
 .debug_abbrev  0x00004017      0x1e6 /opt/altera/10.1sp1/nios2eds/bin/gnu/H-i686-pc-linux-gnu/bin/../lib/gcc/nios2-elf/4.1.2/../../../../nios2-elf/lib/libstdc++.a(eh_unex_handler.o)
 .debug_abbrev  0x000041fd       0xe0 /opt/altera/10.1sp1/nios2eds/bin/gnu/H-i686-pc-linux-gnu/bin/../lib/gcc/nios2-elf/4.1.2/libgcc.a(lib2-divmod.o)
 .debug_abbrev  0x000042dd      0x53e /opt/altera/10.1sp1/nios2eds/bin/gnu/H-i686-pc-linux-gnu/bin/../lib/gcc/nios2-elf/4.1.2/libgcc.a(unwind-dw2.o)
 .debug_abbrev  0x0000481b      0x443 /opt/altera/10.1sp1/nios2eds/bin/gnu/H-i686-pc-linux-gnu/bin/../lib/gcc/nios2-elf/4.1.2/libgcc.a(unwind-dw2-fde.o)
 .debug_abbrev  0x00004c5e       0x3f /opt/altera/10.1sp1/nios2eds/bin/gnu/H-i686-pc-linux-gnu/bin/../lib/gcc/nios2-elf/4.1.2/../../../../nios2-elf/lib/libc.a(lib_a-abort.o)
 .debug_abbrev  0x00004c9d      0x176 /opt/altera/10.1sp1/nios2eds/bin/gnu/H-i686-pc-linux-gnu/bin/../lib/gcc/nios2-elf/4.1.2/../../../../nios2-elf/lib/libc.a(lib_a-atoi.o)
 .debug_abbrev  0x00004e13       0x61 /opt/altera/10.1sp1/nios2eds/bin/gnu/H-i686-pc-linux-gnu/bin/../lib/gcc/nios2-elf/4.1.2/../../../../nios2-elf/lib/libc.a(lib_a-ctype_.o)
 .debug_abbrev  0x00004e74      0x1a7 /opt/altera/10.1sp1/nios2eds/bin/gnu/H-i686-pc-linux-gnu/bin/../lib/gcc/nios2-elf/4.1.2/../../../../nios2-elf/lib/libc.a(lib_a-fclose.o)
 .debug_abbrev  0x0000501b      0x1c6 /opt/altera/10.1sp1/nios2eds/bin/gnu/H-i686-pc-linux-gnu/bin/../lib/gcc/nios2-elf/4.1.2/../../../../nios2-elf/lib/libc.a(lib_a-fflush.o)
 .debug_abbrev  0x000051e1      0x17f /opt/altera/10.1sp1/nios2eds/bin/gnu/H-i686-pc-linux-gnu/bin/../lib/gcc/nios2-elf/4.1.2/../../../../nios2-elf/lib/libc.a(lib_a-fgetc.o)
 .debug_abbrev  0x00005360      0x189 /opt/altera/10.1sp1/nios2eds/bin/gnu/H-i686-pc-linux-gnu/bin/../lib/gcc/nios2-elf/4.1.2/../../../../nios2-elf/lib/libc.a(lib_a-fgetpos.o)
 .debug_abbrev  0x000054e9      0x17d /opt/altera/10.1sp1/nios2eds/bin/gnu/H-i686-pc-linux-gnu/bin/../lib/gcc/nios2-elf/4.1.2/../../../../nios2-elf/lib/libc.a(lib_a-fileno.o)
 .debug_abbrev  0x00005666      0x24c /opt/altera/10.1sp1/nios2eds/bin/gnu/H-i686-pc-linux-gnu/bin/../lib/gcc/nios2-elf/4.1.2/../../../../nios2-elf/lib/libc.a(lib_a-findfp.o)
 .debug_abbrev  0x000058b2      0x1b6 /opt/altera/10.1sp1/nios2eds/bin/gnu/H-i686-pc-linux-gnu/bin/../lib/gcc/nios2-elf/4.1.2/../../../../nios2-elf/lib/libc.a(lib_a-fopen.o)
 .debug_abbrev  0x00005a68      0x197 /opt/altera/10.1sp1/nios2eds/bin/gnu/H-i686-pc-linux-gnu/bin/../lib/gcc/nios2-elf/4.1.2/../../../../nios2-elf/lib/libc.a(lib_a-fprintf.o)
 .debug_abbrev  0x00005bff      0x18c /opt/altera/10.1sp1/nios2eds/bin/gnu/H-i686-pc-linux-gnu/bin/../lib/gcc/nios2-elf/4.1.2/../../../../nios2-elf/lib/libc.a(lib_a-fputc.o)
 .debug_abbrev  0x00005d8b      0x20d /opt/altera/10.1sp1/nios2eds/bin/gnu/H-i686-pc-linux-gnu/bin/../lib/gcc/nios2-elf/4.1.2/../../../../nios2-elf/lib/libc.a(lib_a-fread.o)
 .debug_abbrev  0x00005f98      0x1d9 /opt/altera/10.1sp1/nios2eds/bin/gnu/H-i686-pc-linux-gnu/bin/../lib/gcc/nios2-elf/4.1.2/../../../../nios2-elf/lib/libc.a(lib_a-freer.o)
 .debug_abbrev  0x00006171      0x208 /opt/altera/10.1sp1/nios2eds/bin/gnu/H-i686-pc-linux-gnu/bin/../lib/gcc/nios2-elf/4.1.2/../../../../nios2-elf/lib/libc.a(lib_a-fseek.o)
 .debug_abbrev  0x00006379      0x18e /opt/altera/10.1sp1/nios2eds/bin/gnu/H-i686-pc-linux-gnu/bin/../lib/gcc/nios2-elf/4.1.2/../../../../nios2-elf/lib/libc.a(lib_a-fstatr.o)
 .debug_abbrev  0x00006507      0x198 /opt/altera/10.1sp1/nios2eds/bin/gnu/H-i686-pc-linux-gnu/bin/../lib/gcc/nios2-elf/4.1.2/../../../../nios2-elf/lib/libc.a(lib_a-ftell.o)
 .debug_abbrev  0x0000669f      0x1e3 /opt/altera/10.1sp1/nios2eds/bin/gnu/H-i686-pc-linux-gnu/bin/../lib/gcc/nios2-elf/4.1.2/../../../../nios2-elf/lib/libc.a(lib_a-fwalk.o)
 .debug_abbrev  0x00006882      0x1b1 /opt/altera/10.1sp1/nios2eds/bin/gnu/H-i686-pc-linux-gnu/bin/../lib/gcc/nios2-elf/4.1.2/../../../../nios2-elf/lib/libc.a(lib_a-fwrite.o)
 .debug_abbrev  0x00006a33      0x17f /opt/altera/10.1sp1/nios2eds/bin/gnu/H-i686-pc-linux-gnu/bin/../lib/gcc/nios2-elf/4.1.2/../../../../nios2-elf/lib/libc.a(lib_a-getc.o)
 .debug_abbrev  0x00006bb2      0x157 /opt/altera/10.1sp1/nios2eds/bin/gnu/H-i686-pc-linux-gnu/bin/../lib/gcc/nios2-elf/4.1.2/../../../../nios2-elf/lib/libc.a(lib_a-impure.o)
 .debug_abbrev  0x00006d09       0x3b /opt/altera/10.1sp1/nios2eds/bin/gnu/H-i686-pc-linux-gnu/bin/../lib/gcc/nios2-elf/4.1.2/../../../../nios2-elf/lib/libc.a(lib_a-int_errno.o)
 .debug_abbrev  0x00006d44      0x197 /opt/altera/10.1sp1/nios2eds/bin/gnu/H-i686-pc-linux-gnu/bin/../lib/gcc/nios2-elf/4.1.2/../../../../nios2-elf/lib/libc.a(lib_a-makebuf.o)
 .debug_abbrev  0x00006edb      0x187 /opt/altera/10.1sp1/nios2eds/bin/gnu/H-i686-pc-linux-gnu/bin/../lib/gcc/nios2-elf/4.1.2/../../../../nios2-elf/lib/libc.a(lib_a-malloc.o)
 .debug_abbrev  0x00007062      0x216 /opt/altera/10.1sp1/nios2eds/bin/gnu/H-i686-pc-linux-gnu/bin/../lib/gcc/nios2-elf/4.1.2/../../../../nios2-elf/lib/libc.a(lib_a-mallocr.o)
 .debug_abbrev  0x00007278       0xb5 /opt/altera/10.1sp1/nios2eds/bin/gnu/H-i686-pc-linux-gnu/bin/../lib/gcc/nios2-elf/4.1.2/../../../../nios2-elf/lib/libc.a(lib_a-memcpy.o)
 .debug_abbrev  0x0000732d       0xb5 /opt/altera/10.1sp1/nios2eds/bin/gnu/H-i686-pc-linux-gnu/bin/../lib/gcc/nios2-elf/4.1.2/../../../../nios2-elf/lib/libc.a(lib_a-memmove.o)
 .debug_abbrev  0x000073e2       0xb8 /opt/altera/10.1sp1/nios2eds/bin/gnu/H-i686-pc-linux-gnu/bin/../lib/gcc/nios2-elf/4.1.2/../../../../nios2-elf/lib/libc.a(lib_a-memset.o)
 .debug_abbrev  0x0000749a      0x18e /opt/altera/10.1sp1/nios2eds/bin/gnu/H-i686-pc-linux-gnu/bin/../lib/gcc/nios2-elf/4.1.2/../../../../nios2-elf/lib/libc.a(lib_a-openr.o)
 .debug_abbrev  0x00007628      0x194 /opt/altera/10.1sp1/nios2eds/bin/gnu/H-i686-pc-linux-gnu/bin/../lib/gcc/nios2-elf/4.1.2/../../../../nios2-elf/lib/libc.a(lib_a-perror.o)
 .debug_abbrev  0x000077bc      0x191 /opt/altera/10.1sp1/nios2eds/bin/gnu/H-i686-pc-linux-gnu/bin/../lib/gcc/nios2-elf/4.1.2/../../../../nios2-elf/lib/libc.a(lib_a-printf.o)
 .debug_abbrev  0x0000794d      0x17f /opt/altera/10.1sp1/nios2eds/bin/gnu/H-i686-pc-linux-gnu/bin/../lib/gcc/nios2-elf/4.1.2/../../../../nios2-elf/lib/libc.a(lib_a-putc.o)
 .debug_abbrev  0x00007acc      0x170 /opt/altera/10.1sp1/nios2eds/bin/gnu/H-i686-pc-linux-gnu/bin/../lib/gcc/nios2-elf/4.1.2/../../../../nios2-elf/lib/libc.a(lib_a-putchar.o)
 .debug_abbrev  0x00007c3c      0x1ac /opt/altera/10.1sp1/nios2eds/bin/gnu/H-i686-pc-linux-gnu/bin/../lib/gcc/nios2-elf/4.1.2/../../../../nios2-elf/lib/libc.a(lib_a-puts.o)
 .debug_abbrev  0x00007de8      0x187 /opt/altera/10.1sp1/nios2eds/bin/gnu/H-i686-pc-linux-gnu/bin/../lib/gcc/nios2-elf/4.1.2/../../../../nios2-elf/lib/libc.a(lib_a-refill.o)
 .debug_abbrev  0x00007f6f      0x189 /opt/altera/10.1sp1/nios2eds/bin/gnu/H-i686-pc-linux-gnu/bin/../lib/gcc/nios2-elf/4.1.2/../../../../nios2-elf/lib/libc.a(lib_a-rget.o)
 .debug_abbrev  0x000080f8      0x18c /opt/altera/10.1sp1/nios2eds/bin/gnu/H-i686-pc-linux-gnu/bin/../lib/gcc/nios2-elf/4.1.2/../../../../nios2-elf/lib/libc.a(lib_a-sbrkr.o)
 .debug_abbrev  0x00008284      0x1cb /opt/altera/10.1sp1/nios2eds/bin/gnu/H-i686-pc-linux-gnu/bin/../lib/gcc/nios2-elf/4.1.2/../../../../nios2-elf/lib/libc.a(lib_a-signal.o)
 .debug_abbrev  0x0000844f      0x1a5 /opt/altera/10.1sp1/nios2eds/bin/gnu/H-i686-pc-linux-gnu/bin/../lib/gcc/nios2-elf/4.1.2/../../../../nios2-elf/lib/libc.a(lib_a-signalr.o)
 .debug_abbrev  0x000085f4      0x191 /opt/altera/10.1sp1/nios2eds/bin/gnu/H-i686-pc-linux-gnu/bin/../lib/gcc/nios2-elf/4.1.2/../../../../nios2-elf/lib/libc.a(lib_a-sprintf.o)
 .debug_abbrev  0x00008785      0x1c6 /opt/altera/10.1sp1/nios2eds/bin/gnu/H-i686-pc-linux-gnu/bin/../lib/gcc/nios2-elf/4.1.2/../../../../nios2-elf/lib/libc.a(lib_a-sscanf.o)
 .debug_abbrev  0x0000894b      0x1c9 /opt/altera/10.1sp1/nios2eds/bin/gnu/H-i686-pc-linux-gnu/bin/../lib/gcc/nios2-elf/4.1.2/../../../../nios2-elf/lib/libc.a(lib_a-stdio.o)
 .debug_abbrev  0x00008b14       0x96 /opt/altera/10.1sp1/nios2eds/bin/gnu/H-i686-pc-linux-gnu/bin/../lib/gcc/nios2-elf/4.1.2/../../../../nios2-elf/lib/libc.a(lib_a-strcasecmp.o)
 .debug_abbrev  0x00008baa       0x87 /opt/altera/10.1sp1/nios2eds/bin/gnu/H-i686-pc-linux-gnu/bin/../lib/gcc/nios2-elf/4.1.2/../../../../nios2-elf/lib/libc.a(lib_a-strcat.o)
 .debug_abbrev  0x00008c31       0x80 /opt/altera/10.1sp1/nios2eds/bin/gnu/H-i686-pc-linux-gnu/bin/../lib/gcc/nios2-elf/4.1.2/../../../../nios2-elf/lib/libc.a(lib_a-strchr.o)
 .debug_abbrev  0x00008cb1       0x80 /opt/altera/10.1sp1/nios2eds/bin/gnu/H-i686-pc-linux-gnu/bin/../lib/gcc/nios2-elf/4.1.2/../../../../nios2-elf/lib/libc.a(lib_a-strcmp.o)
 .debug_abbrev  0x00008d31       0x8f /opt/altera/10.1sp1/nios2eds/bin/gnu/H-i686-pc-linux-gnu/bin/../lib/gcc/nios2-elf/4.1.2/../../../../nios2-elf/lib/libc.a(lib_a-strcpy.o)
 .debug_abbrev  0x00008dc0       0x68 /opt/altera/10.1sp1/nios2eds/bin/gnu/H-i686-pc-linux-gnu/bin/../lib/gcc/nios2-elf/4.1.2/../../../../nios2-elf/lib/libc.a(lib_a-strerror.o)
 .debug_abbrev  0x00008e28       0x8b /opt/altera/10.1sp1/nios2eds/bin/gnu/H-i686-pc-linux-gnu/bin/../lib/gcc/nios2-elf/4.1.2/../../../../nios2-elf/lib/libc.a(lib_a-strlen.o)
 .debug_abbrev  0x00008eb3       0x8d /opt/altera/10.1sp1/nios2eds/bin/gnu/H-i686-pc-linux-gnu/bin/../lib/gcc/nios2-elf/4.1.2/../../../../nios2-elf/lib/libc.a(lib_a-strncmp.o)
 .debug_abbrev  0x00008f40       0x9c /opt/altera/10.1sp1/nios2eds/bin/gnu/H-i686-pc-linux-gnu/bin/../lib/gcc/nios2-elf/4.1.2/../../../../nios2-elf/lib/libc.a(lib_a-strncpy.o)
 .debug_abbrev  0x00008fdc      0x19a /opt/altera/10.1sp1/nios2eds/bin/gnu/H-i686-pc-linux-gnu/bin/../lib/gcc/nios2-elf/4.1.2/../../../../nios2-elf/lib/libc.a(lib_a-strstr.o)
 .debug_abbrev  0x00009176      0x17f /opt/altera/10.1sp1/nios2eds/bin/gnu/H-i686-pc-linux-gnu/bin/../lib/gcc/nios2-elf/4.1.2/../../../../nios2-elf/lib/libc.a(lib_a-strtok.o)
 .debug_abbrev  0x000092f5       0xcd /opt/altera/10.1sp1/nios2eds/bin/gnu/H-i686-pc-linux-gnu/bin/../lib/gcc/nios2-elf/4.1.2/../../../../nios2-elf/lib/libc.a(lib_a-strtok_r.o)
 .debug_abbrev  0x000093c2      0x1c7 /opt/altera/10.1sp1/nios2eds/bin/gnu/H-i686-pc-linux-gnu/bin/../lib/gcc/nios2-elf/4.1.2/../../../../nios2-elf/lib/libc.a(lib_a-strtol.o)
 .debug_abbrev  0x00009589       0x5b /opt/altera/10.1sp1/nios2eds/bin/gnu/H-i686-pc-linux-gnu/bin/../lib/gcc/nios2-elf/4.1.2/../../../../nios2-elf/lib/libc.a(lib_a-u_strerr.o)
 .debug_abbrev  0x000095e4      0x30a /opt/altera/10.1sp1/nios2eds/bin/gnu/H-i686-pc-linux-gnu/bin/../lib/gcc/nios2-elf/4.1.2/../../../../nios2-elf/lib/libc.a(lib_a-vfprintf.o)
 .debug_abbrev  0x000098ee      0x286 /opt/altera/10.1sp1/nios2eds/bin/gnu/H-i686-pc-linux-gnu/bin/../lib/gcc/nios2-elf/4.1.2/../../../../nios2-elf/lib/libc.a(lib_a-vfscanf.o)
 .debug_abbrev  0x00009b74      0x198 /opt/altera/10.1sp1/nios2eds/bin/gnu/H-i686-pc-linux-gnu/bin/../lib/gcc/nios2-elf/4.1.2/../../../../nios2-elf/lib/libc.a(lib_a-wbuf.o)
 .debug_abbrev  0x00009d0c      0x184 /opt/altera/10.1sp1/nios2eds/bin/gnu/H-i686-pc-linux-gnu/bin/../lib/gcc/nios2-elf/4.1.2/../../../../nios2-elf/lib/libc.a(lib_a-writer.o)
 .debug_abbrev  0x00009e90      0x170 /opt/altera/10.1sp1/nios2eds/bin/gnu/H-i686-pc-linux-gnu/bin/../lib/gcc/nios2-elf/4.1.2/../../../../nios2-elf/lib/libc.a(lib_a-wsetup.o)
 .debug_abbrev  0x0000a000      0x17f /opt/altera/10.1sp1/nios2eds/bin/gnu/H-i686-pc-linux-gnu/bin/../lib/gcc/nios2-elf/4.1.2/../../../../nios2-elf/lib/libc.a(lib_a-closer.o)
 .debug_abbrev  0x0000a17f      0x232 /opt/altera/10.1sp1/nios2eds/bin/gnu/H-i686-pc-linux-gnu/bin/../lib/gcc/nios2-elf/4.1.2/../../../../nios2-elf/lib/libc.a(lib_a-dtoa.o)
 .debug_abbrev  0x0000a3b1      0x17d /opt/altera/10.1sp1/nios2eds/bin/gnu/H-i686-pc-linux-gnu/bin/../lib/gcc/nios2-elf/4.1.2/../../../../nios2-elf/lib/libc.a(lib_a-flags.o)
 .debug_abbrev  0x0000a52e      0x1aa /opt/altera/10.1sp1/nios2eds/bin/gnu/H-i686-pc-linux-gnu/bin/../lib/gcc/nios2-elf/4.1.2/../../../../nios2-elf/lib/libc.a(lib_a-fputs.o)
 .debug_abbrev  0x0000a6d8      0x1a3 /opt/altera/10.1sp1/nios2eds/bin/gnu/H-i686-pc-linux-gnu/bin/../lib/gcc/nios2-elf/4.1.2/../../../../nios2-elf/lib/libc.a(lib_a-fvwrite.o)
 .debug_abbrev  0x0000a87b      0x17f /opt/altera/10.1sp1/nios2eds/bin/gnu/H-i686-pc-linux-gnu/bin/../lib/gcc/nios2-elf/4.1.2/../../../../nios2-elf/lib/libc.a(lib_a-isattyr.o)
 .debug_abbrev  0x0000a9fa       0x9f /opt/altera/10.1sp1/nios2eds/bin/gnu/H-i686-pc-linux-gnu/bin/../lib/gcc/nios2-elf/4.1.2/../../../../nios2-elf/lib/libc.a(lib_a-iswspace.o)
 .debug_abbrev  0x0000aa99      0x1ed /opt/altera/10.1sp1/nios2eds/bin/gnu/H-i686-pc-linux-gnu/bin/../lib/gcc/nios2-elf/4.1.2/../../../../nios2-elf/lib/libc.a(lib_a-locale.o)
 .debug_abbrev  0x0000ac86      0x18e /opt/altera/10.1sp1/nios2eds/bin/gnu/H-i686-pc-linux-gnu/bin/../lib/gcc/nios2-elf/4.1.2/../../../../nios2-elf/lib/libc.a(lib_a-lseekr.o)
 .debug_abbrev  0x0000ae14      0x17f /opt/altera/10.1sp1/nios2eds/bin/gnu/H-i686-pc-linux-gnu/bin/../lib/gcc/nios2-elf/4.1.2/../../../../nios2-elf/lib/libc.a(lib_a-mbrtowc.o)
 .debug_abbrev  0x0000af93      0x18a /opt/altera/10.1sp1/nios2eds/bin/gnu/H-i686-pc-linux-gnu/bin/../lib/gcc/nios2-elf/4.1.2/../../../../nios2-elf/lib/libc.a(lib_a-mbtowc_r.o)
 .debug_abbrev  0x0000b11d       0xb5 /opt/altera/10.1sp1/nios2eds/bin/gnu/H-i686-pc-linux-gnu/bin/../lib/gcc/nios2-elf/4.1.2/../../../../nios2-elf/lib/libc.a(lib_a-memchr.o)
 .debug_abbrev  0x0000b1d2       0x7c /opt/altera/10.1sp1/nios2eds/bin/gnu/H-i686-pc-linux-gnu/bin/../lib/gcc/nios2-elf/4.1.2/../../../../nios2-elf/lib/libc.a(lib_a-memcmp.o)
 .debug_abbrev  0x0000b24e      0x297 /opt/altera/10.1sp1/nios2eds/bin/gnu/H-i686-pc-linux-gnu/bin/../lib/gcc/nios2-elf/4.1.2/../../../../nios2-elf/lib/libc.a(lib_a-mprec.o)
 .debug_abbrev  0x0000b4e5      0x17f /opt/altera/10.1sp1/nios2eds/bin/gnu/H-i686-pc-linux-gnu/bin/../lib/gcc/nios2-elf/4.1.2/../../../../nios2-elf/lib/libc.a(lib_a-readr.o)
 .debug_abbrev  0x0000b664      0x1c3 /opt/altera/10.1sp1/nios2eds/bin/gnu/H-i686-pc-linux-gnu/bin/../lib/gcc/nios2-elf/4.1.2/../../../../nios2-elf/lib/libc.a(lib_a-reallocr.o)
 .debug_abbrev  0x0000b827       0x79 /opt/altera/10.1sp1/nios2eds/bin/gnu/H-i686-pc-linux-gnu/bin/../lib/gcc/nios2-elf/4.1.2/../../../../nios2-elf/lib/libc.a(lib_a-s_isinfd.o)
 .debug_abbrev  0x0000b8a0       0x79 /opt/altera/10.1sp1/nios2eds/bin/gnu/H-i686-pc-linux-gnu/bin/../lib/gcc/nios2-elf/4.1.2/../../../../nios2-elf/lib/libc.a(lib_a-s_isnand.o)
 .debug_abbrev  0x0000b919       0x93 /opt/altera/10.1sp1/nios2eds/bin/gnu/H-i686-pc-linux-gnu/bin/../lib/gcc/nios2-elf/4.1.2/../../../../nios2-elf/lib/libc.a(lib_a-sccl.o)
 .debug_abbrev  0x0000b9ac       0x6d /opt/altera/10.1sp1/nios2eds/bin/gnu/H-i686-pc-linux-gnu/bin/../lib/gcc/nios2-elf/4.1.2/../../../../nios2-elf/lib/libc.a(lib_a-sf_nan.o)
 .debug_abbrev  0x0000ba19      0x2e8 /opt/altera/10.1sp1/nios2eds/bin/gnu/H-i686-pc-linux-gnu/bin/../lib/gcc/nios2-elf/4.1.2/../../../../nios2-elf/lib/libc.a(lib_a-strtod.o)
 .debug_abbrev  0x0000bd01      0x18e /opt/altera/10.1sp1/nios2eds/bin/gnu/H-i686-pc-linux-gnu/bin/../lib/gcc/nios2-elf/4.1.2/../../../../nios2-elf/lib/libc.a(lib_a-strtoll_r.o)
 .debug_abbrev  0x0000be8f      0x1c5 /opt/altera/10.1sp1/nios2eds/bin/gnu/H-i686-pc-linux-gnu/bin/../lib/gcc/nios2-elf/4.1.2/../../../../nios2-elf/lib/libc.a(lib_a-strtoul.o)
 .debug_abbrev  0x0000c054      0x18c /opt/altera/10.1sp1/nios2eds/bin/gnu/H-i686-pc-linux-gnu/bin/../lib/gcc/nios2-elf/4.1.2/../../../../nios2-elf/lib/libc.a(lib_a-strtoull_r.o)
 .debug_abbrev  0x0000c1e0      0x1a7 /opt/altera/10.1sp1/nios2eds/bin/gnu/H-i686-pc-linux-gnu/bin/../lib/gcc/nios2-elf/4.1.2/../../../../nios2-elf/lib/libc.a(lib_a-ungetc.o)
 .debug_abbrev  0x0000c387      0x1b8 /opt/altera/10.1sp1/nios2eds/bin/gnu/H-i686-pc-linux-gnu/bin/../lib/gcc/nios2-elf/4.1.2/../../../../nios2-elf/lib/libc.a(lib_a-callocr.o)
 .debug_abbrev  0x0000c53f      0x273 /opt/altera/10.1sp1/nios2eds/bin/gnu/H-i686-pc-linux-gnu/bin/../lib/gcc/nios2-elf/4.1.2/../../../../nios2-elf/lib/libc.a(lib_a-gdtoa-gethex.o)
 .debug_abbrev  0x0000c7b2      0x117 /opt/altera/10.1sp1/nios2eds/bin/gnu/H-i686-pc-linux-gnu/bin/../lib/gcc/nios2-elf/4.1.2/../../../../nios2-elf/lib/libc.a(lib_a-gdtoa-hexnan.o)
 .debug_abbrev  0x0000c8c9       0xee /opt/altera/10.1sp1/nios2eds/bin/gnu/H-i686-pc-linux-gnu/bin/../lib/gcc/nios2-elf/4.1.2/libgcc.a(_muldi3.o)
 .debug_abbrev  0x0000c9b7       0x5d /opt/altera/10.1sp1/nios2eds/bin/gnu/H-i686-pc-linux-gnu/bin/../lib/gcc/nios2-elf/4.1.2/libgcc.a(_fixunsdfsi.o)
 .debug_abbrev  0x0000ca14      0x16b /opt/altera/10.1sp1/nios2eds/bin/gnu/H-i686-pc-linux-gnu/bin/../lib/gcc/nios2-elf/4.1.2/libgcc.a(_udivdi3.o)
 .debug_abbrev  0x0000cb7f      0x18e /opt/altera/10.1sp1/nios2eds/bin/gnu/H-i686-pc-linux-gnu/bin/../lib/gcc/nios2-elf/4.1.2/libgcc.a(_umoddi3.o)
 .debug_abbrev  0x0000cd0d      0x151 /opt/altera/10.1sp1/nios2eds/bin/gnu/H-i686-pc-linux-gnu/bin/../lib/gcc/nios2-elf/4.1.2/libgcc.a(_ne_sf.o)
 .debug_abbrev  0x0000ce5e      0x151 /opt/altera/10.1sp1/nios2eds/bin/gnu/H-i686-pc-linux-gnu/bin/../lib/gcc/nios2-elf/4.1.2/libgcc.a(_gt_sf.o)
 .debug_abbrev  0x0000cfaf      0x151 /opt/altera/10.1sp1/nios2eds/bin/gnu/H-i686-pc-linux-gnu/bin/../lib/gcc/nios2-elf/4.1.2/libgcc.a(_lt_sf.o)
 .debug_abbrev  0x0000d100      0x1d2 /opt/altera/10.1sp1/nios2eds/bin/gnu/H-i686-pc-linux-gnu/bin/../lib/gcc/nios2-elf/4.1.2/libgcc.a(_addsub_df.o)
 .debug_abbrev  0x0000d2d2      0x204 /opt/altera/10.1sp1/nios2eds/bin/gnu/H-i686-pc-linux-gnu/bin/../lib/gcc/nios2-elf/4.1.2/libgcc.a(_mul_df.o)
 .debug_abbrev  0x0000d4d6      0x1e3 /opt/altera/10.1sp1/nios2eds/bin/gnu/H-i686-pc-linux-gnu/bin/../lib/gcc/nios2-elf/4.1.2/libgcc.a(_div_df.o)
 .debug_abbrev  0x0000d6b9      0x151 /opt/altera/10.1sp1/nios2eds/bin/gnu/H-i686-pc-linux-gnu/bin/../lib/gcc/nios2-elf/4.1.2/libgcc.a(_eq_df.o)
 .debug_abbrev  0x0000d80a      0x151 /opt/altera/10.1sp1/nios2eds/bin/gnu/H-i686-pc-linux-gnu/bin/../lib/gcc/nios2-elf/4.1.2/libgcc.a(_ne_df.o)
 .debug_abbrev  0x0000d95b      0x151 /opt/altera/10.1sp1/nios2eds/bin/gnu/H-i686-pc-linux-gnu/bin/../lib/gcc/nios2-elf/4.1.2/libgcc.a(_gt_df.o)
 .debug_abbrev  0x0000daac      0x151 /opt/altera/10.1sp1/nios2eds/bin/gnu/H-i686-pc-linux-gnu/bin/../lib/gcc/nios2-elf/4.1.2/libgcc.a(_ge_df.o)
 .debug_abbrev  0x0000dbfd      0x151 /opt/altera/10.1sp1/nios2eds/bin/gnu/H-i686-pc-linux-gnu/bin/../lib/gcc/nios2-elf/4.1.2/libgcc.a(_lt_df.o)
 .debug_abbrev  0x0000dd4e      0x151 /opt/altera/10.1sp1/nios2eds/bin/gnu/H-i686-pc-linux-gnu/bin/../lib/gcc/nios2-elf/4.1.2/libgcc.a(_le_df.o)
 .debug_abbrev  0x0000de9f      0x13f /opt/altera/10.1sp1/nios2eds/bin/gnu/H-i686-pc-linux-gnu/bin/../lib/gcc/nios2-elf/4.1.2/libgcc.a(_si_to_df.o)
 .debug_abbrev  0x0000dfde      0x176 /opt/altera/10.1sp1/nios2eds/bin/gnu/H-i686-pc-linux-gnu/bin/../lib/gcc/nios2-elf/4.1.2/libgcc.a(_df_to_si.o)
 .debug_abbrev  0x0000e154      0x137 /opt/altera/10.1sp1/nios2eds/bin/gnu/H-i686-pc-linux-gnu/bin/../lib/gcc/nios2-elf/4.1.2/libgcc.a(_df_to_sf.o)
 .debug_abbrev  0x0000e28b       0xba /opt/altera/10.1sp1/nios2eds/bin/gnu/H-i686-pc-linux-gnu/bin/../lib/gcc/nios2-elf/4.1.2/libgcc.a(_thenan_df.o)
 .debug_abbrev  0x0000e345      0x155 /opt/altera/10.1sp1/nios2eds/bin/gnu/H-i686-pc-linux-gnu/bin/../lib/gcc/nios2-elf/4.1.2/libgcc.a(_usi_to_df.o)
 .debug_abbrev  0x0000e49a       0x61 /opt/altera/10.1sp1/nios2eds/bin/gnu/H-i686-pc-linux-gnu/bin/../lib/gcc/nios2-elf/4.1.2/libgcc.a(_clz.o)
 .debug_abbrev  0x0000e4fb       0xb9 /opt/altera/10.1sp1/nios2eds/bin/gnu/H-i686-pc-linux-gnu/bin/../lib/gcc/nios2-elf/4.1.2/libgcc.a(_clzsi2.o)
 .debug_abbrev  0x0000e5b4      0x158 /opt/altera/10.1sp1/nios2eds/bin/gnu/H-i686-pc-linux-gnu/bin/../lib/gcc/nios2-elf/4.1.2/libgcc.a(_unpack_sf.o)
 .debug_abbrev  0x0000e70c      0x132 /opt/altera/10.1sp1/nios2eds/bin/gnu/H-i686-pc-linux-gnu/bin/../lib/gcc/nios2-elf/4.1.2/libgcc.a(_fpcmp_parts_sf.o)
 .debug_abbrev  0x0000e83e      0x100 /opt/altera/10.1sp1/nios2eds/bin/gnu/H-i686-pc-linux-gnu/bin/../lib/gcc/nios2-elf/4.1.2/libgcc.a(_make_sf.o)
 .debug_abbrev  0x0000e93e      0x1b1 /opt/altera/10.1sp1/nios2eds/bin/gnu/H-i686-pc-linux-gnu/bin/../lib/gcc/nios2-elf/4.1.2/libgcc.a(_pack_df.o)
 .debug_abbrev  0x0000eaef      0x149 /opt/altera/10.1sp1/nios2eds/bin/gnu/H-i686-pc-linux-gnu/bin/../lib/gcc/nios2-elf/4.1.2/libgcc.a(_unpack_df.o)
 .debug_abbrev  0x0000ec38      0x132 /opt/altera/10.1sp1/nios2eds/bin/gnu/H-i686-pc-linux-gnu/bin/../lib/gcc/nios2-elf/4.1.2/libgcc.a(_fpcmp_parts_df.o)
 .debug_abbrev  0x0000ed6a      0x1aa /opt/altera/10.1sp1/nios2eds/bin/gnu/H-i686-pc-linux-gnu/bin/../lib/gcc/nios2-elf/4.1.2/libgcc.a(_pack_sf.o)
 .debug_abbrev  0x0000ef14       0x7a ../StereoCameraServer_bsp/libucosii_bsp.a(alt_dcache_flush.o)
 .debug_abbrev  0x0000ef8e       0x5e ../StereoCameraServer_bsp/libucosii_bsp.a(alt_errno.o)
 .debug_abbrev  0x0000efec       0xaa ../StereoCameraServer_bsp/libucosii_bsp.a(alt_exit.o)
 .debug_abbrev  0x0000f096      0x128 ../StereoCameraServer_bsp/libucosii_bsp.a(alt_flash_dev.o)
 .debug_abbrev  0x0000f1be      0x102 ../StereoCameraServer_bsp/libucosii_bsp.a(alt_fstat.o)
 .debug_abbrev  0x0000f2c0       0x34 ../StereoCameraServer_bsp/libucosii_bsp.a(alt_getpid.o)
 .debug_abbrev  0x0000f2f4      0x180 ../StereoCameraServer_bsp/libucosii_bsp.a(alt_irq_register.o)
 .debug_abbrev  0x0000f474       0x44 ../StereoCameraServer_bsp/libucosii_bsp.a(alt_irq_vars.o)
 .debug_abbrev  0x0000f4b8      0x102 ../StereoCameraServer_bsp/libucosii_bsp.a(alt_isatty.o)
 .debug_abbrev  0x0000f5ba       0x99 ../StereoCameraServer_bsp/libucosii_bsp.a(alt_kill.o)
 .debug_abbrev  0x0000f653       0x88 ../StereoCameraServer_bsp/libucosii_bsp.a(alt_load.o)
 .debug_abbrev  0x0000f6db      0x102 ../StereoCameraServer_bsp/libucosii_bsp.a(alt_lseek.o)
 .debug_abbrev  0x0000f7dd      0x120 ../StereoCameraServer_bsp/libucosii_bsp.a(alt_main.o)
 .debug_abbrev  0x0000f8fd      0x119 ../StereoCameraServer_bsp/libucosii_bsp.a(alt_open.o)
 .debug_abbrev  0x0000fa16       0xd3 ../StereoCameraServer_bsp/libucosii_bsp.a(alt_release_fd.o)
 .debug_abbrev  0x0000fae9      0x11c ../StereoCameraServer_bsp/libucosii_bsp.a(alt_sbrk.o)
 .debug_abbrev  0x0000fc05      0x161 ../StereoCameraServer_bsp/libucosii_bsp.a(alt_tick.o)
 .debug_abbrev  0x0000fd66      0x1b3 ../StereoCameraServer_bsp/libucosii_bsp.a(alt_env_lock.o)
 .debug_abbrev  0x0000ff19      0x234 ../StereoCameraServer_bsp/libucosii_bsp.a(alt_malloc_lock.o)
 .debug_abbrev  0x0001014d      0x2aa ../StereoCameraServer_bsp/libucosii_bsp.a(os_core.o)
 .debug_abbrev  0x000103f7      0x114 ../StereoCameraServer_bsp/libucosii_bsp.a(os_dbg.o)
 .debug_abbrev  0x0001050b      0x21b ../StereoCameraServer_bsp/libucosii_bsp.a(os_flag.o)
 .debug_abbrev  0x00010726      0x1f6 ../StereoCameraServer_bsp/libucosii_bsp.a(os_mbox.o)
 .debug_abbrev  0x0001091c      0x235 ../StereoCameraServer_bsp/libucosii_bsp.a(os_mem.o)
 .debug_abbrev  0x00010b51      0x20d ../StereoCameraServer_bsp/libucosii_bsp.a(os_q.o)
 .debug_abbrev  0x00010d5e      0x20d ../StereoCameraServer_bsp/libucosii_bsp.a(os_sem.o)
 .debug_abbrev  0x00010f6b      0x20e ../StereoCameraServer_bsp/libucosii_bsp.a(os_task.o)
 .debug_abbrev  0x00011179      0x1de ../StereoCameraServer_bsp/libucosii_bsp.a(os_time.o)
 .debug_abbrev  0x00011357      0x1e2 ../StereoCameraServer_bsp/libucosii_bsp.a(alt_sys_init.o)
 .debug_abbrev  0x00011539      0x1bf ../StereoCameraServer_bsp/libucosii_bsp.a(altera_avalon_cfi_flash.o)
 .debug_abbrev  0x000116f8      0x185 ../StereoCameraServer_bsp/libucosii_bsp.a(altera_avalon_cfi_flash_table.o)
 .debug_abbrev  0x0001187d      0x13c ../StereoCameraServer_bsp/libucosii_bsp.a(altera_avalon_jtag_uart_fd.o)
 .debug_abbrev  0x000119b9      0x21e ../StereoCameraServer_bsp/libucosii_bsp.a(altera_avalon_jtag_uart_init.o)
 .debug_abbrev  0x00011bd7      0x135 ../StereoCameraServer_bsp/libucosii_bsp.a(altera_avalon_jtag_uart_ioctl.o)
 .debug_abbrev  0x00011d0c      0x1ee ../StereoCameraServer_bsp/libucosii_bsp.a(altera_avalon_jtag_uart_read.o)
 .debug_abbrev  0x00011efa      0x1ea ../StereoCameraServer_bsp/libucosii_bsp.a(altera_avalon_jtag_uart_write.o)
 .debug_abbrev  0x000120e4      0x235 ../StereoCameraServer_bsp/libucosii_bsp.a(altera_avalon_lcd_16207.o)
 .debug_abbrev  0x00012319      0x12f ../StereoCameraServer_bsp/libucosii_bsp.a(altera_avalon_lcd_16207_fd.o)
 .debug_abbrev  0x00012448      0x137 ../StereoCameraServer_bsp/libucosii_bsp.a(altera_avalon_timer_sc.o)
 .debug_abbrev  0x0001257f      0x124 ../StereoCameraServer_bsp/libucosii_bsp.a(altera_avalon_uart_fd.o)
 .debug_abbrev  0x000126a3      0x1c0 ../StereoCameraServer_bsp/libucosii_bsp.a(altera_avalon_uart_write.o)
 .debug_abbrev  0x00012863      0x20a ../StereoCameraServer_bsp/libucosii_bsp.a(altera_ro_zipfs.o)
 .debug_abbrev  0x00012a6d      0x231 ../StereoCameraServer_bsp/libucosii_bsp.a(dm9000a.o)
 .debug_abbrev  0x00012c9e       0x77 ../StereoCameraServer_bsp/libucosii_bsp.a(alt_iniche_close.o)
 .debug_abbrev  0x00012d15      0x11f ../StereoCameraServer_bsp/libucosii_bsp.a(alt_iniche_dev.o)
 .debug_abbrev  0x00012e34       0x92 ../StereoCameraServer_bsp/libucosii_bsp.a(alt_iniche_fcntl.o)
 .debug_abbrev  0x00012ec6       0x7e ../StereoCameraServer_bsp/libucosii_bsp.a(alt_iniche_read.o)
 .debug_abbrev  0x00012f44       0x85 ../StereoCameraServer_bsp/libucosii_bsp.a(alt_iniche_write.o)
 .debug_abbrev  0x00012fc9      0x184 ../StereoCameraServer_bsp/libucosii_bsp.a(ipnet.o)
 .debug_abbrev  0x0001314d      0x18b ../StereoCameraServer_bsp/libucosii_bsp.a(ipstart.o)
 .debug_abbrev  0x000132d8      0x191 ../StereoCameraServer_bsp/libucosii_bsp.a(igmp_cmn.o)
 .debug_abbrev  0x00013469      0x1a3 ../StereoCameraServer_bsp/libucosii_bsp.a(bsdsock.o)
 .debug_abbrev  0x0001360c       0x96 ../StereoCameraServer_bsp/libucosii_bsp.a(cksum.o)
 .debug_abbrev  0x000136a2      0x18b ../StereoCameraServer_bsp/libucosii_bsp.a(in_utils.o)
 .debug_abbrev  0x0001382d      0x152 ../StereoCameraServer_bsp/libucosii_bsp.a(netmain.o)
 .debug_abbrev  0x0001397f      0x144 ../StereoCameraServer_bsp/libucosii_bsp.a(tk_crnos.o)
 .debug_abbrev  0x00013ac3      0x196 ../StereoCameraServer_bsp/libucosii_bsp.a(pktalloc.o)
 .debug_abbrev  0x00013c59       0xcb ../StereoCameraServer_bsp/libucosii_bsp.a(q.o)
 .debug_abbrev  0x00013d24       0x14 ../StereoCameraServer_bsp/libucosii_bsp.a(asm_cksum.o)
 .debug_abbrev  0x00013d38      0x242 ../StereoCameraServer_bsp/libucosii_bsp.a(brdutils.o)
 .debug_abbrev  0x00013f7a      0x194 ../StereoCameraServer_bsp/libucosii_bsp.a(osportco.o)
 .debug_abbrev  0x0001410e      0x199 ../StereoCameraServer_bsp/libucosii_bsp.a(targnios.o)
 .debug_abbrev  0x000142a7      0x1dc ../StereoCameraServer_bsp/libucosii_bsp.a(nptcp.o)
 .debug_abbrev  0x00014483      0x136 ../StereoCameraServer_bsp/libucosii_bsp.a(rawsock.o)
 .debug_abbrev  0x000145b9      0x1de ../StereoCameraServer_bsp/libucosii_bsp.a(sockcall.o)
 .debug_abbrev  0x00014797      0x1ef ../StereoCameraServer_bsp/libucosii_bsp.a(socket.o)
 .debug_abbrev  0x00014986      0x1ac ../StereoCameraServer_bsp/libucosii_bsp.a(socket2.o)
 .debug_abbrev  0x00014b32      0x17f ../StereoCameraServer_bsp/libucosii_bsp.a(soselect.o)
 .debug_abbrev  0x00014cb1      0x1ca ../StereoCameraServer_bsp/libucosii_bsp.a(tcp_in.o)
 .debug_abbrev  0x00014e7b      0x1a4 ../StereoCameraServer_bsp/libucosii_bsp.a(tcp_out.o)
 .debug_abbrev  0x0001501f      0x1c3 ../StereoCameraServer_bsp/libucosii_bsp.a(tcp_subr.o)
 .debug_abbrev  0x000151e2      0x19e ../StereoCameraServer_bsp/libucosii_bsp.a(tcp_timr.o)
 .debug_abbrev  0x00015380      0x175 ../StereoCameraServer_bsp/libucosii_bsp.a(tcp_usr.o)
 .debug_abbrev  0x000154f5       0x77 ../StereoCameraServer_bsp/libucosii_bsp.a(tcpport.o)
 .debug_abbrev  0x0001556c      0x190 ../StereoCameraServer_bsp/libucosii_bsp.a(udpsock.o)
 .debug_abbrev  0x000156fc      0x172 ../StereoCameraServer_bsp/libucosii_bsp.a(alt_alarm_start.o)
 .debug_abbrev  0x0001586e      0x102 ../StereoCameraServer_bsp/libucosii_bsp.a(alt_close.o)
 .debug_abbrev  0x00015970       0x57 ../StereoCameraServer_bsp/libucosii_bsp.a(alt_dcache_flush_all.o)
 .debug_abbrev  0x000159c7      0x10a ../StereoCameraServer_bsp/libucosii_bsp.a(alt_dev.o)
 .debug_abbrev  0x00015ad1       0xf6 ../StereoCameraServer_bsp/libucosii_bsp.a(alt_dev_llist_insert.o)
 .debug_abbrev  0x00015bc7       0x74 ../StereoCameraServer_bsp/libucosii_bsp.a(alt_do_ctors.o)
 .debug_abbrev  0x00015c3b       0x74 ../StereoCameraServer_bsp/libucosii_bsp.a(alt_do_dtors.o)
 .debug_abbrev  0x00015caf      0x107 ../StereoCameraServer_bsp/libucosii_bsp.a(alt_fcntl.o)
 .debug_abbrev  0x00015db6       0xd6 ../StereoCameraServer_bsp/libucosii_bsp.a(alt_find_dev.o)
 .debug_abbrev  0x00015e8c       0xd6 ../StereoCameraServer_bsp/libucosii_bsp.a(alt_find_file.o)
 .debug_abbrev  0x00015f62       0xf4 ../StereoCameraServer_bsp/libucosii_bsp.a(alt_fs_reg.o)
 .debug_abbrev  0x00016056      0x173 ../StereoCameraServer_bsp/libucosii_bsp.a(alt_get_fd.o)
 .debug_abbrev  0x000161c9       0x3f ../StereoCameraServer_bsp/libucosii_bsp.a(alt_icache_flush_all.o)
 .debug_abbrev  0x00016208       0xf7 ../StereoCameraServer_bsp/libucosii_bsp.a(alt_io_redirect.o)
 .debug_abbrev  0x000162ff       0x12 ../StereoCameraServer_bsp/libucosii_bsp.a(alt_irq_entry.o)
 .debug_abbrev  0x00016311      0x124 ../StereoCameraServer_bsp/libucosii_bsp.a(alt_irq_handler.o)
 .debug_abbrev  0x00016435      0x102 ../StereoCameraServer_bsp/libucosii_bsp.a(alt_read.o)
 .debug_abbrev  0x00016537       0x74 ../StereoCameraServer_bsp/libucosii_bsp.a(alt_remap_cached.o)
 .debug_abbrev  0x000165ab       0x74 ../StereoCameraServer_bsp/libucosii_bsp.a(alt_remap_uncached.o)
 .debug_abbrev  0x0001661f       0xb7 ../StereoCameraServer_bsp/libucosii_bsp.a(alt_usleep.o)
 .debug_abbrev  0x000166d6      0x107 ../StereoCameraServer_bsp/libucosii_bsp.a(alt_write.o)
 .debug_abbrev  0x000167dd       0x64 ../StereoCameraServer_bsp/libucosii_bsp.a(altera_nios2_irq.o)
 .debug_abbrev  0x00016841       0x14 ../StereoCameraServer_bsp/libucosii_bsp.a(os_cpu_a.o)
 .debug_abbrev  0x00016855      0x1d0 ../StereoCameraServer_bsp/libucosii_bsp.a(os_cpu_c.o)
 .debug_abbrev  0x00016a25      0x14d ../StereoCameraServer_bsp/libucosii_bsp.a(altera_avalon_cfi_flash_amd.o)
 .debug_abbrev  0x00016b72      0x14d ../StereoCameraServer_bsp/libucosii_bsp.a(altera_avalon_cfi_flash_intel.o)
 .debug_abbrev  0x00016cbf      0x173 ../StereoCameraServer_bsp/libucosii_bsp.a(allports.o)
 .debug_abbrev  0x00016e32      0x151 ../StereoCameraServer_bsp/libucosii_bsp.a(timeouts.o)
 .debug_abbrev  0x00016f83       0xa4 ../StereoCameraServer_bsp/libucosii_bsp.a(tk_misc.o)
 .debug_abbrev  0x00017027      0x1eb ../StereoCameraServer_bsp/libucosii_bsp.a(et_arp.o)
 .debug_abbrev  0x00017212      0x13d ../StereoCameraServer_bsp/libucosii_bsp.a(iface.o)
 .debug_abbrev  0x0001734f      0x1ed ../StereoCameraServer_bsp/libucosii_bsp.a(ip.o)
 .debug_abbrev  0x0001753c      0x1ca ../StereoCameraServer_bsp/libucosii_bsp.a(ip_reasm.o)
 .debug_abbrev  0x00017706      0x166 ../StereoCameraServer_bsp/libucosii_bsp.a(ipdemux.o)
 .debug_abbrev  0x0001786c      0x114 ../StereoCameraServer_bsp/libucosii_bsp.a(ipmc.o)
 .debug_abbrev  0x00017980       0xe9 ../StereoCameraServer_bsp/libucosii_bsp.a(ipport.o)
 .debug_abbrev  0x00017a69      0x19c ../StereoCameraServer_bsp/libucosii_bsp.a(ipraw.o)
 .debug_abbrev  0x00017c05      0x156 ../StereoCameraServer_bsp/libucosii_bsp.a(iproute.o)
 .debug_abbrev  0x00017d5b      0x1c0 ../StereoCameraServer_bsp/libucosii_bsp.a(udp.o)
 .debug_abbrev  0x00017f1b      0x10e ../StereoCameraServer_bsp/libucosii_bsp.a(igmp.o)
 .debug_abbrev  0x00018029      0x17a ../StereoCameraServer_bsp/libucosii_bsp.a(igmp2.o)
 .debug_abbrev  0x000181a3      0x189 ../StereoCameraServer_bsp/libucosii_bsp.a(ipopt.o)
 .debug_abbrev  0x0001832c      0x15a ../StereoCameraServer_bsp/libucosii_bsp.a(u_mctest.o)
 .debug_abbrev  0x00018486      0x175 ../StereoCameraServer_bsp/libucosii_bsp.a(memdev.o)
 .debug_abbrev  0x000185fb      0x154 ../StereoCameraServer_bsp/libucosii_bsp.a(parseip.o)
 .debug_abbrev  0x0001874f       0xad ../StereoCameraServer_bsp/libucosii_bsp.a(tcpcksum.o)
 .debug_abbrev  0x000187fc      0x144 ../StereoCameraServer_bsp/libucosii_bsp.a(udp_open.o)
 .debug_abbrev  0x00018940      0x19f ../StereoCameraServer_bsp/libucosii_bsp.a(in_pcb.o)
 .debug_abbrev  0x00018adf      0x1b6 ../StereoCameraServer_bsp/libucosii_bsp.a(vfsfiles.o)
 .debug_abbrev  0x00018c95       0x77 ../StereoCameraServer_bsp/libucosii_bsp.a(vfsport.o)
 .debug_abbrev  0x00018d0c       0x6c ../StereoCameraServer_bsp/libucosii_bsp.a(alt_busy_sleep.o)
 .debug_abbrev  0x00018d78       0x12 ../StereoCameraServer_bsp/libucosii_bsp.a(alt_exception_entry.o)
 .debug_abbrev  0x00018d8a       0x7a ../StereoCameraServer_bsp/libucosii_bsp.a(alt_icache_flush.o)
 .debug_abbrev  0x00018e04      0x15d ../StereoCameraServer_bsp/libucosii_bsp.a(icmp.o)
 .debug_abbrev  0x00018f61       0xb7 /opt/altera/10.1sp1/nios2eds/bin/gnu/H-i686-pc-linux-gnu/bin/../lib/gcc/nios2-elf/4.1.2/../../../../nios2-elf/lib/libc.a(lib_a-atexit.o)
 .debug_abbrev  0x00019018      0x17f /opt/altera/10.1sp1/nios2eds/bin/gnu/H-i686-pc-linux-gnu/bin/../lib/gcc/nios2-elf/4.1.2/../../../../nios2-elf/lib/libc.a(lib_a-calloc.o)
 .debug_abbrev  0x00019197      0x16e /opt/altera/10.1sp1/nios2eds/bin/gnu/H-i686-pc-linux-gnu/bin/../lib/gcc/nios2-elf/4.1.2/../../../../nios2-elf/lib/libc.a(lib_a-exit.o)
 .debug_abbrev  0x00019305      0x170 /opt/altera/10.1sp1/nios2eds/bin/gnu/H-i686-pc-linux-gnu/bin/../lib/gcc/nios2-elf/4.1.2/../../../../nios2-elf/lib/libc.a(lib_a-vprintf.o)
 .debug_abbrev  0x00019475      0x1a5 /opt/altera/10.1sp1/nios2eds/bin/gnu/H-i686-pc-linux-gnu/bin/../lib/gcc/nios2-elf/4.1.2/../../../../nios2-elf/lib/libc.a(lib_a-vsprintf.o)
 .debug_abbrev  0x0001961a      0x1ae /opt/altera/10.1sp1/nios2eds/bin/gnu/H-i686-pc-linux-gnu/bin/../lib/gcc/nios2-elf/4.1.2/../../../../nios2-elf/lib/libc.a(lib_a-__atexit.o)
 .debug_abbrev  0x000197c8      0x1de /opt/altera/10.1sp1/nios2eds/bin/gnu/H-i686-pc-linux-gnu/bin/../lib/gcc/nios2-elf/4.1.2/../../../../nios2-elf/lib/libc.a(lib_a-__call_atexit.o)

.debug_line     0x00000000    0x56192
 *(.debug_line)
 .debug_line    0x00000000       0xcb ../StereoCameraServer_bsp/obj/HAL/src/crt0.o
 .debug_line    0x000000cb      0x501 obj/alt_error_handler.o
 .debug_line    0x000005cc      0x60b obj/altera_avalon_uart_init.o
 .debug_line    0x00000bd7      0x528 obj/altera_avalon_uart_read.o
 .debug_line    0x000010ff     0x17e1 obj/http.o
 .debug_line    0x000028e0      0x8d7 obj/network_utilities.o
 .debug_line    0x000031b7      0x6e2 obj/srec_flash.o
 .debug_line    0x00003899      0x6b6 obj/web_server.o
 .debug_line    0x00003f4f      0x84e obj/Camera.o
 .debug_line    0x0000479d      0x5e8 obj/StereoCamera.o
 .debug_line    0x00004d85      0x490 obj/cam_control.o
 .debug_line    0x00005215      0xcad /opt/altera/10.1sp1/nios2eds/bin/gnu/H-i686-pc-linux-gnu/bin/../lib/gcc/nios2-elf/4.1.2/../../../../nios2-elf/lib/libstdc++.a(eh_personality.o)
 .debug_line    0x00005ec2      0x345 /opt/altera/10.1sp1/nios2eds/bin/gnu/H-i686-pc-linux-gnu/bin/../lib/gcc/nios2-elf/4.1.2/../../../../nios2-elf/lib/libstdc++.a(eh_globals.o)
 .debug_line    0x00006207      0x3cf /opt/altera/10.1sp1/nios2eds/bin/gnu/H-i686-pc-linux-gnu/bin/../lib/gcc/nios2-elf/4.1.2/../../../../nios2-elf/lib/libstdc++.a(eh_throw.o)
 .debug_line    0x000065d6      0x336 /opt/altera/10.1sp1/nios2eds/bin/gnu/H-i686-pc-linux-gnu/bin/../lib/gcc/nios2-elf/4.1.2/../../../../nios2-elf/lib/libstdc++.a(eh_call.o)
 .debug_line    0x0000690c      0x4d6 /opt/altera/10.1sp1/nios2eds/bin/gnu/H-i686-pc-linux-gnu/bin/../lib/gcc/nios2-elf/4.1.2/../../../../nios2-elf/lib/libstdc++.a(eh_catch.o)
 .debug_line    0x00006de2      0x299 /opt/altera/10.1sp1/nios2eds/bin/gnu/H-i686-pc-linux-gnu/bin/../lib/gcc/nios2-elf/4.1.2/../../../../nios2-elf/lib/libstdc++.a(eh_exception.o)
 .debug_line    0x0000707b      0x3c5 /opt/altera/10.1sp1/nios2eds/bin/gnu/H-i686-pc-linux-gnu/bin/../lib/gcc/nios2-elf/4.1.2/../../../../nios2-elf/lib/libstdc++.a(eh_terminate.o)
 .debug_line    0x00007440      0x38b /opt/altera/10.1sp1/nios2eds/bin/gnu/H-i686-pc-linux-gnu/bin/../lib/gcc/nios2-elf/4.1.2/../../../../nios2-elf/lib/libstdc++.a(si_class_type_info.o)
 .debug_line    0x000077cb      0x479 /opt/altera/10.1sp1/nios2eds/bin/gnu/H-i686-pc-linux-gnu/bin/../lib/gcc/nios2-elf/4.1.2/../../../../nios2-elf/lib/libstdc++.a(eh_alloc.o)
 .debug_line    0x00007c44      0x240 /opt/altera/10.1sp1/nios2eds/bin/gnu/H-i686-pc-linux-gnu/bin/../lib/gcc/nios2-elf/4.1.2/../../../../nios2-elf/lib/libstdc++.a(eh_term_handler.o)
 .debug_line    0x00007e84      0x2c5 /opt/altera/10.1sp1/nios2eds/bin/gnu/H-i686-pc-linux-gnu/bin/../lib/gcc/nios2-elf/4.1.2/../../../../nios2-elf/lib/libstdc++.a(tinfo.o)
 .debug_line    0x00008149      0x2f4 /opt/altera/10.1sp1/nios2eds/bin/gnu/H-i686-pc-linux-gnu/bin/../lib/gcc/nios2-elf/4.1.2/../../../../nios2-elf/lib/libstdc++.a(del_op.o)
 .debug_line    0x0000843d      0x3fb /opt/altera/10.1sp1/nios2eds/bin/gnu/H-i686-pc-linux-gnu/bin/../lib/gcc/nios2-elf/4.1.2/../../../../nios2-elf/lib/libstdc++.a(class_type_info.o)
 .debug_line    0x00008838      0x222 /opt/altera/10.1sp1/nios2eds/bin/gnu/H-i686-pc-linux-gnu/bin/../lib/gcc/nios2-elf/4.1.2/../../../../nios2-elf/lib/libstdc++.a(eh_unex_handler.o)
 .debug_line    0x00008a5a      0x2b3 /opt/altera/10.1sp1/nios2eds/bin/gnu/H-i686-pc-linux-gnu/bin/../lib/gcc/nios2-elf/4.1.2/libgcc.a(lib2-divmod.o)
 .debug_line    0x00008d0d     0x20a1 /opt/altera/10.1sp1/nios2eds/bin/gnu/H-i686-pc-linux-gnu/bin/../lib/gcc/nios2-elf/4.1.2/libgcc.a(unwind-dw2.o)
 .debug_line    0x0000adae     0x145e /opt/altera/10.1sp1/nios2eds/bin/gnu/H-i686-pc-linux-gnu/bin/../lib/gcc/nios2-elf/4.1.2/libgcc.a(unwind-dw2-fde.o)
 .debug_line    0x0000c20c      0x20b /opt/altera/10.1sp1/nios2eds/bin/gnu/H-i686-pc-linux-gnu/bin/../lib/gcc/nios2-elf/4.1.2/../../../../nios2-elf/lib/libc.a(lib_a-abort.o)
 .debug_line    0x0000c417      0x1e4 /opt/altera/10.1sp1/nios2eds/bin/gnu/H-i686-pc-linux-gnu/bin/../lib/gcc/nios2-elf/4.1.2/../../../../nios2-elf/lib/libc.a(lib_a-atoi.o)
 .debug_line    0x0000c5fb       0x7e /opt/altera/10.1sp1/nios2eds/bin/gnu/H-i686-pc-linux-gnu/bin/../lib/gcc/nios2-elf/4.1.2/../../../../nios2-elf/lib/libc.a(lib_a-ctype_.o)
 .debug_line    0x0000c679      0x2c2 /opt/altera/10.1sp1/nios2eds/bin/gnu/H-i686-pc-linux-gnu/bin/../lib/gcc/nios2-elf/4.1.2/../../../../nios2-elf/lib/libc.a(lib_a-fclose.o)
 .debug_line    0x0000c93b      0x3e7 /opt/altera/10.1sp1/nios2eds/bin/gnu/H-i686-pc-linux-gnu/bin/../lib/gcc/nios2-elf/4.1.2/../../../../nios2-elf/lib/libc.a(lib_a-fflush.o)
 .debug_line    0x0000cd22      0x27f /opt/altera/10.1sp1/nios2eds/bin/gnu/H-i686-pc-linux-gnu/bin/../lib/gcc/nios2-elf/4.1.2/../../../../nios2-elf/lib/libc.a(lib_a-fgetc.o)
 .debug_line    0x0000cfa1      0x233 /opt/altera/10.1sp1/nios2eds/bin/gnu/H-i686-pc-linux-gnu/bin/../lib/gcc/nios2-elf/4.1.2/../../../../nios2-elf/lib/libc.a(lib_a-fgetpos.o)
 .debug_line    0x0000d1d4      0x21e /opt/altera/10.1sp1/nios2eds/bin/gnu/H-i686-pc-linux-gnu/bin/../lib/gcc/nios2-elf/4.1.2/../../../../nios2-elf/lib/libc.a(lib_a-fileno.o)
 .debug_line    0x0000d3f2      0x5db /opt/altera/10.1sp1/nios2eds/bin/gnu/H-i686-pc-linux-gnu/bin/../lib/gcc/nios2-elf/4.1.2/../../../../nios2-elf/lib/libc.a(lib_a-findfp.o)
 .debug_line    0x0000d9cd      0x31c /opt/altera/10.1sp1/nios2eds/bin/gnu/H-i686-pc-linux-gnu/bin/../lib/gcc/nios2-elf/4.1.2/../../../../nios2-elf/lib/libc.a(lib_a-fopen.o)
 .debug_line    0x0000dce9      0x25e /opt/altera/10.1sp1/nios2eds/bin/gnu/H-i686-pc-linux-gnu/bin/../lib/gcc/nios2-elf/4.1.2/../../../../nios2-elf/lib/libc.a(lib_a-fprintf.o)
 .debug_line    0x0000df47      0x25f /opt/altera/10.1sp1/nios2eds/bin/gnu/H-i686-pc-linux-gnu/bin/../lib/gcc/nios2-elf/4.1.2/../../../../nios2-elf/lib/libc.a(lib_a-fputc.o)
 .debug_line    0x0000e1a6      0x430 /opt/altera/10.1sp1/nios2eds/bin/gnu/H-i686-pc-linux-gnu/bin/../lib/gcc/nios2-elf/4.1.2/../../../../nios2-elf/lib/libc.a(lib_a-fread.o)
 .debug_line    0x0000e5d6      0x5c5 /opt/altera/10.1sp1/nios2eds/bin/gnu/H-i686-pc-linux-gnu/bin/../lib/gcc/nios2-elf/4.1.2/../../../../nios2-elf/lib/libc.a(lib_a-freer.o)
 .debug_line    0x0000eb9b      0x585 /opt/altera/10.1sp1/nios2eds/bin/gnu/H-i686-pc-linux-gnu/bin/../lib/gcc/nios2-elf/4.1.2/../../../../nios2-elf/lib/libc.a(lib_a-fseek.o)
 .debug_line    0x0000f120      0x23e /opt/altera/10.1sp1/nios2eds/bin/gnu/H-i686-pc-linux-gnu/bin/../lib/gcc/nios2-elf/4.1.2/../../../../nios2-elf/lib/libc.a(lib_a-fstatr.o)
 .debug_line    0x0000f35e      0x2c4 /opt/altera/10.1sp1/nios2eds/bin/gnu/H-i686-pc-linux-gnu/bin/../lib/gcc/nios2-elf/4.1.2/../../../../nios2-elf/lib/libc.a(lib_a-ftell.o)
 .debug_line    0x0000f622      0x324 /opt/altera/10.1sp1/nios2eds/bin/gnu/H-i686-pc-linux-gnu/bin/../lib/gcc/nios2-elf/4.1.2/../../../../nios2-elf/lib/libc.a(lib_a-fwalk.o)
 .debug_line    0x0000f946      0x2b3 /opt/altera/10.1sp1/nios2eds/bin/gnu/H-i686-pc-linux-gnu/bin/../lib/gcc/nios2-elf/4.1.2/../../../../nios2-elf/lib/libc.a(lib_a-fwrite.o)
 .debug_line    0x0000fbf9      0x27e /opt/altera/10.1sp1/nios2eds/bin/gnu/H-i686-pc-linux-gnu/bin/../lib/gcc/nios2-elf/4.1.2/../../../../nios2-elf/lib/libc.a(lib_a-getc.o)
 .debug_line    0x0000fe77      0x1f4 /opt/altera/10.1sp1/nios2eds/bin/gnu/H-i686-pc-linux-gnu/bin/../lib/gcc/nios2-elf/4.1.2/../../../../nios2-elf/lib/libc.a(lib_a-impure.o)
 .debug_line    0x0001006b      0x1b9 /opt/altera/10.1sp1/nios2eds/bin/gnu/H-i686-pc-linux-gnu/bin/../lib/gcc/nios2-elf/4.1.2/../../../../nios2-elf/lib/libc.a(lib_a-int_errno.o)
 .debug_line    0x00010224      0x39d /opt/altera/10.1sp1/nios2eds/bin/gnu/H-i686-pc-linux-gnu/bin/../lib/gcc/nios2-elf/4.1.2/../../../../nios2-elf/lib/libc.a(lib_a-makebuf.o)
 .debug_line    0x000105c1      0x225 /opt/altera/10.1sp1/nios2eds/bin/gnu/H-i686-pc-linux-gnu/bin/../lib/gcc/nios2-elf/4.1.2/../../../../nios2-elf/lib/libc.a(lib_a-malloc.o)
 .debug_line    0x000107e6      0x7e4 /opt/altera/10.1sp1/nios2eds/bin/gnu/H-i686-pc-linux-gnu/bin/../lib/gcc/nios2-elf/4.1.2/../../../../nios2-elf/lib/libc.a(lib_a-mallocr.o)
 .debug_line    0x00010fca      0x199 /opt/altera/10.1sp1/nios2eds/bin/gnu/H-i686-pc-linux-gnu/bin/../lib/gcc/nios2-elf/4.1.2/../../../../nios2-elf/lib/libc.a(lib_a-memcpy.o)
 .debug_line    0x00011163      0x2d1 /opt/altera/10.1sp1/nios2eds/bin/gnu/H-i686-pc-linux-gnu/bin/../lib/gcc/nios2-elf/4.1.2/../../../../nios2-elf/lib/libc.a(lib_a-memmove.o)
 .debug_line    0x00011434      0x2c8 /opt/altera/10.1sp1/nios2eds/bin/gnu/H-i686-pc-linux-gnu/bin/../lib/gcc/nios2-elf/4.1.2/../../../../nios2-elf/lib/libc.a(lib_a-memset.o)
 .debug_line    0x000116fc      0x255 /opt/altera/10.1sp1/nios2eds/bin/gnu/H-i686-pc-linux-gnu/bin/../lib/gcc/nios2-elf/4.1.2/../../../../nios2-elf/lib/libc.a(lib_a-openr.o)
 .debug_line    0x00011951      0x27e /opt/altera/10.1sp1/nios2eds/bin/gnu/H-i686-pc-linux-gnu/bin/../lib/gcc/nios2-elf/4.1.2/../../../../nios2-elf/lib/libc.a(lib_a-perror.o)
 .debug_line    0x00011bcf      0x275 /opt/altera/10.1sp1/nios2eds/bin/gnu/H-i686-pc-linux-gnu/bin/../lib/gcc/nios2-elf/4.1.2/../../../../nios2-elf/lib/libc.a(lib_a-printf.o)
 .debug_line    0x00011e44      0x29e /opt/altera/10.1sp1/nios2eds/bin/gnu/H-i686-pc-linux-gnu/bin/../lib/gcc/nios2-elf/4.1.2/../../../../nios2-elf/lib/libc.a(lib_a-putc.o)
 .debug_line    0x000120e2      0x23e /opt/altera/10.1sp1/nios2eds/bin/gnu/H-i686-pc-linux-gnu/bin/../lib/gcc/nios2-elf/4.1.2/../../../../nios2-elf/lib/libc.a(lib_a-putchar.o)
 .debug_line    0x00012320      0x2d1 /opt/altera/10.1sp1/nios2eds/bin/gnu/H-i686-pc-linux-gnu/bin/../lib/gcc/nios2-elf/4.1.2/../../../../nios2-elf/lib/libc.a(lib_a-puts.o)
 .debug_line    0x000125f1      0x39e /opt/altera/10.1sp1/nios2eds/bin/gnu/H-i686-pc-linux-gnu/bin/../lib/gcc/nios2-elf/4.1.2/../../../../nios2-elf/lib/libc.a(lib_a-refill.o)
 .debug_line    0x0001298f      0x267 /opt/altera/10.1sp1/nios2eds/bin/gnu/H-i686-pc-linux-gnu/bin/../lib/gcc/nios2-elf/4.1.2/../../../../nios2-elf/lib/libc.a(lib_a-rget.o)
 .debug_line    0x00012bf6      0x260 /opt/altera/10.1sp1/nios2eds/bin/gnu/H-i686-pc-linux-gnu/bin/../lib/gcc/nios2-elf/4.1.2/../../../../nios2-elf/lib/libc.a(lib_a-sbrkr.o)
 .debug_line    0x00012e56      0x4b8 /opt/altera/10.1sp1/nios2eds/bin/gnu/H-i686-pc-linux-gnu/bin/../lib/gcc/nios2-elf/4.1.2/../../../../nios2-elf/lib/libc.a(lib_a-signal.o)
 .debug_line    0x0001330e      0x252 /opt/altera/10.1sp1/nios2eds/bin/gnu/H-i686-pc-linux-gnu/bin/../lib/gcc/nios2-elf/4.1.2/../../../../nios2-elf/lib/libc.a(lib_a-signalr.o)
 .debug_line    0x00013560      0x2fc /opt/altera/10.1sp1/nios2eds/bin/gnu/H-i686-pc-linux-gnu/bin/../lib/gcc/nios2-elf/4.1.2/../../../../nios2-elf/lib/libc.a(lib_a-sprintf.o)
 .debug_line    0x0001385c      0x33b /opt/altera/10.1sp1/nios2eds/bin/gnu/H-i686-pc-linux-gnu/bin/../lib/gcc/nios2-elf/4.1.2/../../../../nios2-elf/lib/libc.a(lib_a-sscanf.o)
 .debug_line    0x00013b97      0x366 /opt/altera/10.1sp1/nios2eds/bin/gnu/H-i686-pc-linux-gnu/bin/../lib/gcc/nios2-elf/4.1.2/../../../../nios2-elf/lib/libc.a(lib_a-stdio.o)
 .debug_line    0x00013efd      0x1e9 /opt/altera/10.1sp1/nios2eds/bin/gnu/H-i686-pc-linux-gnu/bin/../lib/gcc/nios2-elf/4.1.2/../../../../nios2-elf/lib/libc.a(lib_a-strcasecmp.o)
 .debug_line    0x000140e6      0x256 /opt/altera/10.1sp1/nios2eds/bin/gnu/H-i686-pc-linux-gnu/bin/../lib/gcc/nios2-elf/4.1.2/../../../../nios2-elf/lib/libc.a(lib_a-strcat.o)
 .debug_line    0x0001433c      0x28e /opt/altera/10.1sp1/nios2eds/bin/gnu/H-i686-pc-linux-gnu/bin/../lib/gcc/nios2-elf/4.1.2/../../../../nios2-elf/lib/libc.a(lib_a-strchr.o)
 .debug_line    0x000145ca      0x29c /opt/altera/10.1sp1/nios2eds/bin/gnu/H-i686-pc-linux-gnu/bin/../lib/gcc/nios2-elf/4.1.2/../../../../nios2-elf/lib/libc.a(lib_a-strcmp.o)
 .debug_line    0x00014866      0x24e /opt/altera/10.1sp1/nios2eds/bin/gnu/H-i686-pc-linux-gnu/bin/../lib/gcc/nios2-elf/4.1.2/../../../../nios2-elf/lib/libc.a(lib_a-strcpy.o)
 .debug_line    0x00014ab4      0x4bb /opt/altera/10.1sp1/nios2eds/bin/gnu/H-i686-pc-linux-gnu/bin/../lib/gcc/nios2-elf/4.1.2/../../../../nios2-elf/lib/libc.a(lib_a-strerror.o)
 .debug_line    0x00014f6f      0x234 /opt/altera/10.1sp1/nios2eds/bin/gnu/H-i686-pc-linux-gnu/bin/../lib/gcc/nios2-elf/4.1.2/../../../../nios2-elf/lib/libc.a(lib_a-strlen.o)
 .debug_line    0x000151a3      0x2c5 /opt/altera/10.1sp1/nios2eds/bin/gnu/H-i686-pc-linux-gnu/bin/../lib/gcc/nios2-elf/4.1.2/../../../../nios2-elf/lib/libc.a(lib_a-strncmp.o)
 .debug_line    0x00015468      0x297 /opt/altera/10.1sp1/nios2eds/bin/gnu/H-i686-pc-linux-gnu/bin/../lib/gcc/nios2-elf/4.1.2/../../../../nios2-elf/lib/libc.a(lib_a-strncpy.o)
 .debug_line    0x000156ff      0x6a7 /opt/altera/10.1sp1/nios2eds/bin/gnu/H-i686-pc-linux-gnu/bin/../lib/gcc/nios2-elf/4.1.2/../../../../nios2-elf/lib/libc.a(lib_a-strstr.o)
 .debug_line    0x00015da6      0x217 /opt/altera/10.1sp1/nios2eds/bin/gnu/H-i686-pc-linux-gnu/bin/../lib/gcc/nios2-elf/4.1.2/../../../../nios2-elf/lib/libc.a(lib_a-strtok.o)
 .debug_line    0x00015fbd      0x2d2 /opt/altera/10.1sp1/nios2eds/bin/gnu/H-i686-pc-linux-gnu/bin/../lib/gcc/nios2-elf/4.1.2/../../../../nios2-elf/lib/libc.a(lib_a-strtok_r.o)
 .debug_line    0x0001628f      0x3dd /opt/altera/10.1sp1/nios2eds/bin/gnu/H-i686-pc-linux-gnu/bin/../lib/gcc/nios2-elf/4.1.2/../../../../nios2-elf/lib/libc.a(lib_a-strtol.o)
 .debug_line    0x0001666c       0x91 /opt/altera/10.1sp1/nios2eds/bin/gnu/H-i686-pc-linux-gnu/bin/../lib/gcc/nios2-elf/4.1.2/../../../../nios2-elf/lib/libc.a(lib_a-u_strerr.o)
 .debug_line    0x000166fd     0x10e6 /opt/altera/10.1sp1/nios2eds/bin/gnu/H-i686-pc-linux-gnu/bin/../lib/gcc/nios2-elf/4.1.2/../../../../nios2-elf/lib/libc.a(lib_a-vfprintf.o)
 .debug_line    0x000177e3     0x1017 /opt/altera/10.1sp1/nios2eds/bin/gnu/H-i686-pc-linux-gnu/bin/../lib/gcc/nios2-elf/4.1.2/../../../../nios2-elf/lib/libc.a(lib_a-vfscanf.o)
 .debug_line    0x000187fa      0x32a /opt/altera/10.1sp1/nios2eds/bin/gnu/H-i686-pc-linux-gnu/bin/../lib/gcc/nios2-elf/4.1.2/../../../../nios2-elf/lib/libc.a(lib_a-wbuf.o)
 .debug_line    0x00018b24      0x261 /opt/altera/10.1sp1/nios2eds/bin/gnu/H-i686-pc-linux-gnu/bin/../lib/gcc/nios2-elf/4.1.2/../../../../nios2-elf/lib/libc.a(lib_a-writer.o)
 .debug_line    0x00018d85      0x2ca /opt/altera/10.1sp1/nios2eds/bin/gnu/H-i686-pc-linux-gnu/bin/../lib/gcc/nios2-elf/4.1.2/../../../../nios2-elf/lib/libc.a(lib_a-wsetup.o)
 .debug_line    0x0001904f      0x261 /opt/altera/10.1sp1/nios2eds/bin/gnu/H-i686-pc-linux-gnu/bin/../lib/gcc/nios2-elf/4.1.2/../../../../nios2-elf/lib/libc.a(lib_a-closer.o)
 .debug_line    0x000192b0     0x12a0 /opt/altera/10.1sp1/nios2eds/bin/gnu/H-i686-pc-linux-gnu/bin/../lib/gcc/nios2-elf/4.1.2/../../../../nios2-elf/lib/libc.a(lib_a-dtoa.o)
 .debug_line    0x0001a550      0x270 /opt/altera/10.1sp1/nios2eds/bin/gnu/H-i686-pc-linux-gnu/bin/../lib/gcc/nios2-elf/4.1.2/../../../../nios2-elf/lib/libc.a(lib_a-flags.o)
 .debug_line    0x0001a7c0      0x2a2 /opt/altera/10.1sp1/nios2eds/bin/gnu/H-i686-pc-linux-gnu/bin/../lib/gcc/nios2-elf/4.1.2/../../../../nios2-elf/lib/libc.a(lib_a-fputs.o)
 .debug_line    0x0001aa62      0x61b /opt/altera/10.1sp1/nios2eds/bin/gnu/H-i686-pc-linux-gnu/bin/../lib/gcc/nios2-elf/4.1.2/../../../../nios2-elf/lib/libc.a(lib_a-fvwrite.o)
 .debug_line    0x0001b07d      0x262 /opt/altera/10.1sp1/nios2eds/bin/gnu/H-i686-pc-linux-gnu/bin/../lib/gcc/nios2-elf/4.1.2/../../../../nios2-elf/lib/libc.a(lib_a-isattyr.o)
 .debug_line    0x0001b2df      0x1d5 /opt/altera/10.1sp1/nios2eds/bin/gnu/H-i686-pc-linux-gnu/bin/../lib/gcc/nios2-elf/4.1.2/../../../../nios2-elf/lib/libc.a(lib_a-iswspace.o)
 .debug_line    0x0001b4b4      0x2a2 /opt/altera/10.1sp1/nios2eds/bin/gnu/H-i686-pc-linux-gnu/bin/../lib/gcc/nios2-elf/4.1.2/../../../../nios2-elf/lib/libc.a(lib_a-locale.o)
 .debug_line    0x0001b756      0x261 /opt/altera/10.1sp1/nios2eds/bin/gnu/H-i686-pc-linux-gnu/bin/../lib/gcc/nios2-elf/4.1.2/../../../../nios2-elf/lib/libc.a(lib_a-lseekr.o)
 .debug_line    0x0001b9b7      0x2a0 /opt/altera/10.1sp1/nios2eds/bin/gnu/H-i686-pc-linux-gnu/bin/../lib/gcc/nios2-elf/4.1.2/../../../../nios2-elf/lib/libc.a(lib_a-mbrtowc.o)
 .debug_line    0x0001bc57      0x210 /opt/altera/10.1sp1/nios2eds/bin/gnu/H-i686-pc-linux-gnu/bin/../lib/gcc/nios2-elf/4.1.2/../../../../nios2-elf/lib/libc.a(lib_a-mbtowc_r.o)
 .debug_line    0x0001be67      0x2ca /opt/altera/10.1sp1/nios2eds/bin/gnu/H-i686-pc-linux-gnu/bin/../lib/gcc/nios2-elf/4.1.2/../../../../nios2-elf/lib/libc.a(lib_a-memchr.o)
 .debug_line    0x0001c131      0x266 /opt/altera/10.1sp1/nios2eds/bin/gnu/H-i686-pc-linux-gnu/bin/../lib/gcc/nios2-elf/4.1.2/../../../../nios2-elf/lib/libc.a(lib_a-memcmp.o)
 .debug_line    0x0001c397     0x121d /opt/altera/10.1sp1/nios2eds/bin/gnu/H-i686-pc-linux-gnu/bin/../lib/gcc/nios2-elf/4.1.2/../../../../nios2-elf/lib/libc.a(lib_a-mprec.o)
 .debug_line    0x0001d5b4      0x260 /opt/altera/10.1sp1/nios2eds/bin/gnu/H-i686-pc-linux-gnu/bin/../lib/gcc/nios2-elf/4.1.2/../../../../nios2-elf/lib/libc.a(lib_a-readr.o)
 .debug_line    0x0001d814      0x564 /opt/altera/10.1sp1/nios2eds/bin/gnu/H-i686-pc-linux-gnu/bin/../lib/gcc/nios2-elf/4.1.2/../../../../nios2-elf/lib/libc.a(lib_a-reallocr.o)
 .debug_line    0x0001dd78      0x1fc /opt/altera/10.1sp1/nios2eds/bin/gnu/H-i686-pc-linux-gnu/bin/../lib/gcc/nios2-elf/4.1.2/../../../../nios2-elf/lib/libc.a(lib_a-s_isinfd.o)
 .debug_line    0x0001df74      0x1f4 /opt/altera/10.1sp1/nios2eds/bin/gnu/H-i686-pc-linux-gnu/bin/../lib/gcc/nios2-elf/4.1.2/../../../../nios2-elf/lib/libc.a(lib_a-s_isnand.o)
 .debug_line    0x0001e168      0x2a3 /opt/altera/10.1sp1/nios2eds/bin/gnu/H-i686-pc-linux-gnu/bin/../lib/gcc/nios2-elf/4.1.2/../../../../nios2-elf/lib/libc.a(lib_a-sccl.o)
 .debug_line    0x0001e40b      0x1e2 /opt/altera/10.1sp1/nios2eds/bin/gnu/H-i686-pc-linux-gnu/bin/../lib/gcc/nios2-elf/4.1.2/../../../../nios2-elf/lib/libc.a(lib_a-sf_nan.o)
 .debug_line    0x0001e5ed      0xfbe /opt/altera/10.1sp1/nios2eds/bin/gnu/H-i686-pc-linux-gnu/bin/../lib/gcc/nios2-elf/4.1.2/../../../../nios2-elf/lib/libc.a(lib_a-strtod.o)
 .debug_line    0x0001f5ab      0x3e0 /opt/altera/10.1sp1/nios2eds/bin/gnu/H-i686-pc-linux-gnu/bin/../lib/gcc/nios2-elf/4.1.2/../../../../nios2-elf/lib/libc.a(lib_a-strtoll_r.o)
 .debug_line    0x0001f98b      0x394 /opt/altera/10.1sp1/nios2eds/bin/gnu/H-i686-pc-linux-gnu/bin/../lib/gcc/nios2-elf/4.1.2/../../../../nios2-elf/lib/libc.a(lib_a-strtoul.o)
 .debug_line    0x0001fd1f      0x389 /opt/altera/10.1sp1/nios2eds/bin/gnu/H-i686-pc-linux-gnu/bin/../lib/gcc/nios2-elf/4.1.2/../../../../nios2-elf/lib/libc.a(lib_a-strtoull_r.o)
 .debug_line    0x000200a8      0x479 /opt/altera/10.1sp1/nios2eds/bin/gnu/H-i686-pc-linux-gnu/bin/../lib/gcc/nios2-elf/4.1.2/../../../../nios2-elf/lib/libc.a(lib_a-ungetc.o)
 .debug_line    0x00020521      0x236 /opt/altera/10.1sp1/nios2eds/bin/gnu/H-i686-pc-linux-gnu/bin/../lib/gcc/nios2-elf/4.1.2/../../../../nios2-elf/lib/libc.a(lib_a-callocr.o)
 .debug_line    0x00020757      0x89f /opt/altera/10.1sp1/nios2eds/bin/gnu/H-i686-pc-linux-gnu/bin/../lib/gcc/nios2-elf/4.1.2/../../../../nios2-elf/lib/libc.a(lib_a-gdtoa-gethex.o)
 .debug_line    0x00020ff6      0x455 /opt/altera/10.1sp1/nios2eds/bin/gnu/H-i686-pc-linux-gnu/bin/../lib/gcc/nios2-elf/4.1.2/../../../../nios2-elf/lib/libc.a(lib_a-gdtoa-hexnan.o)
 .debug_line    0x0002144b      0x183 /opt/altera/10.1sp1/nios2eds/bin/gnu/H-i686-pc-linux-gnu/bin/../lib/gcc/nios2-elf/4.1.2/libgcc.a(_muldi3.o)
 .debug_line    0x000215ce      0x163 /opt/altera/10.1sp1/nios2eds/bin/gnu/H-i686-pc-linux-gnu/bin/../lib/gcc/nios2-elf/4.1.2/libgcc.a(_fixunsdfsi.o)
 .debug_line    0x00021731      0x356 /opt/altera/10.1sp1/nios2eds/bin/gnu/H-i686-pc-linux-gnu/bin/../lib/gcc/nios2-elf/4.1.2/libgcc.a(_udivdi3.o)
 .debug_line    0x00021a87      0x3e1 /opt/altera/10.1sp1/nios2eds/bin/gnu/H-i686-pc-linux-gnu/bin/../lib/gcc/nios2-elf/4.1.2/libgcc.a(_umoddi3.o)
 .debug_line    0x00021e68      0x121 /opt/altera/10.1sp1/nios2eds/bin/gnu/H-i686-pc-linux-gnu/bin/../lib/gcc/nios2-elf/4.1.2/libgcc.a(_ne_sf.o)
 .debug_line    0x00021f89      0x121 /opt/altera/10.1sp1/nios2eds/bin/gnu/H-i686-pc-linux-gnu/bin/../lib/gcc/nios2-elf/4.1.2/libgcc.a(_gt_sf.o)
 .debug_line    0x000220aa      0x121 /opt/altera/10.1sp1/nios2eds/bin/gnu/H-i686-pc-linux-gnu/bin/../lib/gcc/nios2-elf/4.1.2/libgcc.a(_lt_sf.o)
 .debug_line    0x000221cb      0x430 /opt/altera/10.1sp1/nios2eds/bin/gnu/H-i686-pc-linux-gnu/bin/../lib/gcc/nios2-elf/4.1.2/libgcc.a(_addsub_df.o)
 .debug_line    0x000225fb      0x3e5 /opt/altera/10.1sp1/nios2eds/bin/gnu/H-i686-pc-linux-gnu/bin/../lib/gcc/nios2-elf/4.1.2/libgcc.a(_mul_df.o)
 .debug_line    0x000229e0      0x301 /opt/altera/10.1sp1/nios2eds/bin/gnu/H-i686-pc-linux-gnu/bin/../lib/gcc/nios2-elf/4.1.2/libgcc.a(_div_df.o)
 .debug_line    0x00022ce1      0x129 /opt/altera/10.1sp1/nios2eds/bin/gnu/H-i686-pc-linux-gnu/bin/../lib/gcc/nios2-elf/4.1.2/libgcc.a(_eq_df.o)
 .debug_line    0x00022e0a      0x129 /opt/altera/10.1sp1/nios2eds/bin/gnu/H-i686-pc-linux-gnu/bin/../lib/gcc/nios2-elf/4.1.2/libgcc.a(_ne_df.o)
 .debug_line    0x00022f33      0x129 /opt/altera/10.1sp1/nios2eds/bin/gnu/H-i686-pc-linux-gnu/bin/../lib/gcc/nios2-elf/4.1.2/libgcc.a(_gt_df.o)
 .debug_line    0x0002305c      0x129 /opt/altera/10.1sp1/nios2eds/bin/gnu/H-i686-pc-linux-gnu/bin/../lib/gcc/nios2-elf/4.1.2/libgcc.a(_ge_df.o)
 .debug_line    0x00023185      0x129 /opt/altera/10.1sp1/nios2eds/bin/gnu/H-i686-pc-linux-gnu/bin/../lib/gcc/nios2-elf/4.1.2/libgcc.a(_lt_df.o)
 .debug_line    0x000232ae      0x129 /opt/altera/10.1sp1/nios2eds/bin/gnu/H-i686-pc-linux-gnu/bin/../lib/gcc/nios2-elf/4.1.2/libgcc.a(_le_df.o)
 .debug_line    0x000233d7      0x175 /opt/altera/10.1sp1/nios2eds/bin/gnu/H-i686-pc-linux-gnu/bin/../lib/gcc/nios2-elf/4.1.2/libgcc.a(_si_to_df.o)
 .debug_line    0x0002354c      0x149 /opt/altera/10.1sp1/nios2eds/bin/gnu/H-i686-pc-linux-gnu/bin/../lib/gcc/nios2-elf/4.1.2/libgcc.a(_df_to_si.o)
 .debug_line    0x00023695      0x121 /opt/altera/10.1sp1/nios2eds/bin/gnu/H-i686-pc-linux-gnu/bin/../lib/gcc/nios2-elf/4.1.2/libgcc.a(_df_to_sf.o)
 .debug_line    0x000237b6       0x94 /opt/altera/10.1sp1/nios2eds/bin/gnu/H-i686-pc-linux-gnu/bin/../lib/gcc/nios2-elf/4.1.2/libgcc.a(_thenan_df.o)
 .debug_line    0x0002384a      0x189 /opt/altera/10.1sp1/nios2eds/bin/gnu/H-i686-pc-linux-gnu/bin/../lib/gcc/nios2-elf/4.1.2/libgcc.a(_usi_to_df.o)
 .debug_line    0x000239d3      0x10e /opt/altera/10.1sp1/nios2eds/bin/gnu/H-i686-pc-linux-gnu/bin/../lib/gcc/nios2-elf/4.1.2/libgcc.a(_clz.o)
 .debug_line    0x00023ae1      0x169 /opt/altera/10.1sp1/nios2eds/bin/gnu/H-i686-pc-linux-gnu/bin/../lib/gcc/nios2-elf/4.1.2/libgcc.a(_clzsi2.o)
 .debug_line    0x00023c4a      0x197 /opt/altera/10.1sp1/nios2eds/bin/gnu/H-i686-pc-linux-gnu/bin/../lib/gcc/nios2-elf/4.1.2/libgcc.a(_unpack_sf.o)
 .debug_line    0x00023de1      0x177 /opt/altera/10.1sp1/nios2eds/bin/gnu/H-i686-pc-linux-gnu/bin/../lib/gcc/nios2-elf/4.1.2/libgcc.a(_fpcmp_parts_sf.o)
 .debug_line    0x00023f58       0xe1 /opt/altera/10.1sp1/nios2eds/bin/gnu/H-i686-pc-linux-gnu/bin/../lib/gcc/nios2-elf/4.1.2/libgcc.a(_make_sf.o)
 .debug_line    0x00024039      0x222 /opt/altera/10.1sp1/nios2eds/bin/gnu/H-i686-pc-linux-gnu/bin/../lib/gcc/nios2-elf/4.1.2/libgcc.a(_pack_df.o)
 .debug_line    0x0002425b      0x1e4 /opt/altera/10.1sp1/nios2eds/bin/gnu/H-i686-pc-linux-gnu/bin/../lib/gcc/nios2-elf/4.1.2/libgcc.a(_unpack_df.o)
 .debug_line    0x0002443f      0x187 /opt/altera/10.1sp1/nios2eds/bin/gnu/H-i686-pc-linux-gnu/bin/../lib/gcc/nios2-elf/4.1.2/libgcc.a(_fpcmp_parts_df.o)
 .debug_line    0x000245c6      0x1ca /opt/altera/10.1sp1/nios2eds/bin/gnu/H-i686-pc-linux-gnu/bin/../lib/gcc/nios2-elf/4.1.2/libgcc.a(_pack_sf.o)
 .debug_line    0x00024790      0x248 ../StereoCameraServer_bsp/libucosii_bsp.a(alt_dcache_flush.o)
 .debug_line    0x000249d8      0x211 ../StereoCameraServer_bsp/libucosii_bsp.a(alt_errno.o)
 .debug_line    0x00024be9      0x2f6 ../StereoCameraServer_bsp/libucosii_bsp.a(alt_exit.o)
 .debug_line    0x00024edf      0x343 ../StereoCameraServer_bsp/libucosii_bsp.a(alt_flash_dev.o)
 .debug_line    0x00025222      0x37c ../StereoCameraServer_bsp/libucosii_bsp.a(alt_fstat.o)
 .debug_line    0x0002559e       0xca ../StereoCameraServer_bsp/libucosii_bsp.a(alt_getpid.o)
 .debug_line    0x00025668      0x3d4 ../StereoCameraServer_bsp/libucosii_bsp.a(alt_irq_register.o)
 .debug_line    0x00025a3c       0xcb ../StereoCameraServer_bsp/libucosii_bsp.a(alt_irq_vars.o)
 .debug_line    0x00025b07      0x37d ../StereoCameraServer_bsp/libucosii_bsp.a(alt_isatty.o)
 .debug_line    0x00025e84      0x2d4 ../StereoCameraServer_bsp/libucosii_bsp.a(alt_kill.o)
 .debug_line    0x00026158      0x27e ../StereoCameraServer_bsp/libucosii_bsp.a(alt_load.o)
 .debug_line    0x000263d6      0x37c ../StereoCameraServer_bsp/libucosii_bsp.a(alt_lseek.o)
 .debug_line    0x00026752      0x3c4 ../StereoCameraServer_bsp/libucosii_bsp.a(alt_main.o)
 .debug_line    0x00026b16      0x3da ../StereoCameraServer_bsp/libucosii_bsp.a(alt_open.o)
 .debug_line    0x00026ef0      0x2f4 ../StereoCameraServer_bsp/libucosii_bsp.a(alt_release_fd.o)
 .debug_line    0x000271e4      0x2e1 ../StereoCameraServer_bsp/libucosii_bsp.a(alt_sbrk.o)
 .debug_line    0x000274c5      0x396 ../StereoCameraServer_bsp/libucosii_bsp.a(alt_tick.o)
 .debug_line    0x0002785b      0x33f ../StereoCameraServer_bsp/libucosii_bsp.a(alt_env_lock.o)
 .debug_line    0x00027b9a      0x3fb ../StereoCameraServer_bsp/libucosii_bsp.a(alt_malloc_lock.o)
 .debug_line    0x00027f95     0x16e3 ../StereoCameraServer_bsp/libucosii_bsp.a(os_core.o)
 .debug_line    0x00029678      0x408 ../StereoCameraServer_bsp/libucosii_bsp.a(os_dbg.o)
 .debug_line    0x00029a80     0x1267 ../StereoCameraServer_bsp/libucosii_bsp.a(os_flag.o)
 .debug_line    0x0002ace7      0xb36 ../StereoCameraServer_bsp/libucosii_bsp.a(os_mbox.o)
 .debug_line    0x0002b81d      0x80a ../StereoCameraServer_bsp/libucosii_bsp.a(os_mem.o)
 .debug_line    0x0002c027      0xeeb ../StereoCameraServer_bsp/libucosii_bsp.a(os_q.o)
 .debug_line    0x0002cf12      0xaa3 ../StereoCameraServer_bsp/libucosii_bsp.a(os_sem.o)
 .debug_line    0x0002d9b5     0x11ac ../StereoCameraServer_bsp/libucosii_bsp.a(os_task.o)
 .debug_line    0x0002eb61      0x5af ../StereoCameraServer_bsp/libucosii_bsp.a(os_time.o)
 .debug_line    0x0002f110      0x5b2 ../StereoCameraServer_bsp/libucosii_bsp.a(alt_sys_init.o)
 .debug_line    0x0002f6c2      0x5da ../StereoCameraServer_bsp/libucosii_bsp.a(altera_avalon_cfi_flash.o)
 .debug_line    0x0002fc9c      0x9b8 ../StereoCameraServer_bsp/libucosii_bsp.a(altera_avalon_cfi_flash_table.o)
 .debug_line    0x00030654      0x397 ../StereoCameraServer_bsp/libucosii_bsp.a(altera_avalon_jtag_uart_fd.o)
 .debug_line    0x000309eb      0x616 ../StereoCameraServer_bsp/libucosii_bsp.a(altera_avalon_jtag_uart_init.o)
 .debug_line    0x00031001      0x3d4 ../StereoCameraServer_bsp/libucosii_bsp.a(altera_avalon_jtag_uart_ioctl.o)
 .debug_line    0x000313d5      0x512 ../StereoCameraServer_bsp/libucosii_bsp.a(altera_avalon_jtag_uart_read.o)
 .debug_line    0x000318e7      0x520 ../StereoCameraServer_bsp/libucosii_bsp.a(altera_avalon_jtag_uart_write.o)
 .debug_line    0x00031e07      0x9be ../StereoCameraServer_bsp/libucosii_bsp.a(altera_avalon_lcd_16207.o)
 .debug_line    0x000327c5      0x337 ../StereoCameraServer_bsp/libucosii_bsp.a(altera_avalon_lcd_16207_fd.o)
 .debug_line    0x00032afc      0x331 ../StereoCameraServer_bsp/libucosii_bsp.a(altera_avalon_timer_sc.o)
 .debug_line    0x00032e2d      0x375 ../StereoCameraServer_bsp/libucosii_bsp.a(altera_avalon_uart_fd.o)
 .debug_line    0x000331a2      0x513 ../StereoCameraServer_bsp/libucosii_bsp.a(altera_avalon_uart_write.o)
 .debug_line    0x000336b5      0x8a0 ../StereoCameraServer_bsp/libucosii_bsp.a(altera_ro_zipfs.o)
 .debug_line    0x00033f55      0xb11 ../StereoCameraServer_bsp/libucosii_bsp.a(dm9000a.o)
 .debug_line    0x00034a66      0x3c7 ../StereoCameraServer_bsp/libucosii_bsp.a(alt_iniche_close.o)
 .debug_line    0x00034e2d      0x45a ../StereoCameraServer_bsp/libucosii_bsp.a(alt_iniche_dev.o)
 .debug_line    0x00035287      0x40f ../StereoCameraServer_bsp/libucosii_bsp.a(alt_iniche_fcntl.o)
 .debug_line    0x00035696      0x3c6 ../StereoCameraServer_bsp/libucosii_bsp.a(alt_iniche_read.o)
 .debug_line    0x00035a5c      0x3d7 ../StereoCameraServer_bsp/libucosii_bsp.a(alt_iniche_write.o)
 .debug_line    0x00035e33      0x826 ../StereoCameraServer_bsp/libucosii_bsp.a(ipnet.o)
 .debug_line    0x00036659      0x567 ../StereoCameraServer_bsp/libucosii_bsp.a(ipstart.o)
 .debug_line    0x00036bc0      0x99c ../StereoCameraServer_bsp/libucosii_bsp.a(igmp_cmn.o)
 .debug_line    0x0003755c      0x747 ../StereoCameraServer_bsp/libucosii_bsp.a(bsdsock.o)
 .debug_line    0x00037ca3      0x38a ../StereoCameraServer_bsp/libucosii_bsp.a(cksum.o)
 .debug_line    0x0003802d      0x829 ../StereoCameraServer_bsp/libucosii_bsp.a(in_utils.o)
 .debug_line    0x00038856      0x4b7 ../StereoCameraServer_bsp/libucosii_bsp.a(netmain.o)
 .debug_line    0x00038d0d      0x628 ../StereoCameraServer_bsp/libucosii_bsp.a(tk_crnos.o)
 .debug_line    0x00039335      0x6c9 ../StereoCameraServer_bsp/libucosii_bsp.a(pktalloc.o)
 .debug_line    0x000399fe      0x45b ../StereoCameraServer_bsp/libucosii_bsp.a(q.o)
 .debug_line    0x00039e59      0x108 ../StereoCameraServer_bsp/libucosii_bsp.a(asm_cksum.o)
 .debug_line    0x00039f61      0x4f2 ../StereoCameraServer_bsp/libucosii_bsp.a(brdutils.o)
 .debug_line    0x0003a453      0x57f ../StereoCameraServer_bsp/libucosii_bsp.a(osportco.o)
 .debug_line    0x0003a9d2      0x6be ../StereoCameraServer_bsp/libucosii_bsp.a(targnios.o)
 .debug_line    0x0003b090      0xfa3 ../StereoCameraServer_bsp/libucosii_bsp.a(nptcp.o)
 .debug_line    0x0003c033      0x8c8 ../StereoCameraServer_bsp/libucosii_bsp.a(rawsock.o)
 .debug_line    0x0003c8fb      0xeb6 ../StereoCameraServer_bsp/libucosii_bsp.a(sockcall.o)
 .debug_line    0x0003d7b1     0x1338 ../StereoCameraServer_bsp/libucosii_bsp.a(socket.o)
 .debug_line    0x0003eae9      0xc6c ../StereoCameraServer_bsp/libucosii_bsp.a(socket2.o)
 .debug_line    0x0003f755      0x7ad ../StereoCameraServer_bsp/libucosii_bsp.a(soselect.o)
 .debug_line    0x0003ff02     0x166e ../StereoCameraServer_bsp/libucosii_bsp.a(tcp_in.o)
 .debug_line    0x00041570      0xad9 ../StereoCameraServer_bsp/libucosii_bsp.a(tcp_out.o)
 .debug_line    0x00042049      0x843 ../StereoCameraServer_bsp/libucosii_bsp.a(tcp_subr.o)
 .debug_line    0x0004288c      0x693 ../StereoCameraServer_bsp/libucosii_bsp.a(tcp_timr.o)
 .debug_line    0x00042f1f      0x922 ../StereoCameraServer_bsp/libucosii_bsp.a(tcp_usr.o)
 .debug_line    0x00043841      0x3bf ../StereoCameraServer_bsp/libucosii_bsp.a(tcpport.o)
 .debug_line    0x00043c00      0x9d9 ../StereoCameraServer_bsp/libucosii_bsp.a(udpsock.o)
 .debug_line    0x000445d9      0x35c ../StereoCameraServer_bsp/libucosii_bsp.a(alt_alarm_start.o)
 .debug_line    0x00044935      0x374 ../StereoCameraServer_bsp/libucosii_bsp.a(alt_close.o)
 .debug_line    0x00044ca9      0x234 ../StereoCameraServer_bsp/libucosii_bsp.a(alt_dcache_flush_all.o)
 .debug_line    0x00044edd      0x338 ../StereoCameraServer_bsp/libucosii_bsp.a(alt_dev.o)
 .debug_line    0x00045215      0x2c1 ../StereoCameraServer_bsp/libucosii_bsp.a(alt_dev_llist_insert.o)
 .debug_line    0x000454d6       0xdc ../StereoCameraServer_bsp/libucosii_bsp.a(alt_do_ctors.o)
 .debug_line    0x000455b2       0xdc ../StereoCameraServer_bsp/libucosii_bsp.a(alt_do_dtors.o)
 .debug_line    0x0004568e      0x3d3 ../StereoCameraServer_bsp/libucosii_bsp.a(alt_fcntl.o)
 .debug_line    0x00045a61      0x355 ../StereoCameraServer_bsp/libucosii_bsp.a(alt_find_dev.o)
 .debug_line    0x00045db6      0x366 ../StereoCameraServer_bsp/libucosii_bsp.a(alt_find_file.o)
 .debug_line    0x0004611c      0x31e ../StereoCameraServer_bsp/libucosii_bsp.a(alt_fs_reg.o)
 .debug_line    0x0004643a      0x396 ../StereoCameraServer_bsp/libucosii_bsp.a(alt_get_fd.o)
 .debug_line    0x000467d0      0x224 ../StereoCameraServer_bsp/libucosii_bsp.a(alt_icache_flush_all.o)
 .debug_line    0x000469f4      0x39e ../StereoCameraServer_bsp/libucosii_bsp.a(alt_io_redirect.o)
 .debug_line    0x00046d92       0xc4 ../StereoCameraServer_bsp/libucosii_bsp.a(alt_irq_entry.o)
 .debug_line    0x00046e56      0x344 ../StereoCameraServer_bsp/libucosii_bsp.a(alt_irq_handler.o)
 .debug_line    0x0004719a      0x3a3 ../StereoCameraServer_bsp/libucosii_bsp.a(alt_read.o)
 .debug_line    0x0004753d      0x220 ../StereoCameraServer_bsp/libucosii_bsp.a(alt_remap_cached.o)
 .debug_line    0x0004775d      0x22a ../StereoCameraServer_bsp/libucosii_bsp.a(alt_remap_uncached.o)
 .debug_line    0x00047987      0x32d ../StereoCameraServer_bsp/libucosii_bsp.a(alt_usleep.o)
 .debug_line    0x00047cb4      0x3a4 ../StereoCameraServer_bsp/libucosii_bsp.a(alt_write.o)
 .debug_line    0x00048058      0x249 ../StereoCameraServer_bsp/libucosii_bsp.a(altera_nios2_irq.o)
 .debug_line    0x000482a1       0xdf ../StereoCameraServer_bsp/libucosii_bsp.a(os_cpu_a.o)
 .debug_line    0x00048380      0x3b0 ../StereoCameraServer_bsp/libucosii_bsp.a(os_cpu_c.o)
 .debug_line    0x00048730      0x4ac ../StereoCameraServer_bsp/libucosii_bsp.a(altera_avalon_cfi_flash_amd.o)
 .debug_line    0x00048bdc      0x49e ../StereoCameraServer_bsp/libucosii_bsp.a(altera_avalon_cfi_flash_intel.o)
 .debug_line    0x0004907a      0x597 ../StereoCameraServer_bsp/libucosii_bsp.a(allports.o)
 .debug_line    0x00049611      0x4fb ../StereoCameraServer_bsp/libucosii_bsp.a(timeouts.o)
 .debug_line    0x00049b0c      0x3f0 ../StereoCameraServer_bsp/libucosii_bsp.a(tk_misc.o)
 .debug_line    0x00049efc      0xd22 ../StereoCameraServer_bsp/libucosii_bsp.a(et_arp.o)
 .debug_line    0x0004ac1e      0x4f9 ../StereoCameraServer_bsp/libucosii_bsp.a(iface.o)
 .debug_line    0x0004b117     0x1015 ../StereoCameraServer_bsp/libucosii_bsp.a(ip.o)
 .debug_line    0x0004c12c      0xffc ../StereoCameraServer_bsp/libucosii_bsp.a(ip_reasm.o)
 .debug_line    0x0004d128      0x806 ../StereoCameraServer_bsp/libucosii_bsp.a(ipdemux.o)
 .debug_line    0x0004d92e      0x4e8 ../StereoCameraServer_bsp/libucosii_bsp.a(ipmc.o)
 .debug_line    0x0004de16      0x3b8 ../StereoCameraServer_bsp/libucosii_bsp.a(ipport.o)
 .debug_line    0x0004e1ce      0x639 ../StereoCameraServer_bsp/libucosii_bsp.a(ipraw.o)
 .debug_line    0x0004e807      0x63b ../StereoCameraServer_bsp/libucosii_bsp.a(iproute.o)
 .debug_line    0x0004ee42      0x876 ../StereoCameraServer_bsp/libucosii_bsp.a(udp.o)
 .debug_line    0x0004f6b8      0x4ba ../StereoCameraServer_bsp/libucosii_bsp.a(igmp.o)
 .debug_line    0x0004fb72      0x6ad ../StereoCameraServer_bsp/libucosii_bsp.a(igmp2.o)
 .debug_line    0x0005021f      0x791 ../StereoCameraServer_bsp/libucosii_bsp.a(ipopt.o)
 .debug_line    0x000509b0      0x67b ../StereoCameraServer_bsp/libucosii_bsp.a(u_mctest.o)
 .debug_line    0x0005102b      0x4c9 ../StereoCameraServer_bsp/libucosii_bsp.a(memdev.o)
 .debug_line    0x000514f4      0x6cd ../StereoCameraServer_bsp/libucosii_bsp.a(parseip.o)
 .debug_line    0x00051bc1      0x439 ../StereoCameraServer_bsp/libucosii_bsp.a(tcpcksum.o)
 .debug_line    0x00051ffa      0x4ee ../StereoCameraServer_bsp/libucosii_bsp.a(udp_open.o)
 .debug_line    0x000524e8      0x7ed ../StereoCameraServer_bsp/libucosii_bsp.a(in_pcb.o)
 .debug_line    0x00052cd5     0x1077 ../StereoCameraServer_bsp/libucosii_bsp.a(vfsfiles.o)
 .debug_line    0x00053d4c      0x344 ../StereoCameraServer_bsp/libucosii_bsp.a(vfsport.o)
 .debug_line    0x00054090      0x2ca ../StereoCameraServer_bsp/libucosii_bsp.a(alt_busy_sleep.o)
 .debug_line    0x0005435a      0x104 ../StereoCameraServer_bsp/libucosii_bsp.a(alt_exception_entry.o)
 .debug_line    0x0005445e      0x260 ../StereoCameraServer_bsp/libucosii_bsp.a(alt_icache_flush.o)
 .debug_line    0x000546be      0x9d8 ../StereoCameraServer_bsp/libucosii_bsp.a(icmp.o)
 .debug_line    0x00055096      0x1da /opt/altera/10.1sp1/nios2eds/bin/gnu/H-i686-pc-linux-gnu/bin/../lib/gcc/nios2-elf/4.1.2/../../../../nios2-elf/lib/libc.a(lib_a-atexit.o)
 .debug_line    0x00055270      0x1e6 /opt/altera/10.1sp1/nios2eds/bin/gnu/H-i686-pc-linux-gnu/bin/../lib/gcc/nios2-elf/4.1.2/../../../../nios2-elf/lib/libc.a(lib_a-calloc.o)
 .debug_line    0x00055456      0x212 /opt/altera/10.1sp1/nios2eds/bin/gnu/H-i686-pc-linux-gnu/bin/../lib/gcc/nios2-elf/4.1.2/../../../../nios2-elf/lib/libc.a(lib_a-exit.o)
 .debug_line    0x00055668      0x249 /opt/altera/10.1sp1/nios2eds/bin/gnu/H-i686-pc-linux-gnu/bin/../lib/gcc/nios2-elf/4.1.2/../../../../nios2-elf/lib/libc.a(lib_a-vprintf.o)
 .debug_line    0x000558b1      0x2b3 /opt/altera/10.1sp1/nios2eds/bin/gnu/H-i686-pc-linux-gnu/bin/../lib/gcc/nios2-elf/4.1.2/../../../../nios2-elf/lib/libc.a(lib_a-vsprintf.o)
 .debug_line    0x00055b64      0x2ed /opt/altera/10.1sp1/nios2eds/bin/gnu/H-i686-pc-linux-gnu/bin/../lib/gcc/nios2-elf/4.1.2/../../../../nios2-elf/lib/libc.a(lib_a-__atexit.o)
 .debug_line    0x00055e51      0x341 /opt/altera/10.1sp1/nios2eds/bin/gnu/H-i686-pc-linux-gnu/bin/../lib/gcc/nios2-elf/4.1.2/../../../../nios2-elf/lib/libc.a(lib_a-__call_atexit.o)

.debug_frame    0x00000000     0x80b8
 *(.debug_frame)
 .debug_frame   0x00000000       0x2c obj/alt_error_handler.o
 .debug_frame   0x0000002c       0xb8 obj/altera_avalon_uart_init.o
 .debug_frame   0x000000e4       0x48 obj/altera_avalon_uart_read.o
 .debug_frame   0x0000012c      0x310 obj/http.o
 .debug_frame   0x0000043c       0xf4 obj/network_utilities.o
 .debug_frame   0x00000530       0x70 obj/srec_flash.o
 .debug_frame   0x000005a0      0x10c obj/web_server.o
 .debug_frame   0x000006ac      0x2b0 obj/Camera.o
 .debug_frame   0x0000095c      0x114 obj/StereoCamera.o
 .debug_frame   0x00000a70       0x84 obj/cam_control.o
 .debug_frame   0x00000af4      0x124 /opt/altera/10.1sp1/nios2eds/bin/gnu/H-i686-pc-linux-gnu/bin/../lib/gcc/nios2-elf/4.1.2/../../../../nios2-elf/lib/libstdc++.a(eh_personality.o)
 .debug_frame   0x00000c18       0x30 /opt/altera/10.1sp1/nios2eds/bin/gnu/H-i686-pc-linux-gnu/bin/../lib/gcc/nios2-elf/4.1.2/../../../../nios2-elf/lib/libstdc++.a(eh_globals.o)
 .debug_frame   0x00000c48       0x58 /opt/altera/10.1sp1/nios2eds/bin/gnu/H-i686-pc-linux-gnu/bin/../lib/gcc/nios2-elf/4.1.2/../../../../nios2-elf/lib/libstdc++.a(eh_throw.o)
 .debug_frame   0x00000ca0       0x28 /opt/altera/10.1sp1/nios2eds/bin/gnu/H-i686-pc-linux-gnu/bin/../lib/gcc/nios2-elf/4.1.2/../../../../nios2-elf/lib/libstdc++.a(eh_call.o)
 .debug_frame   0x00000cc8       0x6c /opt/altera/10.1sp1/nios2eds/bin/gnu/H-i686-pc-linux-gnu/bin/../lib/gcc/nios2-elf/4.1.2/../../../../nios2-elf/lib/libstdc++.a(eh_catch.o)
 .debug_frame   0x00000d34       0x8c /opt/altera/10.1sp1/nios2eds/bin/gnu/H-i686-pc-linux-gnu/bin/../lib/gcc/nios2-elf/4.1.2/../../../../nios2-elf/lib/libstdc++.a(eh_exception.o)
 .debug_frame   0x00000dc0       0x90 /opt/altera/10.1sp1/nios2eds/bin/gnu/H-i686-pc-linux-gnu/bin/../lib/gcc/nios2-elf/4.1.2/../../../../nios2-elf/lib/libstdc++.a(eh_terminate.o)
 .debug_frame   0x00000e50       0x94 /opt/altera/10.1sp1/nios2eds/bin/gnu/H-i686-pc-linux-gnu/bin/../lib/gcc/nios2-elf/4.1.2/../../../../nios2-elf/lib/libstdc++.a(si_class_type_info.o)
 .debug_frame   0x00000ee4       0x3c /opt/altera/10.1sp1/nios2eds/bin/gnu/H-i686-pc-linux-gnu/bin/../lib/gcc/nios2-elf/4.1.2/../../../../nios2-elf/lib/libstdc++.a(eh_alloc.o)
 .debug_frame   0x00000f20       0x80 /opt/altera/10.1sp1/nios2eds/bin/gnu/H-i686-pc-linux-gnu/bin/../lib/gcc/nios2-elf/4.1.2/../../../../nios2-elf/lib/libstdc++.a(tinfo.o)
 .debug_frame   0x00000fa0       0x20 /opt/altera/10.1sp1/nios2eds/bin/gnu/H-i686-pc-linux-gnu/bin/../lib/gcc/nios2-elf/4.1.2/../../../../nios2-elf/lib/libstdc++.a(del_op.o)
 .debug_frame   0x00000fc0       0xb0 /opt/altera/10.1sp1/nios2eds/bin/gnu/H-i686-pc-linux-gnu/bin/../lib/gcc/nios2-elf/4.1.2/../../../../nios2-elf/lib/libstdc++.a(class_type_info.o)
 .debug_frame   0x00001070       0x70 /opt/altera/10.1sp1/nios2eds/bin/gnu/H-i686-pc-linux-gnu/bin/../lib/gcc/nios2-elf/4.1.2/libgcc.a(lib2-divmod.o)
 .debug_frame   0x000010e0      0x3c8 /opt/altera/10.1sp1/nios2eds/bin/gnu/H-i686-pc-linux-gnu/bin/../lib/gcc/nios2-elf/4.1.2/libgcc.a(unwind-dw2.o)
 .debug_frame   0x000014a8      0x2a8 /opt/altera/10.1sp1/nios2eds/bin/gnu/H-i686-pc-linux-gnu/bin/../lib/gcc/nios2-elf/4.1.2/libgcc.a(unwind-dw2-fde.o)
 .debug_frame   0x00001750       0x28 /opt/altera/10.1sp1/nios2eds/bin/gnu/H-i686-pc-linux-gnu/bin/../lib/gcc/nios2-elf/4.1.2/../../../../nios2-elf/lib/libc.a(lib_a-abort.o)
 .debug_frame   0x00001778       0x30 /opt/altera/10.1sp1/nios2eds/bin/gnu/H-i686-pc-linux-gnu/bin/../lib/gcc/nios2-elf/4.1.2/../../../../nios2-elf/lib/libc.a(lib_a-atoi.o)
 .debug_frame   0x000017a8       0x3c /opt/altera/10.1sp1/nios2eds/bin/gnu/H-i686-pc-linux-gnu/bin/../lib/gcc/nios2-elf/4.1.2/../../../../nios2-elf/lib/libc.a(lib_a-fclose.o)
 .debug_frame   0x000017e4       0x40 /opt/altera/10.1sp1/nios2eds/bin/gnu/H-i686-pc-linux-gnu/bin/../lib/gcc/nios2-elf/4.1.2/../../../../nios2-elf/lib/libc.a(lib_a-fflush.o)
 .debug_frame   0x00001824       0x48 /opt/altera/10.1sp1/nios2eds/bin/gnu/H-i686-pc-linux-gnu/bin/../lib/gcc/nios2-elf/4.1.2/../../../../nios2-elf/lib/libc.a(lib_a-fgetc.o)
 .debug_frame   0x0000186c       0x38 /opt/altera/10.1sp1/nios2eds/bin/gnu/H-i686-pc-linux-gnu/bin/../lib/gcc/nios2-elf/4.1.2/../../../../nios2-elf/lib/libc.a(lib_a-fgetpos.o)
 .debug_frame   0x000018a4       0x28 /opt/altera/10.1sp1/nios2eds/bin/gnu/H-i686-pc-linux-gnu/bin/../lib/gcc/nios2-elf/4.1.2/../../../../nios2-elf/lib/libc.a(lib_a-fileno.o)
 .debug_frame   0x000018cc      0x118 /opt/altera/10.1sp1/nios2eds/bin/gnu/H-i686-pc-linux-gnu/bin/../lib/gcc/nios2-elf/4.1.2/../../../../nios2-elf/lib/libc.a(lib_a-findfp.o)
 .debug_frame   0x000019e4       0x40 /opt/altera/10.1sp1/nios2eds/bin/gnu/H-i686-pc-linux-gnu/bin/../lib/gcc/nios2-elf/4.1.2/../../../../nios2-elf/lib/libc.a(lib_a-fopen.o)
 .debug_frame   0x00001a24       0x40 /opt/altera/10.1sp1/nios2eds/bin/gnu/H-i686-pc-linux-gnu/bin/../lib/gcc/nios2-elf/4.1.2/../../../../nios2-elf/lib/libc.a(lib_a-fprintf.o)
 .debug_frame   0x00001a64       0x4c /opt/altera/10.1sp1/nios2eds/bin/gnu/H-i686-pc-linux-gnu/bin/../lib/gcc/nios2-elf/4.1.2/../../../../nios2-elf/lib/libc.a(lib_a-fputc.o)
 .debug_frame   0x00001ab0       0x54 /opt/altera/10.1sp1/nios2eds/bin/gnu/H-i686-pc-linux-gnu/bin/../lib/gcc/nios2-elf/4.1.2/../../../../nios2-elf/lib/libc.a(lib_a-fread.o)
 .debug_frame   0x00001b04       0x4c /opt/altera/10.1sp1/nios2eds/bin/gnu/H-i686-pc-linux-gnu/bin/../lib/gcc/nios2-elf/4.1.2/../../../../nios2-elf/lib/libc.a(lib_a-freer.o)
 .debug_frame   0x00001b50       0x48 /opt/altera/10.1sp1/nios2eds/bin/gnu/H-i686-pc-linux-gnu/bin/../lib/gcc/nios2-elf/4.1.2/../../../../nios2-elf/lib/libc.a(lib_a-fseek.o)
 .debug_frame   0x00001b98       0x2c /opt/altera/10.1sp1/nios2eds/bin/gnu/H-i686-pc-linux-gnu/bin/../lib/gcc/nios2-elf/4.1.2/../../../../nios2-elf/lib/libc.a(lib_a-fstatr.o)
 .debug_frame   0x00001bc4       0x3c /opt/altera/10.1sp1/nios2eds/bin/gnu/H-i686-pc-linux-gnu/bin/../lib/gcc/nios2-elf/4.1.2/../../../../nios2-elf/lib/libc.a(lib_a-ftell.o)
 .debug_frame   0x00001c00       0x60 /opt/altera/10.1sp1/nios2eds/bin/gnu/H-i686-pc-linux-gnu/bin/../lib/gcc/nios2-elf/4.1.2/../../../../nios2-elf/lib/libc.a(lib_a-fwalk.o)
 .debug_frame   0x00001c60       0x48 /opt/altera/10.1sp1/nios2eds/bin/gnu/H-i686-pc-linux-gnu/bin/../lib/gcc/nios2-elf/4.1.2/../../../../nios2-elf/lib/libc.a(lib_a-fwrite.o)
 .debug_frame   0x00001ca8       0x48 /opt/altera/10.1sp1/nios2eds/bin/gnu/H-i686-pc-linux-gnu/bin/../lib/gcc/nios2-elf/4.1.2/../../../../nios2-elf/lib/libc.a(lib_a-getc.o)
 .debug_frame   0x00001cf0       0x2c /opt/altera/10.1sp1/nios2eds/bin/gnu/H-i686-pc-linux-gnu/bin/../lib/gcc/nios2-elf/4.1.2/../../../../nios2-elf/lib/libc.a(lib_a-makebuf.o)
 .debug_frame   0x00001d1c       0x30 /opt/altera/10.1sp1/nios2eds/bin/gnu/H-i686-pc-linux-gnu/bin/../lib/gcc/nios2-elf/4.1.2/../../../../nios2-elf/lib/libc.a(lib_a-malloc.o)
 .debug_frame   0x00001d4c       0x38 /opt/altera/10.1sp1/nios2eds/bin/gnu/H-i686-pc-linux-gnu/bin/../lib/gcc/nios2-elf/4.1.2/../../../../nios2-elf/lib/libc.a(lib_a-mallocr.o)
 .debug_frame   0x00001d84       0x20 /opt/altera/10.1sp1/nios2eds/bin/gnu/H-i686-pc-linux-gnu/bin/../lib/gcc/nios2-elf/4.1.2/../../../../nios2-elf/lib/libc.a(lib_a-memcpy.o)
 .debug_frame   0x00001da4       0x20 /opt/altera/10.1sp1/nios2eds/bin/gnu/H-i686-pc-linux-gnu/bin/../lib/gcc/nios2-elf/4.1.2/../../../../nios2-elf/lib/libc.a(lib_a-memmove.o)
 .debug_frame   0x00001dc4       0x20 /opt/altera/10.1sp1/nios2eds/bin/gnu/H-i686-pc-linux-gnu/bin/../lib/gcc/nios2-elf/4.1.2/../../../../nios2-elf/lib/libc.a(lib_a-memset.o)
 .debug_frame   0x00001de4       0x2c /opt/altera/10.1sp1/nios2eds/bin/gnu/H-i686-pc-linux-gnu/bin/../lib/gcc/nios2-elf/4.1.2/../../../../nios2-elf/lib/libc.a(lib_a-openr.o)
 .debug_frame   0x00001e10       0x38 /opt/altera/10.1sp1/nios2eds/bin/gnu/H-i686-pc-linux-gnu/bin/../lib/gcc/nios2-elf/4.1.2/../../../../nios2-elf/lib/libc.a(lib_a-perror.o)
 .debug_frame   0x00001e48       0x40 /opt/altera/10.1sp1/nios2eds/bin/gnu/H-i686-pc-linux-gnu/bin/../lib/gcc/nios2-elf/4.1.2/../../../../nios2-elf/lib/libc.a(lib_a-printf.o)
 .debug_frame   0x00001e88       0x4c /opt/altera/10.1sp1/nios2eds/bin/gnu/H-i686-pc-linux-gnu/bin/../lib/gcc/nios2-elf/4.1.2/../../../../nios2-elf/lib/libc.a(lib_a-putc.o)
 .debug_frame   0x00001ed4       0x30 /opt/altera/10.1sp1/nios2eds/bin/gnu/H-i686-pc-linux-gnu/bin/../lib/gcc/nios2-elf/4.1.2/../../../../nios2-elf/lib/libc.a(lib_a-putchar.o)
 .debug_frame   0x00001f04       0x3c /opt/altera/10.1sp1/nios2eds/bin/gnu/H-i686-pc-linux-gnu/bin/../lib/gcc/nios2-elf/4.1.2/../../../../nios2-elf/lib/libc.a(lib_a-puts.o)
 .debug_frame   0x00001f40       0x3c /opt/altera/10.1sp1/nios2eds/bin/gnu/H-i686-pc-linux-gnu/bin/../lib/gcc/nios2-elf/4.1.2/../../../../nios2-elf/lib/libc.a(lib_a-refill.o)
 .debug_frame   0x00001f7c       0x38 /opt/altera/10.1sp1/nios2eds/bin/gnu/H-i686-pc-linux-gnu/bin/../lib/gcc/nios2-elf/4.1.2/../../../../nios2-elf/lib/libc.a(lib_a-rget.o)
 .debug_frame   0x00001fb4       0x2c /opt/altera/10.1sp1/nios2eds/bin/gnu/H-i686-pc-linux-gnu/bin/../lib/gcc/nios2-elf/4.1.2/../../../../nios2-elf/lib/libc.a(lib_a-sbrkr.o)
 .debug_frame   0x00001fe0       0xb8 /opt/altera/10.1sp1/nios2eds/bin/gnu/H-i686-pc-linux-gnu/bin/../lib/gcc/nios2-elf/4.1.2/../../../../nios2-elf/lib/libc.a(lib_a-signal.o)
 .debug_frame   0x00002098       0x3c /opt/altera/10.1sp1/nios2eds/bin/gnu/H-i686-pc-linux-gnu/bin/../lib/gcc/nios2-elf/4.1.2/../../../../nios2-elf/lib/libc.a(lib_a-signalr.o)
 .debug_frame   0x000020d4       0x40 /opt/altera/10.1sp1/nios2eds/bin/gnu/H-i686-pc-linux-gnu/bin/../lib/gcc/nios2-elf/4.1.2/../../../../nios2-elf/lib/libc.a(lib_a-sprintf.o)
 .debug_frame   0x00002114       0x54 /opt/altera/10.1sp1/nios2eds/bin/gnu/H-i686-pc-linux-gnu/bin/../lib/gcc/nios2-elf/4.1.2/../../../../nios2-elf/lib/libc.a(lib_a-sscanf.o)
 .debug_frame   0x00002168       0x78 /opt/altera/10.1sp1/nios2eds/bin/gnu/H-i686-pc-linux-gnu/bin/../lib/gcc/nios2-elf/4.1.2/../../../../nios2-elf/lib/libc.a(lib_a-stdio.o)
 .debug_frame   0x000021e0       0x20 /opt/altera/10.1sp1/nios2eds/bin/gnu/H-i686-pc-linux-gnu/bin/../lib/gcc/nios2-elf/4.1.2/../../../../nios2-elf/lib/libc.a(lib_a-strcasecmp.o)
 .debug_frame   0x00002200       0x28 /opt/altera/10.1sp1/nios2eds/bin/gnu/H-i686-pc-linux-gnu/bin/../lib/gcc/nios2-elf/4.1.2/../../../../nios2-elf/lib/libc.a(lib_a-strcat.o)
 .debug_frame   0x00002228       0x20 /opt/altera/10.1sp1/nios2eds/bin/gnu/H-i686-pc-linux-gnu/bin/../lib/gcc/nios2-elf/4.1.2/../../../../nios2-elf/lib/libc.a(lib_a-strchr.o)
 .debug_frame   0x00002248       0x20 /opt/altera/10.1sp1/nios2eds/bin/gnu/H-i686-pc-linux-gnu/bin/../lib/gcc/nios2-elf/4.1.2/../../../../nios2-elf/lib/libc.a(lib_a-strcmp.o)
 .debug_frame   0x00002268       0x20 /opt/altera/10.1sp1/nios2eds/bin/gnu/H-i686-pc-linux-gnu/bin/../lib/gcc/nios2-elf/4.1.2/../../../../nios2-elf/lib/libc.a(lib_a-strcpy.o)
 .debug_frame   0x00002288       0x28 /opt/altera/10.1sp1/nios2eds/bin/gnu/H-i686-pc-linux-gnu/bin/../lib/gcc/nios2-elf/4.1.2/../../../../nios2-elf/lib/libc.a(lib_a-strerror.o)
 .debug_frame   0x000022b0       0x20 /opt/altera/10.1sp1/nios2eds/bin/gnu/H-i686-pc-linux-gnu/bin/../lib/gcc/nios2-elf/4.1.2/../../../../nios2-elf/lib/libc.a(lib_a-strlen.o)
 .debug_frame   0x000022d0       0x20 /opt/altera/10.1sp1/nios2eds/bin/gnu/H-i686-pc-linux-gnu/bin/../lib/gcc/nios2-elf/4.1.2/../../../../nios2-elf/lib/libc.a(lib_a-strncmp.o)
 .debug_frame   0x000022f0       0x20 /opt/altera/10.1sp1/nios2eds/bin/gnu/H-i686-pc-linux-gnu/bin/../lib/gcc/nios2-elf/4.1.2/../../../../nios2-elf/lib/libc.a(lib_a-strncpy.o)
 .debug_frame   0x00002310       0x4c /opt/altera/10.1sp1/nios2eds/bin/gnu/H-i686-pc-linux-gnu/bin/../lib/gcc/nios2-elf/4.1.2/../../../../nios2-elf/lib/libc.a(lib_a-strstr.o)
 .debug_frame   0x0000235c       0x20 /opt/altera/10.1sp1/nios2eds/bin/gnu/H-i686-pc-linux-gnu/bin/../lib/gcc/nios2-elf/4.1.2/../../../../nios2-elf/lib/libc.a(lib_a-strtok.o)
 .debug_frame   0x0000237c       0x30 /opt/altera/10.1sp1/nios2eds/bin/gnu/H-i686-pc-linux-gnu/bin/../lib/gcc/nios2-elf/4.1.2/../../../../nios2-elf/lib/libc.a(lib_a-strtok_r.o)
 .debug_frame   0x000023ac       0x4c /opt/altera/10.1sp1/nios2eds/bin/gnu/H-i686-pc-linux-gnu/bin/../lib/gcc/nios2-elf/4.1.2/../../../../nios2-elf/lib/libc.a(lib_a-strtol.o)
 .debug_frame   0x000023f8       0x20 /opt/altera/10.1sp1/nios2eds/bin/gnu/H-i686-pc-linux-gnu/bin/../lib/gcc/nios2-elf/4.1.2/../../../../nios2-elf/lib/libc.a(lib_a-u_strerr.o)
 .debug_frame   0x00002418       0x64 /opt/altera/10.1sp1/nios2eds/bin/gnu/H-i686-pc-linux-gnu/bin/../lib/gcc/nios2-elf/4.1.2/../../../../nios2-elf/lib/libc.a(lib_a-vfprintf.o)
 .debug_frame   0x0000247c       0x8c /opt/altera/10.1sp1/nios2eds/bin/gnu/H-i686-pc-linux-gnu/bin/../lib/gcc/nios2-elf/4.1.2/../../../../nios2-elf/lib/libc.a(lib_a-vfscanf.o)
 .debug_frame   0x00002508       0x3c /opt/altera/10.1sp1/nios2eds/bin/gnu/H-i686-pc-linux-gnu/bin/../lib/gcc/nios2-elf/4.1.2/../../../../nios2-elf/lib/libc.a(lib_a-wbuf.o)
 .debug_frame   0x00002544       0x2c /opt/altera/10.1sp1/nios2eds/bin/gnu/H-i686-pc-linux-gnu/bin/../lib/gcc/nios2-elf/4.1.2/../../../../nios2-elf/lib/libc.a(lib_a-writer.o)
 .debug_frame   0x00002570       0x2c /opt/altera/10.1sp1/nios2eds/bin/gnu/H-i686-pc-linux-gnu/bin/../lib/gcc/nios2-elf/4.1.2/../../../../nios2-elf/lib/libc.a(lib_a-wsetup.o)
 .debug_frame   0x0000259c       0x2c /opt/altera/10.1sp1/nios2eds/bin/gnu/H-i686-pc-linux-gnu/bin/../lib/gcc/nios2-elf/4.1.2/../../../../nios2-elf/lib/libc.a(lib_a-closer.o)
 .debug_frame   0x000025c8       0x64 /opt/altera/10.1sp1/nios2eds/bin/gnu/H-i686-pc-linux-gnu/bin/../lib/gcc/nios2-elf/4.1.2/../../../../nios2-elf/lib/libc.a(lib_a-dtoa.o)
 .debug_frame   0x0000262c       0x20 /opt/altera/10.1sp1/nios2eds/bin/gnu/H-i686-pc-linux-gnu/bin/../lib/gcc/nios2-elf/4.1.2/../../../../nios2-elf/lib/libc.a(lib_a-flags.o)
 .debug_frame   0x0000264c       0x3c /opt/altera/10.1sp1/nios2eds/bin/gnu/H-i686-pc-linux-gnu/bin/../lib/gcc/nios2-elf/4.1.2/../../../../nios2-elf/lib/libc.a(lib_a-fputs.o)
 .debug_frame   0x00002688       0x38 /opt/altera/10.1sp1/nios2eds/bin/gnu/H-i686-pc-linux-gnu/bin/../lib/gcc/nios2-elf/4.1.2/../../../../nios2-elf/lib/libc.a(lib_a-fvwrite.o)
 .debug_frame   0x000026c0       0x2c /opt/altera/10.1sp1/nios2eds/bin/gnu/H-i686-pc-linux-gnu/bin/../lib/gcc/nios2-elf/4.1.2/../../../../nios2-elf/lib/libc.a(lib_a-isattyr.o)
 .debug_frame   0x000026ec       0x20 /opt/altera/10.1sp1/nios2eds/bin/gnu/H-i686-pc-linux-gnu/bin/../lib/gcc/nios2-elf/4.1.2/../../../../nios2-elf/lib/libc.a(lib_a-iswspace.o)
 .debug_frame   0x0000270c       0x70 /opt/altera/10.1sp1/nios2eds/bin/gnu/H-i686-pc-linux-gnu/bin/../lib/gcc/nios2-elf/4.1.2/../../../../nios2-elf/lib/libc.a(lib_a-locale.o)
 .debug_frame   0x0000277c       0x2c /opt/altera/10.1sp1/nios2eds/bin/gnu/H-i686-pc-linux-gnu/bin/../lib/gcc/nios2-elf/4.1.2/../../../../nios2-elf/lib/libc.a(lib_a-lseekr.o)
 .debug_frame   0x000027a8       0x44 /opt/altera/10.1sp1/nios2eds/bin/gnu/H-i686-pc-linux-gnu/bin/../lib/gcc/nios2-elf/4.1.2/../../../../nios2-elf/lib/libc.a(lib_a-mbrtowc.o)
 .debug_frame   0x000027ec       0x24 /opt/altera/10.1sp1/nios2eds/bin/gnu/H-i686-pc-linux-gnu/bin/../lib/gcc/nios2-elf/4.1.2/../../../../nios2-elf/lib/libc.a(lib_a-mbtowc_r.o)
 .debug_frame   0x00002810       0x20 /opt/altera/10.1sp1/nios2eds/bin/gnu/H-i686-pc-linux-gnu/bin/../lib/gcc/nios2-elf/4.1.2/../../../../nios2-elf/lib/libc.a(lib_a-memchr.o)
 .debug_frame   0x00002830       0x20 /opt/altera/10.1sp1/nios2eds/bin/gnu/H-i686-pc-linux-gnu/bin/../lib/gcc/nios2-elf/4.1.2/../../../../nios2-elf/lib/libc.a(lib_a-memcmp.o)
 .debug_frame   0x00002850      0x218 /opt/altera/10.1sp1/nios2eds/bin/gnu/H-i686-pc-linux-gnu/bin/../lib/gcc/nios2-elf/4.1.2/../../../../nios2-elf/lib/libc.a(lib_a-mprec.o)
 .debug_frame   0x00002a68       0x2c /opt/altera/10.1sp1/nios2eds/bin/gnu/H-i686-pc-linux-gnu/bin/../lib/gcc/nios2-elf/4.1.2/../../../../nios2-elf/lib/libc.a(lib_a-readr.o)
 .debug_frame   0x00002a94       0x38 /opt/altera/10.1sp1/nios2eds/bin/gnu/H-i686-pc-linux-gnu/bin/../lib/gcc/nios2-elf/4.1.2/../../../../nios2-elf/lib/libc.a(lib_a-reallocr.o)
 .debug_frame   0x00002acc       0x20 /opt/altera/10.1sp1/nios2eds/bin/gnu/H-i686-pc-linux-gnu/bin/../lib/gcc/nios2-elf/4.1.2/../../../../nios2-elf/lib/libc.a(lib_a-s_isinfd.o)
 .debug_frame   0x00002aec       0x20 /opt/altera/10.1sp1/nios2eds/bin/gnu/H-i686-pc-linux-gnu/bin/../lib/gcc/nios2-elf/4.1.2/../../../../nios2-elf/lib/libc.a(lib_a-s_isnand.o)
 .debug_frame   0x00002b0c       0x20 /opt/altera/10.1sp1/nios2eds/bin/gnu/H-i686-pc-linux-gnu/bin/../lib/gcc/nios2-elf/4.1.2/../../../../nios2-elf/lib/libc.a(lib_a-sccl.o)
 .debug_frame   0x00002b2c       0x20 /opt/altera/10.1sp1/nios2eds/bin/gnu/H-i686-pc-linux-gnu/bin/../lib/gcc/nios2-elf/4.1.2/../../../../nios2-elf/lib/libc.a(lib_a-sf_nan.o)
 .debug_frame   0x00002b4c       0x80 /opt/altera/10.1sp1/nios2eds/bin/gnu/H-i686-pc-linux-gnu/bin/../lib/gcc/nios2-elf/4.1.2/../../../../nios2-elf/lib/libc.a(lib_a-strtod.o)
 .debug_frame   0x00002bcc       0x3c /opt/altera/10.1sp1/nios2eds/bin/gnu/H-i686-pc-linux-gnu/bin/../lib/gcc/nios2-elf/4.1.2/../../../../nios2-elf/lib/libc.a(lib_a-strtoll_r.o)
 .debug_frame   0x00002c08       0x4c /opt/altera/10.1sp1/nios2eds/bin/gnu/H-i686-pc-linux-gnu/bin/../lib/gcc/nios2-elf/4.1.2/../../../../nios2-elf/lib/libc.a(lib_a-strtoul.o)
 .debug_frame   0x00002c54       0x3c /opt/altera/10.1sp1/nios2eds/bin/gnu/H-i686-pc-linux-gnu/bin/../lib/gcc/nios2-elf/4.1.2/../../../../nios2-elf/lib/libc.a(lib_a-strtoull_r.o)
 .debug_frame   0x00002c90       0x60 /opt/altera/10.1sp1/nios2eds/bin/gnu/H-i686-pc-linux-gnu/bin/../lib/gcc/nios2-elf/4.1.2/../../../../nios2-elf/lib/libc.a(lib_a-ungetc.o)
 .debug_frame   0x00002cf0       0x28 /opt/altera/10.1sp1/nios2eds/bin/gnu/H-i686-pc-linux-gnu/bin/../lib/gcc/nios2-elf/4.1.2/../../../../nios2-elf/lib/libc.a(lib_a-callocr.o)
 .debug_frame   0x00002d18       0x74 /opt/altera/10.1sp1/nios2eds/bin/gnu/H-i686-pc-linux-gnu/bin/../lib/gcc/nios2-elf/4.1.2/../../../../nios2-elf/lib/libc.a(lib_a-gdtoa-gethex.o)
 .debug_frame   0x00002d8c       0x4c /opt/altera/10.1sp1/nios2eds/bin/gnu/H-i686-pc-linux-gnu/bin/../lib/gcc/nios2-elf/4.1.2/../../../../nios2-elf/lib/libc.a(lib_a-gdtoa-hexnan.o)
 .debug_frame   0x00002dd8       0x2c /opt/altera/10.1sp1/nios2eds/bin/gnu/H-i686-pc-linux-gnu/bin/../lib/gcc/nios2-elf/4.1.2/libgcc.a(_muldi3.o)
 .debug_frame   0x00002e04       0x30 /opt/altera/10.1sp1/nios2eds/bin/gnu/H-i686-pc-linux-gnu/bin/../lib/gcc/nios2-elf/4.1.2/libgcc.a(_fixunsdfsi.o)
 .debug_frame   0x00002e34       0x38 /opt/altera/10.1sp1/nios2eds/bin/gnu/H-i686-pc-linux-gnu/bin/../lib/gcc/nios2-elf/4.1.2/libgcc.a(_udivdi3.o)
 .debug_frame   0x00002e6c       0x38 /opt/altera/10.1sp1/nios2eds/bin/gnu/H-i686-pc-linux-gnu/bin/../lib/gcc/nios2-elf/4.1.2/libgcc.a(_umoddi3.o)
 .debug_frame   0x00002ea4       0x2c /opt/altera/10.1sp1/nios2eds/bin/gnu/H-i686-pc-linux-gnu/bin/../lib/gcc/nios2-elf/4.1.2/libgcc.a(_ne_sf.o)
 .debug_frame   0x00002ed0       0x2c /opt/altera/10.1sp1/nios2eds/bin/gnu/H-i686-pc-linux-gnu/bin/../lib/gcc/nios2-elf/4.1.2/libgcc.a(_gt_sf.o)
 .debug_frame   0x00002efc       0x2c /opt/altera/10.1sp1/nios2eds/bin/gnu/H-i686-pc-linux-gnu/bin/../lib/gcc/nios2-elf/4.1.2/libgcc.a(_lt_sf.o)
 .debug_frame   0x00002f28       0x70 /opt/altera/10.1sp1/nios2eds/bin/gnu/H-i686-pc-linux-gnu/bin/../lib/gcc/nios2-elf/4.1.2/libgcc.a(_addsub_df.o)
 .debug_frame   0x00002f98       0x3c /opt/altera/10.1sp1/nios2eds/bin/gnu/H-i686-pc-linux-gnu/bin/../lib/gcc/nios2-elf/4.1.2/libgcc.a(_mul_df.o)
 .debug_frame   0x00002fd4       0x30 /opt/altera/10.1sp1/nios2eds/bin/gnu/H-i686-pc-linux-gnu/bin/../lib/gcc/nios2-elf/4.1.2/libgcc.a(_div_df.o)
 .debug_frame   0x00003004       0x2c /opt/altera/10.1sp1/nios2eds/bin/gnu/H-i686-pc-linux-gnu/bin/../lib/gcc/nios2-elf/4.1.2/libgcc.a(_eq_df.o)
 .debug_frame   0x00003030       0x2c /opt/altera/10.1sp1/nios2eds/bin/gnu/H-i686-pc-linux-gnu/bin/../lib/gcc/nios2-elf/4.1.2/libgcc.a(_ne_df.o)
 .debug_frame   0x0000305c       0x2c /opt/altera/10.1sp1/nios2eds/bin/gnu/H-i686-pc-linux-gnu/bin/../lib/gcc/nios2-elf/4.1.2/libgcc.a(_gt_df.o)
 .debug_frame   0x00003088       0x2c /opt/altera/10.1sp1/nios2eds/bin/gnu/H-i686-pc-linux-gnu/bin/../lib/gcc/nios2-elf/4.1.2/libgcc.a(_ge_df.o)
 .debug_frame   0x000030b4       0x2c /opt/altera/10.1sp1/nios2eds/bin/gnu/H-i686-pc-linux-gnu/bin/../lib/gcc/nios2-elf/4.1.2/libgcc.a(_lt_df.o)
 .debug_frame   0x000030e0       0x2c /opt/altera/10.1sp1/nios2eds/bin/gnu/H-i686-pc-linux-gnu/bin/../lib/gcc/nios2-elf/4.1.2/libgcc.a(_le_df.o)
 .debug_frame   0x0000310c       0x30 /opt/altera/10.1sp1/nios2eds/bin/gnu/H-i686-pc-linux-gnu/bin/../lib/gcc/nios2-elf/4.1.2/libgcc.a(_si_to_df.o)
 .debug_frame   0x0000313c       0x28 /opt/altera/10.1sp1/nios2eds/bin/gnu/H-i686-pc-linux-gnu/bin/../lib/gcc/nios2-elf/4.1.2/libgcc.a(_df_to_si.o)
 .debug_frame   0x00003164       0x28 /opt/altera/10.1sp1/nios2eds/bin/gnu/H-i686-pc-linux-gnu/bin/../lib/gcc/nios2-elf/4.1.2/libgcc.a(_df_to_sf.o)
 .debug_frame   0x0000318c       0x38 /opt/altera/10.1sp1/nios2eds/bin/gnu/H-i686-pc-linux-gnu/bin/../lib/gcc/nios2-elf/4.1.2/libgcc.a(_usi_to_df.o)
 .debug_frame   0x000031c4       0x20 /opt/altera/10.1sp1/nios2eds/bin/gnu/H-i686-pc-linux-gnu/bin/../lib/gcc/nios2-elf/4.1.2/libgcc.a(_clzsi2.o)
 .debug_frame   0x000031e4       0x20 /opt/altera/10.1sp1/nios2eds/bin/gnu/H-i686-pc-linux-gnu/bin/../lib/gcc/nios2-elf/4.1.2/libgcc.a(_unpack_sf.o)
 .debug_frame   0x00003204       0x20 /opt/altera/10.1sp1/nios2eds/bin/gnu/H-i686-pc-linux-gnu/bin/../lib/gcc/nios2-elf/4.1.2/libgcc.a(_fpcmp_parts_sf.o)
 .debug_frame   0x00003224       0x28 /opt/altera/10.1sp1/nios2eds/bin/gnu/H-i686-pc-linux-gnu/bin/../lib/gcc/nios2-elf/4.1.2/libgcc.a(_make_sf.o)
 .debug_frame   0x0000324c       0x2c /opt/altera/10.1sp1/nios2eds/bin/gnu/H-i686-pc-linux-gnu/bin/../lib/gcc/nios2-elf/4.1.2/libgcc.a(_pack_df.o)
 .debug_frame   0x00003278       0x20 /opt/altera/10.1sp1/nios2eds/bin/gnu/H-i686-pc-linux-gnu/bin/../lib/gcc/nios2-elf/4.1.2/libgcc.a(_unpack_df.o)
 .debug_frame   0x00003298       0x20 /opt/altera/10.1sp1/nios2eds/bin/gnu/H-i686-pc-linux-gnu/bin/../lib/gcc/nios2-elf/4.1.2/libgcc.a(_fpcmp_parts_df.o)
 .debug_frame   0x000032b8       0x20 /opt/altera/10.1sp1/nios2eds/bin/gnu/H-i686-pc-linux-gnu/bin/../lib/gcc/nios2-elf/4.1.2/libgcc.a(_pack_sf.o)
 .debug_frame   0x000032d8       0x2c ../StereoCameraServer_bsp/libucosii_bsp.a(alt_dcache_flush.o)
 .debug_frame   0x00003304       0x48 ../StereoCameraServer_bsp/libucosii_bsp.a(alt_exit.o)
 .debug_frame   0x0000334c       0x48 ../StereoCameraServer_bsp/libucosii_bsp.a(alt_flash_dev.o)
 .debug_frame   0x00003394       0x48 ../StereoCameraServer_bsp/libucosii_bsp.a(alt_fstat.o)
 .debug_frame   0x000033dc       0x2c ../StereoCameraServer_bsp/libucosii_bsp.a(alt_getpid.o)
 .debug_frame   0x00003408       0x2c ../StereoCameraServer_bsp/libucosii_bsp.a(alt_irq_register.o)
 .debug_frame   0x00003434       0x48 ../StereoCameraServer_bsp/libucosii_bsp.a(alt_isatty.o)
 .debug_frame   0x0000347c       0x48 ../StereoCameraServer_bsp/libucosii_bsp.a(alt_kill.o)
 .debug_frame   0x000034c4       0x48 ../StereoCameraServer_bsp/libucosii_bsp.a(alt_load.o)
 .debug_frame   0x0000350c       0x48 ../StereoCameraServer_bsp/libucosii_bsp.a(alt_lseek.o)
 .debug_frame   0x00003554       0x2c ../StereoCameraServer_bsp/libucosii_bsp.a(alt_main.o)
 .debug_frame   0x00003580       0x64 ../StereoCameraServer_bsp/libucosii_bsp.a(alt_open.o)
 .debug_frame   0x000035e4       0x2c ../StereoCameraServer_bsp/libucosii_bsp.a(alt_release_fd.o)
 .debug_frame   0x00003610       0x2c ../StereoCameraServer_bsp/libucosii_bsp.a(alt_sbrk.o)
 .debug_frame   0x0000363c       0x48 ../StereoCameraServer_bsp/libucosii_bsp.a(alt_tick.o)
 .debug_frame   0x00003684       0x4c ../StereoCameraServer_bsp/libucosii_bsp.a(alt_env_lock.o)
 .debug_frame   0x000036d0       0x4c ../StereoCameraServer_bsp/libucosii_bsp.a(alt_malloc_lock.o)
 .debug_frame   0x0000371c      0x3e4 ../StereoCameraServer_bsp/libucosii_bsp.a(os_core.o)
 .debug_frame   0x00003b00       0x2c ../StereoCameraServer_bsp/libucosii_bsp.a(os_dbg.o)
 .debug_frame   0x00003b2c      0x180 ../StereoCameraServer_bsp/libucosii_bsp.a(os_flag.o)
 .debug_frame   0x00003cac       0xf0 ../StereoCameraServer_bsp/libucosii_bsp.a(os_mbox.o)
 .debug_frame   0x00003d9c       0xd4 ../StereoCameraServer_bsp/libucosii_bsp.a(os_mem.o)
 .debug_frame   0x00003e70      0x144 ../StereoCameraServer_bsp/libucosii_bsp.a(os_q.o)
 .debug_frame   0x00003fb4       0xf0 ../StereoCameraServer_bsp/libucosii_bsp.a(os_sem.o)
 .debug_frame   0x000040a4      0x160 ../StereoCameraServer_bsp/libucosii_bsp.a(os_task.o)
 .debug_frame   0x00004204       0xa0 ../StereoCameraServer_bsp/libucosii_bsp.a(os_time.o)
 .debug_frame   0x000042a4       0x64 ../StereoCameraServer_bsp/libucosii_bsp.a(alt_sys_init.o)
 .debug_frame   0x00004308       0xd4 ../StereoCameraServer_bsp/libucosii_bsp.a(altera_avalon_cfi_flash.o)
 .debug_frame   0x000043dc      0x210 ../StereoCameraServer_bsp/libucosii_bsp.a(altera_avalon_cfi_flash_table.o)
 .debug_frame   0x000045ec       0x80 ../StereoCameraServer_bsp/libucosii_bsp.a(altera_avalon_jtag_uart_fd.o)
 .debug_frame   0x0000466c       0x80 ../StereoCameraServer_bsp/libucosii_bsp.a(altera_avalon_jtag_uart_init.o)
 .debug_frame   0x000046ec       0x2c ../StereoCameraServer_bsp/libucosii_bsp.a(altera_avalon_jtag_uart_ioctl.o)
 .debug_frame   0x00004718       0x2c ../StereoCameraServer_bsp/libucosii_bsp.a(altera_avalon_jtag_uart_read.o)
 .debug_frame   0x00004744       0x2c ../StereoCameraServer_bsp/libucosii_bsp.a(altera_avalon_jtag_uart_write.o)
 .debug_frame   0x00004770      0x114 ../StereoCameraServer_bsp/libucosii_bsp.a(altera_avalon_lcd_16207.o)
 .debug_frame   0x00004884       0x2c ../StereoCameraServer_bsp/libucosii_bsp.a(altera_avalon_lcd_16207_fd.o)
 .debug_frame   0x000048b0       0x48 ../StereoCameraServer_bsp/libucosii_bsp.a(altera_avalon_timer_sc.o)
 .debug_frame   0x000048f8       0x64 ../StereoCameraServer_bsp/libucosii_bsp.a(altera_avalon_uart_fd.o)
 .debug_frame   0x0000495c       0x48 ../StereoCameraServer_bsp/libucosii_bsp.a(altera_avalon_uart_write.o)
 .debug_frame   0x000049a4      0x1b4 ../StereoCameraServer_bsp/libucosii_bsp.a(altera_ro_zipfs.o)
 .debug_frame   0x00004b58      0x198 ../StereoCameraServer_bsp/libucosii_bsp.a(dm9000a.o)
 .debug_frame   0x00004cf0       0x2c ../StereoCameraServer_bsp/libucosii_bsp.a(alt_iniche_close.o)
 .debug_frame   0x00004d1c       0x2c ../StereoCameraServer_bsp/libucosii_bsp.a(alt_iniche_dev.o)
 .debug_frame   0x00004d48       0x2c ../StereoCameraServer_bsp/libucosii_bsp.a(alt_iniche_fcntl.o)
 .debug_frame   0x00004d74       0x2c ../StereoCameraServer_bsp/libucosii_bsp.a(alt_iniche_read.o)
 .debug_frame   0x00004da0       0x2c ../StereoCameraServer_bsp/libucosii_bsp.a(alt_iniche_write.o)
 .debug_frame   0x00004dcc       0xb8 ../StereoCameraServer_bsp/libucosii_bsp.a(ipnet.o)
 .debug_frame   0x00004e84       0x80 ../StereoCameraServer_bsp/libucosii_bsp.a(ipstart.o)
 .debug_frame   0x00004f04       0xf4 ../StereoCameraServer_bsp/libucosii_bsp.a(igmp_cmn.o)
 .debug_frame   0x00004ff8      0x128 ../StereoCameraServer_bsp/libucosii_bsp.a(bsdsock.o)
 .debug_frame   0x00005120       0x48 ../StereoCameraServer_bsp/libucosii_bsp.a(cksum.o)
 .debug_frame   0x00005168      0x164 ../StereoCameraServer_bsp/libucosii_bsp.a(in_utils.o)
 .debug_frame   0x000052cc       0x64 ../StereoCameraServer_bsp/libucosii_bsp.a(netmain.o)
 .debug_frame   0x00005330       0xd4 ../StereoCameraServer_bsp/libucosii_bsp.a(tk_crnos.o)
 .debug_frame   0x00005404       0xb8 ../StereoCameraServer_bsp/libucosii_bsp.a(pktalloc.o)
 .debug_frame   0x000054bc       0x64 ../StereoCameraServer_bsp/libucosii_bsp.a(q.o)
 .debug_frame   0x00005520       0xf0 ../StereoCameraServer_bsp/libucosii_bsp.a(brdutils.o)
 .debug_frame   0x00005610       0x9c ../StereoCameraServer_bsp/libucosii_bsp.a(osportco.o)
 .debug_frame   0x000056ac      0x110 ../StereoCameraServer_bsp/libucosii_bsp.a(targnios.o)
 .debug_frame   0x000057bc      0x208 ../StereoCameraServer_bsp/libucosii_bsp.a(nptcp.o)
 .debug_frame   0x000059c4       0x68 ../StereoCameraServer_bsp/libucosii_bsp.a(rawsock.o)
 .debug_frame   0x00005a2c      0x224 ../StereoCameraServer_bsp/libucosii_bsp.a(sockcall.o)
 .debug_frame   0x00005c50      0x1d0 ../StereoCameraServer_bsp/libucosii_bsp.a(socket.o)
 .debug_frame   0x00005e20      0x294 ../StereoCameraServer_bsp/libucosii_bsp.a(socket2.o)
 .debug_frame   0x000060b4      0x110 ../StereoCameraServer_bsp/libucosii_bsp.a(soselect.o)
 .debug_frame   0x000061c4       0xd8 ../StereoCameraServer_bsp/libucosii_bsp.a(tcp_in.o)
 .debug_frame   0x0000629c       0x68 ../StereoCameraServer_bsp/libucosii_bsp.a(tcp_out.o)
 .debug_frame   0x00006304      0x10c ../StereoCameraServer_bsp/libucosii_bsp.a(tcp_subr.o)
 .debug_frame   0x00006410       0x64 ../StereoCameraServer_bsp/libucosii_bsp.a(tcp_timr.o)
 .debug_frame   0x00006474       0x80 ../StereoCameraServer_bsp/libucosii_bsp.a(tcp_usr.o)
 .debug_frame   0x000064f4       0x2c ../StereoCameraServer_bsp/libucosii_bsp.a(tcpport.o)
 .debug_frame   0x00006520       0xbc ../StereoCameraServer_bsp/libucosii_bsp.a(udpsock.o)
 .debug_frame   0x000065dc       0x2c ../StereoCameraServer_bsp/libucosii_bsp.a(alt_alarm_start.o)
 .debug_frame   0x00006608       0x48 ../StereoCameraServer_bsp/libucosii_bsp.a(alt_close.o)
 .debug_frame   0x00006650       0x2c ../StereoCameraServer_bsp/libucosii_bsp.a(alt_dcache_flush_all.o)
 .debug_frame   0x0000667c       0x2c ../StereoCameraServer_bsp/libucosii_bsp.a(alt_dev.o)
 .debug_frame   0x000066a8       0x48 ../StereoCameraServer_bsp/libucosii_bsp.a(alt_dev_llist_insert.o)
 .debug_frame   0x000066f0       0x2c ../StereoCameraServer_bsp/libucosii_bsp.a(alt_do_ctors.o)
 .debug_frame   0x0000671c       0x2c ../StereoCameraServer_bsp/libucosii_bsp.a(alt_do_dtors.o)
 .debug_frame   0x00006748       0x48 ../StereoCameraServer_bsp/libucosii_bsp.a(alt_fcntl.o)
 .debug_frame   0x00006790       0x2c ../StereoCameraServer_bsp/libucosii_bsp.a(alt_find_dev.o)
 .debug_frame   0x000067bc       0x2c ../StereoCameraServer_bsp/libucosii_bsp.a(alt_find_file.o)
 .debug_frame   0x000067e8       0x2c ../StereoCameraServer_bsp/libucosii_bsp.a(alt_fs_reg.o)
 .debug_frame   0x00006814       0x2c ../StereoCameraServer_bsp/libucosii_bsp.a(alt_get_fd.o)
 .debug_frame   0x00006840       0x2c ../StereoCameraServer_bsp/libucosii_bsp.a(alt_icache_flush_all.o)
 .debug_frame   0x0000686c       0x48 ../StereoCameraServer_bsp/libucosii_bsp.a(alt_io_redirect.o)
 .debug_frame   0x000068b4       0x2c ../StereoCameraServer_bsp/libucosii_bsp.a(alt_irq_handler.o)
 .debug_frame   0x000068e0       0x48 ../StereoCameraServer_bsp/libucosii_bsp.a(alt_read.o)
 .debug_frame   0x00006928       0x2c ../StereoCameraServer_bsp/libucosii_bsp.a(alt_remap_cached.o)
 .debug_frame   0x00006954       0x2c ../StereoCameraServer_bsp/libucosii_bsp.a(alt_remap_uncached.o)
 .debug_frame   0x00006980       0x30 ../StereoCameraServer_bsp/libucosii_bsp.a(alt_usleep.o)
 .debug_frame   0x000069b0       0x48 ../StereoCameraServer_bsp/libucosii_bsp.a(alt_write.o)
 .debug_frame   0x000069f8       0x2c ../StereoCameraServer_bsp/libucosii_bsp.a(altera_nios2_irq.o)
 .debug_frame   0x00006a24      0x128 ../StereoCameraServer_bsp/libucosii_bsp.a(os_cpu_c.o)
 .debug_frame   0x00006b4c       0x80 ../StereoCameraServer_bsp/libucosii_bsp.a(altera_avalon_cfi_flash_amd.o)
 .debug_frame   0x00006bcc       0x80 ../StereoCameraServer_bsp/libucosii_bsp.a(altera_avalon_cfi_flash_intel.o)
 .debug_frame   0x00006c4c       0xe0 ../StereoCameraServer_bsp/libucosii_bsp.a(allports.o)
 .debug_frame   0x00006d2c       0x84 ../StereoCameraServer_bsp/libucosii_bsp.a(timeouts.o)
 .debug_frame   0x00006db0       0x48 ../StereoCameraServer_bsp/libucosii_bsp.a(tk_misc.o)
 .debug_frame   0x00006df8      0x160 ../StereoCameraServer_bsp/libucosii_bsp.a(et_arp.o)
 .debug_frame   0x00006f58       0x80 ../StereoCameraServer_bsp/libucosii_bsp.a(iface.o)
 .debug_frame   0x00006fd8      0x160 ../StereoCameraServer_bsp/libucosii_bsp.a(ip.o)
 .debug_frame   0x00007138      0x1d4 ../StereoCameraServer_bsp/libucosii_bsp.a(ip_reasm.o)
 .debug_frame   0x0000730c       0x68 ../StereoCameraServer_bsp/libucosii_bsp.a(ipdemux.o)
 .debug_frame   0x00007374       0x64 ../StereoCameraServer_bsp/libucosii_bsp.a(ipmc.o)
 .debug_frame   0x000073d8       0x64 ../StereoCameraServer_bsp/libucosii_bsp.a(ipport.o)
 .debug_frame   0x0000743c       0xb8 ../StereoCameraServer_bsp/libucosii_bsp.a(ipraw.o)
 .debug_frame   0x000074f4       0x64 ../StereoCameraServer_bsp/libucosii_bsp.a(iproute.o)
 .debug_frame   0x00007558       0xd4 ../StereoCameraServer_bsp/libucosii_bsp.a(udp.o)
 .debug_frame   0x0000762c       0x2c ../StereoCameraServer_bsp/libucosii_bsp.a(igmp.o)
 .debug_frame   0x00007658       0x9c ../StereoCameraServer_bsp/libucosii_bsp.a(igmp2.o)
 .debug_frame   0x000076f4       0x84 ../StereoCameraServer_bsp/libucosii_bsp.a(ipopt.o)
 .debug_frame   0x00007778       0x4c ../StereoCameraServer_bsp/libucosii_bsp.a(u_mctest.o)
 .debug_frame   0x000077c4      0x10c ../StereoCameraServer_bsp/libucosii_bsp.a(memdev.o)
 .debug_frame   0x000078d0      0x10c ../StereoCameraServer_bsp/libucosii_bsp.a(parseip.o)
 .debug_frame   0x000079dc       0x2c ../StereoCameraServer_bsp/libucosii_bsp.a(tcpcksum.o)
 .debug_frame   0x00007a08       0x48 ../StereoCameraServer_bsp/libucosii_bsp.a(udp_open.o)
 .debug_frame   0x00007a50       0xf0 ../StereoCameraServer_bsp/libucosii_bsp.a(in_pcb.o)
 .debug_frame   0x00007b40      0x320 ../StereoCameraServer_bsp/libucosii_bsp.a(vfsfiles.o)
 .debug_frame   0x00007e60       0x2c ../StereoCameraServer_bsp/libucosii_bsp.a(vfsport.o)
 .debug_frame   0x00007e8c       0x2c ../StereoCameraServer_bsp/libucosii_bsp.a(alt_busy_sleep.o)
 .debug_frame   0x00007eb8       0x2c ../StereoCameraServer_bsp/libucosii_bsp.a(alt_icache_flush.o)
 .debug_frame   0x00007ee4       0x84 ../StereoCameraServer_bsp/libucosii_bsp.a(icmp.o)
 .debug_frame   0x00007f68       0x20 /opt/altera/10.1sp1/nios2eds/bin/gnu/H-i686-pc-linux-gnu/bin/../lib/gcc/nios2-elf/4.1.2/../../../../nios2-elf/lib/libc.a(lib_a-atexit.o)
 .debug_frame   0x00007f88       0x20 /opt/altera/10.1sp1/nios2eds/bin/gnu/H-i686-pc-linux-gnu/bin/../lib/gcc/nios2-elf/4.1.2/../../../../nios2-elf/lib/libc.a(lib_a-calloc.o)
 .debug_frame   0x00007fa8       0x28 /opt/altera/10.1sp1/nios2eds/bin/gnu/H-i686-pc-linux-gnu/bin/../lib/gcc/nios2-elf/4.1.2/../../../../nios2-elf/lib/libc.a(lib_a-exit.o)
 .debug_frame   0x00007fd0       0x30 /opt/altera/10.1sp1/nios2eds/bin/gnu/H-i686-pc-linux-gnu/bin/../lib/gcc/nios2-elf/4.1.2/../../../../nios2-elf/lib/libc.a(lib_a-vprintf.o)
 .debug_frame   0x00008000       0x38 /opt/altera/10.1sp1/nios2eds/bin/gnu/H-i686-pc-linux-gnu/bin/../lib/gcc/nios2-elf/4.1.2/../../../../nios2-elf/lib/libc.a(lib_a-vsprintf.o)
 .debug_frame   0x00008038       0x34 /opt/altera/10.1sp1/nios2eds/bin/gnu/H-i686-pc-linux-gnu/bin/../lib/gcc/nios2-elf/4.1.2/../../../../nios2-elf/lib/libc.a(lib_a-__atexit.o)
 .debug_frame   0x0000806c       0x4c /opt/altera/10.1sp1/nios2eds/bin/gnu/H-i686-pc-linux-gnu/bin/../lib/gcc/nios2-elf/4.1.2/../../../../nios2-elf/lib/libc.a(lib_a-__call_atexit.o)

.debug_str      0x00000000     0x6c32
 *(.debug_str)
 .debug_str     0x00000000       0x20 obj/alt_error_handler.o
 .debug_str     0x00000020       0x1f obj/altera_avalon_uart_init.o
 .debug_str     0x0000003f       0x1a obj/altera_avalon_uart_read.o
 .debug_str     0x00000059       0xe5 obj/http.o
 .debug_str     0x0000013e       0x64 obj/network_utilities.o
 .debug_str     0x000001a2       0x6f obj/srec_flash.o
 .debug_str     0x00000211       0x31 obj/web_server.o
 .debug_str     0x00000242       0x59 obj/Camera.o
 .debug_str     0x0000029b       0x78 obj/StereoCamera.o
 .debug_str     0x00000313       0x82 obj/cam_control.o
 .debug_str     0x00000395      0xa34 /opt/altera/10.1sp1/nios2eds/bin/gnu/H-i686-pc-linux-gnu/bin/../lib/gcc/nios2-elf/4.1.2/../../../../nios2-elf/lib/libstdc++.a(eh_personality.o)
                                0xb6a (size before relaxing)
 .debug_str     0x00000dc9      0x332 /opt/altera/10.1sp1/nios2eds/bin/gnu/H-i686-pc-linux-gnu/bin/../lib/gcc/nios2-elf/4.1.2/../../../../nios2-elf/lib/libstdc++.a(eh_globals.o)
                                0x97f (size before relaxing)
 .debug_str     0x000010fb      0x10e /opt/altera/10.1sp1/nios2eds/bin/gnu/H-i686-pc-linux-gnu/bin/../lib/gcc/nios2-elf/4.1.2/../../../../nios2-elf/lib/libstdc++.a(eh_throw.o)
                                0x6cf (size before relaxing)
 .debug_str     0x00001209       0x4f /opt/altera/10.1sp1/nios2eds/bin/gnu/H-i686-pc-linux-gnu/bin/../lib/gcc/nios2-elf/4.1.2/../../../../nios2-elf/lib/libstdc++.a(eh_call.o)
                                0x697 (size before relaxing)
 .debug_str     0x00001258       0xd3 /opt/altera/10.1sp1/nios2eds/bin/gnu/H-i686-pc-linux-gnu/bin/../lib/gcc/nios2-elf/4.1.2/../../../../nios2-elf/lib/libstdc++.a(eh_catch.o)
                                0x766 (size before relaxing)
 .debug_str     0x0000132b       0x3f /opt/altera/10.1sp1/nios2eds/bin/gnu/H-i686-pc-linux-gnu/bin/../lib/gcc/nios2-elf/4.1.2/../../../../nios2-elf/lib/libstdc++.a(eh_exception.o)
                                0x3a9 (size before relaxing)
 .debug_str     0x0000136a      0x111 /opt/altera/10.1sp1/nios2eds/bin/gnu/H-i686-pc-linux-gnu/bin/../lib/gcc/nios2-elf/4.1.2/../../../../nios2-elf/lib/libstdc++.a(eh_terminate.o)
                                0x7af (size before relaxing)
 .debug_str     0x0000147b      0x2c5 /opt/altera/10.1sp1/nios2eds/bin/gnu/H-i686-pc-linux-gnu/bin/../lib/gcc/nios2-elf/4.1.2/../../../../nios2-elf/lib/libstdc++.a(si_class_type_info.o)
                                0x87b (size before relaxing)
 .debug_str     0x00001740       0xd2 /opt/altera/10.1sp1/nios2eds/bin/gnu/H-i686-pc-linux-gnu/bin/../lib/gcc/nios2-elf/4.1.2/../../../../nios2-elf/lib/libstdc++.a(eh_alloc.o)
                                0x731 (size before relaxing)
 .debug_str     0x00001812       0x42 /opt/altera/10.1sp1/nios2eds/bin/gnu/H-i686-pc-linux-gnu/bin/../lib/gcc/nios2-elf/4.1.2/../../../../nios2-elf/lib/libstdc++.a(eh_term_handler.o)
                                0x5bc (size before relaxing)
 .debug_str     0x00001854       0x41 /opt/altera/10.1sp1/nios2eds/bin/gnu/H-i686-pc-linux-gnu/bin/../lib/gcc/nios2-elf/4.1.2/../../../../nios2-elf/lib/libstdc++.a(tinfo.o)
                                0x68a (size before relaxing)
 .debug_str     0x00001895       0x50 /opt/altera/10.1sp1/nios2eds/bin/gnu/H-i686-pc-linux-gnu/bin/../lib/gcc/nios2-elf/4.1.2/../../../../nios2-elf/lib/libstdc++.a(del_op.o)
                                0x222 (size before relaxing)
 .debug_str     0x000018e5       0x63 /opt/altera/10.1sp1/nios2eds/bin/gnu/H-i686-pc-linux-gnu/bin/../lib/gcc/nios2-elf/4.1.2/../../../../nios2-elf/lib/libstdc++.a(class_type_info.o)
                                0x6ce (size before relaxing)
 .debug_str     0x00001948       0x42 /opt/altera/10.1sp1/nios2eds/bin/gnu/H-i686-pc-linux-gnu/bin/../lib/gcc/nios2-elf/4.1.2/../../../../nios2-elf/lib/libstdc++.a(eh_unex_handler.o)
                                0x5a2 (size before relaxing)
 .debug_str     0x0000198a      0x109 /opt/altera/10.1sp1/nios2eds/bin/gnu/H-i686-pc-linux-gnu/bin/../lib/gcc/nios2-elf/4.1.2/libgcc.a(lib2-divmod.o)
                                0x1a6 (size before relaxing)
 .debug_str     0x00001a93      0xe82 /opt/altera/10.1sp1/nios2eds/bin/gnu/H-i686-pc-linux-gnu/bin/../lib/gcc/nios2-elf/4.1.2/libgcc.a(unwind-dw2.o)
                               0x1240 (size before relaxing)
 .debug_str     0x00002915      0x3f0 /opt/altera/10.1sp1/nios2eds/bin/gnu/H-i686-pc-linux-gnu/bin/../lib/gcc/nios2-elf/4.1.2/libgcc.a(unwind-dw2-fde.o)
                                0x677 (size before relaxing)
 .debug_str     0x00002d05       0xbe /opt/altera/10.1sp1/nios2eds/bin/gnu/H-i686-pc-linux-gnu/bin/../lib/gcc/nios2-elf/4.1.2/../../../../nios2-elf/lib/libc.a(lib_a-abort.o)
                                0x153 (size before relaxing)
 .debug_str     0x00002dc3      0x392 /opt/altera/10.1sp1/nios2eds/bin/gnu/H-i686-pc-linux-gnu/bin/../lib/gcc/nios2-elf/4.1.2/../../../../nios2-elf/lib/libc.a(lib_a-atoi.o)
                                0x4ee (size before relaxing)
 .debug_str     0x00003155       0xd4 /opt/altera/10.1sp1/nios2eds/bin/gnu/H-i686-pc-linux-gnu/bin/../lib/gcc/nios2-elf/4.1.2/../../../../nios2-elf/lib/libc.a(lib_a-ctype_.o)
                                 0xf7 (size before relaxing)
 .debug_str     0x00003229       0xcd /opt/altera/10.1sp1/nios2eds/bin/gnu/H-i686-pc-linux-gnu/bin/../lib/gcc/nios2-elf/4.1.2/../../../../nios2-elf/lib/libc.a(lib_a-fclose.o)
                                0x508 (size before relaxing)
 .debug_str     0x000032f6       0x65 /opt/altera/10.1sp1/nios2eds/bin/gnu/H-i686-pc-linux-gnu/bin/../lib/gcc/nios2-elf/4.1.2/../../../../nios2-elf/lib/libc.a(lib_a-fflush.o)
                                0x524 (size before relaxing)
 .debug_str     0x0000335b       0x48 /opt/altera/10.1sp1/nios2eds/bin/gnu/H-i686-pc-linux-gnu/bin/../lib/gcc/nios2-elf/4.1.2/../../../../nios2-elf/lib/libc.a(lib_a-fgetc.o)
                                0x507 (size before relaxing)
 .debug_str     0x000033a3       0x4e /opt/altera/10.1sp1/nios2eds/bin/gnu/H-i686-pc-linux-gnu/bin/../lib/gcc/nios2-elf/4.1.2/../../../../nios2-elf/lib/libc.a(lib_a-fgetpos.o)
                                0x506 (size before relaxing)
 .debug_str     0x000033f1       0x41 /opt/altera/10.1sp1/nios2eds/bin/gnu/H-i686-pc-linux-gnu/bin/../lib/gcc/nios2-elf/4.1.2/../../../../nios2-elf/lib/libc.a(lib_a-fileno.o)
                                0x500 (size before relaxing)
 .debug_str     0x00003432      0x102 /opt/altera/10.1sp1/nios2eds/bin/gnu/H-i686-pc-linux-gnu/bin/../lib/gcc/nios2-elf/4.1.2/../../../../nios2-elf/lib/libc.a(lib_a-findfp.o)
                                0x5e6 (size before relaxing)
 .debug_str     0x00003534       0x4f /opt/altera/10.1sp1/nios2eds/bin/gnu/H-i686-pc-linux-gnu/bin/../lib/gcc/nios2-elf/4.1.2/../../../../nios2-elf/lib/libc.a(lib_a-fopen.o)
                                0x517 (size before relaxing)
 .debug_str     0x00003583       0x5d /opt/altera/10.1sp1/nios2eds/bin/gnu/H-i686-pc-linux-gnu/bin/../lib/gcc/nios2-elf/4.1.2/../../../../nios2-elf/lib/libc.a(lib_a-fprintf.o)
                                0x511 (size before relaxing)
 .debug_str     0x000035e0       0x48 /opt/altera/10.1sp1/nios2eds/bin/gnu/H-i686-pc-linux-gnu/bin/../lib/gcc/nios2-elf/4.1.2/../../../../nios2-elf/lib/libc.a(lib_a-fputc.o)
                                0x50c (size before relaxing)
 .debug_str     0x00003628       0x6a /opt/altera/10.1sp1/nios2eds/bin/gnu/H-i686-pc-linux-gnu/bin/../lib/gcc/nios2-elf/4.1.2/../../../../nios2-elf/lib/libc.a(lib_a-fread.o)
                                0x540 (size before relaxing)
 .debug_str     0x00003692      0x15b /opt/altera/10.1sp1/nios2eds/bin/gnu/H-i686-pc-linux-gnu/bin/../lib/gcc/nios2-elf/4.1.2/../../../../nios2-elf/lib/libc.a(lib_a-freer.o)
                                0x635 (size before relaxing)
 .debug_str     0x000037ed      0x133 /opt/altera/10.1sp1/nios2eds/bin/gnu/H-i686-pc-linux-gnu/bin/../lib/gcc/nios2-elf/4.1.2/../../../../nios2-elf/lib/libc.a(lib_a-fseek.o)
                                0x624 (size before relaxing)
 .debug_str     0x00003920       0xc6 /opt/altera/10.1sp1/nios2eds/bin/gnu/H-i686-pc-linux-gnu/bin/../lib/gcc/nios2-elf/4.1.2/../../../../nios2-elf/lib/libc.a(lib_a-fstatr.o)
                                0x5e3 (size before relaxing)
 .debug_str     0x000039e6       0x48 /opt/altera/10.1sp1/nios2eds/bin/gnu/H-i686-pc-linux-gnu/bin/../lib/gcc/nios2-elf/4.1.2/../../../../nios2-elf/lib/libc.a(lib_a-ftell.o)
                                0x500 (size before relaxing)
 .debug_str     0x00003a2e       0x5e /opt/altera/10.1sp1/nios2eds/bin/gnu/H-i686-pc-linux-gnu/bin/../lib/gcc/nios2-elf/4.1.2/../../../../nios2-elf/lib/libc.a(lib_a-fwalk.o)
                                0x527 (size before relaxing)
 .debug_str     0x00003a8c       0x87 /opt/altera/10.1sp1/nios2eds/bin/gnu/H-i686-pc-linux-gnu/bin/../lib/gcc/nios2-elf/4.1.2/../../../../nios2-elf/lib/libc.a(lib_a-fwrite.o)
                                0x551 (size before relaxing)
 .debug_str     0x00003b13       0x40 /opt/altera/10.1sp1/nios2eds/bin/gnu/H-i686-pc-linux-gnu/bin/../lib/gcc/nios2-elf/4.1.2/../../../../nios2-elf/lib/libc.a(lib_a-getc.o)
                                0x504 (size before relaxing)
 .debug_str     0x00003b53       0x46 /opt/altera/10.1sp1/nios2eds/bin/gnu/H-i686-pc-linux-gnu/bin/../lib/gcc/nios2-elf/4.1.2/../../../../nios2-elf/lib/libc.a(lib_a-impure.o)
                                0x50c (size before relaxing)
 .debug_str     0x00003b99       0x3d /opt/altera/10.1sp1/nios2eds/bin/gnu/H-i686-pc-linux-gnu/bin/../lib/gcc/nios2-elf/4.1.2/../../../../nios2-elf/lib/libc.a(lib_a-int_errno.o)
                                0x155 (size before relaxing)
 .debug_str     0x00003bd6       0x53 /opt/altera/10.1sp1/nios2eds/bin/gnu/H-i686-pc-linux-gnu/bin/../lib/gcc/nios2-elf/4.1.2/../../../../nios2-elf/lib/libc.a(lib_a-makebuf.o)
                                0x5f8 (size before relaxing)
 .debug_str     0x00003c29       0x47 /opt/altera/10.1sp1/nios2eds/bin/gnu/H-i686-pc-linux-gnu/bin/../lib/gcc/nios2-elf/4.1.2/../../../../nios2-elf/lib/libc.a(lib_a-malloc.o)
                                0x50e (size before relaxing)
 .debug_str     0x00003c70       0xe9 /opt/altera/10.1sp1/nios2eds/bin/gnu/H-i686-pc-linux-gnu/bin/../lib/gcc/nios2-elf/4.1.2/../../../../nios2-elf/lib/libc.a(lib_a-mallocr.o)
                                0x6e3 (size before relaxing)
 .debug_str     0x00003d59       0xe0 /opt/altera/10.1sp1/nios2eds/bin/gnu/H-i686-pc-linux-gnu/bin/../lib/gcc/nios2-elf/4.1.2/../../../../nios2-elf/lib/libc.a(lib_a-memcpy.o)
                                0x11a (size before relaxing)
 .debug_str     0x00003e39       0x56 /opt/altera/10.1sp1/nios2eds/bin/gnu/H-i686-pc-linux-gnu/bin/../lib/gcc/nios2-elf/4.1.2/../../../../nios2-elf/lib/libc.a(lib_a-memmove.o)
                                0x18f (size before relaxing)
 .debug_str     0x00003e8f       0x4f /opt/altera/10.1sp1/nios2eds/bin/gnu/H-i686-pc-linux-gnu/bin/../lib/gcc/nios2-elf/4.1.2/../../../../nios2-elf/lib/libc.a(lib_a-memset.o)
                                0x170 (size before relaxing)
 .debug_str     0x00003ede       0x41 /opt/altera/10.1sp1/nios2eds/bin/gnu/H-i686-pc-linux-gnu/bin/../lib/gcc/nios2-elf/4.1.2/../../../../nios2-elf/lib/libc.a(lib_a-openr.o)
                                0x4fe (size before relaxing)
 .debug_str     0x00003f1f       0x4b /opt/altera/10.1sp1/nios2eds/bin/gnu/H-i686-pc-linux-gnu/bin/../lib/gcc/nios2-elf/4.1.2/../../../../nios2-elf/lib/libc.a(lib_a-perror.o)
                                0x504 (size before relaxing)
 .debug_str     0x00003f6a       0x44 /opt/altera/10.1sp1/nios2eds/bin/gnu/H-i686-pc-linux-gnu/bin/../lib/gcc/nios2-elf/4.1.2/../../../../nios2-elf/lib/libc.a(lib_a-printf.o)
                                0x515 (size before relaxing)
 .debug_str     0x00003fae       0x40 /opt/altera/10.1sp1/nios2eds/bin/gnu/H-i686-pc-linux-gnu/bin/../lib/gcc/nios2-elf/4.1.2/../../../../nios2-elf/lib/libc.a(lib_a-putc.o)
                                0x504 (size before relaxing)
 .debug_str     0x00003fee       0x4e /opt/altera/10.1sp1/nios2eds/bin/gnu/H-i686-pc-linux-gnu/bin/../lib/gcc/nios2-elf/4.1.2/../../../../nios2-elf/lib/libc.a(lib_a-putchar.o)
                                0x501 (size before relaxing)
 .debug_str     0x0000403c       0x40 /opt/altera/10.1sp1/nios2eds/bin/gnu/H-i686-pc-linux-gnu/bin/../lib/gcc/nios2-elf/4.1.2/../../../../nios2-elf/lib/libc.a(lib_a-puts.o)
                                0x53b (size before relaxing)
 .debug_str     0x0000407c       0x4d /opt/altera/10.1sp1/nios2eds/bin/gnu/H-i686-pc-linux-gnu/bin/../lib/gcc/nios2-elf/4.1.2/../../../../nios2-elf/lib/libc.a(lib_a-refill.o)
                                0x50c (size before relaxing)
 .debug_str     0x000040c9       0x4a /opt/altera/10.1sp1/nios2eds/bin/gnu/H-i686-pc-linux-gnu/bin/../lib/gcc/nios2-elf/4.1.2/../../../../nios2-elf/lib/libc.a(lib_a-rget.o)
                                0x502 (size before relaxing)
 .debug_str     0x00004113       0x46 /opt/altera/10.1sp1/nios2eds/bin/gnu/H-i686-pc-linux-gnu/bin/../lib/gcc/nios2-elf/4.1.2/../../../../nios2-elf/lib/libc.a(lib_a-sbrkr.o)
                                0x4fd (size before relaxing)
 .debug_str     0x00004159      0x113 /opt/altera/10.1sp1/nios2eds/bin/gnu/H-i686-pc-linux-gnu/bin/../lib/gcc/nios2-elf/4.1.2/../../../../nios2-elf/lib/libc.a(lib_a-signal.o)
                                0x55f (size before relaxing)
 .debug_str     0x0000426c       0x4d /opt/altera/10.1sp1/nios2eds/bin/gnu/H-i686-pc-linux-gnu/bin/../lib/gcc/nios2-elf/4.1.2/../../../../nios2-elf/lib/libc.a(lib_a-signalr.o)
                                0x4fa (size before relaxing)
 .debug_str     0x000042b9       0x46 /opt/altera/10.1sp1/nios2eds/bin/gnu/H-i686-pc-linux-gnu/bin/../lib/gcc/nios2-elf/4.1.2/../../../../nios2-elf/lib/libc.a(lib_a-sprintf.o)
                                0x51d (size before relaxing)
 .debug_str     0x000042ff       0x53 /opt/altera/10.1sp1/nios2eds/bin/gnu/H-i686-pc-linux-gnu/bin/../lib/gcc/nios2-elf/4.1.2/../../../../nios2-elf/lib/libc.a(lib_a-sscanf.o)
                                0x529 (size before relaxing)
 .debug_str     0x00004352       0x5b /opt/altera/10.1sp1/nios2eds/bin/gnu/H-i686-pc-linux-gnu/bin/../lib/gcc/nios2-elf/4.1.2/../../../../nios2-elf/lib/libc.a(lib_a-stdio.o)
                                0x523 (size before relaxing)
 .debug_str     0x000043ad       0x4a /opt/altera/10.1sp1/nios2eds/bin/gnu/H-i686-pc-linux-gnu/bin/../lib/gcc/nios2-elf/4.1.2/../../../../nios2-elf/lib/libc.a(lib_a-strcasecmp.o)
                                0x169 (size before relaxing)
 .debug_str     0x000043f7       0x4d /opt/altera/10.1sp1/nios2eds/bin/gnu/H-i686-pc-linux-gnu/bin/../lib/gcc/nios2-elf/4.1.2/../../../../nios2-elf/lib/libc.a(lib_a-strcat.o)
                                0x160 (size before relaxing)
 .debug_str     0x00004444       0x42 /opt/altera/10.1sp1/nios2eds/bin/gnu/H-i686-pc-linux-gnu/bin/../lib/gcc/nios2-elf/4.1.2/../../../../nios2-elf/lib/libc.a(lib_a-strchr.o)
                                0x167 (size before relaxing)
 .debug_str     0x00004486       0x42 /opt/altera/10.1sp1/nios2eds/bin/gnu/H-i686-pc-linux-gnu/bin/../lib/gcc/nios2-elf/4.1.2/../../../../nios2-elf/lib/libc.a(lib_a-strcmp.o)
                                0x155 (size before relaxing)
 .debug_str     0x000044c8       0x42 /opt/altera/10.1sp1/nios2eds/bin/gnu/H-i686-pc-linux-gnu/bin/../lib/gcc/nios2-elf/4.1.2/../../../../nios2-elf/lib/libc.a(lib_a-strcpy.o)
                                0x177 (size before relaxing)
 .debug_str     0x0000450a       0x44 /opt/altera/10.1sp1/nios2eds/bin/gnu/H-i686-pc-linux-gnu/bin/../lib/gcc/nios2-elf/4.1.2/../../../../nios2-elf/lib/libc.a(lib_a-strerror.o)
                                0x166 (size before relaxing)
 .debug_str     0x0000454e       0x42 /opt/altera/10.1sp1/nios2eds/bin/gnu/H-i686-pc-linux-gnu/bin/../lib/gcc/nios2-elf/4.1.2/../../../../nios2-elf/lib/libc.a(lib_a-strlen.o)
                                0x16f (size before relaxing)
 .debug_str     0x00004590       0x44 /opt/altera/10.1sp1/nios2eds/bin/gnu/H-i686-pc-linux-gnu/bin/../lib/gcc/nios2-elf/4.1.2/../../../../nios2-elf/lib/libc.a(lib_a-strncmp.o)
                                0x15e (size before relaxing)
 .debug_str     0x000045d4       0x44 /opt/altera/10.1sp1/nios2eds/bin/gnu/H-i686-pc-linux-gnu/bin/../lib/gcc/nios2-elf/4.1.2/../../../../nios2-elf/lib/libc.a(lib_a-strncpy.o)
                                0x186 (size before relaxing)
 .debug_str     0x00004618       0xe8 /opt/altera/10.1sp1/nios2eds/bin/gnu/H-i686-pc-linux-gnu/bin/../lib/gcc/nios2-elf/4.1.2/../../../../nios2-elf/lib/libc.a(lib_a-strstr.o)
                                0x216 (size before relaxing)
 .debug_str     0x00004700       0x3b /opt/altera/10.1sp1/nios2eds/bin/gnu/H-i686-pc-linux-gnu/bin/../lib/gcc/nios2-elf/4.1.2/../../../../nios2-elf/lib/libc.a(lib_a-strtok.o)
                                0x4fc (size before relaxing)
 .debug_str     0x0000473b       0x6c /opt/altera/10.1sp1/nios2eds/bin/gnu/H-i686-pc-linux-gnu/bin/../lib/gcc/nios2-elf/4.1.2/../../../../nios2-elf/lib/libc.a(lib_a-strtok_r.o)
                                0x18e (size before relaxing)
 .debug_str     0x000047a7       0x5a /opt/altera/10.1sp1/nios2eds/bin/gnu/H-i686-pc-linux-gnu/bin/../lib/gcc/nios2-elf/4.1.2/../../../../nios2-elf/lib/libc.a(lib_a-strtol.o)
                                0x530 (size before relaxing)
 .debug_str     0x00004801       0x4c /opt/altera/10.1sp1/nios2eds/bin/gnu/H-i686-pc-linux-gnu/bin/../lib/gcc/nios2-elf/4.1.2/../../../../nios2-elf/lib/libc.a(lib_a-u_strerr.o)
                                 0xe2 (size before relaxing)
 .debug_str     0x0000484d      0x167 /opt/altera/10.1sp1/nios2eds/bin/gnu/H-i686-pc-linux-gnu/bin/../lib/gcc/nios2-elf/4.1.2/../../../../nios2-elf/lib/libc.a(lib_a-vfprintf.o)
                                0x6ea (size before relaxing)
 .debug_str     0x000049b4      0x135 /opt/altera/10.1sp1/nios2eds/bin/gnu/H-i686-pc-linux-gnu/bin/../lib/gcc/nios2-elf/4.1.2/../../../../nios2-elf/lib/libc.a(lib_a-vfscanf.o)
                                0x683 (size before relaxing)
 .debug_str     0x00004ae9       0x4a /opt/altera/10.1sp1/nios2eds/bin/gnu/H-i686-pc-linux-gnu/bin/../lib/gcc/nios2-elf/4.1.2/../../../../nios2-elf/lib/libc.a(lib_a-wbuf.o)
                                0x502 (size before relaxing)
 .debug_str     0x00004b33       0x4c /opt/altera/10.1sp1/nios2eds/bin/gnu/H-i686-pc-linux-gnu/bin/../lib/gcc/nios2-elf/4.1.2/../../../../nios2-elf/lib/libc.a(lib_a-writer.o)
                                0x500 (size before relaxing)
 .debug_str     0x00004b7f       0x46 /opt/altera/10.1sp1/nios2eds/bin/gnu/H-i686-pc-linux-gnu/bin/../lib/gcc/nios2-elf/4.1.2/../../../../nios2-elf/lib/libc.a(lib_a-wsetup.o)
                                0x4fe (size before relaxing)
 .debug_str     0x00004bc5       0x43 /opt/altera/10.1sp1/nios2eds/bin/gnu/H-i686-pc-linux-gnu/bin/../lib/gcc/nios2-elf/4.1.2/../../../../nios2-elf/lib/libc.a(lib_a-closer.o)
                                0x4f0 (size before relaxing)
 .debug_str     0x00004c08       0xf6 /opt/altera/10.1sp1/nios2eds/bin/gnu/H-i686-pc-linux-gnu/bin/../lib/gcc/nios2-elf/4.1.2/../../../../nios2-elf/lib/libc.a(lib_a-dtoa.o)
                                0x5f3 (size before relaxing)
 .debug_str     0x00004cfe       0x47 /opt/altera/10.1sp1/nios2eds/bin/gnu/H-i686-pc-linux-gnu/bin/../lib/gcc/nios2-elf/4.1.2/../../../../nios2-elf/lib/libc.a(lib_a-flags.o)
                                0x4f3 (size before relaxing)
 .debug_str     0x00004d45       0x48 /opt/altera/10.1sp1/nios2eds/bin/gnu/H-i686-pc-linux-gnu/bin/../lib/gcc/nios2-elf/4.1.2/../../../../nios2-elf/lib/libc.a(lib_a-fputs.o)
                                0x54a (size before relaxing)
 .debug_str     0x00004d8d       0x66 /opt/altera/10.1sp1/nios2eds/bin/gnu/H-i686-pc-linux-gnu/bin/../lib/gcc/nios2-elf/4.1.2/../../../../nios2-elf/lib/libc.a(lib_a-fvwrite.o)
                                0x555 (size before relaxing)
 .debug_str     0x00004df3       0x45 /opt/altera/10.1sp1/nios2eds/bin/gnu/H-i686-pc-linux-gnu/bin/../lib/gcc/nios2-elf/4.1.2/../../../../nios2-elf/lib/libc.a(lib_a-isattyr.o)
                                0x4f2 (size before relaxing)
 .debug_str     0x00004e38       0x58 /opt/altera/10.1sp1/nios2eds/bin/gnu/H-i686-pc-linux-gnu/bin/../lib/gcc/nios2-elf/4.1.2/../../../../nios2-elf/lib/libc.a(lib_a-iswspace.o)
                                0x17d (size before relaxing)
 .debug_str     0x00004e90      0x1ff /opt/altera/10.1sp1/nios2eds/bin/gnu/H-i686-pc-linux-gnu/bin/../lib/gcc/nios2-elf/4.1.2/../../../../nios2-elf/lib/libc.a(lib_a-locale.o)
                                0x69b (size before relaxing)
 .debug_str     0x0000508f       0x43 /opt/altera/10.1sp1/nios2eds/bin/gnu/H-i686-pc-linux-gnu/bin/../lib/gcc/nios2-elf/4.1.2/../../../../nios2-elf/lib/libc.a(lib_a-lseekr.o)
                                0x4fe (size before relaxing)
 .debug_str     0x000050d2       0x56 /opt/altera/10.1sp1/nios2eds/bin/gnu/H-i686-pc-linux-gnu/bin/../lib/gcc/nios2-elf/4.1.2/../../../../nios2-elf/lib/libc.a(lib_a-mbrtowc.o)
                                0x523 (size before relaxing)
 .debug_str     0x00005128       0x47 /opt/altera/10.1sp1/nios2eds/bin/gnu/H-i686-pc-linux-gnu/bin/../lib/gcc/nios2-elf/4.1.2/../../../../nios2-elf/lib/libc.a(lib_a-mbtowc_r.o)
                                0x514 (size before relaxing)
 .debug_str     0x0000516f       0x40 /opt/altera/10.1sp1/nios2eds/bin/gnu/H-i686-pc-linux-gnu/bin/../lib/gcc/nios2-elf/4.1.2/../../../../nios2-elf/lib/libc.a(lib_a-memchr.o)
                                0x17d (size before relaxing)
 .debug_str     0x000051af       0x42 /opt/altera/10.1sp1/nios2eds/bin/gnu/H-i686-pc-linux-gnu/bin/../lib/gcc/nios2-elf/4.1.2/../../../../nios2-elf/lib/libc.a(lib_a-memcmp.o)
                                0x15c (size before relaxing)
 .debug_str     0x000051f1       0xf8 /opt/altera/10.1sp1/nios2eds/bin/gnu/H-i686-pc-linux-gnu/bin/../lib/gcc/nios2-elf/4.1.2/../../../../nios2-elf/lib/libc.a(lib_a-mprec.o)
                                0x600 (size before relaxing)
 .debug_str     0x000052e9       0x41 /opt/altera/10.1sp1/nios2eds/bin/gnu/H-i686-pc-linux-gnu/bin/../lib/gcc/nios2-elf/4.1.2/../../../../nios2-elf/lib/libc.a(lib_a-readr.o)
                                0x4fe (size before relaxing)
 .debug_str     0x0000532a       0x4e /opt/altera/10.1sp1/nios2eds/bin/gnu/H-i686-pc-linux-gnu/bin/../lib/gcc/nios2-elf/4.1.2/../../../../nios2-elf/lib/libc.a(lib_a-reallocr.o)
                                0x5b5 (size before relaxing)
 .debug_str     0x00005378       0xce /opt/altera/10.1sp1/nios2eds/bin/gnu/H-i686-pc-linux-gnu/bin/../lib/gcc/nios2-elf/4.1.2/../../../../nios2-elf/lib/libc.a(lib_a-s_isinfd.o)
                                0x17c (size before relaxing)
 .debug_str     0x00005446       0x46 /opt/altera/10.1sp1/nios2eds/bin/gnu/H-i686-pc-linux-gnu/bin/../lib/gcc/nios2-elf/4.1.2/../../../../nios2-elf/lib/libc.a(lib_a-s_isnand.o)
                                0x17c (size before relaxing)
 .debug_str     0x0000548c       0x4f /opt/altera/10.1sp1/nios2eds/bin/gnu/H-i686-pc-linux-gnu/bin/../lib/gcc/nios2-elf/4.1.2/../../../../nios2-elf/lib/libc.a(lib_a-sccl.o)
                                0x161 (size before relaxing)
 .debug_str     0x000054db       0x40 /opt/altera/10.1sp1/nios2eds/bin/gnu/H-i686-pc-linux-gnu/bin/../lib/gcc/nios2-elf/4.1.2/../../../../nios2-elf/lib/libc.a(lib_a-sf_nan.o)
                                0x173 (size before relaxing)
 .debug_str     0x0000551b       0xe8 /opt/altera/10.1sp1/nios2eds/bin/gnu/H-i686-pc-linux-gnu/bin/../lib/gcc/nios2-elf/4.1.2/../../../../nios2-elf/lib/libc.a(lib_a-strtod.o)
                                0x613 (size before relaxing)
 .debug_str     0x00005603       0x49 /opt/altera/10.1sp1/nios2eds/bin/gnu/H-i686-pc-linux-gnu/bin/../lib/gcc/nios2-elf/4.1.2/../../../../nios2-elf/lib/libc.a(lib_a-strtoll_r.o)
                                0x521 (size before relaxing)
 .debug_str     0x0000564c       0x47 /opt/altera/10.1sp1/nios2eds/bin/gnu/H-i686-pc-linux-gnu/bin/../lib/gcc/nios2-elf/4.1.2/../../../../nios2-elf/lib/libc.a(lib_a-strtoul.o)
                                0x533 (size before relaxing)
 .debug_str     0x00005693       0x4b /opt/altera/10.1sp1/nios2eds/bin/gnu/H-i686-pc-linux-gnu/bin/../lib/gcc/nios2-elf/4.1.2/../../../../nios2-elf/lib/libc.a(lib_a-strtoull_r.o)
                                0x523 (size before relaxing)
 .debug_str     0x000056de       0x55 /opt/altera/10.1sp1/nios2eds/bin/gnu/H-i686-pc-linux-gnu/bin/../lib/gcc/nios2-elf/4.1.2/../../../../nios2-elf/lib/libc.a(lib_a-ungetc.o)
                                0x512 (size before relaxing)
 .debug_str     0x00005733       0x19 /opt/altera/10.1sp1/nios2eds/bin/gnu/H-i686-pc-linux-gnu/bin/../lib/gcc/nios2-elf/4.1.2/../../../../nios2-elf/lib/libc.a(lib_a-callocr.o)
                                0x534 (size before relaxing)
 .debug_str     0x0000574c       0x9e /opt/altera/10.1sp1/nios2eds/bin/gnu/H-i686-pc-linux-gnu/bin/../lib/gcc/nios2-elf/4.1.2/../../../../nios2-elf/lib/libc.a(lib_a-gdtoa-gethex.o)
                                0x5ae (size before relaxing)
 .debug_str     0x000057ea       0x52 /opt/altera/10.1sp1/nios2eds/bin/gnu/H-i686-pc-linux-gnu/bin/../lib/gcc/nios2-elf/4.1.2/../../../../nios2-elf/lib/libc.a(lib_a-gdtoa-hexnan.o)
                                0x1c1 (size before relaxing)
 .debug_str     0x0000583c       0x67 /opt/altera/10.1sp1/nios2eds/bin/gnu/H-i686-pc-linux-gnu/bin/../lib/gcc/nios2-elf/4.1.2/libgcc.a(_muldi3.o)
                                0x19e (size before relaxing)
 .debug_str     0x000058a3       0x14 /opt/altera/10.1sp1/nios2eds/bin/gnu/H-i686-pc-linux-gnu/bin/../lib/gcc/nios2-elf/4.1.2/libgcc.a(_fixunsdfsi.o)
                                0x15d (size before relaxing)
 .debug_str     0x000058b7       0x54 /opt/altera/10.1sp1/nios2eds/bin/gnu/H-i686-pc-linux-gnu/bin/../lib/gcc/nios2-elf/4.1.2/libgcc.a(_udivdi3.o)
                                0x1e9 (size before relaxing)
 .debug_str     0x0000590b        0xa /opt/altera/10.1sp1/nios2eds/bin/gnu/H-i686-pc-linux-gnu/bin/../lib/gcc/nios2-elf/4.1.2/libgcc.a(_umoddi3.o)
                                0x1e9 (size before relaxing)
 .debug_str     0x00005915       0xc7 /opt/altera/10.1sp1/nios2eds/bin/gnu/H-i686-pc-linux-gnu/bin/../lib/gcc/nios2-elf/4.1.2/libgcc.a(_ne_sf.o)
                                0x1ea (size before relaxing)
 .debug_str     0x000059dc        0x8 /opt/altera/10.1sp1/nios2eds/bin/gnu/H-i686-pc-linux-gnu/bin/../lib/gcc/nios2-elf/4.1.2/libgcc.a(_gt_sf.o)
                                0x1ea (size before relaxing)
 .debug_str     0x000059e4        0x8 /opt/altera/10.1sp1/nios2eds/bin/gnu/H-i686-pc-linux-gnu/bin/../lib/gcc/nios2-elf/4.1.2/libgcc.a(_lt_sf.o)
                                0x1ea (size before relaxing)
 .debug_str     0x000059ec       0x8f /opt/altera/10.1sp1/nios2eds/bin/gnu/H-i686-pc-linux-gnu/bin/../lib/gcc/nios2-elf/4.1.2/libgcc.a(_addsub_df.o)
                                0x261 (size before relaxing)
 .debug_str     0x00005a7b       0x40 /opt/altera/10.1sp1/nios2eds/bin/gnu/H-i686-pc-linux-gnu/bin/../lib/gcc/nios2-elf/4.1.2/libgcc.a(_mul_df.o)
                                0x233 (size before relaxing)
 .debug_str     0x00005abb       0x35 /opt/altera/10.1sp1/nios2eds/bin/gnu/H-i686-pc-linux-gnu/bin/../lib/gcc/nios2-elf/4.1.2/libgcc.a(_div_df.o)
                                0x223 (size before relaxing)
 .debug_str     0x00005af0        0x8 /opt/altera/10.1sp1/nios2eds/bin/gnu/H-i686-pc-linux-gnu/bin/../lib/gcc/nios2-elf/4.1.2/libgcc.a(_eq_df.o)
                                0x1f0 (size before relaxing)
 .debug_str     0x00005af8        0x8 /opt/altera/10.1sp1/nios2eds/bin/gnu/H-i686-pc-linux-gnu/bin/../lib/gcc/nios2-elf/4.1.2/libgcc.a(_ne_df.o)
                                0x1f0 (size before relaxing)
 .debug_str     0x00005b00        0x8 /opt/altera/10.1sp1/nios2eds/bin/gnu/H-i686-pc-linux-gnu/bin/../lib/gcc/nios2-elf/4.1.2/libgcc.a(_gt_df.o)
                                0x1f0 (size before relaxing)
 .debug_str     0x00005b08        0x8 /opt/altera/10.1sp1/nios2eds/bin/gnu/H-i686-pc-linux-gnu/bin/../lib/gcc/nios2-elf/4.1.2/libgcc.a(_ge_df.o)
                                0x1f0 (size before relaxing)
 .debug_str     0x00005b10        0x8 /opt/altera/10.1sp1/nios2eds/bin/gnu/H-i686-pc-linux-gnu/bin/../lib/gcc/nios2-elf/4.1.2/libgcc.a(_lt_df.o)
                                0x1f0 (size before relaxing)
 .debug_str     0x00005b18        0x8 /opt/altera/10.1sp1/nios2eds/bin/gnu/H-i686-pc-linux-gnu/bin/../lib/gcc/nios2-elf/4.1.2/libgcc.a(_le_df.o)
                                0x1f0 (size before relaxing)
 .debug_str     0x00005b20       0x18 /opt/altera/10.1sp1/nios2eds/bin/gnu/H-i686-pc-linux-gnu/bin/../lib/gcc/nios2-elf/4.1.2/libgcc.a(_si_to_df.o)
                                0x1d0 (size before relaxing)
 .debug_str     0x00005b38        0xa /opt/altera/10.1sp1/nios2eds/bin/gnu/H-i686-pc-linux-gnu/bin/../lib/gcc/nios2-elf/4.1.2/libgcc.a(_df_to_si.o)
                                0x1f9 (size before relaxing)
 .debug_str     0x00005b42       0x14 /opt/altera/10.1sp1/nios2eds/bin/gnu/H-i686-pc-linux-gnu/bin/../lib/gcc/nios2-elf/4.1.2/libgcc.a(_df_to_sf.o)
                                0x1f0 (size before relaxing)
 .debug_str     0x00000000      0x195 /opt/altera/10.1sp1/nios2eds/bin/gnu/H-i686-pc-linux-gnu/bin/../lib/gcc/nios2-elf/4.1.2/libgcc.a(_thenan_df.o)
 .debug_str     0x00005b56       0x14 /opt/altera/10.1sp1/nios2eds/bin/gnu/H-i686-pc-linux-gnu/bin/../lib/gcc/nios2-elf/4.1.2/libgcc.a(_usi_to_df.o)
                                0x1cc (size before relaxing)
 .debug_str     0x00000000      0x153 /opt/altera/10.1sp1/nios2eds/bin/gnu/H-i686-pc-linux-gnu/bin/../lib/gcc/nios2-elf/4.1.2/libgcc.a(_clz.o)
 .debug_str     0x00005b6a        0x9 /opt/altera/10.1sp1/nios2eds/bin/gnu/H-i686-pc-linux-gnu/bin/../lib/gcc/nios2-elf/4.1.2/libgcc.a(_clzsi2.o)
                                0x170 (size before relaxing)
 .debug_str     0x00005b73        0xb /opt/altera/10.1sp1/nios2eds/bin/gnu/H-i686-pc-linux-gnu/bin/../lib/gcc/nios2-elf/4.1.2/libgcc.a(_unpack_sf.o)
                                0x1d4 (size before relaxing)
 .debug_str     0x00005b7e       0x10 /opt/altera/10.1sp1/nios2eds/bin/gnu/H-i686-pc-linux-gnu/bin/../lib/gcc/nios2-elf/4.1.2/libgcc.a(_fpcmp_parts_sf.o)
                                0x1b8 (size before relaxing)
 .debug_str     0x00005b8e        0xa /opt/altera/10.1sp1/nios2eds/bin/gnu/H-i686-pc-linux-gnu/bin/../lib/gcc/nios2-elf/4.1.2/libgcc.a(_make_sf.o)
                                0x1ab (size before relaxing)
 .debug_str     0x00005b98       0x10 /opt/altera/10.1sp1/nios2eds/bin/gnu/H-i686-pc-linux-gnu/bin/../lib/gcc/nios2-elf/4.1.2/libgcc.a(_pack_df.o)
                                0x1f8 (size before relaxing)
 .debug_str     0x00005ba8        0xb /opt/altera/10.1sp1/nios2eds/bin/gnu/H-i686-pc-linux-gnu/bin/../lib/gcc/nios2-elf/4.1.2/libgcc.a(_unpack_df.o)
                                0x1da (size before relaxing)
 .debug_str     0x00005bb3       0x10 /opt/altera/10.1sp1/nios2eds/bin/gnu/H-i686-pc-linux-gnu/bin/../lib/gcc/nios2-elf/4.1.2/libgcc.a(_fpcmp_parts_df.o)
                                0x1b8 (size before relaxing)
 .debug_str     0x00005bc3        0x9 /opt/altera/10.1sp1/nios2eds/bin/gnu/H-i686-pc-linux-gnu/bin/../lib/gcc/nios2-elf/4.1.2/libgcc.a(_pack_sf.o)
                                0x1f2 (size before relaxing)
 .debug_str     0x00005bcc       0x12 ../StereoCameraServer_bsp/libucosii_bsp.a(alt_dcache_flush.o)
 .debug_str     0x00005bde       0x12 ../StereoCameraServer_bsp/libucosii_bsp.a(alt_errno.o)
 .debug_str     0x00005bf0       0x1c ../StereoCameraServer_bsp/libucosii_bsp.a(alt_exit.o)
 .debug_str     0x00005c0c       0x2d ../StereoCameraServer_bsp/libucosii_bsp.a(alt_flash_dev.o)
 .debug_str     0x00005c39       0x12 ../StereoCameraServer_bsp/libucosii_bsp.a(alt_fstat.o)
 .debug_str     0x00005c4b       0x21 ../StereoCameraServer_bsp/libucosii_bsp.a(alt_irq_register.o)
 .debug_str     0x00005c6c       0x12 ../StereoCameraServer_bsp/libucosii_bsp.a(alt_isatty.o)
 .debug_str     0x00005c7e       0x12 ../StereoCameraServer_bsp/libucosii_bsp.a(alt_kill.o)
 .debug_str     0x00005c90       0x12 ../StereoCameraServer_bsp/libucosii_bsp.a(alt_load.o)
 .debug_str     0x00005ca2       0x12 ../StereoCameraServer_bsp/libucosii_bsp.a(alt_lseek.o)
 .debug_str     0x00005cb4       0x12 ../StereoCameraServer_bsp/libucosii_bsp.a(alt_main.o)
 .debug_str     0x00005cc6       0x12 ../StereoCameraServer_bsp/libucosii_bsp.a(alt_open.o)
 .debug_str     0x00005cd8       0x12 ../StereoCameraServer_bsp/libucosii_bsp.a(alt_release_fd.o)
 .debug_str     0x00005cea       0x1a ../StereoCameraServer_bsp/libucosii_bsp.a(alt_sbrk.o)
 .debug_str     0x00005d04       0x1a ../StereoCameraServer_bsp/libucosii_bsp.a(alt_tick.o)
 .debug_str     0x00005d1e       0x36 ../StereoCameraServer_bsp/libucosii_bsp.a(alt_env_lock.o)
 .debug_str     0x00005d54       0x36 ../StereoCameraServer_bsp/libucosii_bsp.a(alt_malloc_lock.o)
 .debug_str     0x00005d8a       0x46 ../StereoCameraServer_bsp/libucosii_bsp.a(os_core.o)
 .debug_str     0x00005dd0       0x2b ../StereoCameraServer_bsp/libucosii_bsp.a(os_dbg.o)
 .debug_str     0x00005dfb       0x4e ../StereoCameraServer_bsp/libucosii_bsp.a(os_flag.o)
 .debug_str     0x00005e49       0x36 ../StereoCameraServer_bsp/libucosii_bsp.a(os_mbox.o)
 .debug_str     0x00005e7f       0x2c ../StereoCameraServer_bsp/libucosii_bsp.a(os_mem.o)
 .debug_str     0x00005eab       0x36 ../StereoCameraServer_bsp/libucosii_bsp.a(os_q.o)
 .debug_str     0x00005ee1       0x36 ../StereoCameraServer_bsp/libucosii_bsp.a(os_sem.o)
 .debug_str     0x00005f17       0x23 ../StereoCameraServer_bsp/libucosii_bsp.a(os_task.o)
 .debug_str     0x00005f3a       0x1f ../StereoCameraServer_bsp/libucosii_bsp.a(os_time.o)
 .debug_str     0x00005f59       0x5a ../StereoCameraServer_bsp/libucosii_bsp.a(alt_sys_init.o)
 .debug_str     0x00005fb3       0x82 ../StereoCameraServer_bsp/libucosii_bsp.a(altera_avalon_cfi_flash.o)
 .debug_str     0x00006035       0x6d ../StereoCameraServer_bsp/libucosii_bsp.a(altera_avalon_cfi_flash_table.o)
 .debug_str     0x000060a2       0x12 ../StereoCameraServer_bsp/libucosii_bsp.a(altera_avalon_jtag_uart_fd.o)
 .debug_str     0x000060b4       0x1a ../StereoCameraServer_bsp/libucosii_bsp.a(altera_avalon_jtag_uart_init.o)
 .debug_str     0x000060ce       0x12 ../StereoCameraServer_bsp/libucosii_bsp.a(altera_avalon_jtag_uart_ioctl.o)
 .debug_str     0x000060e0       0x22 ../StereoCameraServer_bsp/libucosii_bsp.a(altera_avalon_jtag_uart_read.o)
 .debug_str     0x00006102       0x22 ../StereoCameraServer_bsp/libucosii_bsp.a(altera_avalon_jtag_uart_write.o)
 .debug_str     0x00006124       0x25 ../StereoCameraServer_bsp/libucosii_bsp.a(altera_avalon_lcd_16207.o)
 .debug_str     0x00006149       0x12 ../StereoCameraServer_bsp/libucosii_bsp.a(altera_avalon_lcd_16207_fd.o)
 .debug_str     0x0000615b       0x12 ../StereoCameraServer_bsp/libucosii_bsp.a(altera_avalon_timer_sc.o)
 .debug_str     0x0000616d       0x12 ../StereoCameraServer_bsp/libucosii_bsp.a(altera_avalon_uart_fd.o)
 .debug_str     0x0000617f       0x1a ../StereoCameraServer_bsp/libucosii_bsp.a(altera_avalon_uart_write.o)
 .debug_str     0x00006199       0x95 ../StereoCameraServer_bsp/libucosii_bsp.a(altera_ro_zipfs.o)
 .debug_str     0x0000622e       0x33 ../StereoCameraServer_bsp/libucosii_bsp.a(dm9000a.o)
 .debug_str     0x00006261       0x12 ../StereoCameraServer_bsp/libucosii_bsp.a(alt_iniche_close.o)
 .debug_str     0x00006273       0x12 ../StereoCameraServer_bsp/libucosii_bsp.a(alt_iniche_dev.o)
 .debug_str     0x00006285       0x12 ../StereoCameraServer_bsp/libucosii_bsp.a(alt_iniche_fcntl.o)
 .debug_str     0x00006297       0x12 ../StereoCameraServer_bsp/libucosii_bsp.a(alt_iniche_read.o)
 .debug_str     0x000062a9       0x12 ../StereoCameraServer_bsp/libucosii_bsp.a(alt_iniche_write.o)
 .debug_str     0x000062bb       0x12 ../StereoCameraServer_bsp/libucosii_bsp.a(ipnet.o)
 .debug_str     0x000062cd       0x12 ../StereoCameraServer_bsp/libucosii_bsp.a(ipstart.o)
 .debug_str     0x000062df       0x12 ../StereoCameraServer_bsp/libucosii_bsp.a(igmp_cmn.o)
 .debug_str     0x000062f1       0x20 ../StereoCameraServer_bsp/libucosii_bsp.a(bsdsock.o)
 .debug_str     0x00006311       0x12 ../StereoCameraServer_bsp/libucosii_bsp.a(cksum.o)
 .debug_str     0x00006323       0x12 ../StereoCameraServer_bsp/libucosii_bsp.a(in_utils.o)
 .debug_str     0x00006335       0x12 ../StereoCameraServer_bsp/libucosii_bsp.a(netmain.o)
 .debug_str     0x00006347       0x12 ../StereoCameraServer_bsp/libucosii_bsp.a(tk_crnos.o)
 .debug_str     0x00006359       0x12 ../StereoCameraServer_bsp/libucosii_bsp.a(pktalloc.o)
 .debug_str     0x0000636b       0x12 ../StereoCameraServer_bsp/libucosii_bsp.a(q.o)
 .debug_str     0x0000637d       0x20 ../StereoCameraServer_bsp/libucosii_bsp.a(brdutils.o)
 .debug_str     0x0000639d       0x22 ../StereoCameraServer_bsp/libucosii_bsp.a(osportco.o)
 .debug_str     0x000063bf       0x12 ../StereoCameraServer_bsp/libucosii_bsp.a(targnios.o)
 .debug_str     0x000063d1       0x1e ../StereoCameraServer_bsp/libucosii_bsp.a(nptcp.o)
 .debug_str     0x000063ef       0x12 ../StereoCameraServer_bsp/libucosii_bsp.a(rawsock.o)
 .debug_str     0x00006401       0x34 ../StereoCameraServer_bsp/libucosii_bsp.a(sockcall.o)
 .debug_str     0x00006435       0x18 ../StereoCameraServer_bsp/libucosii_bsp.a(socket.o)
 .debug_str     0x0000644d       0x12 ../StereoCameraServer_bsp/libucosii_bsp.a(socket2.o)
 .debug_str     0x0000645f       0x12 ../StereoCameraServer_bsp/libucosii_bsp.a(soselect.o)
 .debug_str     0x00006471       0x12 ../StereoCameraServer_bsp/libucosii_bsp.a(tcp_in.o)
 .debug_str     0x00006483       0x12 ../StereoCameraServer_bsp/libucosii_bsp.a(tcp_out.o)
 .debug_str     0x00006495       0x12 ../StereoCameraServer_bsp/libucosii_bsp.a(tcp_subr.o)
 .debug_str     0x000064a7       0x12 ../StereoCameraServer_bsp/libucosii_bsp.a(tcp_timr.o)
 .debug_str     0x000064b9       0x12 ../StereoCameraServer_bsp/libucosii_bsp.a(tcp_usr.o)
 .debug_str     0x000064cb       0x12 ../StereoCameraServer_bsp/libucosii_bsp.a(tcpport.o)
 .debug_str     0x000064dd       0x1a ../StereoCameraServer_bsp/libucosii_bsp.a(udpsock.o)
 .debug_str     0x000064f7       0x23 ../StereoCameraServer_bsp/libucosii_bsp.a(alt_alarm_start.o)
 .debug_str     0x0000651a       0x12 ../StereoCameraServer_bsp/libucosii_bsp.a(alt_close.o)
 .debug_str     0x0000652c       0x12 ../StereoCameraServer_bsp/libucosii_bsp.a(alt_dcache_flush_all.o)
 .debug_str     0x0000653e       0x12 ../StereoCameraServer_bsp/libucosii_bsp.a(alt_dev.o)
 .debug_str     0x00006550       0x12 ../StereoCameraServer_bsp/libucosii_bsp.a(alt_dev_llist_insert.o)
 .debug_str     0x00006562       0x12 ../StereoCameraServer_bsp/libucosii_bsp.a(alt_fcntl.o)
 .debug_str     0x00006574       0x12 ../StereoCameraServer_bsp/libucosii_bsp.a(alt_find_dev.o)
 .debug_str     0x00006586       0x12 ../StereoCameraServer_bsp/libucosii_bsp.a(alt_find_file.o)
 .debug_str     0x00006598       0x12 ../StereoCameraServer_bsp/libucosii_bsp.a(alt_fs_reg.o)
 .debug_str     0x000065aa       0x12 ../StereoCameraServer_bsp/libucosii_bsp.a(alt_get_fd.o)
 .debug_str     0x000065bc       0x12 ../StereoCameraServer_bsp/libucosii_bsp.a(alt_icache_flush_all.o)
 .debug_str     0x000065ce       0x12 ../StereoCameraServer_bsp/libucosii_bsp.a(alt_io_redirect.o)
 .debug_str     0x000065e0       0x12 ../StereoCameraServer_bsp/libucosii_bsp.a(alt_irq_handler.o)
 .debug_str     0x000065f2       0x12 ../StereoCameraServer_bsp/libucosii_bsp.a(alt_read.o)
 .debug_str     0x00006604       0x12 ../StereoCameraServer_bsp/libucosii_bsp.a(alt_remap_cached.o)
 .debug_str     0x00006616       0x12 ../StereoCameraServer_bsp/libucosii_bsp.a(alt_remap_uncached.o)
 .debug_str     0x00006628       0x12 ../StereoCameraServer_bsp/libucosii_bsp.a(alt_usleep.o)
 .debug_str     0x0000663a       0x12 ../StereoCameraServer_bsp/libucosii_bsp.a(alt_write.o)
 .debug_str     0x0000664c       0x12 ../StereoCameraServer_bsp/libucosii_bsp.a(altera_nios2_irq.o)
 .debug_str     0x0000665e       0x20 ../StereoCameraServer_bsp/libucosii_bsp.a(os_cpu_c.o)
 .debug_str     0x0000667e       0x76 ../StereoCameraServer_bsp/libucosii_bsp.a(altera_avalon_cfi_flash_amd.o)
 .debug_str     0x000066f4       0x7d ../StereoCameraServer_bsp/libucosii_bsp.a(altera_avalon_cfi_flash_intel.o)
 .debug_str     0x00006771       0x12 ../StereoCameraServer_bsp/libucosii_bsp.a(allports.o)
 .debug_str     0x00006783       0x1b ../StereoCameraServer_bsp/libucosii_bsp.a(timeouts.o)
 .debug_str     0x0000679e       0x12 ../StereoCameraServer_bsp/libucosii_bsp.a(tk_misc.o)
 .debug_str     0x000067b0       0x3d ../StereoCameraServer_bsp/libucosii_bsp.a(et_arp.o)
 .debug_str     0x000067ed       0x12 ../StereoCameraServer_bsp/libucosii_bsp.a(iface.o)
 .debug_str     0x000067ff       0x2c ../StereoCameraServer_bsp/libucosii_bsp.a(ip.o)
 .debug_str     0x0000682b       0x4e ../StereoCameraServer_bsp/libucosii_bsp.a(ip_reasm.o)
 .debug_str     0x00006879       0x12 ../StereoCameraServer_bsp/libucosii_bsp.a(ipdemux.o)
 .debug_str     0x0000688b       0x12 ../StereoCameraServer_bsp/libucosii_bsp.a(ipmc.o)
 .debug_str     0x0000689d       0x12 ../StereoCameraServer_bsp/libucosii_bsp.a(ipport.o)
 .debug_str     0x000068af       0x12 ../StereoCameraServer_bsp/libucosii_bsp.a(ipraw.o)
 .debug_str     0x000068c1       0x12 ../StereoCameraServer_bsp/libucosii_bsp.a(iproute.o)
 .debug_str     0x000068d3       0x12 ../StereoCameraServer_bsp/libucosii_bsp.a(udp.o)
 .debug_str     0x000068e5       0x12 ../StereoCameraServer_bsp/libucosii_bsp.a(igmp.o)
 .debug_str     0x000068f7       0x20 ../StereoCameraServer_bsp/libucosii_bsp.a(igmp2.o)
 .debug_str     0x00006917       0x12 ../StereoCameraServer_bsp/libucosii_bsp.a(ipopt.o)
 .debug_str     0x00006929       0x12 ../StereoCameraServer_bsp/libucosii_bsp.a(u_mctest.o)
 .debug_str     0x0000693b       0x1b ../StereoCameraServer_bsp/libucosii_bsp.a(memdev.o)
 .debug_str     0x00006956       0x12 ../StereoCameraServer_bsp/libucosii_bsp.a(parseip.o)
 .debug_str     0x00006968       0x12 ../StereoCameraServer_bsp/libucosii_bsp.a(tcpcksum.o)
 .debug_str     0x0000697a       0x12 ../StereoCameraServer_bsp/libucosii_bsp.a(udp_open.o)
 .debug_str     0x0000698c       0x12 ../StereoCameraServer_bsp/libucosii_bsp.a(in_pcb.o)
 .debug_str     0x0000699e       0x2b ../StereoCameraServer_bsp/libucosii_bsp.a(vfsfiles.o)
 .debug_str     0x000069c9       0x12 ../StereoCameraServer_bsp/libucosii_bsp.a(vfsport.o)
 .debug_str     0x000069db       0x12 ../StereoCameraServer_bsp/libucosii_bsp.a(alt_busy_sleep.o)
 .debug_str     0x000069ed       0x12 ../StereoCameraServer_bsp/libucosii_bsp.a(alt_icache_flush.o)
 .debug_str     0x000069ff       0x12 ../StereoCameraServer_bsp/libucosii_bsp.a(icmp.o)
 .debug_str     0x00006a11       0x3b /opt/altera/10.1sp1/nios2eds/bin/gnu/H-i686-pc-linux-gnu/bin/../lib/gcc/nios2-elf/4.1.2/../../../../nios2-elf/lib/libc.a(lib_a-atexit.o)
                                0x1b1 (size before relaxing)
 .debug_str     0x00006a4c       0x42 /opt/altera/10.1sp1/nios2eds/bin/gnu/H-i686-pc-linux-gnu/bin/../lib/gcc/nios2-elf/4.1.2/../../../../nios2-elf/lib/libc.a(lib_a-calloc.o)
                                0x502 (size before relaxing)
 .debug_str     0x00006a8e       0x39 /opt/altera/10.1sp1/nios2eds/bin/gnu/H-i686-pc-linux-gnu/bin/../lib/gcc/nios2-elf/4.1.2/../../../../nios2-elf/lib/libc.a(lib_a-exit.o)
                                0x4fe (size before relaxing)
 .debug_str     0x00006ac7       0x4e /opt/altera/10.1sp1/nios2eds/bin/gnu/H-i686-pc-linux-gnu/bin/../lib/gcc/nios2-elf/4.1.2/../../../../nios2-elf/lib/libc.a(lib_a-vprintf.o)
                                0x518 (size before relaxing)
 .debug_str     0x00006b15       0x51 /opt/altera/10.1sp1/nios2eds/bin/gnu/H-i686-pc-linux-gnu/bin/../lib/gcc/nios2-elf/4.1.2/../../../../nios2-elf/lib/libc.a(lib_a-vsprintf.o)
                                0x520 (size before relaxing)
 .debug_str     0x00006b66       0x51 /opt/altera/10.1sp1/nios2eds/bin/gnu/H-i686-pc-linux-gnu/bin/../lib/gcc/nios2-elf/4.1.2/../../../../nios2-elf/lib/libc.a(lib_a-__atexit.o)
                                0x516 (size before relaxing)
 .debug_str     0x00006bb7       0x7b /opt/altera/10.1sp1/nios2eds/bin/gnu/H-i686-pc-linux-gnu/bin/../lib/gcc/nios2-elf/4.1.2/../../../../nios2-elf/lib/libc.a(lib_a-__call_atexit.o)
                                0x540 (size before relaxing)

.debug_loc      0x00000000    0x2093d
 *(.debug_loc)
 .debug_loc     0x00000000       0x2b obj/alt_error_handler.o
 .debug_loc     0x0000002b      0x103 obj/altera_avalon_uart_init.o
 .debug_loc     0x0000012e       0x57 obj/altera_avalon_uart_read.o
 .debug_loc     0x00000185      0x48c obj/http.o
 .debug_loc     0x00000611      0x159 obj/network_utilities.o
 .debug_loc     0x0000076a       0x84 obj/srec_flash.o
 .debug_loc     0x000007ee      0x183 obj/web_server.o
 .debug_loc     0x00000971      0x408 obj/Camera.o
 .debug_loc     0x00000d79      0x186 obj/StereoCamera.o
 .debug_loc     0x00000eff       0xad obj/cam_control.o
 .debug_loc     0x00000fac      0xf02 /opt/altera/10.1sp1/nios2eds/bin/gnu/H-i686-pc-linux-gnu/bin/../lib/gcc/nios2-elf/4.1.2/../../../../nios2-elf/lib/libstdc++.a(eh_personality.o)
 .debug_loc     0x00001eae      0x16b /opt/altera/10.1sp1/nios2eds/bin/gnu/H-i686-pc-linux-gnu/bin/../lib/gcc/nios2-elf/4.1.2/../../../../nios2-elf/lib/libstdc++.a(eh_throw.o)
 .debug_loc     0x00002019       0x3d /opt/altera/10.1sp1/nios2eds/bin/gnu/H-i686-pc-linux-gnu/bin/../lib/gcc/nios2-elf/4.1.2/../../../../nios2-elf/lib/libstdc++.a(eh_call.o)
 .debug_loc     0x00002056      0x1c3 /opt/altera/10.1sp1/nios2eds/bin/gnu/H-i686-pc-linux-gnu/bin/../lib/gcc/nios2-elf/4.1.2/../../../../nios2-elf/lib/libstdc++.a(eh_catch.o)
 .debug_loc     0x00002219       0x81 /opt/altera/10.1sp1/nios2eds/bin/gnu/H-i686-pc-linux-gnu/bin/../lib/gcc/nios2-elf/4.1.2/../../../../nios2-elf/lib/libstdc++.a(eh_exception.o)
 .debug_loc     0x0000229a       0xc8 /opt/altera/10.1sp1/nios2eds/bin/gnu/H-i686-pc-linux-gnu/bin/../lib/gcc/nios2-elf/4.1.2/../../../../nios2-elf/lib/libstdc++.a(eh_terminate.o)
 .debug_loc     0x00002362      0x390 /opt/altera/10.1sp1/nios2eds/bin/gnu/H-i686-pc-linux-gnu/bin/../lib/gcc/nios2-elf/4.1.2/../../../../nios2-elf/lib/libstdc++.a(si_class_type_info.o)
 .debug_loc     0x000026f2      0x112 /opt/altera/10.1sp1/nios2eds/bin/gnu/H-i686-pc-linux-gnu/bin/../lib/gcc/nios2-elf/4.1.2/../../../../nios2-elf/lib/libstdc++.a(eh_alloc.o)
 .debug_loc     0x00002804       0x13 /opt/altera/10.1sp1/nios2eds/bin/gnu/H-i686-pc-linux-gnu/bin/../lib/gcc/nios2-elf/4.1.2/../../../../nios2-elf/lib/libstdc++.a(tinfo.o)
 .debug_loc     0x00002817       0x1e /opt/altera/10.1sp1/nios2eds/bin/gnu/H-i686-pc-linux-gnu/bin/../lib/gcc/nios2-elf/4.1.2/../../../../nios2-elf/lib/libstdc++.a(del_op.o)
 .debug_loc     0x00002835      0x26f /opt/altera/10.1sp1/nios2eds/bin/gnu/H-i686-pc-linux-gnu/bin/../lib/gcc/nios2-elf/4.1.2/../../../../nios2-elf/lib/libstdc++.a(class_type_info.o)
 .debug_loc     0x00002aa4      0x1d2 /opt/altera/10.1sp1/nios2eds/bin/gnu/H-i686-pc-linux-gnu/bin/../lib/gcc/nios2-elf/4.1.2/libgcc.a(lib2-divmod.o)
 .debug_loc     0x00002c76     0x1e02 /opt/altera/10.1sp1/nios2eds/bin/gnu/H-i686-pc-linux-gnu/bin/../lib/gcc/nios2-elf/4.1.2/libgcc.a(unwind-dw2.o)
 .debug_loc     0x00004a78     0x18dd /opt/altera/10.1sp1/nios2eds/bin/gnu/H-i686-pc-linux-gnu/bin/../lib/gcc/nios2-elf/4.1.2/libgcc.a(unwind-dw2-fde.o)
 .debug_loc     0x00006355       0x1f /opt/altera/10.1sp1/nios2eds/bin/gnu/H-i686-pc-linux-gnu/bin/../lib/gcc/nios2-elf/4.1.2/../../../../nios2-elf/lib/libc.a(lib_a-abort.o)
 .debug_loc     0x00006374       0x39 /opt/altera/10.1sp1/nios2eds/bin/gnu/H-i686-pc-linux-gnu/bin/../lib/gcc/nios2-elf/4.1.2/../../../../nios2-elf/lib/libc.a(lib_a-atoi.o)
 .debug_loc     0x000063ad       0xe4 /opt/altera/10.1sp1/nios2eds/bin/gnu/H-i686-pc-linux-gnu/bin/../lib/gcc/nios2-elf/4.1.2/../../../../nios2-elf/lib/libc.a(lib_a-fclose.o)
 .debug_loc     0x00006491      0x1f6 /opt/altera/10.1sp1/nios2eds/bin/gnu/H-i686-pc-linux-gnu/bin/../lib/gcc/nios2-elf/4.1.2/../../../../nios2-elf/lib/libc.a(lib_a-fflush.o)
 .debug_loc     0x00006687      0x10b /opt/altera/10.1sp1/nios2eds/bin/gnu/H-i686-pc-linux-gnu/bin/../lib/gcc/nios2-elf/4.1.2/../../../../nios2-elf/lib/libc.a(lib_a-fgetc.o)
 .debug_loc     0x00006792       0x9f /opt/altera/10.1sp1/nios2eds/bin/gnu/H-i686-pc-linux-gnu/bin/../lib/gcc/nios2-elf/4.1.2/../../../../nios2-elf/lib/libc.a(lib_a-fgetpos.o)
 .debug_loc     0x00006831       0x53 /opt/altera/10.1sp1/nios2eds/bin/gnu/H-i686-pc-linux-gnu/bin/../lib/gcc/nios2-elf/4.1.2/../../../../nios2-elf/lib/libc.a(lib_a-fileno.o)
 .debug_loc     0x00006884      0x19f /opt/altera/10.1sp1/nios2eds/bin/gnu/H-i686-pc-linux-gnu/bin/../lib/gcc/nios2-elf/4.1.2/../../../../nios2-elf/lib/libc.a(lib_a-findfp.o)
 .debug_loc     0x00006a23      0x1c9 /opt/altera/10.1sp1/nios2eds/bin/gnu/H-i686-pc-linux-gnu/bin/../lib/gcc/nios2-elf/4.1.2/../../../../nios2-elf/lib/libc.a(lib_a-fopen.o)
 .debug_loc     0x00006bec       0xf1 /opt/altera/10.1sp1/nios2eds/bin/gnu/H-i686-pc-linux-gnu/bin/../lib/gcc/nios2-elf/4.1.2/../../../../nios2-elf/lib/libc.a(lib_a-fprintf.o)
 .debug_loc     0x00006cdd      0x14d /opt/altera/10.1sp1/nios2eds/bin/gnu/H-i686-pc-linux-gnu/bin/../lib/gcc/nios2-elf/4.1.2/../../../../nios2-elf/lib/libc.a(lib_a-fputc.o)
 .debug_loc     0x00006e2a      0x303 /opt/altera/10.1sp1/nios2eds/bin/gnu/H-i686-pc-linux-gnu/bin/../lib/gcc/nios2-elf/4.1.2/../../../../nios2-elf/lib/libc.a(lib_a-fread.o)
 .debug_loc     0x0000712d      0x4a7 /opt/altera/10.1sp1/nios2eds/bin/gnu/H-i686-pc-linux-gnu/bin/../lib/gcc/nios2-elf/4.1.2/../../../../nios2-elf/lib/libc.a(lib_a-freer.o)
 .debug_loc     0x000075d4      0x348 /opt/altera/10.1sp1/nios2eds/bin/gnu/H-i686-pc-linux-gnu/bin/../lib/gcc/nios2-elf/4.1.2/../../../../nios2-elf/lib/libc.a(lib_a-fseek.o)
 .debug_loc     0x0000791c       0x79 /opt/altera/10.1sp1/nios2eds/bin/gnu/H-i686-pc-linux-gnu/bin/../lib/gcc/nios2-elf/4.1.2/../../../../nios2-elf/lib/libc.a(lib_a-fstatr.o)
 .debug_loc     0x00007995       0xe4 /opt/altera/10.1sp1/nios2eds/bin/gnu/H-i686-pc-linux-gnu/bin/../lib/gcc/nios2-elf/4.1.2/../../../../nios2-elf/lib/libc.a(lib_a-ftell.o)
 .debug_loc     0x00007a79      0x1d2 /opt/altera/10.1sp1/nios2eds/bin/gnu/H-i686-pc-linux-gnu/bin/../lib/gcc/nios2-elf/4.1.2/../../../../nios2-elf/lib/libc.a(lib_a-fwalk.o)
 .debug_loc     0x00007c4b      0x18e /opt/altera/10.1sp1/nios2eds/bin/gnu/H-i686-pc-linux-gnu/bin/../lib/gcc/nios2-elf/4.1.2/../../../../nios2-elf/lib/libc.a(lib_a-fwrite.o)
 .debug_loc     0x00007dd9      0x10b /opt/altera/10.1sp1/nios2eds/bin/gnu/H-i686-pc-linux-gnu/bin/../lib/gcc/nios2-elf/4.1.2/../../../../nios2-elf/lib/libc.a(lib_a-getc.o)
 .debug_loc     0x00007ee4      0x11c /opt/altera/10.1sp1/nios2eds/bin/gnu/H-i686-pc-linux-gnu/bin/../lib/gcc/nios2-elf/4.1.2/../../../../nios2-elf/lib/libc.a(lib_a-makebuf.o)
 .debug_loc     0x00008000       0x3c /opt/altera/10.1sp1/nios2eds/bin/gnu/H-i686-pc-linux-gnu/bin/../lib/gcc/nios2-elf/4.1.2/../../../../nios2-elf/lib/libc.a(lib_a-malloc.o)
 .debug_loc     0x0000803c      0xaeb /opt/altera/10.1sp1/nios2eds/bin/gnu/H-i686-pc-linux-gnu/bin/../lib/gcc/nios2-elf/4.1.2/../../../../nios2-elf/lib/libc.a(lib_a-mallocr.o)
 .debug_loc     0x00008b27       0xca /opt/altera/10.1sp1/nios2eds/bin/gnu/H-i686-pc-linux-gnu/bin/../lib/gcc/nios2-elf/4.1.2/../../../../nios2-elf/lib/libc.a(lib_a-memcpy.o)
 .debug_loc     0x00008bf1      0x117 /opt/altera/10.1sp1/nios2eds/bin/gnu/H-i686-pc-linux-gnu/bin/../lib/gcc/nios2-elf/4.1.2/../../../../nios2-elf/lib/libc.a(lib_a-memmove.o)
 .debug_loc     0x00008d08       0xa1 /opt/altera/10.1sp1/nios2eds/bin/gnu/H-i686-pc-linux-gnu/bin/../lib/gcc/nios2-elf/4.1.2/../../../../nios2-elf/lib/libc.a(lib_a-memset.o)
 .debug_loc     0x00008da9       0x97 /opt/altera/10.1sp1/nios2eds/bin/gnu/H-i686-pc-linux-gnu/bin/../lib/gcc/nios2-elf/4.1.2/../../../../nios2-elf/lib/libc.a(lib_a-openr.o)
 .debug_loc     0x00008e40       0xa2 /opt/altera/10.1sp1/nios2eds/bin/gnu/H-i686-pc-linux-gnu/bin/../lib/gcc/nios2-elf/4.1.2/../../../../nios2-elf/lib/libc.a(lib_a-perror.o)
 .debug_loc     0x00008ee2       0xcb /opt/altera/10.1sp1/nios2eds/bin/gnu/H-i686-pc-linux-gnu/bin/../lib/gcc/nios2-elf/4.1.2/../../../../nios2-elf/lib/libc.a(lib_a-printf.o)
 .debug_loc     0x00008fad      0x20d /opt/altera/10.1sp1/nios2eds/bin/gnu/H-i686-pc-linux-gnu/bin/../lib/gcc/nios2-elf/4.1.2/../../../../nios2-elf/lib/libc.a(lib_a-putc.o)
 .debug_loc     0x000091ba       0x44 /opt/altera/10.1sp1/nios2eds/bin/gnu/H-i686-pc-linux-gnu/bin/../lib/gcc/nios2-elf/4.1.2/../../../../nios2-elf/lib/libc.a(lib_a-putchar.o)
 .debug_loc     0x000091fe       0xa2 /opt/altera/10.1sp1/nios2eds/bin/gnu/H-i686-pc-linux-gnu/bin/../lib/gcc/nios2-elf/4.1.2/../../../../nios2-elf/lib/libc.a(lib_a-puts.o)
 .debug_loc     0x000092a0       0xd1 /opt/altera/10.1sp1/nios2eds/bin/gnu/H-i686-pc-linux-gnu/bin/../lib/gcc/nios2-elf/4.1.2/../../../../nios2-elf/lib/libc.a(lib_a-refill.o)
 .debug_loc     0x00009371       0x6e /opt/altera/10.1sp1/nios2eds/bin/gnu/H-i686-pc-linux-gnu/bin/../lib/gcc/nios2-elf/4.1.2/../../../../nios2-elf/lib/libc.a(lib_a-rget.o)
 .debug_loc     0x000093df       0x5b /opt/altera/10.1sp1/nios2eds/bin/gnu/H-i686-pc-linux-gnu/bin/../lib/gcc/nios2-elf/4.1.2/../../../../nios2-elf/lib/libc.a(lib_a-sbrkr.o)
 .debug_loc     0x0000943a      0x3b4 /opt/altera/10.1sp1/nios2eds/bin/gnu/H-i686-pc-linux-gnu/bin/../lib/gcc/nios2-elf/4.1.2/../../../../nios2-elf/lib/libc.a(lib_a-signal.o)
 .debug_loc     0x000097ee       0x8c /opt/altera/10.1sp1/nios2eds/bin/gnu/H-i686-pc-linux-gnu/bin/../lib/gcc/nios2-elf/4.1.2/../../../../nios2-elf/lib/libc.a(lib_a-signalr.o)
 .debug_loc     0x0000987a       0xc0 /opt/altera/10.1sp1/nios2eds/bin/gnu/H-i686-pc-linux-gnu/bin/../lib/gcc/nios2-elf/4.1.2/../../../../nios2-elf/lib/libc.a(lib_a-sprintf.o)
 .debug_loc     0x0000993a       0xc0 /opt/altera/10.1sp1/nios2eds/bin/gnu/H-i686-pc-linux-gnu/bin/../lib/gcc/nios2-elf/4.1.2/../../../../nios2-elf/lib/libc.a(lib_a-sscanf.o)
 .debug_loc     0x000099fa      0x21f /opt/altera/10.1sp1/nios2eds/bin/gnu/H-i686-pc-linux-gnu/bin/../lib/gcc/nios2-elf/4.1.2/../../../../nios2-elf/lib/libc.a(lib_a-stdio.o)
 .debug_loc     0x00009c19       0x88 /opt/altera/10.1sp1/nios2eds/bin/gnu/H-i686-pc-linux-gnu/bin/../lib/gcc/nios2-elf/4.1.2/../../../../nios2-elf/lib/libc.a(lib_a-strcasecmp.o)
 .debug_loc     0x00009ca1       0x8f /opt/altera/10.1sp1/nios2eds/bin/gnu/H-i686-pc-linux-gnu/bin/../lib/gcc/nios2-elf/4.1.2/../../../../nios2-elf/lib/libc.a(lib_a-strcat.o)
 .debug_loc     0x00009d30       0xf3 /opt/altera/10.1sp1/nios2eds/bin/gnu/H-i686-pc-linux-gnu/bin/../lib/gcc/nios2-elf/4.1.2/../../../../nios2-elf/lib/libc.a(lib_a-strchr.o)
 .debug_loc     0x00009e23       0x65 /opt/altera/10.1sp1/nios2eds/bin/gnu/H-i686-pc-linux-gnu/bin/../lib/gcc/nios2-elf/4.1.2/../../../../nios2-elf/lib/libc.a(lib_a-strcmp.o)
 .debug_loc     0x00009e88       0x8b /opt/altera/10.1sp1/nios2eds/bin/gnu/H-i686-pc-linux-gnu/bin/../lib/gcc/nios2-elf/4.1.2/../../../../nios2-elf/lib/libc.a(lib_a-strcpy.o)
 .debug_loc     0x00009f13      0x418 /opt/altera/10.1sp1/nios2eds/bin/gnu/H-i686-pc-linux-gnu/bin/../lib/gcc/nios2-elf/4.1.2/../../../../nios2-elf/lib/libc.a(lib_a-strerror.o)
 .debug_loc     0x0000a32b       0x3c /opt/altera/10.1sp1/nios2eds/bin/gnu/H-i686-pc-linux-gnu/bin/../lib/gcc/nios2-elf/4.1.2/../../../../nios2-elf/lib/libc.a(lib_a-strlen.o)
 .debug_loc     0x0000a367       0x78 /opt/altera/10.1sp1/nios2eds/bin/gnu/H-i686-pc-linux-gnu/bin/../lib/gcc/nios2-elf/4.1.2/../../../../nios2-elf/lib/libc.a(lib_a-strncmp.o)
 .debug_loc     0x0000a3df       0xeb /opt/altera/10.1sp1/nios2eds/bin/gnu/H-i686-pc-linux-gnu/bin/../lib/gcc/nios2-elf/4.1.2/../../../../nios2-elf/lib/libc.a(lib_a-strncpy.o)
 .debug_loc     0x0000a4ca      0xa24 /opt/altera/10.1sp1/nios2eds/bin/gnu/H-i686-pc-linux-gnu/bin/../lib/gcc/nios2-elf/4.1.2/../../../../nios2-elf/lib/libc.a(lib_a-strstr.o)
 .debug_loc     0x0000aeee       0x26 /opt/altera/10.1sp1/nios2eds/bin/gnu/H-i686-pc-linux-gnu/bin/../lib/gcc/nios2-elf/4.1.2/../../../../nios2-elf/lib/libc.a(lib_a-strtok.o)
 .debug_loc     0x0000af14       0xc7 /opt/altera/10.1sp1/nios2eds/bin/gnu/H-i686-pc-linux-gnu/bin/../lib/gcc/nios2-elf/4.1.2/../../../../nios2-elf/lib/libc.a(lib_a-strtok_r.o)
 .debug_loc     0x0000afdb      0x346 /opt/altera/10.1sp1/nios2eds/bin/gnu/H-i686-pc-linux-gnu/bin/../lib/gcc/nios2-elf/4.1.2/../../../../nios2-elf/lib/libc.a(lib_a-strtol.o)
 .debug_loc     0x0000b321     0x1e0d /opt/altera/10.1sp1/nios2eds/bin/gnu/H-i686-pc-linux-gnu/bin/../lib/gcc/nios2-elf/4.1.2/../../../../nios2-elf/lib/libc.a(lib_a-vfprintf.o)
 .debug_loc     0x0000d12e     0x13ff /opt/altera/10.1sp1/nios2eds/bin/gnu/H-i686-pc-linux-gnu/bin/../lib/gcc/nios2-elf/4.1.2/../../../../nios2-elf/lib/libc.a(lib_a-vfscanf.o)
 .debug_loc     0x0000e52d      0x157 /opt/altera/10.1sp1/nios2eds/bin/gnu/H-i686-pc-linux-gnu/bin/../lib/gcc/nios2-elf/4.1.2/../../../../nios2-elf/lib/libc.a(lib_a-wbuf.o)
 .debug_loc     0x0000e684       0x97 /opt/altera/10.1sp1/nios2eds/bin/gnu/H-i686-pc-linux-gnu/bin/../lib/gcc/nios2-elf/4.1.2/../../../../nios2-elf/lib/libc.a(lib_a-writer.o)
 .debug_loc     0x0000e71b       0x7c /opt/altera/10.1sp1/nios2eds/bin/gnu/H-i686-pc-linux-gnu/bin/../lib/gcc/nios2-elf/4.1.2/../../../../nios2-elf/lib/libc.a(lib_a-wsetup.o)
 .debug_loc     0x0000e797       0x5b /opt/altera/10.1sp1/nios2eds/bin/gnu/H-i686-pc-linux-gnu/bin/../lib/gcc/nios2-elf/4.1.2/../../../../nios2-elf/lib/libc.a(lib_a-closer.o)
 .debug_loc     0x0000e7f2     0x1dfa /opt/altera/10.1sp1/nios2eds/bin/gnu/H-i686-pc-linux-gnu/bin/../lib/gcc/nios2-elf/4.1.2/../../../../nios2-elf/lib/libc.a(lib_a-dtoa.o)
 .debug_loc     0x000105ec       0xa4 /opt/altera/10.1sp1/nios2eds/bin/gnu/H-i686-pc-linux-gnu/bin/../lib/gcc/nios2-elf/4.1.2/../../../../nios2-elf/lib/libc.a(lib_a-flags.o)
 .debug_loc     0x00010690       0xcb /opt/altera/10.1sp1/nios2eds/bin/gnu/H-i686-pc-linux-gnu/bin/../lib/gcc/nios2-elf/4.1.2/../../../../nios2-elf/lib/libc.a(lib_a-fputs.o)
 .debug_loc     0x0001075b      0x4e4 /opt/altera/10.1sp1/nios2eds/bin/gnu/H-i686-pc-linux-gnu/bin/../lib/gcc/nios2-elf/4.1.2/../../../../nios2-elf/lib/libc.a(lib_a-fvwrite.o)
 .debug_loc     0x00010c3f       0x5b /opt/altera/10.1sp1/nios2eds/bin/gnu/H-i686-pc-linux-gnu/bin/../lib/gcc/nios2-elf/4.1.2/../../../../nios2-elf/lib/libc.a(lib_a-isattyr.o)
 .debug_loc     0x00010c9a       0xe1 /opt/altera/10.1sp1/nios2eds/bin/gnu/H-i686-pc-linux-gnu/bin/../lib/gcc/nios2-elf/4.1.2/../../../../nios2-elf/lib/libc.a(lib_a-locale.o)
 .debug_loc     0x00010d7b       0x97 /opt/altera/10.1sp1/nios2eds/bin/gnu/H-i686-pc-linux-gnu/bin/../lib/gcc/nios2-elf/4.1.2/../../../../nios2-elf/lib/libc.a(lib_a-lseekr.o)
 .debug_loc     0x00010e12      0x182 /opt/altera/10.1sp1/nios2eds/bin/gnu/H-i686-pc-linux-gnu/bin/../lib/gcc/nios2-elf/4.1.2/../../../../nios2-elf/lib/libc.a(lib_a-mbrtowc.o)
 .debug_loc     0x00010f94       0x1f /opt/altera/10.1sp1/nios2eds/bin/gnu/H-i686-pc-linux-gnu/bin/../lib/gcc/nios2-elf/4.1.2/../../../../nios2-elf/lib/libc.a(lib_a-mbtowc_r.o)
 .debug_loc     0x00010fb3      0x106 /opt/altera/10.1sp1/nios2eds/bin/gnu/H-i686-pc-linux-gnu/bin/../lib/gcc/nios2-elf/4.1.2/../../../../nios2-elf/lib/libc.a(lib_a-memchr.o)
 .debug_loc     0x000110b9      0x114 /opt/altera/10.1sp1/nios2eds/bin/gnu/H-i686-pc-linux-gnu/bin/../lib/gcc/nios2-elf/4.1.2/../../../../nios2-elf/lib/libc.a(lib_a-memcmp.o)
 .debug_loc     0x000111cd     0x14d6 /opt/altera/10.1sp1/nios2eds/bin/gnu/H-i686-pc-linux-gnu/bin/../lib/gcc/nios2-elf/4.1.2/../../../../nios2-elf/lib/libc.a(lib_a-mprec.o)
 .debug_loc     0x000126a3       0x97 /opt/altera/10.1sp1/nios2eds/bin/gnu/H-i686-pc-linux-gnu/bin/../lib/gcc/nios2-elf/4.1.2/../../../../nios2-elf/lib/libc.a(lib_a-readr.o)
 .debug_loc     0x0001273a      0x8c0 /opt/altera/10.1sp1/nios2eds/bin/gnu/H-i686-pc-linux-gnu/bin/../lib/gcc/nios2-elf/4.1.2/../../../../nios2-elf/lib/libc.a(lib_a-reallocr.o)
 .debug_loc     0x00012ffa       0x36 /opt/altera/10.1sp1/nios2eds/bin/gnu/H-i686-pc-linux-gnu/bin/../lib/gcc/nios2-elf/4.1.2/../../../../nios2-elf/lib/libc.a(lib_a-s_isinfd.o)
 .debug_loc     0x00013030       0x18 /opt/altera/10.1sp1/nios2eds/bin/gnu/H-i686-pc-linux-gnu/bin/../lib/gcc/nios2-elf/4.1.2/../../../../nios2-elf/lib/libc.a(lib_a-s_isnand.o)
 .debug_loc     0x00013048       0xdb /opt/altera/10.1sp1/nios2eds/bin/gnu/H-i686-pc-linux-gnu/bin/../lib/gcc/nios2-elf/4.1.2/../../../../nios2-elf/lib/libc.a(lib_a-sccl.o)
 .debug_loc     0x00013123     0x243e /opt/altera/10.1sp1/nios2eds/bin/gnu/H-i686-pc-linux-gnu/bin/../lib/gcc/nios2-elf/4.1.2/../../../../nios2-elf/lib/libc.a(lib_a-strtod.o)
 .debug_loc     0x00015561      0x30f /opt/altera/10.1sp1/nios2eds/bin/gnu/H-i686-pc-linux-gnu/bin/../lib/gcc/nios2-elf/4.1.2/../../../../nios2-elf/lib/libc.a(lib_a-strtoll_r.o)
 .debug_loc     0x00015870      0x263 /opt/altera/10.1sp1/nios2eds/bin/gnu/H-i686-pc-linux-gnu/bin/../lib/gcc/nios2-elf/4.1.2/../../../../nios2-elf/lib/libc.a(lib_a-strtoul.o)
 .debug_loc     0x00015ad3      0x282 /opt/altera/10.1sp1/nios2eds/bin/gnu/H-i686-pc-linux-gnu/bin/../lib/gcc/nios2-elf/4.1.2/../../../../nios2-elf/lib/libc.a(lib_a-strtoull_r.o)
 .debug_loc     0x00015d55      0x207 /opt/altera/10.1sp1/nios2eds/bin/gnu/H-i686-pc-linux-gnu/bin/../lib/gcc/nios2-elf/4.1.2/../../../../nios2-elf/lib/libc.a(lib_a-ungetc.o)
 .debug_loc     0x00015f5c       0xe9 /opt/altera/10.1sp1/nios2eds/bin/gnu/H-i686-pc-linux-gnu/bin/../lib/gcc/nios2-elf/4.1.2/../../../../nios2-elf/lib/libc.a(lib_a-callocr.o)
 .debug_loc     0x00016045      0xad2 /opt/altera/10.1sp1/nios2eds/bin/gnu/H-i686-pc-linux-gnu/bin/../lib/gcc/nios2-elf/4.1.2/../../../../nios2-elf/lib/libc.a(lib_a-gdtoa-gethex.o)
 .debug_loc     0x00016b17      0x2a6 /opt/altera/10.1sp1/nios2eds/bin/gnu/H-i686-pc-linux-gnu/bin/../lib/gcc/nios2-elf/4.1.2/../../../../nios2-elf/lib/libc.a(lib_a-gdtoa-hexnan.o)
 .debug_loc     0x00016dbd       0xcf /opt/altera/10.1sp1/nios2eds/bin/gnu/H-i686-pc-linux-gnu/bin/../lib/gcc/nios2-elf/4.1.2/libgcc.a(_muldi3.o)
 .debug_loc     0x00016e8c       0x87 /opt/altera/10.1sp1/nios2eds/bin/gnu/H-i686-pc-linux-gnu/bin/../lib/gcc/nios2-elf/4.1.2/libgcc.a(_fixunsdfsi.o)
 .debug_loc     0x00016f13      0xc12 /opt/altera/10.1sp1/nios2eds/bin/gnu/H-i686-pc-linux-gnu/bin/../lib/gcc/nios2-elf/4.1.2/libgcc.a(_udivdi3.o)
 .debug_loc     0x00017b25      0xc31 /opt/altera/10.1sp1/nios2eds/bin/gnu/H-i686-pc-linux-gnu/bin/../lib/gcc/nios2-elf/4.1.2/libgcc.a(_umoddi3.o)
 .debug_loc     0x00018756       0x45 /opt/altera/10.1sp1/nios2eds/bin/gnu/H-i686-pc-linux-gnu/bin/../lib/gcc/nios2-elf/4.1.2/libgcc.a(_ne_sf.o)
 .debug_loc     0x0001879b       0x45 /opt/altera/10.1sp1/nios2eds/bin/gnu/H-i686-pc-linux-gnu/bin/../lib/gcc/nios2-elf/4.1.2/libgcc.a(_gt_sf.o)
 .debug_loc     0x000187e0       0x45 /opt/altera/10.1sp1/nios2eds/bin/gnu/H-i686-pc-linux-gnu/bin/../lib/gcc/nios2-elf/4.1.2/libgcc.a(_lt_sf.o)
 .debug_loc     0x00018825      0x47a /opt/altera/10.1sp1/nios2eds/bin/gnu/H-i686-pc-linux-gnu/bin/../lib/gcc/nios2-elf/4.1.2/libgcc.a(_addsub_df.o)
 .debug_loc     0x00018c9f      0x3b4 /opt/altera/10.1sp1/nios2eds/bin/gnu/H-i686-pc-linux-gnu/bin/../lib/gcc/nios2-elf/4.1.2/libgcc.a(_mul_df.o)
 .debug_loc     0x00019053      0x1df /opt/altera/10.1sp1/nios2eds/bin/gnu/H-i686-pc-linux-gnu/bin/../lib/gcc/nios2-elf/4.1.2/libgcc.a(_div_df.o)
 .debug_loc     0x00019232       0x70 /opt/altera/10.1sp1/nios2eds/bin/gnu/H-i686-pc-linux-gnu/bin/../lib/gcc/nios2-elf/4.1.2/libgcc.a(_eq_df.o)
 .debug_loc     0x000192a2       0x70 /opt/altera/10.1sp1/nios2eds/bin/gnu/H-i686-pc-linux-gnu/bin/../lib/gcc/nios2-elf/4.1.2/libgcc.a(_ne_df.o)
 .debug_loc     0x00019312       0x70 /opt/altera/10.1sp1/nios2eds/bin/gnu/H-i686-pc-linux-gnu/bin/../lib/gcc/nios2-elf/4.1.2/libgcc.a(_gt_df.o)
 .debug_loc     0x00019382       0x70 /opt/altera/10.1sp1/nios2eds/bin/gnu/H-i686-pc-linux-gnu/bin/../lib/gcc/nios2-elf/4.1.2/libgcc.a(_ge_df.o)
 .debug_loc     0x000193f2       0x70 /opt/altera/10.1sp1/nios2eds/bin/gnu/H-i686-pc-linux-gnu/bin/../lib/gcc/nios2-elf/4.1.2/libgcc.a(_lt_df.o)
 .debug_loc     0x00019462       0x70 /opt/altera/10.1sp1/nios2eds/bin/gnu/H-i686-pc-linux-gnu/bin/../lib/gcc/nios2-elf/4.1.2/libgcc.a(_le_df.o)
 .debug_loc     0x000194d2       0x9a /opt/altera/10.1sp1/nios2eds/bin/gnu/H-i686-pc-linux-gnu/bin/../lib/gcc/nios2-elf/4.1.2/libgcc.a(_si_to_df.o)
 .debug_loc     0x0001956c       0x8b /opt/altera/10.1sp1/nios2eds/bin/gnu/H-i686-pc-linux-gnu/bin/../lib/gcc/nios2-elf/4.1.2/libgcc.a(_df_to_si.o)
 .debug_loc     0x000195f7       0x6a /opt/altera/10.1sp1/nios2eds/bin/gnu/H-i686-pc-linux-gnu/bin/../lib/gcc/nios2-elf/4.1.2/libgcc.a(_df_to_sf.o)
 .debug_loc     0x00019661       0x5b /opt/altera/10.1sp1/nios2eds/bin/gnu/H-i686-pc-linux-gnu/bin/../lib/gcc/nios2-elf/4.1.2/libgcc.a(_usi_to_df.o)
 .debug_loc     0x000196bc       0x1e /opt/altera/10.1sp1/nios2eds/bin/gnu/H-i686-pc-linux-gnu/bin/../lib/gcc/nios2-elf/4.1.2/libgcc.a(_clzsi2.o)
 .debug_loc     0x000196da       0x31 /opt/altera/10.1sp1/nios2eds/bin/gnu/H-i686-pc-linux-gnu/bin/../lib/gcc/nios2-elf/4.1.2/libgcc.a(_unpack_sf.o)
 .debug_loc     0x0001970b       0x3c /opt/altera/10.1sp1/nios2eds/bin/gnu/H-i686-pc-linux-gnu/bin/../lib/gcc/nios2-elf/4.1.2/libgcc.a(_fpcmp_parts_sf.o)
 .debug_loc     0x00019747       0x6b /opt/altera/10.1sp1/nios2eds/bin/gnu/H-i686-pc-linux-gnu/bin/../lib/gcc/nios2-elf/4.1.2/libgcc.a(_make_sf.o)
 .debug_loc     0x000197b2      0x184 /opt/altera/10.1sp1/nios2eds/bin/gnu/H-i686-pc-linux-gnu/bin/../lib/gcc/nios2-elf/4.1.2/libgcc.a(_pack_df.o)
 .debug_loc     0x00019936       0xe5 /opt/altera/10.1sp1/nios2eds/bin/gnu/H-i686-pc-linux-gnu/bin/../lib/gcc/nios2-elf/4.1.2/libgcc.a(_unpack_df.o)
 .debug_loc     0x00019a1b       0xf9 /opt/altera/10.1sp1/nios2eds/bin/gnu/H-i686-pc-linux-gnu/bin/../lib/gcc/nios2-elf/4.1.2/libgcc.a(_pack_sf.o)
 .debug_loc     0x00019b14       0x2b ../StereoCameraServer_bsp/libucosii_bsp.a(alt_dcache_flush.o)
 .debug_loc     0x00019b3f       0x56 ../StereoCameraServer_bsp/libucosii_bsp.a(alt_exit.o)
 .debug_loc     0x00019b95       0x56 ../StereoCameraServer_bsp/libucosii_bsp.a(alt_flash_dev.o)
 .debug_loc     0x00019beb       0x56 ../StereoCameraServer_bsp/libucosii_bsp.a(alt_fstat.o)
 .debug_loc     0x00019c41       0x2b ../StereoCameraServer_bsp/libucosii_bsp.a(alt_getpid.o)
 .debug_loc     0x00019c6c       0x2c ../StereoCameraServer_bsp/libucosii_bsp.a(alt_irq_register.o)
 .debug_loc     0x00019c98       0x57 ../StereoCameraServer_bsp/libucosii_bsp.a(alt_isatty.o)
 .debug_loc     0x00019cef       0x56 ../StereoCameraServer_bsp/libucosii_bsp.a(alt_kill.o)
 .debug_loc     0x00019d45       0x56 ../StereoCameraServer_bsp/libucosii_bsp.a(alt_load.o)
 .debug_loc     0x00019d9b       0x56 ../StereoCameraServer_bsp/libucosii_bsp.a(alt_lseek.o)
 .debug_loc     0x00019df1       0x2b ../StereoCameraServer_bsp/libucosii_bsp.a(alt_main.o)
 .debug_loc     0x00019e1c       0x81 ../StereoCameraServer_bsp/libucosii_bsp.a(alt_open.o)
 .debug_loc     0x00019e9d       0x2b ../StereoCameraServer_bsp/libucosii_bsp.a(alt_release_fd.o)
 .debug_loc     0x00019ec8       0x2b ../StereoCameraServer_bsp/libucosii_bsp.a(alt_sbrk.o)
 .debug_loc     0x00019ef3       0x56 ../StereoCameraServer_bsp/libucosii_bsp.a(alt_tick.o)
 .debug_loc     0x00019f49       0x57 ../StereoCameraServer_bsp/libucosii_bsp.a(alt_env_lock.o)
 .debug_loc     0x00019fa0       0x57 ../StereoCameraServer_bsp/libucosii_bsp.a(alt_malloc_lock.o)
 .debug_loc     0x00019ff7      0x5e2 ../StereoCameraServer_bsp/libucosii_bsp.a(os_core.o)
 .debug_loc     0x0001a5d9       0x2b ../StereoCameraServer_bsp/libucosii_bsp.a(os_dbg.o)
 .debug_loc     0x0001a604      0x232 ../StereoCameraServer_bsp/libucosii_bsp.a(os_flag.o)
 .debug_loc     0x0001a836      0x158 ../StereoCameraServer_bsp/libucosii_bsp.a(os_mbox.o)
 .debug_loc     0x0001a98e      0x12d ../StereoCameraServer_bsp/libucosii_bsp.a(os_mem.o)
 .debug_loc     0x0001aabb      0x1da ../StereoCameraServer_bsp/libucosii_bsp.a(os_q.o)
 .debug_loc     0x0001ac95      0x158 ../StereoCameraServer_bsp/libucosii_bsp.a(os_sem.o)
 .debug_loc     0x0001aded      0x207 ../StereoCameraServer_bsp/libucosii_bsp.a(os_task.o)
 .debug_loc     0x0001aff4       0xd7 ../StereoCameraServer_bsp/libucosii_bsp.a(os_time.o)
 .debug_loc     0x0001b0cb       0x81 ../StereoCameraServer_bsp/libucosii_bsp.a(alt_sys_init.o)
 .debug_loc     0x0001b14c      0x12e ../StereoCameraServer_bsp/libucosii_bsp.a(altera_avalon_cfi_flash.o)
 .debug_loc     0x0001b27a      0x306 ../StereoCameraServer_bsp/libucosii_bsp.a(altera_avalon_cfi_flash_table.o)
 .debug_loc     0x0001b580       0xac ../StereoCameraServer_bsp/libucosii_bsp.a(altera_avalon_jtag_uart_fd.o)
 .debug_loc     0x0001b62c       0xac ../StereoCameraServer_bsp/libucosii_bsp.a(altera_avalon_jtag_uart_init.o)
 .debug_loc     0x0001b6d8       0x2b ../StereoCameraServer_bsp/libucosii_bsp.a(altera_avalon_jtag_uart_ioctl.o)
 .debug_loc     0x0001b703       0x2c ../StereoCameraServer_bsp/libucosii_bsp.a(altera_avalon_jtag_uart_read.o)
 .debug_loc     0x0001b72f       0x2c ../StereoCameraServer_bsp/libucosii_bsp.a(altera_avalon_jtag_uart_write.o)
 .debug_loc     0x0001b75b      0x184 ../StereoCameraServer_bsp/libucosii_bsp.a(altera_avalon_lcd_16207.o)
 .debug_loc     0x0001b8df       0x2b ../StereoCameraServer_bsp/libucosii_bsp.a(altera_avalon_lcd_16207_fd.o)
 .debug_loc     0x0001b90a       0x56 ../StereoCameraServer_bsp/libucosii_bsp.a(altera_avalon_timer_sc.o)
 .debug_loc     0x0001b960       0x81 ../StereoCameraServer_bsp/libucosii_bsp.a(altera_avalon_uart_fd.o)
 .debug_loc     0x0001b9e1       0x57 ../StereoCameraServer_bsp/libucosii_bsp.a(altera_avalon_uart_write.o)
 .debug_loc     0x0001ba38      0x285 ../StereoCameraServer_bsp/libucosii_bsp.a(altera_ro_zipfs.o)
 .debug_loc     0x0001bcbd      0x25a ../StereoCameraServer_bsp/libucosii_bsp.a(dm9000a.o)
 .debug_loc     0x0001bf17       0x2b ../StereoCameraServer_bsp/libucosii_bsp.a(alt_iniche_close.o)
 .debug_loc     0x0001bf42       0x2b ../StereoCameraServer_bsp/libucosii_bsp.a(alt_iniche_dev.o)
 .debug_loc     0x0001bf6d       0x2b ../StereoCameraServer_bsp/libucosii_bsp.a(alt_iniche_fcntl.o)
 .debug_loc     0x0001bf98       0x2b ../StereoCameraServer_bsp/libucosii_bsp.a(alt_iniche_read.o)
 .debug_loc     0x0001bfc3       0x2b ../StereoCameraServer_bsp/libucosii_bsp.a(alt_iniche_write.o)
 .debug_loc     0x0001bfee      0x102 ../StereoCameraServer_bsp/libucosii_bsp.a(ipnet.o)
 .debug_loc     0x0001c0f0       0xac ../StereoCameraServer_bsp/libucosii_bsp.a(ipstart.o)
 .debug_loc     0x0001c19c      0x159 ../StereoCameraServer_bsp/libucosii_bsp.a(igmp_cmn.o)
 .debug_loc     0x0001c2f5      0x1af ../StereoCameraServer_bsp/libucosii_bsp.a(bsdsock.o)
 .debug_loc     0x0001c4a4       0x56 ../StereoCameraServer_bsp/libucosii_bsp.a(cksum.o)
 .debug_loc     0x0001c4fa      0x204 ../StereoCameraServer_bsp/libucosii_bsp.a(in_utils.o)
 .debug_loc     0x0001c6fe       0x81 ../StereoCameraServer_bsp/libucosii_bsp.a(netmain.o)
 .debug_loc     0x0001c77f      0x12f ../StereoCameraServer_bsp/libucosii_bsp.a(tk_crnos.o)
 .debug_loc     0x0001c8ae      0x102 ../StereoCameraServer_bsp/libucosii_bsp.a(pktalloc.o)
 .debug_loc     0x0001c9b0       0x81 ../StereoCameraServer_bsp/libucosii_bsp.a(q.o)
 .debug_loc     0x0001ca31      0x158 ../StereoCameraServer_bsp/libucosii_bsp.a(brdutils.o)
 .debug_loc     0x0001cb89       0xd8 ../StereoCameraServer_bsp/libucosii_bsp.a(osportco.o)
 .debug_loc     0x0001cc61      0x183 ../StereoCameraServer_bsp/libucosii_bsp.a(targnios.o)
 .debug_loc     0x0001cde4      0x306 ../StereoCameraServer_bsp/libucosii_bsp.a(nptcp.o)
 .debug_loc     0x0001d0ea       0x82 ../StereoCameraServer_bsp/libucosii_bsp.a(rawsock.o)
 .debug_loc     0x0001d16c      0x332 ../StereoCameraServer_bsp/libucosii_bsp.a(sockcall.o)
 .debug_loc     0x0001d49e      0x2b1 ../StereoCameraServer_bsp/libucosii_bsp.a(socket.o)
 .debug_loc     0x0001d74f      0x3dd ../StereoCameraServer_bsp/libucosii_bsp.a(socket2.o)
 .debug_loc     0x0001db2c      0x184 ../StereoCameraServer_bsp/libucosii_bsp.a(soselect.o)
 .debug_loc     0x0001dcb0      0x12e ../StereoCameraServer_bsp/libucosii_bsp.a(tcp_in.o)
 .debug_loc     0x0001ddde       0x82 ../StereoCameraServer_bsp/libucosii_bsp.a(tcp_out.o)
 .debug_loc     0x0001de60      0x183 ../StereoCameraServer_bsp/libucosii_bsp.a(tcp_subr.o)
 .debug_loc     0x0001dfe3       0x81 ../StereoCameraServer_bsp/libucosii_bsp.a(tcp_timr.o)
 .debug_loc     0x0001e064       0xac ../StereoCameraServer_bsp/libucosii_bsp.a(tcp_usr.o)
 .debug_loc     0x0001e110       0x2b ../StereoCameraServer_bsp/libucosii_bsp.a(tcpport.o)
 .debug_loc     0x0001e13b      0x102 ../StereoCameraServer_bsp/libucosii_bsp.a(udpsock.o)
 .debug_loc     0x0001e23d       0x2b ../StereoCameraServer_bsp/libucosii_bsp.a(alt_alarm_start.o)
 .debug_loc     0x0001e268       0x56 ../StereoCameraServer_bsp/libucosii_bsp.a(alt_close.o)
 .debug_loc     0x0001e2be       0x2b ../StereoCameraServer_bsp/libucosii_bsp.a(alt_dcache_flush_all.o)
 .debug_loc     0x0001e2e9       0x2b ../StereoCameraServer_bsp/libucosii_bsp.a(alt_dev.o)
 .debug_loc     0x0001e314       0x56 ../StereoCameraServer_bsp/libucosii_bsp.a(alt_dev_llist_insert.o)
 .debug_loc     0x0001e36a       0x2b ../StereoCameraServer_bsp/libucosii_bsp.a(alt_do_ctors.o)
 .debug_loc     0x0001e395       0x2b ../StereoCameraServer_bsp/libucosii_bsp.a(alt_do_dtors.o)
 .debug_loc     0x0001e3c0       0x56 ../StereoCameraServer_bsp/libucosii_bsp.a(alt_fcntl.o)
 .debug_loc     0x0001e416       0x2b ../StereoCameraServer_bsp/libucosii_bsp.a(alt_find_dev.o)
 .debug_loc     0x0001e441       0x2b ../StereoCameraServer_bsp/libucosii_bsp.a(alt_find_file.o)
 .debug_loc     0x0001e46c       0x2b ../StereoCameraServer_bsp/libucosii_bsp.a(alt_fs_reg.o)
 .debug_loc     0x0001e497       0x2b ../StereoCameraServer_bsp/libucosii_bsp.a(alt_get_fd.o)
 .debug_loc     0x0001e4c2       0x2b ../StereoCameraServer_bsp/libucosii_bsp.a(alt_icache_flush_all.o)
 .debug_loc     0x0001e4ed       0x56 ../StereoCameraServer_bsp/libucosii_bsp.a(alt_io_redirect.o)
 .debug_loc     0x0001e543       0x2b ../StereoCameraServer_bsp/libucosii_bsp.a(alt_irq_handler.o)
 .debug_loc     0x0001e56e       0x56 ../StereoCameraServer_bsp/libucosii_bsp.a(alt_read.o)
 .debug_loc     0x0001e5c4       0x2b ../StereoCameraServer_bsp/libucosii_bsp.a(alt_remap_cached.o)
 .debug_loc     0x0001e5ef       0x2b ../StereoCameraServer_bsp/libucosii_bsp.a(alt_remap_uncached.o)
 .debug_loc     0x0001e61a       0x2b ../StereoCameraServer_bsp/libucosii_bsp.a(alt_usleep.o)
 .debug_loc     0x0001e645       0x56 ../StereoCameraServer_bsp/libucosii_bsp.a(alt_write.o)
 .debug_loc     0x0001e69b       0x2b ../StereoCameraServer_bsp/libucosii_bsp.a(altera_nios2_irq.o)
 .debug_loc     0x0001e6c6      0x1ae ../StereoCameraServer_bsp/libucosii_bsp.a(os_cpu_c.o)
 .debug_loc     0x0001e874       0xac ../StereoCameraServer_bsp/libucosii_bsp.a(altera_avalon_cfi_flash_amd.o)
 .debug_loc     0x0001e920       0xac ../StereoCameraServer_bsp/libucosii_bsp.a(altera_avalon_cfi_flash_intel.o)
 .debug_loc     0x0001e9cc      0x12d ../StereoCameraServer_bsp/libucosii_bsp.a(allports.o)
 .debug_loc     0x0001eaf9       0xac ../StereoCameraServer_bsp/libucosii_bsp.a(timeouts.o)
 .debug_loc     0x0001eba5       0x56 ../StereoCameraServer_bsp/libucosii_bsp.a(tk_misc.o)
 .debug_loc     0x0001ebfb      0x204 ../StereoCameraServer_bsp/libucosii_bsp.a(et_arp.o)
 .debug_loc     0x0001edff       0xac ../StereoCameraServer_bsp/libucosii_bsp.a(iface.o)
 .debug_loc     0x0001eeab      0x207 ../StereoCameraServer_bsp/libucosii_bsp.a(ip.o)
 .debug_loc     0x0001f0b2      0x2b2 ../StereoCameraServer_bsp/libucosii_bsp.a(ip_reasm.o)
 .debug_loc     0x0001f364       0x81 ../StereoCameraServer_bsp/libucosii_bsp.a(ipdemux.o)
 .debug_loc     0x0001f3e5       0x81 ../StereoCameraServer_bsp/libucosii_bsp.a(ipmc.o)
 .debug_loc     0x0001f466       0x81 ../StereoCameraServer_bsp/libucosii_bsp.a(ipport.o)
 .debug_loc     0x0001f4e7      0x102 ../StereoCameraServer_bsp/libucosii_bsp.a(ipraw.o)
 .debug_loc     0x0001f5e9       0x81 ../StereoCameraServer_bsp/libucosii_bsp.a(iproute.o)
 .debug_loc     0x0001f66a      0x12f ../StereoCameraServer_bsp/libucosii_bsp.a(udp.o)
 .debug_loc     0x0001f799       0x2b ../StereoCameraServer_bsp/libucosii_bsp.a(igmp.o)
 .debug_loc     0x0001f7c4       0xd7 ../StereoCameraServer_bsp/libucosii_bsp.a(igmp2.o)
 .debug_loc     0x0001f89b       0xac ../StereoCameraServer_bsp/libucosii_bsp.a(ipopt.o)
 .debug_loc     0x0001f947       0x57 ../StereoCameraServer_bsp/libucosii_bsp.a(u_mctest.o)
 .debug_loc     0x0001f99e      0x183 ../StereoCameraServer_bsp/libucosii_bsp.a(memdev.o)
 .debug_loc     0x0001fb21      0x183 ../StereoCameraServer_bsp/libucosii_bsp.a(parseip.o)
 .debug_loc     0x0001fca4       0x2b ../StereoCameraServer_bsp/libucosii_bsp.a(tcpcksum.o)
 .debug_loc     0x0001fccf       0x56 ../StereoCameraServer_bsp/libucosii_bsp.a(udp_open.o)
 .debug_loc     0x0001fd25      0x158 ../StereoCameraServer_bsp/libucosii_bsp.a(in_pcb.o)
 .debug_loc     0x0001fe7d      0x4b4 ../StereoCameraServer_bsp/libucosii_bsp.a(vfsfiles.o)
 .debug_loc     0x00020331       0x2b ../StereoCameraServer_bsp/libucosii_bsp.a(vfsport.o)
 .debug_loc     0x0002035c       0x2b ../StereoCameraServer_bsp/libucosii_bsp.a(alt_busy_sleep.o)
 .debug_loc     0x00020387       0x2b ../StereoCameraServer_bsp/libucosii_bsp.a(alt_icache_flush.o)
 .debug_loc     0x000203b2       0xad ../StereoCameraServer_bsp/libucosii_bsp.a(icmp.o)
 .debug_loc     0x0002045f       0x1e /opt/altera/10.1sp1/nios2eds/bin/gnu/H-i686-pc-linux-gnu/bin/../lib/gcc/nios2-elf/4.1.2/../../../../nios2-elf/lib/libc.a(lib_a-atexit.o)
 .debug_loc     0x0002047d       0x3c /opt/altera/10.1sp1/nios2eds/bin/gnu/H-i686-pc-linux-gnu/bin/../lib/gcc/nios2-elf/4.1.2/../../../../nios2-elf/lib/libc.a(lib_a-calloc.o)
 .debug_loc     0x000204b9       0x3d /opt/altera/10.1sp1/nios2eds/bin/gnu/H-i686-pc-linux-gnu/bin/../lib/gcc/nios2-elf/4.1.2/../../../../nios2-elf/lib/libc.a(lib_a-exit.o)
 .debug_loc     0x000204f6       0x8b /opt/altera/10.1sp1/nios2eds/bin/gnu/H-i686-pc-linux-gnu/bin/../lib/gcc/nios2-elf/4.1.2/../../../../nios2-elf/lib/libc.a(lib_a-vprintf.o)
 .debug_loc     0x00020581       0xd1 /opt/altera/10.1sp1/nios2eds/bin/gnu/H-i686-pc-linux-gnu/bin/../lib/gcc/nios2-elf/4.1.2/../../../../nios2-elf/lib/libc.a(lib_a-vsprintf.o)
 .debug_loc     0x00020652      0x120 /opt/altera/10.1sp1/nios2eds/bin/gnu/H-i686-pc-linux-gnu/bin/../lib/gcc/nios2-elf/4.1.2/../../../../nios2-elf/lib/libc.a(lib_a-__atexit.o)
 .debug_loc     0x00020772      0x1cb /opt/altera/10.1sp1/nios2eds/bin/gnu/H-i686-pc-linux-gnu/bin/../lib/gcc/nios2-elf/4.1.2/../../../../nios2-elf/lib/libc.a(lib_a-__call_atexit.o)

.debug_macinfo
 *(.debug_macinfo)

.debug_weaknames
 *(.debug_weaknames)

.debug_funcnames
 *(.debug_funcnames)

.debug_typenames
 *(.debug_typenames)

.debug_varnames
 *(.debug_varnames)

.debug_alt_sim_info
                0x00000000       0x60
 *(.debug_alt_sim_info)
 .debug_alt_sim_info
                0x00000000       0x30 ../StereoCameraServer_bsp/obj/HAL/src/crt0.o
 .debug_alt_sim_info
                0x00000030       0x30 ../StereoCameraServer_bsp/libucosii_bsp.a(alt_busy_sleep.o)
                0x01000000                __alt_data_end = 0x1000000
                0x01000000                PROVIDE (__alt_stack_pointer, __alt_data_end)
                0x00e48b24                PROVIDE (__alt_stack_limit, __alt_stack_base)
                0x00e48b24                PROVIDE (__alt_heap_start, end)
                0x01000000                PROVIDE (__alt_heap_limit, 0x1000000)
OUTPUT(StereoCameraServer.elf elf32-littlenios2)

.debug_ranges   0x00000000     0x19c0
 .debug_ranges  0x00000000       0x20 ../StereoCameraServer_bsp/obj/HAL/src/crt0.o
 .debug_ranges  0x00000020       0x18 obj/altera_avalon_uart_init.o
 .debug_ranges  0x00000038       0x30 obj/srec_flash.o
 .debug_ranges  0x00000068       0xf8 /opt/altera/10.1sp1/nios2eds/bin/gnu/H-i686-pc-linux-gnu/bin/../lib/gcc/nios2-elf/4.1.2/../../../../nios2-elf/lib/libstdc++.a(eh_personality.o)
 .debug_ranges  0x00000160       0x30 /opt/altera/10.1sp1/nios2eds/bin/gnu/H-i686-pc-linux-gnu/bin/../lib/gcc/nios2-elf/4.1.2/../../../../nios2-elf/lib/libstdc++.a(eh_alloc.o)
 .debug_ranges  0x00000190       0x18 /opt/altera/10.1sp1/nios2eds/bin/gnu/H-i686-pc-linux-gnu/bin/../lib/gcc/nios2-elf/4.1.2/../../../../nios2-elf/lib/libstdc++.a(class_type_info.o)
 .debug_ranges  0x000001a8      0x720 /opt/altera/10.1sp1/nios2eds/bin/gnu/H-i686-pc-linux-gnu/bin/../lib/gcc/nios2-elf/4.1.2/libgcc.a(unwind-dw2.o)
 .debug_ranges  0x000008c8      0x418 /opt/altera/10.1sp1/nios2eds/bin/gnu/H-i686-pc-linux-gnu/bin/../lib/gcc/nios2-elf/4.1.2/libgcc.a(unwind-dw2-fde.o)
 .debug_ranges  0x00000ce0       0x20 /opt/altera/10.1sp1/nios2eds/bin/gnu/H-i686-pc-linux-gnu/bin/../lib/gcc/nios2-elf/4.1.2/../../../../nios2-elf/lib/libc.a(lib_a-fflush.o)
 .debug_ranges  0x00000d00       0x18 /opt/altera/10.1sp1/nios2eds/bin/gnu/H-i686-pc-linux-gnu/bin/../lib/gcc/nios2-elf/4.1.2/../../../../nios2-elf/lib/libc.a(lib_a-fread.o)
 .debug_ranges  0x00000d18       0xa0 /opt/altera/10.1sp1/nios2eds/bin/gnu/H-i686-pc-linux-gnu/bin/../lib/gcc/nios2-elf/4.1.2/../../../../nios2-elf/lib/libc.a(lib_a-fwalk.o)
 .debug_ranges  0x00000db8       0x70 /opt/altera/10.1sp1/nios2eds/bin/gnu/H-i686-pc-linux-gnu/bin/../lib/gcc/nios2-elf/4.1.2/../../../../nios2-elf/lib/libc.a(lib_a-mallocr.o)
 .debug_ranges  0x00000e28      0x1b8 /opt/altera/10.1sp1/nios2eds/bin/gnu/H-i686-pc-linux-gnu/bin/../lib/gcc/nios2-elf/4.1.2/../../../../nios2-elf/lib/libc.a(lib_a-strstr.o)
 .debug_ranges  0x00000fe0      0x168 /opt/altera/10.1sp1/nios2eds/bin/gnu/H-i686-pc-linux-gnu/bin/../lib/gcc/nios2-elf/4.1.2/../../../../nios2-elf/lib/libc.a(lib_a-vfprintf.o)
 .debug_ranges  0x00001148       0xd0 /opt/altera/10.1sp1/nios2eds/bin/gnu/H-i686-pc-linux-gnu/bin/../lib/gcc/nios2-elf/4.1.2/../../../../nios2-elf/lib/libc.a(lib_a-vfscanf.o)
 .debug_ranges  0x00001218       0x28 /opt/altera/10.1sp1/nios2eds/bin/gnu/H-i686-pc-linux-gnu/bin/../lib/gcc/nios2-elf/4.1.2/../../../../nios2-elf/lib/libc.a(lib_a-fvwrite.o)
 .debug_ranges  0x00001240      0x110 /opt/altera/10.1sp1/nios2eds/bin/gnu/H-i686-pc-linux-gnu/bin/../lib/gcc/nios2-elf/4.1.2/../../../../nios2-elf/lib/libc.a(lib_a-reallocr.o)
 .debug_ranges  0x00001350       0x68 /opt/altera/10.1sp1/nios2eds/bin/gnu/H-i686-pc-linux-gnu/bin/../lib/gcc/nios2-elf/4.1.2/../../../../nios2-elf/lib/libc.a(lib_a-strtod.o)
 .debug_ranges  0x000013b8       0x38 /opt/altera/10.1sp1/nios2eds/bin/gnu/H-i686-pc-linux-gnu/bin/../lib/gcc/nios2-elf/4.1.2/../../../../nios2-elf/lib/libc.a(lib_a-callocr.o)
 .debug_ranges  0x000013f0       0x50 /opt/altera/10.1sp1/nios2eds/bin/gnu/H-i686-pc-linux-gnu/bin/../lib/gcc/nios2-elf/4.1.2/../../../../nios2-elf/lib/libc.a(lib_a-gdtoa-gethex.o)
 .debug_ranges  0x00001440       0x68 /opt/altera/10.1sp1/nios2eds/bin/gnu/H-i686-pc-linux-gnu/bin/../lib/gcc/nios2-elf/4.1.2/libgcc.a(_muldi3.o)
 .debug_ranges  0x000014a8      0x188 /opt/altera/10.1sp1/nios2eds/bin/gnu/H-i686-pc-linux-gnu/bin/../lib/gcc/nios2-elf/4.1.2/libgcc.a(_udivdi3.o)
 .debug_ranges  0x00001630      0x198 /opt/altera/10.1sp1/nios2eds/bin/gnu/H-i686-pc-linux-gnu/bin/../lib/gcc/nios2-elf/4.1.2/libgcc.a(_umoddi3.o)
 .debug_ranges  0x000017c8       0x30 /opt/altera/10.1sp1/nios2eds/bin/gnu/H-i686-pc-linux-gnu/bin/../lib/gcc/nios2-elf/4.1.2/libgcc.a(_addsub_df.o)
 .debug_ranges  0x000017f8       0x88 /opt/altera/10.1sp1/nios2eds/bin/gnu/H-i686-pc-linux-gnu/bin/../lib/gcc/nios2-elf/4.1.2/libgcc.a(_mul_df.o)
 .debug_ranges  0x00001880       0x50 /opt/altera/10.1sp1/nios2eds/bin/gnu/H-i686-pc-linux-gnu/bin/../lib/gcc/nios2-elf/4.1.2/libgcc.a(_div_df.o)
 .debug_ranges  0x000018d0       0x18 /opt/altera/10.1sp1/nios2eds/bin/gnu/H-i686-pc-linux-gnu/bin/../lib/gcc/nios2-elf/4.1.2/libgcc.a(_usi_to_df.o)
 .debug_ranges  0x000018e8       0x28 /opt/altera/10.1sp1/nios2eds/bin/gnu/H-i686-pc-linux-gnu/bin/../lib/gcc/nios2-elf/4.1.2/libgcc.a(_clzsi2.o)
 .debug_ranges  0x00001910       0x28 /opt/altera/10.1sp1/nios2eds/bin/gnu/H-i686-pc-linux-gnu/bin/../lib/gcc/nios2-elf/4.1.2/libgcc.a(_pack_df.o)
 .debug_ranges  0x00001938       0x18 ../StereoCameraServer_bsp/libucosii_bsp.a(altera_avalon_jtag_uart_init.o)
 .debug_ranges  0x00001950       0x28 ../StereoCameraServer_bsp/libucosii_bsp.a(alt_irq_entry.o)
 .debug_ranges  0x00001978       0x30 ../StereoCameraServer_bsp/libucosii_bsp.a(alt_exception_entry.o)
 .debug_ranges  0x000019a8       0x18 /opt/altera/10.1sp1/nios2eds/bin/gnu/H-i686-pc-linux-gnu/bin/../lib/gcc/nios2-elf/4.1.2/../../../../nios2-elf/lib/libc.a(lib_a-__call_atexit.o)
