
Ether.elf:     file format elf32-littlenios2
Ether.elf
architecture: nios2, flags 0x00000112:
EXEC_P, HAS_SYMS, D_PAGED
start address 0x0080019c

Program Header:
    LOAD off    0x00001020 vaddr 0x01104020 paddr 0x00800000 align 2**12
         filesz 0x0000019c memsz 0x0000019c flags r-x
    LOAD off    0x0000219c vaddr 0x0080019c paddr 0x0080019c align 2**12
         filesz 0x0000ed38 memsz 0x0000ed38 flags r-x
    LOAD off    0x00010ed4 vaddr 0x0080eed4 paddr 0x00810a50 align 2**12
         filesz 0x00001b7c memsz 0x00001b7c flags rw-
    LOAD off    0x000135cc vaddr 0x008125cc paddr 0x008125cc align 2**12
         filesz 0x00000000 memsz 0x00007568 flags rw-
    LOAD off    0x00013000 vaddr 0x01104000 paddr 0x01104000 align 2**12
         filesz 0x00000020 memsz 0x00000020 flags r-x

Sections:
Idx Name          Size      VMA       LMA       File off  Algn
  0 .entry        00000020  01104000  01104000  00013000  2**5
                  CONTENTS, ALLOC, LOAD, READONLY, CODE
  1 .exceptions   0000019c  01104020  00800000  00001020  2**2
                  CONTENTS, ALLOC, LOAD, READONLY, CODE
  2 .text         0000eb4c  0080019c  0080019c  0000219c  2**2
                  CONTENTS, ALLOC, LOAD, READONLY, CODE
  3 .rodata       000001ec  0080ece8  0080ece8  00010ce8  2**2
                  CONTENTS, ALLOC, LOAD, READONLY, DATA
  4 .rwdata       00001b7c  0080eed4  00810a50  00010ed4  2**2
                  CONTENTS, ALLOC, LOAD, DATA, SMALL_DATA
  5 .bss          00007568  008125cc  008125cc  000135cc  2**2
                  ALLOC, SMALL_DATA
  6 .comment      00000026  00000000  00000000  00013020  2**0
                  CONTENTS, READONLY
  7 .debug_aranges 00000a98  00000000  00000000  00013048  2**3
                  CONTENTS, READONLY, DEBUGGING
  8 .debug_pubnames 00001c4c  00000000  00000000  00013ae0  2**0
                  CONTENTS, READONLY, DEBUGGING
  9 .debug_info   00027650  00000000  00000000  0001572c  2**0
                  CONTENTS, READONLY, DEBUGGING
 10 .debug_abbrev 000069fd  00000000  00000000  0003cd7c  2**0
                  CONTENTS, READONLY, DEBUGGING
 11 .debug_line   00014877  00000000  00000000  00043779  2**0
                  CONTENTS, READONLY, DEBUGGING
 12 .debug_frame  00001e44  00000000  00000000  00057ff0  2**2
                  CONTENTS, READONLY, DEBUGGING
 13 .debug_str    000019cf  00000000  00000000  00059e34  2**0
                  CONTENTS, READONLY, DEBUGGING
 14 .debug_loc    000053e3  00000000  00000000  0005b803  2**0
                  CONTENTS, READONLY, DEBUGGING
 15 .debug_alt_sim_info 00000030  00000000  00000000  00060be8  2**2
                  CONTENTS, READONLY, DEBUGGING
 16 .debug_ranges 00000310  00000000  00000000  00060c18  2**3
                  CONTENTS, READONLY, DEBUGGING
 17 .thread_model 00000006  00000000  00000000  00065014  2**0
                  CONTENTS, READONLY
 18 .cpu          0000000c  00000000  00000000  0006501a  2**0
                  CONTENTS, READONLY
 19 .qsys         00000001  00000000  00000000  00065026  2**0
                  CONTENTS, READONLY
 20 .simulation_enabled 00000001  00000000  00000000  00065027  2**0
                  CONTENTS, READONLY
 21 .sysid_hash   00000004  00000000  00000000  00065028  2**0
                  CONTENTS, READONLY
 22 .sysid_base   00000004  00000000  00000000  0006502c  2**0
                  CONTENTS, READONLY
 23 .sysid_time   00000004  00000000  00000000  00065030  2**0
                  CONTENTS, READONLY
 24 .stderr_dev   0000000b  00000000  00000000  00065034  2**0
                  CONTENTS, READONLY
 25 .stdin_dev    0000000b  00000000  00000000  0006503f  2**0
                  CONTENTS, READONLY
 26 .stdout_dev   0000000b  00000000  00000000  0006504a  2**0
                  CONTENTS, READONLY
 27 .sopc_system_name 0000000d  00000000  00000000  00065055  2**0
                  CONTENTS, READONLY
 28 .quartus_project_dir 00000063  00000000  00000000  00065062  2**0
                  CONTENTS, READONLY
 29 .jdi          000051db  00000000  00000000  000650c5  2**0
                  CONTENTS, READONLY
 30 .sopcinfo     0006b5e5  00000000  00000000  0006a2a0  2**0
                  CONTENTS, READONLY
SYMBOL TABLE:
01104000 l    d  .entry	00000000 .entry
01104020 l    d  .exceptions	00000000 .exceptions
0080019c l    d  .text	00000000 .text
0080ece8 l    d  .rodata	00000000 .rodata
0080eed4 l    d  .rwdata	00000000 .rwdata
008125cc l    d  .bss	00000000 .bss
00000000 l    d  .comment	00000000 .comment
00000000 l    d  .debug_aranges	00000000 .debug_aranges
00000000 l    d  .debug_pubnames	00000000 .debug_pubnames
00000000 l    d  .debug_info	00000000 .debug_info
00000000 l    d  .debug_abbrev	00000000 .debug_abbrev
00000000 l    d  .debug_line	00000000 .debug_line
00000000 l    d  .debug_frame	00000000 .debug_frame
00000000 l    d  .debug_str	00000000 .debug_str
00000000 l    d  .debug_loc	00000000 .debug_loc
00000000 l    d  .debug_alt_sim_info	00000000 .debug_alt_sim_info
00000000 l    d  .debug_ranges	00000000 .debug_ranges
008001e4 l       .text	00000000 alt_after_alt_main
00000000 l    df *ABS*	00000000 alt_irq_handler.c
00000000 l    df *ABS*	00000000 hello_ucosii.c
00000000 l    df *ABS*	00000000 puts.c
00000000 l    df *ABS*	00000000 strlen.c
00000000 l    df *ABS*	00000000 fvwrite.c
00000000 l    df *ABS*	00000000 impure.c
0080eed4 l     O .rwdata	00000400 impure_data
00000000 l    df *ABS*	00000000 mallocr.c
00000000 l    df *ABS*	00000000 memchr.c
00000000 l    df *ABS*	00000000 memcpy.c
00000000 l    df *ABS*	00000000 memmove.c
00000000 l    df *ABS*	00000000 mallocr.c
00000000 l    df *ABS*	00000000 sbrkr.c
00000000 l    df *ABS*	00000000 wsetup.c
00000000 l    df *ABS*	00000000 fflush.c
00000000 l    df *ABS*	00000000 findfp.c
00801c3c l     F .text	00000058 std
00801d48 l     F .text	00000008 __fp_lock
00801d50 l     F .text	00000008 __fp_unlock
00000000 l    df *ABS*	00000000 mallocr.c
00000000 l    df *ABS*	00000000 fwalk.c
00000000 l    df *ABS*	00000000 int_errno.c
00000000 l    df *ABS*	00000000 makebuf.c
00000000 l    df *ABS*	00000000 memset.c
00000000 l    df *ABS*	00000000 stdio.c
00000000 l    df *ABS*	00000000 writer.c
00000000 l    df *ABS*	00000000 closer.c
00000000 l    df *ABS*	00000000 fclose.c
00000000 l    df *ABS*	00000000 fstatr.c
00000000 l    df *ABS*	00000000 isattyr.c
00000000 l    df *ABS*	00000000 lseekr.c
00000000 l    df *ABS*	00000000 readr.c
00000000 l    df *ABS*	00000000 alt_close.c
00802d10 l     F .text	00000060 alt_get_errno
00000000 l    df *ABS*	00000000 alt_dev.c
00802d70 l     F .text	0000002c alt_dev_null_write
00000000 l    df *ABS*	00000000 alt_errno.c
00000000 l    df *ABS*	00000000 alt_fstat.c
00802e70 l     F .text	00000060 alt_get_errno
00000000 l    df *ABS*	00000000 alt_isatty.c
00802f90 l     F .text	00000060 alt_get_errno
00000000 l    df *ABS*	00000000 alt_load.c
00803070 l     F .text	0000006c alt_load_section
00000000 l    df *ABS*	00000000 alt_lseek.c
008031cc l     F .text	00000060 alt_get_errno
00000000 l    df *ABS*	00000000 alt_main.c
00000000 l    df *ABS*	00000000 alt_read.c
00803414 l     F .text	00000060 alt_get_errno
00000000 l    df *ABS*	00000000 alt_release_fd.c
00000000 l    df *ABS*	00000000 alt_sbrk.c
008109c4 l     O .rwdata	00000004 heap_end
00000000 l    df *ABS*	00000000 alt_write.c
008036b0 l     F .text	00000060 alt_get_errno
00000000 l    df *ABS*	00000000 alt_env_lock.c
008109c8 l     O .rwdata	00000004 lockid
008125ec l     O .bss	00000004 locks
00000000 l    df *ABS*	00000000 alt_malloc_lock.c
008109cc l     O .rwdata	00000004 lockid
008125f4 l     O .bss	00000004 locks
00000000 l    df *ABS*	00000000 os_core.c
008050e8 l     F .text	00000044 OS_InitMisc
0080512c l     F .text	0000006c OS_InitRdyList
00805290 l     F .text	000000e0 OS_InitTCBList
0080500c l     F .text	000000dc OS_InitEventList
00805198 l     F .text	0000007c OS_InitTaskIdle
00805214 l     F .text	0000007c OS_InitTaskStat
00805504 l     F .text	00000070 OS_SchedNew
00000000 l    df *ABS*	00000000 os_dbg.c
00000000 l    df *ABS*	00000000 os_flag.c
00807424 l     F .text	00000110 OS_FlagTaskRdy
0080717c l     F .text	000001c4 OS_FlagBlock
00000000 l    df *ABS*	00000000 os_mem.c
00000000 l    df *ABS*	00000000 os_q.c
00000000 l    df *ABS*	00000000 os_sem.c
00000000 l    df *ABS*	00000000 os_task.c
00000000 l    df *ABS*	00000000 os_time.c
00000000 l    df *ABS*	00000000 alt_sys_init.c
0080f884 l     O .rwdata	0000106c jtag_uart_0
008108f0 l     O .rwdata	0000002c character_lcd_0
0081091c l     O .rwdata	00000054 video_pixel_buffer_dma_0
00810970 l     O .rwdata	0000002c Altera_UP_SD_Card_Avalon_Interface_0
0080bf68 l     F .text	00000038 alt_dev_reg
00000000 l    df *ABS*	00000000 altera_avalon_jtag_uart_fd.c
00000000 l    df *ABS*	00000000 altera_avalon_jtag_uart_init.c
0080c220 l     F .text	000002c4 altera_avalon_jtag_uart_irq
0080c4e4 l     F .text	00000114 altera_avalon_jtag_uart_timeout
00000000 l    df *ABS*	00000000 altera_avalon_jtag_uart_ioctl.c
00000000 l    df *ABS*	00000000 altera_avalon_jtag_uart_read.c
00000000 l    df *ABS*	00000000 altera_avalon_jtag_uart_write.c
00000000 l    df *ABS*	00000000 altera_avalon_timer_sc.c
0080ccfc l     F .text	00000070 alt_avalon_timer_sc_irq
00000000 l    df *ABS*	00000000 altera_up_avalon_character_lcd.c
00000000 l    df *ABS*	00000000 alt_alarm_start.c
00000000 l    df *ABS*	00000000 alt_dcache_flush_all.c
00000000 l    df *ABS*	00000000 alt_dev_llist_insert.c
0080d578 l     F .text	00000060 alt_get_errno
00000000 l    df *ABS*	00000000 alt_do_ctors.c
00000000 l    df *ABS*	00000000 alt_do_dtors.c
00000000 l    df *ABS*	00000000 alt_find_dev.c
00000000 l    df *ABS*	00000000 alt_icache_flush_all.c
00000000 l    df *ABS*	00000000 alt_iic.c
00000000 l    df *ABS*	00000000 alt_iic_isr_register.c
00000000 l    df *ABS*	00000000 alt_io_redirect.c
0080da30 l     F .text	000000c4 alt_open_fd
00000000 l    df *ABS*	00000000 alt_irq_vars.c
00000000 l    df *ABS*	00000000 alt_open.c
0080db6c l     F .text	000000dc alt_file_locked
0080ddd0 l     F .text	00000060 alt_get_errno
00000000 l    df *ABS*	00000000 alt_tick.c
00000000 l    df *ABS*	00000000 altera_nios2_qsys_irq.c
00000040 l       *ABS*	00000000 OSCtxSw_SWITCH_PC
00000000 l    df *ABS*	00000000 os_cpu_c.c
00000014 l       *ABS*	00000000 OSTCBNext_OFFSET
00000032 l       *ABS*	00000000 OSTCBPrio_OFFSET
00000000 l       *ABS*	00000000 OSTCBStkPtr_OFFSET
00000000 l    df *ABS*	00000000 alt_find_file.c
00000000 l    df *ABS*	00000000 alt_get_fd.c
00000000 l    df *ABS*	00000000 alt_icache_flush.c
00000000 l    df *ABS*	00000000 atexit.c
00000000 l    df *ABS*	00000000 exit.c
00000000 l    df *ABS*	00000000 memcmp.c
00000000 l    df *ABS*	00000000 __atexit.c
00000000 l    df *ABS*	00000000 __call_atexit.c
0080e978 l     F .text	00000004 register_fini
00000000 l    df *ABS*	00000000 lib2-divmod.c
0080eb2c l     F .text	0000007c udivmodsi4
00000000 l    df *ABS*	00000000 alt_exit.c
0080ec78 l     F .text	00000040 alt_sim_halt
00810a1a g     O .rwdata	00000002 OSTaskNameSize
00802ab4 g     F .text	00000070 _isatty_r
0080322c g     F .text	000000c8 alt_main
00800304 g     F .text	000000a0 _puts_r
008198a4 g     O .bss	00000100 alt_irq
00802b24 g     F .text	00000078 _lseek_r
00807d18 g     F .text	000000d0 OS_MemInit
00810a50 g       *ABS*	00000000 __flash_rwdata_start
0080bc58 g     F .text	00000064 OSTimeSet
0080ce78 g     F .text	00000034 alt_up_character_lcd_send_cmd
00803c64 g     F .text	000006b4 OSEventPendMulti
00819b34 g       *ABS*	00000000 __alt_heap_start
0080e3d8 g     F .text	00000020 OSTaskCreateHook
00812680 g     O .bss	00002000 task1_stk
008109f2 g     O .rwdata	00000002 OSMboxEn
0080436c g     F .text	0000007c OSIntEnter
008026f0 g     F .text	00000068 __sseek
00801ca4 g     F .text	000000a4 __sinit
00810a02 g     O .rwdata	00000002 OSQEn
00801da4 g     F .text	00000068 __sfmoreglue
00803920 g     F .text	000000d0 __malloc_unlock
0080e434 g     F .text	0000001c OSTaskStatHook
008125fc g     O .bss	00000001 OSLockNesting
00810a40 g     O .rwdata	00000002 OSDataSize
008125fd g     O .bss	00000001 OSRunning
0080118c g     F .text	000000e0 memmove
0080e46c g     F .text	0000001c OSInitHookBegin
00810a38 g     O .rwdata	00000002 OSTmrSize
00801d94 g     F .text	00000010 _cleanup
00812600 g     O .bss	00000004 OSIdleCtr
0080e0a4 g       .text	00000000 OSStartTsk
00000000  w      *UND*	00000000 __errno
0080cdfc g     F .text	0000007c get_DDRAM_addr
00805838 g     F .text	000002e0 OS_TCBInit
01104000 g     F .entry	0000001c __reset
00810a3e g     O .rwdata	00000002 OSTmrWheelTblSize
00800000 g       *ABS*	00000000 __flash_exceptions_start
008109de g     O .rwdata	00000002 OSEventSize
00812604 g     O .bss	00000001 OSPrioHighRdy
00802a40 g     F .text	00000074 _fstat_r
0080e3f8 g     F .text	00000020 OSTaskDelHook
008125d8 g     O .bss	00000004 errno
0080e084 g       .text	00000000 OSStartHighRdy
0080a42c g     F .text	00000200 OSTaskCreateExt
00806c98 g     F .text	00000068 OSFlagPendGetFlagsRdy
00810a1e g     O .rwdata	00000002 OSTaskStatStkSize
00805ca4 g     F .text	00000334 OSFlagAccept
00808450 g     F .text	000000c8 OSQFlush
00807de8 g     F .text	00000154 OSQAccept
008125e4 g     O .bss	00000004 alt_argv
0081899c g       *ABS*	00000000 _gp
0080a258 g     F .text	000001d4 OSTaskCreate
00809ce4 g     F .text	00000574 OSTaskChangePrio
008125f8 g     O .bss	00000004 alt_heapsem
00805b18 g     F .text	0000018c OSDebugInit
0080a62c g     F .text	0000040c OSTaskDel
0080f704 g     O .rwdata	00000180 alt_fd_list
00816680 g     O .bss	00000370 OSFlagTbl
00804de8 g     F .text	000000b8 OS_EventTaskRemove
0080d6a0 g     F .text	00000094 alt_find_dev
008010ec g     F .text	000000a0 memcpy
00810a08 g     O .rwdata	00000002 OSRdyTblSize
0080d010 g     F .text	0000004c alt_up_character_lcd_write_fd
00801d88 g     F .text	0000000c _cleanup_r
0080daf4 g     F .text	00000078 alt_io_redirect
0080ece8 g       *ABS*	00000000 __DTOR_END__
008003a4 g     F .text	00000014 puts
008039f0 g     F .text	00000130 OSEventNameGet
008109ec g     O .rwdata	00000002 OSFlagMax
008043e8 g     F .text	00000100 OSIntExit
00810a26 g     O .rwdata	00000002 OSTCBSize
00812605 g     O .bss	00000001 OSPrioCur
0080c760 g     F .text	000002c0 altera_avalon_jtag_uart_read
00000000  w      *UND*	00000000 malloc
01104000 g       *ABS*	00000000 __alt_mem_onchip_memory2_0
0080ec68 g     F .text	00000008 __udivsi3
00802ed0 g     F .text	000000c0 isatty
00810a0c g     O .rwdata	00000002 OSStkWidth
00810a00 g     O .rwdata	00000002 OSPtrSize
008109e0 g     O .rwdata	00000002 OSEventTblSize
0080dff8 g       .text	00000000 OSCtxSw
0080e6f4 g     F .text	00000090 alt_icache_flush
008125cc g     O .bss	00000004 __malloc_top_pad
00812608 g     O .bss	00000004 OSTCBList
008125dc g     O .bss	00000004 alt_fd_list_lock
0080042c g     F .text	0000049c __sfvwrite_r
008169f0 g     O .bss	00000c30 OSMemTbl
0081260c g     O .bss	00000001 OSTickStepState
00801860 g     F .text	00000070 _sbrk_r
00810a04 g     O .rwdata	00000002 OSQMax
00817620 g     O .bss	00000800 OSTaskStatStk
00807900 g     F .text	0000010c OSMemNameGet
008109e4 g     O .rwdata	00000002 OSFlagEn
00802b9c g     F .text	00000078 _read_r
00810a2a g     O .rwdata	00000002 OSTimeTickHookEn
008089b4 g     F .text	00000180 OSQPost
00807534 g     F .text	000000ac OS_FlagUnlink
008109bc g     O .rwdata	00000004 alt_max_fd
008053c4 g     F .text	0000006c OS_MemCopy
00805430 g     F .text	000000d4 OS_Sched
0080291c g     F .text	00000110 _fclose_r
008077fc g     F .text	00000104 OSMemGet
0080ad60 g     F .text	000001c4 OSTaskNameSet
00801c08 g     F .text	00000034 fflush
008125d0 g     O .bss	00000004 __malloc_max_sbrked_mem
00812610 g     O .bss	00000004 OSCtxSwCtr
0080e450 g     F .text	0000001c OSTimeTickHook
008109ee g     O .rwdata	00000002 OSFlagNameSize
00804ea0 g     F .text	00000104 OS_EventTaskRemoveMulti
00804c94 g     F .text	00000154 OS_EventTaskWaitMulti
00810a06 g     O .rwdata	00000002 OSQSize
008030dc g     F .text	000000f0 lseek
00809590 g     F .text	0000027c OSSemPend
008109a0 g     O .rwdata	00000004 _global_impure_ptr
0080126c g     F .text	000005f4 _realloc_r
008109f0 g     O .rwdata	00000002 OSLowestPrio
00819b34 g       *ABS*	00000000 __bss_end
0080d938 g     F .text	000000f8 alt_iic_isr_register
0080e4c0 g     F .text	00000020 OSTCBInitHook
00810a36 g     O .rwdata	00000002 OSTmrCfgTicksPerSec
0080dec8 g     F .text	00000110 alt_tick
008109d8 g     O .rwdata	00000002 OSEventEn
00810a32 g     O .rwdata	00000002 OSTmrCfgNameSize
00801d70 g     F .text	00000018 __fp_lock_all
0080d8f0 g     F .text	00000048 alt_ic_irq_enabled
00807340 g     F .text	000000e4 OS_FlagInit
0080de30 g     F .text	00000098 alt_alarm_stop
00810a14 g     O .rwdata	00000002 OSTaskIdleStkSize
0081264c g     O .bss	00000004 alt_irq_active
0080911c g     F .text	000000c0 OSSemAccept
00807b2c g     F .text	000000f0 OSMemPut
008075e0 g     F .text	0000021c OSMemCreate
00812614 g     O .bss	00000004 OSIdleCtrMax
011040ec g     F .exceptions	000000d0 alt_irq_handler
0080f6dc g     O .rwdata	00000028 alt_dev_null
00810a28 g     O .rwdata	00000002 OSTicksPerSec
0080d2f8 g     F .text	00000034 alt_up_character_lcd_cursor_blink_on
0080dff8 g       .text	00000000 OSIntCtxSw
0080d480 g     F .text	00000044 alt_dcache_flush_all
00812618 g     O .bss	00000004 OSTCBFreeList
00810a50 g       *ABS*	00000000 __ram_rwdata_end
0080980c g     F .text	0000017c OSSemPendAbort
008109b4 g     O .rwdata	00000008 alt_dev_list
00803590 g     F .text	00000120 write
00810a2c g     O .rwdata	00000002 OSVersionNbr
0080eed4 g       *ABS*	00000000 __ram_rodata_end
00802d9c g     F .text	000000d4 fstat
008109d4 g     O .rwdata	00000004 OSEndiannessTest
0080ec70 g     F .text	00000008 __umodsi3
008109e6 g     O .rwdata	00000002 OSFlagGrpSize
00819b34 g       *ABS*	00000000 end
0080c0e8 g     F .text	00000138 altera_avalon_jtag_uart_init
008056a8 g     F .text	000000c8 OS_TaskStat
0080ece4 g       *ABS*	00000000 __CTOR_LIST__
01000000 g       *ABS*	00000000 __alt_stack_pointer
0080cd6c g     F .text	00000090 alt_avalon_timer_sc_init
0080ca20 g     F .text	000002dc altera_avalon_jtag_uart_write
00801c94 g     F .text	00000004 __sfp_lock_acquire
00801008 g     F .text	000000e4 memchr
00805370 g     F .text	00000054 OS_MemClr
0080cf20 g     F .text	00000078 alt_up_character_lcd_write
0080e0c8 g     F .text	00000310 OSTaskStkInit
008001e8 g     F .text	00000038 task1
00802028 g     F .text	00000314 _free_r
008049f0 g     F .text	00000194 OS_EventTaskRdy
0080e97c g     F .text	000001b0 __call_exitprocs
0081261c g     O .bss	00000001 OSCPUUsage
008109a8 g     O .rwdata	00000004 __malloc_sbrk_base
0080019c g     F .text	0000004c _start
00800220 g     F .text	00000038 task2
00812650 g     O .bss	00000004 _alt_tick_rate
00808518 g     F .text	00000320 OSQPend
0080b724 g     F .text	0000014c OSTimeDly
00812654 g     O .bss	00000004 _alt_nticks
008032f4 g     F .text	00000120 read
0080bcf0 g     F .text	00000278 alt_sys_init
0080d184 g     F .text	000000b0 alt_up_character_lcd_shift_display
0080e844 g     F .text	00000134 __register_exitproc
0081261d g     O .bss	00000001 OSTaskCtr
0080b870 g     F .text	00000174 OSTimeDlyHMSM
0080d234 g     F .text	00000090 alt_up_character_lcd_erase_pos
0080c5f8 g     F .text	00000074 altera_avalon_jtag_uart_close
0080eed4 g       *ABS*	00000000 __ram_rwdata_start
0080ece8 g       *ABS*	00000000 __ram_rodata_start
00812658 g     O .bss	00000028 __malloc_current_mallinfo
008109da g     O .rwdata	00000002 OSEventMax
00809988 g     F .text	00000128 OSSemPost
00804574 g     F .text	000000e4 OSSchedUnlock
0080bfa0 g     F .text	00000058 altera_avalon_jtag_uart_read_fd
0080e600 g     F .text	000000f4 alt_get_fd
00812620 g     O .bss	00000004 OSMemFreeList
008046c8 g     F .text	000000ac OSStatInit
008070a8 g     F .text	000000d4 OSFlagQuery
00810a10 g     O .rwdata	00000002 OSTaskCreateExtEn
008028ac g     F .text	00000070 _close_r
0080e7d0 g     F .text	00000074 memcmp
008049d4 g     F .text	0000001c OS_Dummy
0080c050 g     F .text	00000048 altera_avalon_jtag_uart_close_fd
00819b34 g       *ABS*	00000000 __alt_stack_base
0080c098 g     F .text	00000050 altera_avalon_jtag_uart_ioctl_fd
008018d0 g     F .text	0000013c __swsetup_r
00817e20 g     O .bss	000001e0 OSQTbl
00801e0c g     F .text	000000f0 __sfp
0080f2d4 g     O .rwdata	00000408 __malloc_av_
00801ca0 g     F .text	00000004 __sinit_lock_release
00812624 g     O .bss	00000004 OSTCBHighRdy
008027d4 g     F .text	00000060 __sread
00812628 g     O .bss	00000004 OSQFreeList
0080e4e0 g     F .text	00000120 alt_find_file
0080d4c4 g     F .text	000000b4 alt_dev_llist_insert
00803818 g     F .text	00000108 __malloc_lock
008034d4 g     F .text	000000bc sbrk
00803b20 g     F .text	00000144 OSEventNameSet
00801a0c g     F .text	000001fc _fflush_r
0081262c g     O .bss	00000001 OSRdyGrp
008125cc g       *ABS*	00000000 __bss_start
00802650 g     F .text	00000098 memset
00800258 g     F .text	000000ac main
008125e8 g     O .bss	00000004 alt_envp
008125d4 g     O .bss	00000004 __malloc_max_total_mem
0080bff8 g     F .text	00000058 altera_avalon_jtag_uart_write_fd
0080ed38 g     O .rodata	00000100 OSUnMapTbl
00810a0a g     O .rwdata	00000002 OSSemEn
0080d0d4 g     F .text	000000b0 alt_up_character_lcd_shift_cursor
00806d00 g     F .text	000003a8 OSFlagPost
008026e8 g     F .text	00000008 __sclose
01000000 g       *ABS*	00000000 __alt_heap_limit
00802a2c g     F .text	00000014 fclose
00804b84 g     F .text	00000110 OS_EventTaskWait
00814680 g     O .bss	00002000 task2_stk
00805770 g     F .text	000000c8 OS_TaskStatStkChk
008199a4 g     O .bss	00000190 _atexit0
0080aa38 g     F .text	00000170 OSTaskDelReq
008008c8 g     F .text	00000740 _malloc_r
008109c0 g     O .rwdata	00000004 alt_errno
00804658 g     F .text	00000070 OSStart
008037bc g     F .text	0000005c __env_unlock
00802404 g     F .text	000000b8 _fwalk
0080af24 g     F .text	00000218 OSTaskResume
00807c1c g     F .text	000000fc OSMemQuery
00810a1c g     O .rwdata	00000002 OSTaskStatEn
008109f6 g     O .rwdata	00000002 OSMemMax
00808b34 g     F .text	00000188 OSQPostFront
0080eba8 g     F .text	00000060 __divsi3
0081262d g     O .bss	00000003 OSRdyTbl
008109d0 g     O .rwdata	00000002 OSDebugEn
0080cee0 g     F .text	00000040 alt_up_character_lcd_open_dev
00801efc g     F .text	0000012c _malloc_trim_r
0080ece8 g       *ABS*	00000000 __CTOR_END__
008109e8 g     O .rwdata	00000002 OSFlagNodeSize
00810a30 g     O .rwdata	00000002 OSTmrCfgMax
0080ceac g     F .text	00000034 alt_up_character_lcd_init
00807f3c g     F .text	00000214 OSQCreate
0080aba8 g     F .text	000001b8 OSTaskNameGet
0080ece8 g       *ABS*	00000000 __flash_rodata_start
00808cbc g     F .text	00000234 OSQPostOpt
00804774 g     F .text	00000240 OSTimeTick
00810a18 g     O .rwdata	00000002 OSTaskMax
0080ece8 g       *ABS*	00000000 __DTOR_LIST__
008091dc g     F .text	00000114 OSSemCreate
00810a3c g     O .rwdata	00000002 OSTmrWheelSize
00810a12 g     O .rwdata	00000002 OSTaskDelEn
00809ab0 g     F .text	00000130 OSSemQuery
00808150 g     F .text	00000300 OSQDel
00808838 g     F .text	0000017c OSQPendAbort
0080bcbc g     F .text	00000034 alt_irq_init
00803474 g     F .text	00000060 alt_release_fd
0080d2c4 g     F .text	00000034 alt_up_character_lcd_cursor_off
0080e784 g     F .text	00000014 atexit
00802834 g     F .text	00000078 _write_r
008044e8 g     F .text	0000008c OSSchedLock
00805fd8 g     F .text	0000013c OSFlagCreate
0081099c g     O .rwdata	00000004 _impure_ptr
008125e0 g     O .bss	00000004 alt_argc
0080d63c g     F .text	00000064 _do_dtors
008109e2 g     O .rwdata	00000002 OSEventMultiEn
00806114 g     F .text	000002a8 OSFlagDel
00800000 g       *ABS*	00000000 __alt_mem_sdram_0
00812630 g     O .bss	00000004 OSEventFreeList
01104020 g       .exceptions	00000000 alt_irq_entry
00806654 g     F .text	00000644 OSFlagPend
00810a2e g     O .rwdata	00000002 OSTmrEn
00801d58 g     F .text	00000018 __fp_unlock_all
008109ac g     O .rwdata	00000008 alt_fs_list
00805574 g     F .text	00000080 OS_StrCopy
008109f8 g     O .rwdata	00000002 OSMemNameSize
0080e488 g     F .text	0000001c OSInitHookEnd
01104020 g       *ABS*	00000000 __ram_exceptions_start
00810a24 g     O .rwdata	00000002 OSTCBPrioTblMax
00810a20 g     O .rwdata	00000002 OSTaskStatStkChkEn
0080d764 g     F .text	00000050 alt_ic_isr_register
008109f4 g     O .rwdata	00000002 OSMemEn
008109fe g     O .rwdata	00000002 OSMutexEn
00810a50 g       *ABS*	00000000 _edata
00819b34 g       *ABS*	00000000 _end
00812634 g     O .bss	00000001 OSIntNesting
011041bc g       *ABS*	00000000 __ram_exceptions_end
0080c66c g     F .text	000000f4 altera_avalon_jtag_uart_ioctl
0080b9e4 g     F .text	00000210 OSTimeDlyResume
00806500 g     F .text	00000154 OSFlagNameSet
0080b13c g     F .text	000001fc OSTaskStkChk
0080d850 g     F .text	000000a0 alt_ic_irq_disable
008109fa g     O .rwdata	00000002 OSMemSize
00802758 g     F .text	0000007c __swrite
008109a4 g     O .rwdata	00000004 __malloc_trim_threshold
0080dfd8 g     F .text	00000020 altera_nios2_qsys_irq_init
00812638 g     O .bss	00000004 OSTCBCur
0080e798 g     F .text	00000038 exit
008109fc g     O .rwdata	00000002 OSMemTblSize
0080233c g     F .text	000000c8 _fwalk_reent
0080ec08 g     F .text	00000060 __modsi3
01000000 g       *ABS*	00000000 __alt_data_end
01104020 g     F .exceptions	00000000 alt_exception
00801c98 g     F .text	00000004 __sfp_lock_release
00804318 g     F .text	00000054 OSInit
0080b564 g     F .text	00000144 OSTaskQuery
0080cf98 g     F .text	00000078 alt_up_character_lcd_string
00809070 g     F .text	000000ac OS_QInit
008055f4 g     F .text	00000058 OS_StrLen
00807a0c g     F .text	00000120 OSMemNameSet
00810a16 g     O .rwdata	00000002 OSTaskProfileEn
0081263c g     O .bss	00000004 OSTime
00818000 g     O .bss	00000800 OSTaskIdleStk
0080ecb8 g     F .text	0000002c _exit
0080d32c g     F .text	00000154 alt_alarm_start
008063bc g     F .text	00000144 OSFlagNameGet
0080bbf4 g     F .text	00000064 OSTimeGet
008024bc g     F .text	00000194 __smakebuf_r
008003b8 g     F .text	00000074 strlen
0080e418 g     F .text	0000001c OSTaskSwHook
0080dc48 g     F .text	00000188 open
00818800 g     O .bss	00000b40 OSEventTbl
00819340 g     O .bss	00000510 OSTCBTbl
00809be0 g     F .text	00000104 OSSemSet
0080d734 g     F .text	00000030 alt_icache_flush_all
0080d05c g     F .text	00000078 alt_up_character_lcd_set_cursor_pos
00810a44 g     O .rwdata	00000004 alt_priority_mask
008092f0 g     F .text	000002a0 OSSemDel
00812640 g     O .bss	00000004 OSFlagFreeList
0080d7b4 g     F .text	0000009c alt_ic_irq_enable
008109dc g     O .rwdata	00000002 OSEventNameSize
00812644 g     O .bss	00000001 OSStatRdy
00819850 g     O .bss	00000054 OSTCBPrioTbl
00803710 g     F .text	000000ac __env_lock
00810a22 g     O .rwdata	00000002 OSTaskSwHookEn
00810a48 g     O .rwdata	00000008 alt_alarm_list
008109ea g     O .rwdata	00000002 OSFlagWidth
0080d5d8 g     F .text	00000064 _do_ctors
00802c14 g     F .text	000000fc close
008125f0 g     O .bss	00000004 alt_envsem
00812648 g     O .bss	00000004 OSIdleCtrRun
008049b4 g     F .text	00000020 OSVersion
00810a34 g     O .rwdata	00000002 OSTmrCfgWheelSize
00802ff0 g     F .text	00000080 alt_load
0080b6a8 g     F .text	0000007c OS_TaskStkClr
00810a0e g     O .rwdata	00000002 OSTaskCreateEn
00804fa4 g     F .text	00000068 OS_EventWaitListInit
0080e4a4 g     F .text	0000001c OSTaskIdleHook
00000000  w      *UND*	00000000 free
00801c9c g     F .text	00000004 __sinit_lock_acquire
0080b338 g     F .text	0000022c OSTaskSuspend
0080564c g     F .text	0000005c OS_TaskIdle
00810a3a g     O .rwdata	00000002 OSTmrTblSize
00808ef0 g     F .text	00000180 OSQQuery



Disassembly of section .entry:

01104000 <__reset>:
 1104000:	00880014 	movui	r2,8192
 1104004:	1001483a 	initi	r2
 1104008:	10bff804 	addi	r2,r2,-32
 110400c:	00bffd16 	blt	zero,r2,1104004 <__reset+0x4>
 1104010:	00402034 	movhi	at,128
 1104014:	08406714 	ori	at,at,412
 1104018:	0800683a 	jmp	at
 110401c:	00000000 	call	0 <OSTCBStkPtr_OFFSET>

Disassembly of section .exceptions:

01104020 <alt_exception>:
         * Process an exception.  For all exceptions we must preserve all
         * caller saved registers on the stack (See the Nios2 ABI
         * documentation for details).
         */

        addi  sp, sp, -76
 1104020:	deffed04 	addi	sp,sp,-76

#endif

#endif

        stw   ra,  0(sp)
 1104024:	dfc00015 	stw	ra,0(sp)
        /*
         * Leave a gap in the stack frame at 4(sp) for the muldiv handler to
         * store zero into.
         */

        stw   r1,   8(sp)
 1104028:	d8400215 	stw	at,8(sp)
        stw   r2,  12(sp)
 110402c:	d8800315 	stw	r2,12(sp)
        stw   r3,  16(sp)
 1104030:	d8c00415 	stw	r3,16(sp)
        stw   r4,  20(sp)
 1104034:	d9000515 	stw	r4,20(sp)
        stw   r5,  24(sp)
 1104038:	d9400615 	stw	r5,24(sp)
        stw   r6,  28(sp)
 110403c:	d9800715 	stw	r6,28(sp)
        stw   r7,  32(sp)
 1104040:	d9c00815 	stw	r7,32(sp)

        rdctl r5, estatus
 1104044:	000b307a 	rdctl	r5,estatus

        stw   r8,  36(sp)
 1104048:	da000915 	stw	r8,36(sp)
        stw   r9,  40(sp)
 110404c:	da400a15 	stw	r9,40(sp)
        stw   r10, 44(sp)
 1104050:	da800b15 	stw	r10,44(sp)
        stw   r11, 48(sp)
 1104054:	dac00c15 	stw	r11,48(sp)
        stw   r12, 52(sp)
 1104058:	db000d15 	stw	r12,52(sp)
        stw   r13, 56(sp)
 110405c:	db400e15 	stw	r13,56(sp)
        stw   r14, 60(sp)
 1104060:	db800f15 	stw	r14,60(sp)
        stw   r15, 64(sp)
 1104064:	dbc01015 	stw	r15,64(sp)
        /*
         * ea-4 contains the address of the instruction being executed
         * when the exception occured. For interrupt exceptions, we will
         * will be re-issue the isntruction. Store it in 72(sp)
         */
        stw   r5,  68(sp)  /* estatus */
 1104068:	d9401115 	stw	r5,68(sp)
        addi  r15, ea, -4  /* instruction that caused exception */
 110406c:	ebffff04 	addi	r15,ea,-4
        stw   r15,  72(sp)
 1104070:	dbc01215 	stw	r15,72(sp)
#else
        /*
         * Test to see if the exception was a software exception or caused 
         * by an external interrupt, and vector accordingly.
         */
        rdctl r4, ipending
 1104074:	0009313a 	rdctl	r4,ipending
        andi  r2, r5, 1
 1104078:	2880004c 	andi	r2,r5,1
        beq   r2, zero, .Lnot_irq
 110407c:	10000326 	beq	r2,zero,110408c <alt_exception+0x6c>
        beq   r4, zero, .Lnot_irq
 1104080:	20000226 	beq	r4,zero,110408c <alt_exception+0x6c>
        /*
         * Now that all necessary registers have been preserved, call 
         * alt_irq_handler() to process the interrupts.
         */

        call alt_irq_handler
 1104084:	11040ec0 	call	11040ec <alt_irq_handler>

        .section .exceptions.irqreturn, "xa"

        br    .Lexception_exit
 1104088:	00000306 	br	1104098 <alt_exception+0x78>
         * upon completion, so we write ea (address of instruction *after*
         * the one where the exception occured) into 72(sp). The actual
         * instruction that caused the exception is written in r2, which these
         * handlers will utilize.
         */
        stw   ea,  72(sp)  /* Don't re-issue */
 110408c:	df401215 	stw	ea,72(sp)
        ldw   r2, -4(ea)   /* Instruction that caused exception */
 1104090:	e8bfff17 	ldw	r2,-4(ea)
#ifdef NIOS2_HAS_DEBUG_STUB
       /*
        *  Either tell the user now (if there is a debugger attached) or go into
        *  the debug monitor which will loop until a debugger is attached.
        */
        break
 1104094:	003da03a 	break	0
        /* 
         * Restore the saved registers, so that all general purpose registers 
         * have been restored to their state at the time the interrupt occured.
         */

        ldw   r5,  68(sp)
 1104098:	d9401117 	ldw	r5,68(sp)
        ldw   ea,  72(sp)  /* This becomes the PC once eret is executed */
 110409c:	df401217 	ldw	ea,72(sp)
        ldw   ra,   0(sp)
 11040a0:	dfc00017 	ldw	ra,0(sp)

        wrctl estatus, r5
 11040a4:	2801707a 	wrctl	estatus,r5

        ldw   r1,   8(sp)
 11040a8:	d8400217 	ldw	at,8(sp)
        ldw   r2,  12(sp)
 11040ac:	d8800317 	ldw	r2,12(sp)
        ldw   r3,  16(sp)
 11040b0:	d8c00417 	ldw	r3,16(sp)
        ldw   r4,  20(sp)
 11040b4:	d9000517 	ldw	r4,20(sp)
        ldw   r5,  24(sp)
 11040b8:	d9400617 	ldw	r5,24(sp)
        ldw   r6,  28(sp)
 11040bc:	d9800717 	ldw	r6,28(sp)
        ldw   r7,  32(sp)
 11040c0:	d9c00817 	ldw	r7,32(sp)
#ifdef ALT_STACK_CHECK
        ldw   et, %gprel(alt_exception_old_stack_limit)(gp)
#endif
#endif

        ldw   r8,  36(sp)
 11040c4:	da000917 	ldw	r8,36(sp)
        ldw   r9,  40(sp)
 11040c8:	da400a17 	ldw	r9,40(sp)
        ldw   r10, 44(sp)
 11040cc:	da800b17 	ldw	r10,44(sp)
        ldw   r11, 48(sp)
 11040d0:	dac00c17 	ldw	r11,48(sp)
        ldw   r12, 52(sp)
 11040d4:	db000d17 	ldw	r12,52(sp)
        ldw   r13, 56(sp)
 11040d8:	db400e17 	ldw	r13,56(sp)
        ldw   r14, 60(sp)
 11040dc:	db800f17 	ldw	r14,60(sp)
        ldw   r15, 64(sp)
 11040e0:	dbc01017 	ldw	r15,64(sp)
#endif

        ldw   sp,  76(sp)

#else
        addi  sp, sp, 76
 11040e4:	dec01304 	addi	sp,sp,76

        /*
         * Return to the interrupted instruction.
         */

        eret
 11040e8:	ef80083a 	eret

011040ec <alt_irq_handler>:
 * instruction is present if the macro ALT_CI_INTERRUPT_VECTOR defined.
 */

void alt_irq_handler (void) __attribute__ ((section (".exceptions")));
void alt_irq_handler (void)
{
 11040ec:	defff904 	addi	sp,sp,-28
 11040f0:	dfc00615 	stw	ra,24(sp)
 11040f4:	df000515 	stw	fp,20(sp)
 11040f8:	df000504 	addi	fp,sp,20
  
  /*
   * Notify the operating system that we are at interrupt level.
   */ 
  
  ALT_OS_INT_ENTER();
 11040fc:	080436c0 	call	80436c <OSIntEnter>
#ifndef NIOS2_EIC_PRESENT
static ALT_INLINE alt_u32 ALT_ALWAYS_INLINE alt_irq_pending (void)
{
  alt_u32 active;

  NIOS2_READ_IPENDING (active);
 1104100:	0005313a 	rdctl	r2,ipending
 1104104:	e0bffc15 	stw	r2,-16(fp)

  return active;
 1104108:	e0bffc17 	ldw	r2,-16(fp)
   * Consider the case where the high priority interupt is asserted during
   * the interrupt entry sequence for a lower priority interrupt to see why
   * this is the case.
   */

  active = alt_irq_pending ();
 110410c:	e0bfff15 	stw	r2,-4(fp)

  do
  {
    i = 0;
 1104110:	e03ffd15 	stw	zero,-12(fp)
    mask = 1;
 1104114:	00800044 	movi	r2,1
 1104118:	e0bffe15 	stw	r2,-8(fp)
     * called to clear the interrupt condition.
     */

    do
    {
      if (active & mask)
 110411c:	e0ffff17 	ldw	r3,-4(fp)
 1104120:	e0bffe17 	ldw	r2,-8(fp)
 1104124:	1884703a 	and	r2,r3,r2
 1104128:	1005003a 	cmpeq	r2,r2,zero
 110412c:	1000161e 	bne	r2,zero,1104188 <alt_irq_handler+0x9c>
      { 
#ifdef ALT_ENHANCED_INTERRUPT_API_PRESENT
        alt_irq[i].handler(alt_irq[i].context); 
 1104130:	e0bffd17 	ldw	r2,-12(fp)
 1104134:	00c020b4 	movhi	r3,130
 1104138:	18e62904 	addi	r3,r3,-26460
 110413c:	100490fa 	slli	r2,r2,3
 1104140:	10c5883a 	add	r2,r2,r3
 1104144:	11400017 	ldw	r5,0(r2)
 1104148:	e0bffd17 	ldw	r2,-12(fp)
 110414c:	00c020b4 	movhi	r3,130
 1104150:	18e62904 	addi	r3,r3,-26460
 1104154:	100490fa 	slli	r2,r2,3
 1104158:	10c5883a 	add	r2,r2,r3
 110415c:	10800104 	addi	r2,r2,4
 1104160:	11000017 	ldw	r4,0(r2)
 1104164:	283ee83a 	callr	r5
#ifndef NIOS2_EIC_PRESENT
static ALT_INLINE alt_u32 ALT_ALWAYS_INLINE alt_irq_pending (void)
{
  alt_u32 active;

  NIOS2_READ_IPENDING (active);
 1104168:	0005313a 	rdctl	r2,ipending
 110416c:	e0bffb15 	stw	r2,-20(fp)

  return active;
 1104170:	e0bffb17 	ldw	r2,-20(fp)
      mask <<= 1;
      i++;

    } while (1);

    active = alt_irq_pending ();
 1104174:	e0bfff15 	stw	r2,-4(fp)
    
  } while (active);
 1104178:	e0bfff17 	ldw	r2,-4(fp)
 110417c:	1004c03a 	cmpne	r2,r2,zero
 1104180:	103fe31e 	bne	r2,zero,1104110 <alt_irq_handler+0x24>
 1104184:	00000706 	br	11041a4 <alt_irq_handler+0xb8>
#else
        alt_irq[i].handler(alt_irq[i].context, i); 
#endif
        break;
      }
      mask <<= 1;
 1104188:	e0bffe17 	ldw	r2,-8(fp)
 110418c:	1085883a 	add	r2,r2,r2
 1104190:	e0bffe15 	stw	r2,-8(fp)
      i++;
 1104194:	e0bffd17 	ldw	r2,-12(fp)
 1104198:	10800044 	addi	r2,r2,1
 110419c:	e0bffd15 	stw	r2,-12(fp)

    } while (1);
 11041a0:	003fde06 	br	110411c <alt_irq_handler+0x30>

  /*
   * Notify the operating system that interrupt processing is complete.
   */ 

  ALT_OS_INT_EXIT();
 11041a4:	08043e80 	call	8043e8 <OSIntExit>
}
 11041a8:	e037883a 	mov	sp,fp
 11041ac:	dfc00117 	ldw	ra,4(sp)
 11041b0:	df000017 	ldw	fp,0(sp)
 11041b4:	dec00204 	addi	sp,sp,8
 11041b8:	f800283a 	ret

Disassembly of section .text:

0080019c <_start>:
  80019c:	00880014 	movui	r2,8192
  8001a0:	10000033 	initd	0(r2)
  8001a4:	10bff804 	addi	r2,r2,-32
  8001a8:	00bffd16 	blt	zero,r2,8001a0 <_start+0x4>
  8001ac:	06c04034 	movhi	sp,256
  8001b0:	dec00014 	ori	sp,sp,0
  8001b4:	06802074 	movhi	gp,129
  8001b8:	d6a26714 	ori	gp,gp,35228
  8001bc:	00802074 	movhi	r2,129
  8001c0:	10897314 	ori	r2,r2,9676
  8001c4:	00c02074 	movhi	r3,129
  8001c8:	18e6cd14 	ori	r3,r3,39732
  8001cc:	10c00326 	beq	r2,r3,8001dc <_start+0x40>
  8001d0:	10000015 	stw	zero,0(r2)
  8001d4:	10800104 	addi	r2,r2,4
  8001d8:	10fffd36 	bltu	r2,r3,8001d0 <_start+0x34>
  8001dc:	0802ff00 	call	802ff0 <alt_load>
  8001e0:	080322c0 	call	80322c <alt_main>

008001e4 <alt_after_alt_main>:
  8001e4:	003fff06 	br	8001e4 <alt_after_alt_main>

008001e8 <task1>:
#define TASK1_PRIORITY      1
#define TASK2_PRIORITY      2

/* Prints "Hello World" and sleeps for three seconds */
void task1(void* pdata)
{
  8001e8:	defffd04 	addi	sp,sp,-12
  8001ec:	dfc00215 	stw	ra,8(sp)
  8001f0:	df000115 	stw	fp,4(sp)
  8001f4:	df000104 	addi	fp,sp,4
  8001f8:	e13fff15 	stw	r4,-4(fp)
  while (1)
  { 
    printf("Hello from task1\n");
  8001fc:	01002074 	movhi	r4,129
  800200:	213b3a04 	addi	r4,r4,-4888
  800204:	08003a40 	call	8003a4 <puts>
    OSTimeDlyHMSM(0, 0, 3, 0);
  800208:	0009883a 	mov	r4,zero
  80020c:	000b883a 	mov	r5,zero
  800210:	018000c4 	movi	r6,3
  800214:	000f883a 	mov	r7,zero
  800218:	080b8700 	call	80b870 <OSTimeDlyHMSM>
  }
  80021c:	003ff706 	br	8001fc <task1+0x14>

00800220 <task2>:
}
/* Prints "Hello World" and sleeps for three seconds */
void task2(void* pdata)
{
  800220:	defffd04 	addi	sp,sp,-12
  800224:	dfc00215 	stw	ra,8(sp)
  800228:	df000115 	stw	fp,4(sp)
  80022c:	df000104 	addi	fp,sp,4
  800230:	e13fff15 	stw	r4,-4(fp)
  while (1)
  { 
    printf("Hello from task2\n");
  800234:	01002074 	movhi	r4,129
  800238:	213b3f04 	addi	r4,r4,-4868
  80023c:	08003a40 	call	8003a4 <puts>
    OSTimeDlyHMSM(0, 0, 3, 0);
  800240:	0009883a 	mov	r4,zero
  800244:	000b883a 	mov	r5,zero
  800248:	018000c4 	movi	r6,3
  80024c:	000f883a 	mov	r7,zero
  800250:	080b8700 	call	80b870 <OSTimeDlyHMSM>
  }
  800254:	003ff706 	br	800234 <task2+0x14>

00800258 <main>:
}
/* The main function creates two task and starts multi-tasking */
int main(void)
{
  800258:	defff904 	addi	sp,sp,-28
  80025c:	dfc00615 	stw	ra,24(sp)
  800260:	df000515 	stw	fp,20(sp)
  800264:	df000504 	addi	fp,sp,20
  
  OSTaskCreateExt(task1,
  800268:	01802074 	movhi	r6,129
  80026c:	31919f04 	addi	r6,r6,18044
  800270:	00800044 	movi	r2,1
  800274:	d8800015 	stw	r2,0(sp)
  800278:	00802074 	movhi	r2,129
  80027c:	1089a004 	addi	r2,r2,9856
  800280:	d8800115 	stw	r2,4(sp)
  800284:	00820004 	movi	r2,2048
  800288:	d8800215 	stw	r2,8(sp)
  80028c:	d8000315 	stw	zero,12(sp)
  800290:	d8000415 	stw	zero,16(sp)
  800294:	01002034 	movhi	r4,128
  800298:	21007a04 	addi	r4,r4,488
  80029c:	000b883a 	mov	r5,zero
  8002a0:	01c00044 	movi	r7,1
  8002a4:	080a42c0 	call	80a42c <OSTaskCreateExt>
                  TASK_STACKSIZE,
                  NULL,
                  0);
              
               
  OSTaskCreateExt(task2,
  8002a8:	01802074 	movhi	r6,129
  8002ac:	31999f04 	addi	r6,r6,26236
  8002b0:	00800084 	movi	r2,2
  8002b4:	d8800015 	stw	r2,0(sp)
  8002b8:	00802074 	movhi	r2,129
  8002bc:	1091a004 	addi	r2,r2,18048
  8002c0:	d8800115 	stw	r2,4(sp)
  8002c4:	00820004 	movi	r2,2048
  8002c8:	d8800215 	stw	r2,8(sp)
  8002cc:	d8000315 	stw	zero,12(sp)
  8002d0:	d8000415 	stw	zero,16(sp)
  8002d4:	01002034 	movhi	r4,128
  8002d8:	21008804 	addi	r4,r4,544
  8002dc:	000b883a 	mov	r5,zero
  8002e0:	01c00084 	movi	r7,2
  8002e4:	080a42c0 	call	80a42c <OSTaskCreateExt>
                  TASK2_PRIORITY,
                  task2_stk,
                  TASK_STACKSIZE,
                  NULL,
                  0);
  OSStart();
  8002e8:	08046580 	call	804658 <OSStart>
  return 0;
  8002ec:	0005883a 	mov	r2,zero
}
  8002f0:	e037883a 	mov	sp,fp
  8002f4:	dfc00117 	ldw	ra,4(sp)
  8002f8:	df000017 	ldw	fp,0(sp)
  8002fc:	dec00204 	addi	sp,sp,8
  800300:	f800283a 	ret

00800304 <_puts_r>:
  800304:	defff604 	addi	sp,sp,-40
  800308:	dc400715 	stw	r17,28(sp)
  80030c:	2023883a 	mov	r17,r4
  800310:	2809883a 	mov	r4,r5
  800314:	dfc00915 	stw	ra,36(sp)
  800318:	dcc00815 	stw	r19,32(sp)
  80031c:	2827883a 	mov	r19,r5
  800320:	08003b80 	call	8003b8 <strlen>
  800324:	89400217 	ldw	r5,8(r17)
  800328:	00c02074 	movhi	r3,129
  80032c:	18fb4404 	addi	r3,r3,-4848
  800330:	01c00044 	movi	r7,1
  800334:	12000044 	addi	r8,r2,1
  800338:	d8c00515 	stw	r3,20(sp)
  80033c:	d9c00615 	stw	r7,24(sp)
  800340:	d8c00304 	addi	r3,sp,12
  800344:	01c00084 	movi	r7,2
  800348:	8809883a 	mov	r4,r17
  80034c:	d80d883a 	mov	r6,sp
  800350:	d8c00015 	stw	r3,0(sp)
  800354:	dcc00315 	stw	r19,12(sp)
  800358:	da000215 	stw	r8,8(sp)
  80035c:	d9c00115 	stw	r7,4(sp)
  800360:	d8800415 	stw	r2,16(sp)
  800364:	080042c0 	call	80042c <__sfvwrite_r>
  800368:	00ffffc4 	movi	r3,-1
  80036c:	10000626 	beq	r2,zero,800388 <_puts_r+0x84>
  800370:	1805883a 	mov	r2,r3
  800374:	dfc00917 	ldw	ra,36(sp)
  800378:	dcc00817 	ldw	r19,32(sp)
  80037c:	dc400717 	ldw	r17,28(sp)
  800380:	dec00a04 	addi	sp,sp,40
  800384:	f800283a 	ret
  800388:	00c00284 	movi	r3,10
  80038c:	1805883a 	mov	r2,r3
  800390:	dfc00917 	ldw	ra,36(sp)
  800394:	dcc00817 	ldw	r19,32(sp)
  800398:	dc400717 	ldw	r17,28(sp)
  80039c:	dec00a04 	addi	sp,sp,40
  8003a0:	f800283a 	ret

008003a4 <puts>:
  8003a4:	00802074 	movhi	r2,129
  8003a8:	10826704 	addi	r2,r2,2460
  8003ac:	200b883a 	mov	r5,r4
  8003b0:	11000017 	ldw	r4,0(r2)
  8003b4:	08003041 	jmpi	800304 <_puts_r>

008003b8 <strlen>:
  8003b8:	208000cc 	andi	r2,r4,3
  8003bc:	2011883a 	mov	r8,r4
  8003c0:	1000161e 	bne	r2,zero,80041c <strlen+0x64>
  8003c4:	20c00017 	ldw	r3,0(r4)
  8003c8:	017fbff4 	movhi	r5,65279
  8003cc:	297fbfc4 	addi	r5,r5,-257
  8003d0:	01e02074 	movhi	r7,32897
  8003d4:	39e02004 	addi	r7,r7,-32640
  8003d8:	1945883a 	add	r2,r3,r5
  8003dc:	11c4703a 	and	r2,r2,r7
  8003e0:	00c6303a 	nor	r3,zero,r3
  8003e4:	1886703a 	and	r3,r3,r2
  8003e8:	18000c1e 	bne	r3,zero,80041c <strlen+0x64>
  8003ec:	280d883a 	mov	r6,r5
  8003f0:	380b883a 	mov	r5,r7
  8003f4:	21000104 	addi	r4,r4,4
  8003f8:	20800017 	ldw	r2,0(r4)
  8003fc:	1187883a 	add	r3,r2,r6
  800400:	1946703a 	and	r3,r3,r5
  800404:	0084303a 	nor	r2,zero,r2
  800408:	10c4703a 	and	r2,r2,r3
  80040c:	103ff926 	beq	r2,zero,8003f4 <strlen+0x3c>
  800410:	20800007 	ldb	r2,0(r4)
  800414:	10000326 	beq	r2,zero,800424 <strlen+0x6c>
  800418:	21000044 	addi	r4,r4,1
  80041c:	20800007 	ldb	r2,0(r4)
  800420:	103ffd1e 	bne	r2,zero,800418 <strlen+0x60>
  800424:	2205c83a 	sub	r2,r4,r8
  800428:	f800283a 	ret

0080042c <__sfvwrite_r>:
  80042c:	30800217 	ldw	r2,8(r6)
  800430:	defff504 	addi	sp,sp,-44
  800434:	df000915 	stw	fp,36(sp)
  800438:	dd800715 	stw	r22,28(sp)
  80043c:	dc800315 	stw	r18,12(sp)
  800440:	dfc00a15 	stw	ra,40(sp)
  800444:	ddc00815 	stw	r23,32(sp)
  800448:	dd400615 	stw	r21,24(sp)
  80044c:	dd000515 	stw	r20,20(sp)
  800450:	dcc00415 	stw	r19,16(sp)
  800454:	dc400215 	stw	r17,8(sp)
  800458:	dc000115 	stw	r16,4(sp)
  80045c:	302d883a 	mov	r22,r6
  800460:	2039883a 	mov	fp,r4
  800464:	2825883a 	mov	r18,r5
  800468:	10001c26 	beq	r2,zero,8004dc <__sfvwrite_r+0xb0>
  80046c:	29c0030b 	ldhu	r7,12(r5)
  800470:	3880020c 	andi	r2,r7,8
  800474:	10002726 	beq	r2,zero,800514 <__sfvwrite_r+0xe8>
  800478:	28800417 	ldw	r2,16(r5)
  80047c:	10002526 	beq	r2,zero,800514 <__sfvwrite_r+0xe8>
  800480:	3880008c 	andi	r2,r7,2
  800484:	b5400017 	ldw	r21,0(r22)
  800488:	10002826 	beq	r2,zero,80052c <__sfvwrite_r+0x100>
  80048c:	0021883a 	mov	r16,zero
  800490:	0023883a 	mov	r17,zero
  800494:	880d883a 	mov	r6,r17
  800498:	e009883a 	mov	r4,fp
  80049c:	00810004 	movi	r2,1024
  8004a0:	80006e26 	beq	r16,zero,80065c <__sfvwrite_r+0x230>
  8004a4:	800f883a 	mov	r7,r16
  8004a8:	91400717 	ldw	r5,28(r18)
  8004ac:	1400012e 	bgeu	r2,r16,8004b4 <__sfvwrite_r+0x88>
  8004b0:	100f883a 	mov	r7,r2
  8004b4:	90c00917 	ldw	r3,36(r18)
  8004b8:	183ee83a 	callr	r3
  8004bc:	1007883a 	mov	r3,r2
  8004c0:	80a1c83a 	sub	r16,r16,r2
  8004c4:	88a3883a 	add	r17,r17,r2
  8004c8:	00806d0e 	bge	zero,r2,800680 <__sfvwrite_r+0x254>
  8004cc:	b0800217 	ldw	r2,8(r22)
  8004d0:	10c5c83a 	sub	r2,r2,r3
  8004d4:	b0800215 	stw	r2,8(r22)
  8004d8:	103fee1e 	bne	r2,zero,800494 <__sfvwrite_r+0x68>
  8004dc:	0009883a 	mov	r4,zero
  8004e0:	2005883a 	mov	r2,r4
  8004e4:	dfc00a17 	ldw	ra,40(sp)
  8004e8:	df000917 	ldw	fp,36(sp)
  8004ec:	ddc00817 	ldw	r23,32(sp)
  8004f0:	dd800717 	ldw	r22,28(sp)
  8004f4:	dd400617 	ldw	r21,24(sp)
  8004f8:	dd000517 	ldw	r20,20(sp)
  8004fc:	dcc00417 	ldw	r19,16(sp)
  800500:	dc800317 	ldw	r18,12(sp)
  800504:	dc400217 	ldw	r17,8(sp)
  800508:	dc000117 	ldw	r16,4(sp)
  80050c:	dec00b04 	addi	sp,sp,44
  800510:	f800283a 	ret
  800514:	08018d00 	call	8018d0 <__swsetup_r>
  800518:	1000e41e 	bne	r2,zero,8008ac <__sfvwrite_r+0x480>
  80051c:	91c0030b 	ldhu	r7,12(r18)
  800520:	b5400017 	ldw	r21,0(r22)
  800524:	3880008c 	andi	r2,r7,2
  800528:	103fd81e 	bne	r2,zero,80048c <__sfvwrite_r+0x60>
  80052c:	3880004c 	andi	r2,r7,1
  800530:	1005003a 	cmpeq	r2,r2,zero
  800534:	10005726 	beq	r2,zero,800694 <__sfvwrite_r+0x268>
  800538:	0029883a 	mov	r20,zero
  80053c:	002f883a 	mov	r23,zero
  800540:	a0004226 	beq	r20,zero,80064c <__sfvwrite_r+0x220>
  800544:	3880800c 	andi	r2,r7,512
  800548:	94000217 	ldw	r16,8(r18)
  80054c:	10008b26 	beq	r2,zero,80077c <__sfvwrite_r+0x350>
  800550:	800d883a 	mov	r6,r16
  800554:	a400a536 	bltu	r20,r16,8007ec <__sfvwrite_r+0x3c0>
  800558:	3881200c 	andi	r2,r7,1152
  80055c:	10002726 	beq	r2,zero,8005fc <__sfvwrite_r+0x1d0>
  800560:	90800517 	ldw	r2,20(r18)
  800564:	92000417 	ldw	r8,16(r18)
  800568:	91400017 	ldw	r5,0(r18)
  80056c:	1087883a 	add	r3,r2,r2
  800570:	1887883a 	add	r3,r3,r2
  800574:	1808d7fa 	srli	r4,r3,31
  800578:	2a21c83a 	sub	r16,r5,r8
  80057c:	80800044 	addi	r2,r16,1
  800580:	20c9883a 	add	r4,r4,r3
  800584:	2027d07a 	srai	r19,r4,1
  800588:	a085883a 	add	r2,r20,r2
  80058c:	980d883a 	mov	r6,r19
  800590:	9880022e 	bgeu	r19,r2,80059c <__sfvwrite_r+0x170>
  800594:	1027883a 	mov	r19,r2
  800598:	100d883a 	mov	r6,r2
  80059c:	3881000c 	andi	r2,r7,1024
  8005a0:	1000b826 	beq	r2,zero,800884 <__sfvwrite_r+0x458>
  8005a4:	300b883a 	mov	r5,r6
  8005a8:	e009883a 	mov	r4,fp
  8005ac:	08008c80 	call	8008c8 <_malloc_r>
  8005b0:	10003126 	beq	r2,zero,800678 <__sfvwrite_r+0x24c>
  8005b4:	91400417 	ldw	r5,16(r18)
  8005b8:	1009883a 	mov	r4,r2
  8005bc:	800d883a 	mov	r6,r16
  8005c0:	1023883a 	mov	r17,r2
  8005c4:	08010ec0 	call	8010ec <memcpy>
  8005c8:	90c0030b 	ldhu	r3,12(r18)
  8005cc:	00beffc4 	movi	r2,-1025
  8005d0:	1886703a 	and	r3,r3,r2
  8005d4:	18c02014 	ori	r3,r3,128
  8005d8:	90c0030d 	sth	r3,12(r18)
  8005dc:	9c07c83a 	sub	r3,r19,r16
  8005e0:	8c05883a 	add	r2,r17,r16
  8005e4:	a00d883a 	mov	r6,r20
  8005e8:	a021883a 	mov	r16,r20
  8005ec:	90800015 	stw	r2,0(r18)
  8005f0:	90c00215 	stw	r3,8(r18)
  8005f4:	94400415 	stw	r17,16(r18)
  8005f8:	94c00515 	stw	r19,20(r18)
  8005fc:	91000017 	ldw	r4,0(r18)
  800600:	b80b883a 	mov	r5,r23
  800604:	a023883a 	mov	r17,r20
  800608:	080118c0 	call	80118c <memmove>
  80060c:	90c00217 	ldw	r3,8(r18)
  800610:	90800017 	ldw	r2,0(r18)
  800614:	a027883a 	mov	r19,r20
  800618:	1c07c83a 	sub	r3,r3,r16
  80061c:	1405883a 	add	r2,r2,r16
  800620:	90c00215 	stw	r3,8(r18)
  800624:	a021883a 	mov	r16,r20
  800628:	90800015 	stw	r2,0(r18)
  80062c:	b0800217 	ldw	r2,8(r22)
  800630:	1405c83a 	sub	r2,r2,r16
  800634:	b0800215 	stw	r2,8(r22)
  800638:	103fa826 	beq	r2,zero,8004dc <__sfvwrite_r+0xb0>
  80063c:	a469c83a 	sub	r20,r20,r17
  800640:	91c0030b 	ldhu	r7,12(r18)
  800644:	bcef883a 	add	r23,r23,r19
  800648:	a03fbe1e 	bne	r20,zero,800544 <__sfvwrite_r+0x118>
  80064c:	adc00017 	ldw	r23,0(r21)
  800650:	ad000117 	ldw	r20,4(r21)
  800654:	ad400204 	addi	r21,r21,8
  800658:	003fb906 	br	800540 <__sfvwrite_r+0x114>
  80065c:	ac400017 	ldw	r17,0(r21)
  800660:	ac000117 	ldw	r16,4(r21)
  800664:	ad400204 	addi	r21,r21,8
  800668:	003f8a06 	br	800494 <__sfvwrite_r+0x68>
  80066c:	91400417 	ldw	r5,16(r18)
  800670:	e009883a 	mov	r4,fp
  800674:	08020280 	call	802028 <_free_r>
  800678:	00800304 	movi	r2,12
  80067c:	e0800015 	stw	r2,0(fp)
  800680:	9080030b 	ldhu	r2,12(r18)
  800684:	013fffc4 	movi	r4,-1
  800688:	10801014 	ori	r2,r2,64
  80068c:	9080030d 	sth	r2,12(r18)
  800690:	003f9306 	br	8004e0 <__sfvwrite_r+0xb4>
  800694:	0027883a 	mov	r19,zero
  800698:	002f883a 	mov	r23,zero
  80069c:	d8000015 	stw	zero,0(sp)
  8006a0:	0029883a 	mov	r20,zero
  8006a4:	98001e26 	beq	r19,zero,800720 <__sfvwrite_r+0x2f4>
  8006a8:	d8c00017 	ldw	r3,0(sp)
  8006ac:	1804c03a 	cmpne	r2,r3,zero
  8006b0:	10005e26 	beq	r2,zero,80082c <__sfvwrite_r+0x400>
  8006b4:	9821883a 	mov	r16,r19
  8006b8:	a4c0012e 	bgeu	r20,r19,8006c0 <__sfvwrite_r+0x294>
  8006bc:	a021883a 	mov	r16,r20
  8006c0:	91000017 	ldw	r4,0(r18)
  8006c4:	90800417 	ldw	r2,16(r18)
  8006c8:	91800217 	ldw	r6,8(r18)
  8006cc:	91c00517 	ldw	r7,20(r18)
  8006d0:	1100022e 	bgeu	r2,r4,8006dc <__sfvwrite_r+0x2b0>
  8006d4:	31e3883a 	add	r17,r6,r7
  8006d8:	8c001616 	blt	r17,r16,800734 <__sfvwrite_r+0x308>
  8006dc:	81c03816 	blt	r16,r7,8007c0 <__sfvwrite_r+0x394>
  8006e0:	90c00917 	ldw	r3,36(r18)
  8006e4:	91400717 	ldw	r5,28(r18)
  8006e8:	e009883a 	mov	r4,fp
  8006ec:	b80d883a 	mov	r6,r23
  8006f0:	183ee83a 	callr	r3
  8006f4:	1023883a 	mov	r17,r2
  8006f8:	00bfe10e 	bge	zero,r2,800680 <__sfvwrite_r+0x254>
  8006fc:	a469c83a 	sub	r20,r20,r17
  800700:	a0001826 	beq	r20,zero,800764 <__sfvwrite_r+0x338>
  800704:	b0800217 	ldw	r2,8(r22)
  800708:	1445c83a 	sub	r2,r2,r17
  80070c:	b0800215 	stw	r2,8(r22)
  800710:	103f7226 	beq	r2,zero,8004dc <__sfvwrite_r+0xb0>
  800714:	9c67c83a 	sub	r19,r19,r17
  800718:	bc6f883a 	add	r23,r23,r17
  80071c:	983fe21e 	bne	r19,zero,8006a8 <__sfvwrite_r+0x27c>
  800720:	adc00017 	ldw	r23,0(r21)
  800724:	acc00117 	ldw	r19,4(r21)
  800728:	ad400204 	addi	r21,r21,8
  80072c:	d8000015 	stw	zero,0(sp)
  800730:	003fdc06 	br	8006a4 <__sfvwrite_r+0x278>
  800734:	b80b883a 	mov	r5,r23
  800738:	880d883a 	mov	r6,r17
  80073c:	080118c0 	call	80118c <memmove>
  800740:	90c00017 	ldw	r3,0(r18)
  800744:	e009883a 	mov	r4,fp
  800748:	900b883a 	mov	r5,r18
  80074c:	1c47883a 	add	r3,r3,r17
  800750:	90c00015 	stw	r3,0(r18)
  800754:	0801a0c0 	call	801a0c <_fflush_r>
  800758:	103fc91e 	bne	r2,zero,800680 <__sfvwrite_r+0x254>
  80075c:	a469c83a 	sub	r20,r20,r17
  800760:	a03fe81e 	bne	r20,zero,800704 <__sfvwrite_r+0x2d8>
  800764:	e009883a 	mov	r4,fp
  800768:	900b883a 	mov	r5,r18
  80076c:	0801a0c0 	call	801a0c <_fflush_r>
  800770:	103fc31e 	bne	r2,zero,800680 <__sfvwrite_r+0x254>
  800774:	d8000015 	stw	zero,0(sp)
  800778:	003fe206 	br	800704 <__sfvwrite_r+0x2d8>
  80077c:	91000017 	ldw	r4,0(r18)
  800780:	90800417 	ldw	r2,16(r18)
  800784:	1100022e 	bgeu	r2,r4,800790 <__sfvwrite_r+0x364>
  800788:	8023883a 	mov	r17,r16
  80078c:	85003136 	bltu	r16,r20,800854 <__sfvwrite_r+0x428>
  800790:	91c00517 	ldw	r7,20(r18)
  800794:	a1c01836 	bltu	r20,r7,8007f8 <__sfvwrite_r+0x3cc>
  800798:	90c00917 	ldw	r3,36(r18)
  80079c:	91400717 	ldw	r5,28(r18)
  8007a0:	e009883a 	mov	r4,fp
  8007a4:	b80d883a 	mov	r6,r23
  8007a8:	183ee83a 	callr	r3
  8007ac:	1021883a 	mov	r16,r2
  8007b0:	00bfb30e 	bge	zero,r2,800680 <__sfvwrite_r+0x254>
  8007b4:	1023883a 	mov	r17,r2
  8007b8:	1027883a 	mov	r19,r2
  8007bc:	003f9b06 	br	80062c <__sfvwrite_r+0x200>
  8007c0:	b80b883a 	mov	r5,r23
  8007c4:	800d883a 	mov	r6,r16
  8007c8:	080118c0 	call	80118c <memmove>
  8007cc:	90c00217 	ldw	r3,8(r18)
  8007d0:	90800017 	ldw	r2,0(r18)
  8007d4:	8023883a 	mov	r17,r16
  8007d8:	1c07c83a 	sub	r3,r3,r16
  8007dc:	1405883a 	add	r2,r2,r16
  8007e0:	90c00215 	stw	r3,8(r18)
  8007e4:	90800015 	stw	r2,0(r18)
  8007e8:	003fc406 	br	8006fc <__sfvwrite_r+0x2d0>
  8007ec:	a00d883a 	mov	r6,r20
  8007f0:	a021883a 	mov	r16,r20
  8007f4:	003f8106 	br	8005fc <__sfvwrite_r+0x1d0>
  8007f8:	b80b883a 	mov	r5,r23
  8007fc:	a00d883a 	mov	r6,r20
  800800:	080118c0 	call	80118c <memmove>
  800804:	90c00217 	ldw	r3,8(r18)
  800808:	90800017 	ldw	r2,0(r18)
  80080c:	a021883a 	mov	r16,r20
  800810:	1d07c83a 	sub	r3,r3,r20
  800814:	1505883a 	add	r2,r2,r20
  800818:	a023883a 	mov	r17,r20
  80081c:	a027883a 	mov	r19,r20
  800820:	90c00215 	stw	r3,8(r18)
  800824:	90800015 	stw	r2,0(r18)
  800828:	003f8006 	br	80062c <__sfvwrite_r+0x200>
  80082c:	b809883a 	mov	r4,r23
  800830:	01400284 	movi	r5,10
  800834:	980d883a 	mov	r6,r19
  800838:	08010080 	call	801008 <memchr>
  80083c:	10001726 	beq	r2,zero,80089c <__sfvwrite_r+0x470>
  800840:	15c5c83a 	sub	r2,r2,r23
  800844:	15000044 	addi	r20,r2,1
  800848:	00800044 	movi	r2,1
  80084c:	d8800015 	stw	r2,0(sp)
  800850:	003f9806 	br	8006b4 <__sfvwrite_r+0x288>
  800854:	b80b883a 	mov	r5,r23
  800858:	800d883a 	mov	r6,r16
  80085c:	080118c0 	call	80118c <memmove>
  800860:	90c00017 	ldw	r3,0(r18)
  800864:	e009883a 	mov	r4,fp
  800868:	900b883a 	mov	r5,r18
  80086c:	1c07883a 	add	r3,r3,r16
  800870:	90c00015 	stw	r3,0(r18)
  800874:	8027883a 	mov	r19,r16
  800878:	0801a0c0 	call	801a0c <_fflush_r>
  80087c:	103f6b26 	beq	r2,zero,80062c <__sfvwrite_r+0x200>
  800880:	003f7f06 	br	800680 <__sfvwrite_r+0x254>
  800884:	400b883a 	mov	r5,r8
  800888:	e009883a 	mov	r4,fp
  80088c:	080126c0 	call	80126c <_realloc_r>
  800890:	103f7626 	beq	r2,zero,80066c <__sfvwrite_r+0x240>
  800894:	1023883a 	mov	r17,r2
  800898:	003f5006 	br	8005dc <__sfvwrite_r+0x1b0>
  80089c:	00c00044 	movi	r3,1
  8008a0:	9d000044 	addi	r20,r19,1
  8008a4:	d8c00015 	stw	r3,0(sp)
  8008a8:	003f8206 	br	8006b4 <__sfvwrite_r+0x288>
  8008ac:	9080030b 	ldhu	r2,12(r18)
  8008b0:	00c00244 	movi	r3,9
  8008b4:	013fffc4 	movi	r4,-1
  8008b8:	10801014 	ori	r2,r2,64
  8008bc:	9080030d 	sth	r2,12(r18)
  8008c0:	e0c00015 	stw	r3,0(fp)
  8008c4:	003f0606 	br	8004e0 <__sfvwrite_r+0xb4>

008008c8 <_malloc_r>:
  8008c8:	defff604 	addi	sp,sp,-40
  8008cc:	28c002c4 	addi	r3,r5,11
  8008d0:	00800584 	movi	r2,22
  8008d4:	dc800215 	stw	r18,8(sp)
  8008d8:	dfc00915 	stw	ra,36(sp)
  8008dc:	df000815 	stw	fp,32(sp)
  8008e0:	ddc00715 	stw	r23,28(sp)
  8008e4:	dd800615 	stw	r22,24(sp)
  8008e8:	dd400515 	stw	r21,20(sp)
  8008ec:	dd000415 	stw	r20,16(sp)
  8008f0:	dcc00315 	stw	r19,12(sp)
  8008f4:	dc400115 	stw	r17,4(sp)
  8008f8:	dc000015 	stw	r16,0(sp)
  8008fc:	2025883a 	mov	r18,r4
  800900:	10c01236 	bltu	r2,r3,80094c <_malloc_r+0x84>
  800904:	04400404 	movi	r17,16
  800908:	8940142e 	bgeu	r17,r5,80095c <_malloc_r+0x94>
  80090c:	00800304 	movi	r2,12
  800910:	0007883a 	mov	r3,zero
  800914:	90800015 	stw	r2,0(r18)
  800918:	1805883a 	mov	r2,r3
  80091c:	dfc00917 	ldw	ra,36(sp)
  800920:	df000817 	ldw	fp,32(sp)
  800924:	ddc00717 	ldw	r23,28(sp)
  800928:	dd800617 	ldw	r22,24(sp)
  80092c:	dd400517 	ldw	r21,20(sp)
  800930:	dd000417 	ldw	r20,16(sp)
  800934:	dcc00317 	ldw	r19,12(sp)
  800938:	dc800217 	ldw	r18,8(sp)
  80093c:	dc400117 	ldw	r17,4(sp)
  800940:	dc000017 	ldw	r16,0(sp)
  800944:	dec00a04 	addi	sp,sp,40
  800948:	f800283a 	ret
  80094c:	00bffe04 	movi	r2,-8
  800950:	18a2703a 	and	r17,r3,r2
  800954:	883fed16 	blt	r17,zero,80090c <_malloc_r+0x44>
  800958:	897fec36 	bltu	r17,r5,80090c <_malloc_r+0x44>
  80095c:	9009883a 	mov	r4,r18
  800960:	08038180 	call	803818 <__malloc_lock>
  800964:	00807dc4 	movi	r2,503
  800968:	14402b2e 	bgeu	r2,r17,800a18 <_malloc_r+0x150>
  80096c:	8806d27a 	srli	r3,r17,9
  800970:	18003f1e 	bne	r3,zero,800a70 <_malloc_r+0x1a8>
  800974:	880cd0fa 	srli	r6,r17,3
  800978:	300490fa 	slli	r2,r6,3
  80097c:	02c02074 	movhi	r11,129
  800980:	5afcb504 	addi	r11,r11,-3372
  800984:	12cb883a 	add	r5,r2,r11
  800988:	2c000317 	ldw	r16,12(r5)
  80098c:	580f883a 	mov	r7,r11
  800990:	2c00041e 	bne	r5,r16,8009a4 <_malloc_r+0xdc>
  800994:	00000a06 	br	8009c0 <_malloc_r+0xf8>
  800998:	1800860e 	bge	r3,zero,800bb4 <_malloc_r+0x2ec>
  80099c:	84000317 	ldw	r16,12(r16)
  8009a0:	2c000726 	beq	r5,r16,8009c0 <_malloc_r+0xf8>
  8009a4:	80800117 	ldw	r2,4(r16)
  8009a8:	00ffff04 	movi	r3,-4
  8009ac:	10c8703a 	and	r4,r2,r3
  8009b0:	2447c83a 	sub	r3,r4,r17
  8009b4:	008003c4 	movi	r2,15
  8009b8:	10fff70e 	bge	r2,r3,800998 <_malloc_r+0xd0>
  8009bc:	31bfffc4 	addi	r6,r6,-1
  8009c0:	32400044 	addi	r9,r6,1
  8009c4:	02802074 	movhi	r10,129
  8009c8:	52bcb704 	addi	r10,r10,-3364
  8009cc:	54000217 	ldw	r16,8(r10)
  8009d0:	8280a026 	beq	r16,r10,800c54 <_malloc_r+0x38c>
  8009d4:	80800117 	ldw	r2,4(r16)
  8009d8:	00ffff04 	movi	r3,-4
  8009dc:	10ca703a 	and	r5,r2,r3
  8009e0:	2c4dc83a 	sub	r6,r5,r17
  8009e4:	008003c4 	movi	r2,15
  8009e8:	11808316 	blt	r2,r6,800bf8 <_malloc_r+0x330>
  8009ec:	52800315 	stw	r10,12(r10)
  8009f0:	52800215 	stw	r10,8(r10)
  8009f4:	30002916 	blt	r6,zero,800a9c <_malloc_r+0x1d4>
  8009f8:	8147883a 	add	r3,r16,r5
  8009fc:	18800117 	ldw	r2,4(r3)
  800a00:	9009883a 	mov	r4,r18
  800a04:	10800054 	ori	r2,r2,1
  800a08:	18800115 	stw	r2,4(r3)
  800a0c:	08039200 	call	803920 <__malloc_unlock>
  800a10:	80c00204 	addi	r3,r16,8
  800a14:	003fc006 	br	800918 <_malloc_r+0x50>
  800a18:	02c02074 	movhi	r11,129
  800a1c:	5afcb504 	addi	r11,r11,-3372
  800a20:	8ac5883a 	add	r2,r17,r11
  800a24:	14000317 	ldw	r16,12(r2)
  800a28:	580f883a 	mov	r7,r11
  800a2c:	8806d0fa 	srli	r3,r17,3
  800a30:	14006c26 	beq	r2,r16,800be4 <_malloc_r+0x31c>
  800a34:	80c00117 	ldw	r3,4(r16)
  800a38:	00bfff04 	movi	r2,-4
  800a3c:	81800317 	ldw	r6,12(r16)
  800a40:	1886703a 	and	r3,r3,r2
  800a44:	80c7883a 	add	r3,r16,r3
  800a48:	18800117 	ldw	r2,4(r3)
  800a4c:	81400217 	ldw	r5,8(r16)
  800a50:	9009883a 	mov	r4,r18
  800a54:	10800054 	ori	r2,r2,1
  800a58:	18800115 	stw	r2,4(r3)
  800a5c:	31400215 	stw	r5,8(r6)
  800a60:	29800315 	stw	r6,12(r5)
  800a64:	08039200 	call	803920 <__malloc_unlock>
  800a68:	80c00204 	addi	r3,r16,8
  800a6c:	003faa06 	br	800918 <_malloc_r+0x50>
  800a70:	00800104 	movi	r2,4
  800a74:	10c0052e 	bgeu	r2,r3,800a8c <_malloc_r+0x1c4>
  800a78:	00800504 	movi	r2,20
  800a7c:	10c07836 	bltu	r2,r3,800c60 <_malloc_r+0x398>
  800a80:	198016c4 	addi	r6,r3,91
  800a84:	300490fa 	slli	r2,r6,3
  800a88:	003fbc06 	br	80097c <_malloc_r+0xb4>
  800a8c:	8804d1ba 	srli	r2,r17,6
  800a90:	11800e04 	addi	r6,r2,56
  800a94:	300490fa 	slli	r2,r6,3
  800a98:	003fb806 	br	80097c <_malloc_r+0xb4>
  800a9c:	00807fc4 	movi	r2,511
  800aa0:	1140bb36 	bltu	r2,r5,800d90 <_malloc_r+0x4c8>
  800aa4:	2806d0fa 	srli	r3,r5,3
  800aa8:	573ffe04 	addi	fp,r10,-8
  800aac:	00800044 	movi	r2,1
  800ab0:	180890fa 	slli	r4,r3,3
  800ab4:	1807d0ba 	srai	r3,r3,2
  800ab8:	e1c00117 	ldw	r7,4(fp)
  800abc:	5909883a 	add	r4,r11,r4
  800ac0:	21400217 	ldw	r5,8(r4)
  800ac4:	10c4983a 	sll	r2,r2,r3
  800ac8:	81000315 	stw	r4,12(r16)
  800acc:	81400215 	stw	r5,8(r16)
  800ad0:	388eb03a 	or	r7,r7,r2
  800ad4:	2c000315 	stw	r16,12(r5)
  800ad8:	24000215 	stw	r16,8(r4)
  800adc:	e1c00115 	stw	r7,4(fp)
  800ae0:	4807883a 	mov	r3,r9
  800ae4:	4800cd16 	blt	r9,zero,800e1c <_malloc_r+0x554>
  800ae8:	1807d0ba 	srai	r3,r3,2
  800aec:	00800044 	movi	r2,1
  800af0:	10c8983a 	sll	r4,r2,r3
  800af4:	39004436 	bltu	r7,r4,800c08 <_malloc_r+0x340>
  800af8:	21c4703a 	and	r2,r4,r7
  800afc:	10000a1e 	bne	r2,zero,800b28 <_malloc_r+0x260>
  800b00:	2109883a 	add	r4,r4,r4
  800b04:	00bfff04 	movi	r2,-4
  800b08:	4884703a 	and	r2,r9,r2
  800b0c:	3906703a 	and	r3,r7,r4
  800b10:	12400104 	addi	r9,r2,4
  800b14:	1800041e 	bne	r3,zero,800b28 <_malloc_r+0x260>
  800b18:	2109883a 	add	r4,r4,r4
  800b1c:	3904703a 	and	r2,r7,r4
  800b20:	4a400104 	addi	r9,r9,4
  800b24:	103ffc26 	beq	r2,zero,800b18 <_malloc_r+0x250>
  800b28:	480490fa 	slli	r2,r9,3
  800b2c:	4819883a 	mov	r12,r9
  800b30:	023fff04 	movi	r8,-4
  800b34:	589b883a 	add	r13,r11,r2
  800b38:	6807883a 	mov	r3,r13
  800b3c:	014003c4 	movi	r5,15
  800b40:	1c000317 	ldw	r16,12(r3)
  800b44:	1c00041e 	bne	r3,r16,800b58 <_malloc_r+0x290>
  800b48:	0000a706 	br	800de8 <_malloc_r+0x520>
  800b4c:	3000ab0e 	bge	r6,zero,800dfc <_malloc_r+0x534>
  800b50:	84000317 	ldw	r16,12(r16)
  800b54:	1c00a426 	beq	r3,r16,800de8 <_malloc_r+0x520>
  800b58:	80800117 	ldw	r2,4(r16)
  800b5c:	1204703a 	and	r2,r2,r8
  800b60:	144dc83a 	sub	r6,r2,r17
  800b64:	29bff90e 	bge	r5,r6,800b4c <_malloc_r+0x284>
  800b68:	81000317 	ldw	r4,12(r16)
  800b6c:	80c00217 	ldw	r3,8(r16)
  800b70:	89400054 	ori	r5,r17,1
  800b74:	8445883a 	add	r2,r16,r17
  800b78:	20c00215 	stw	r3,8(r4)
  800b7c:	19000315 	stw	r4,12(r3)
  800b80:	81400115 	stw	r5,4(r16)
  800b84:	1187883a 	add	r3,r2,r6
  800b88:	31000054 	ori	r4,r6,1
  800b8c:	50800315 	stw	r2,12(r10)
  800b90:	50800215 	stw	r2,8(r10)
  800b94:	19800015 	stw	r6,0(r3)
  800b98:	11000115 	stw	r4,4(r2)
  800b9c:	12800215 	stw	r10,8(r2)
  800ba0:	12800315 	stw	r10,12(r2)
  800ba4:	9009883a 	mov	r4,r18
  800ba8:	08039200 	call	803920 <__malloc_unlock>
  800bac:	80c00204 	addi	r3,r16,8
  800bb0:	003f5906 	br	800918 <_malloc_r+0x50>
  800bb4:	8109883a 	add	r4,r16,r4
  800bb8:	20800117 	ldw	r2,4(r4)
  800bbc:	80c00217 	ldw	r3,8(r16)
  800bc0:	81400317 	ldw	r5,12(r16)
  800bc4:	10800054 	ori	r2,r2,1
  800bc8:	20800115 	stw	r2,4(r4)
  800bcc:	28c00215 	stw	r3,8(r5)
  800bd0:	19400315 	stw	r5,12(r3)
  800bd4:	9009883a 	mov	r4,r18
  800bd8:	08039200 	call	803920 <__malloc_unlock>
  800bdc:	80c00204 	addi	r3,r16,8
  800be0:	003f4d06 	br	800918 <_malloc_r+0x50>
  800be4:	80800204 	addi	r2,r16,8
  800be8:	14000317 	ldw	r16,12(r2)
  800bec:	143f911e 	bne	r2,r16,800a34 <_malloc_r+0x16c>
  800bf0:	1a400084 	addi	r9,r3,2
  800bf4:	003f7306 	br	8009c4 <_malloc_r+0xfc>
  800bf8:	88c00054 	ori	r3,r17,1
  800bfc:	8445883a 	add	r2,r16,r17
  800c00:	80c00115 	stw	r3,4(r16)
  800c04:	003fdf06 	br	800b84 <_malloc_r+0x2bc>
  800c08:	e4000217 	ldw	r16,8(fp)
  800c0c:	00bfff04 	movi	r2,-4
  800c10:	80c00117 	ldw	r3,4(r16)
  800c14:	802d883a 	mov	r22,r16
  800c18:	18aa703a 	and	r21,r3,r2
  800c1c:	ac401636 	bltu	r21,r17,800c78 <_malloc_r+0x3b0>
  800c20:	ac49c83a 	sub	r4,r21,r17
  800c24:	008003c4 	movi	r2,15
  800c28:	1100130e 	bge	r2,r4,800c78 <_malloc_r+0x3b0>
  800c2c:	88800054 	ori	r2,r17,1
  800c30:	8447883a 	add	r3,r16,r17
  800c34:	80800115 	stw	r2,4(r16)
  800c38:	20800054 	ori	r2,r4,1
  800c3c:	18800115 	stw	r2,4(r3)
  800c40:	e0c00215 	stw	r3,8(fp)
  800c44:	9009883a 	mov	r4,r18
  800c48:	08039200 	call	803920 <__malloc_unlock>
  800c4c:	80c00204 	addi	r3,r16,8
  800c50:	003f3106 	br	800918 <_malloc_r+0x50>
  800c54:	39c00117 	ldw	r7,4(r7)
  800c58:	573ffe04 	addi	fp,r10,-8
  800c5c:	003fa006 	br	800ae0 <_malloc_r+0x218>
  800c60:	00801504 	movi	r2,84
  800c64:	10c06736 	bltu	r2,r3,800e04 <_malloc_r+0x53c>
  800c68:	8804d33a 	srli	r2,r17,12
  800c6c:	11801b84 	addi	r6,r2,110
  800c70:	300490fa 	slli	r2,r6,3
  800c74:	003f4106 	br	80097c <_malloc_r+0xb4>
  800c78:	d0a70c17 	ldw	r2,-25552(gp)
  800c7c:	d0e00317 	ldw	r3,-32756(gp)
  800c80:	053fffc4 	movi	r20,-1
  800c84:	10800404 	addi	r2,r2,16
  800c88:	88a7883a 	add	r19,r17,r2
  800c8c:	1d000326 	beq	r3,r20,800c9c <_malloc_r+0x3d4>
  800c90:	98c3ffc4 	addi	r3,r19,4095
  800c94:	00bc0004 	movi	r2,-4096
  800c98:	18a6703a 	and	r19,r3,r2
  800c9c:	9009883a 	mov	r4,r18
  800ca0:	980b883a 	mov	r5,r19
  800ca4:	08018600 	call	801860 <_sbrk_r>
  800ca8:	1009883a 	mov	r4,r2
  800cac:	15000426 	beq	r2,r20,800cc0 <_malloc_r+0x3f8>
  800cb0:	854b883a 	add	r5,r16,r21
  800cb4:	1029883a 	mov	r20,r2
  800cb8:	11405a2e 	bgeu	r2,r5,800e24 <_malloc_r+0x55c>
  800cbc:	87000c26 	beq	r16,fp,800cf0 <_malloc_r+0x428>
  800cc0:	e4000217 	ldw	r16,8(fp)
  800cc4:	80c00117 	ldw	r3,4(r16)
  800cc8:	00bfff04 	movi	r2,-4
  800ccc:	1884703a 	and	r2,r3,r2
  800cd0:	14400336 	bltu	r2,r17,800ce0 <_malloc_r+0x418>
  800cd4:	1449c83a 	sub	r4,r2,r17
  800cd8:	008003c4 	movi	r2,15
  800cdc:	113fd316 	blt	r2,r4,800c2c <_malloc_r+0x364>
  800ce0:	9009883a 	mov	r4,r18
  800ce4:	08039200 	call	803920 <__malloc_unlock>
  800ce8:	0007883a 	mov	r3,zero
  800cec:	003f0a06 	br	800918 <_malloc_r+0x50>
  800cf0:	05c02074 	movhi	r23,129
  800cf4:	bdc99604 	addi	r23,r23,9816
  800cf8:	b8800017 	ldw	r2,0(r23)
  800cfc:	988d883a 	add	r6,r19,r2
  800d00:	b9800015 	stw	r6,0(r23)
  800d04:	d0e00317 	ldw	r3,-32756(gp)
  800d08:	00bfffc4 	movi	r2,-1
  800d0c:	18808e26 	beq	r3,r2,800f48 <_malloc_r+0x680>
  800d10:	2145c83a 	sub	r2,r4,r5
  800d14:	3085883a 	add	r2,r6,r2
  800d18:	b8800015 	stw	r2,0(r23)
  800d1c:	20c001cc 	andi	r3,r4,7
  800d20:	18005f1e 	bne	r3,zero,800ea0 <_malloc_r+0x5d8>
  800d24:	000b883a 	mov	r5,zero
  800d28:	a4c5883a 	add	r2,r20,r19
  800d2c:	1083ffcc 	andi	r2,r2,4095
  800d30:	00c40004 	movi	r3,4096
  800d34:	1887c83a 	sub	r3,r3,r2
  800d38:	28e7883a 	add	r19,r5,r3
  800d3c:	9009883a 	mov	r4,r18
  800d40:	980b883a 	mov	r5,r19
  800d44:	08018600 	call	801860 <_sbrk_r>
  800d48:	1007883a 	mov	r3,r2
  800d4c:	00bfffc4 	movi	r2,-1
  800d50:	18807a26 	beq	r3,r2,800f3c <_malloc_r+0x674>
  800d54:	1d05c83a 	sub	r2,r3,r20
  800d58:	9885883a 	add	r2,r19,r2
  800d5c:	10c00054 	ori	r3,r2,1
  800d60:	b8800017 	ldw	r2,0(r23)
  800d64:	a021883a 	mov	r16,r20
  800d68:	a0c00115 	stw	r3,4(r20)
  800d6c:	9885883a 	add	r2,r19,r2
  800d70:	b8800015 	stw	r2,0(r23)
  800d74:	e5000215 	stw	r20,8(fp)
  800d78:	b7003626 	beq	r22,fp,800e54 <_malloc_r+0x58c>
  800d7c:	018003c4 	movi	r6,15
  800d80:	35404b36 	bltu	r6,r21,800eb0 <_malloc_r+0x5e8>
  800d84:	00800044 	movi	r2,1
  800d88:	a0800115 	stw	r2,4(r20)
  800d8c:	003fcd06 	br	800cc4 <_malloc_r+0x3fc>
  800d90:	2808d27a 	srli	r4,r5,9
  800d94:	2000371e 	bne	r4,zero,800e74 <_malloc_r+0x5ac>
  800d98:	2808d0fa 	srli	r4,r5,3
  800d9c:	200690fa 	slli	r3,r4,3
  800da0:	1ad1883a 	add	r8,r3,r11
  800da4:	41800217 	ldw	r6,8(r8)
  800da8:	41805b26 	beq	r8,r6,800f18 <_malloc_r+0x650>
  800dac:	30800117 	ldw	r2,4(r6)
  800db0:	00ffff04 	movi	r3,-4
  800db4:	10c4703a 	and	r2,r2,r3
  800db8:	2880022e 	bgeu	r5,r2,800dc4 <_malloc_r+0x4fc>
  800dbc:	31800217 	ldw	r6,8(r6)
  800dc0:	41bffa1e 	bne	r8,r6,800dac <_malloc_r+0x4e4>
  800dc4:	32000317 	ldw	r8,12(r6)
  800dc8:	39c00117 	ldw	r7,4(r7)
  800dcc:	82000315 	stw	r8,12(r16)
  800dd0:	81800215 	stw	r6,8(r16)
  800dd4:	07002074 	movhi	fp,129
  800dd8:	e73cb504 	addi	fp,fp,-3372
  800ddc:	34000315 	stw	r16,12(r6)
  800de0:	44000215 	stw	r16,8(r8)
  800de4:	003f3e06 	br	800ae0 <_malloc_r+0x218>
  800de8:	63000044 	addi	r12,r12,1
  800dec:	608000cc 	andi	r2,r12,3
  800df0:	10005d26 	beq	r2,zero,800f68 <_malloc_r+0x6a0>
  800df4:	18c00204 	addi	r3,r3,8
  800df8:	003f5106 	br	800b40 <_malloc_r+0x278>
  800dfc:	8089883a 	add	r4,r16,r2
  800e00:	003f6d06 	br	800bb8 <_malloc_r+0x2f0>
  800e04:	00805504 	movi	r2,340
  800e08:	10c02036 	bltu	r2,r3,800e8c <_malloc_r+0x5c4>
  800e0c:	8804d3fa 	srli	r2,r17,15
  800e10:	11801dc4 	addi	r6,r2,119
  800e14:	300490fa 	slli	r2,r6,3
  800e18:	003ed806 	br	80097c <_malloc_r+0xb4>
  800e1c:	48c000c4 	addi	r3,r9,3
  800e20:	003f3106 	br	800ae8 <_malloc_r+0x220>
  800e24:	05c02074 	movhi	r23,129
  800e28:	bdc99604 	addi	r23,r23,9816
  800e2c:	b8800017 	ldw	r2,0(r23)
  800e30:	988d883a 	add	r6,r19,r2
  800e34:	b9800015 	stw	r6,0(r23)
  800e38:	293fb21e 	bne	r5,r4,800d04 <_malloc_r+0x43c>
  800e3c:	2083ffcc 	andi	r2,r4,4095
  800e40:	103fb01e 	bne	r2,zero,800d04 <_malloc_r+0x43c>
  800e44:	e4000217 	ldw	r16,8(fp)
  800e48:	9d45883a 	add	r2,r19,r21
  800e4c:	10800054 	ori	r2,r2,1
  800e50:	80800115 	stw	r2,4(r16)
  800e54:	b8c00017 	ldw	r3,0(r23)
  800e58:	d0a70d17 	ldw	r2,-25548(gp)
  800e5c:	10c0012e 	bgeu	r2,r3,800e64 <_malloc_r+0x59c>
  800e60:	d0e70d15 	stw	r3,-25548(gp)
  800e64:	d0a70e17 	ldw	r2,-25544(gp)
  800e68:	10ff962e 	bgeu	r2,r3,800cc4 <_malloc_r+0x3fc>
  800e6c:	d0e70e15 	stw	r3,-25544(gp)
  800e70:	003f9406 	br	800cc4 <_malloc_r+0x3fc>
  800e74:	00800104 	movi	r2,4
  800e78:	11001e36 	bltu	r2,r4,800ef4 <_malloc_r+0x62c>
  800e7c:	2804d1ba 	srli	r2,r5,6
  800e80:	11000e04 	addi	r4,r2,56
  800e84:	200690fa 	slli	r3,r4,3
  800e88:	003fc506 	br	800da0 <_malloc_r+0x4d8>
  800e8c:	00815504 	movi	r2,1364
  800e90:	10c01d2e 	bgeu	r2,r3,800f08 <_malloc_r+0x640>
  800e94:	01801f84 	movi	r6,126
  800e98:	0080fc04 	movi	r2,1008
  800e9c:	003eb706 	br	80097c <_malloc_r+0xb4>
  800ea0:	00800204 	movi	r2,8
  800ea4:	10cbc83a 	sub	r5,r2,r3
  800ea8:	2169883a 	add	r20,r4,r5
  800eac:	003f9e06 	br	800d28 <_malloc_r+0x460>
  800eb0:	00bffe04 	movi	r2,-8
  800eb4:	a93ffd04 	addi	r4,r21,-12
  800eb8:	2088703a 	and	r4,r4,r2
  800ebc:	b10b883a 	add	r5,r22,r4
  800ec0:	00c00144 	movi	r3,5
  800ec4:	28c00215 	stw	r3,8(r5)
  800ec8:	28c00115 	stw	r3,4(r5)
  800ecc:	b0800117 	ldw	r2,4(r22)
  800ed0:	1080004c 	andi	r2,r2,1
  800ed4:	2084b03a 	or	r2,r4,r2
  800ed8:	b0800115 	stw	r2,4(r22)
  800edc:	313fdd2e 	bgeu	r6,r4,800e54 <_malloc_r+0x58c>
  800ee0:	b1400204 	addi	r5,r22,8
  800ee4:	9009883a 	mov	r4,r18
  800ee8:	08020280 	call	802028 <_free_r>
  800eec:	e4000217 	ldw	r16,8(fp)
  800ef0:	003fd806 	br	800e54 <_malloc_r+0x58c>
  800ef4:	00800504 	movi	r2,20
  800ef8:	11001536 	bltu	r2,r4,800f50 <_malloc_r+0x688>
  800efc:	210016c4 	addi	r4,r4,91
  800f00:	200690fa 	slli	r3,r4,3
  800f04:	003fa606 	br	800da0 <_malloc_r+0x4d8>
  800f08:	8804d4ba 	srli	r2,r17,18
  800f0c:	11801f04 	addi	r6,r2,124
  800f10:	300490fa 	slli	r2,r6,3
  800f14:	003e9906 	br	80097c <_malloc_r+0xb4>
  800f18:	2009d0ba 	srai	r4,r4,2
  800f1c:	01402074 	movhi	r5,129
  800f20:	297cb504 	addi	r5,r5,-3372
  800f24:	00c00044 	movi	r3,1
  800f28:	28800117 	ldw	r2,4(r5)
  800f2c:	1906983a 	sll	r3,r3,r4
  800f30:	10c4b03a 	or	r2,r2,r3
  800f34:	28800115 	stw	r2,4(r5)
  800f38:	003fa306 	br	800dc8 <_malloc_r+0x500>
  800f3c:	0027883a 	mov	r19,zero
  800f40:	00c00044 	movi	r3,1
  800f44:	003f8606 	br	800d60 <_malloc_r+0x498>
  800f48:	d1200315 	stw	r4,-32756(gp)
  800f4c:	003f7306 	br	800d1c <_malloc_r+0x454>
  800f50:	00801504 	movi	r2,84
  800f54:	11001936 	bltu	r2,r4,800fbc <_malloc_r+0x6f4>
  800f58:	2804d33a 	srli	r2,r5,12
  800f5c:	11001b84 	addi	r4,r2,110
  800f60:	200690fa 	slli	r3,r4,3
  800f64:	003f8e06 	br	800da0 <_malloc_r+0x4d8>
  800f68:	480b883a 	mov	r5,r9
  800f6c:	6807883a 	mov	r3,r13
  800f70:	288000cc 	andi	r2,r5,3
  800f74:	18fffe04 	addi	r3,r3,-8
  800f78:	297fffc4 	addi	r5,r5,-1
  800f7c:	10001526 	beq	r2,zero,800fd4 <_malloc_r+0x70c>
  800f80:	18800217 	ldw	r2,8(r3)
  800f84:	10fffa26 	beq	r2,r3,800f70 <_malloc_r+0x6a8>
  800f88:	2109883a 	add	r4,r4,r4
  800f8c:	393f1e36 	bltu	r7,r4,800c08 <_malloc_r+0x340>
  800f90:	203f1d26 	beq	r4,zero,800c08 <_malloc_r+0x340>
  800f94:	21c4703a 	and	r2,r4,r7
  800f98:	10000226 	beq	r2,zero,800fa4 <_malloc_r+0x6dc>
  800f9c:	6013883a 	mov	r9,r12
  800fa0:	003ee106 	br	800b28 <_malloc_r+0x260>
  800fa4:	2109883a 	add	r4,r4,r4
  800fa8:	3904703a 	and	r2,r7,r4
  800fac:	63000104 	addi	r12,r12,4
  800fb0:	103ffc26 	beq	r2,zero,800fa4 <_malloc_r+0x6dc>
  800fb4:	6013883a 	mov	r9,r12
  800fb8:	003edb06 	br	800b28 <_malloc_r+0x260>
  800fbc:	00805504 	movi	r2,340
  800fc0:	11000836 	bltu	r2,r4,800fe4 <_malloc_r+0x71c>
  800fc4:	2804d3fa 	srli	r2,r5,15
  800fc8:	11001dc4 	addi	r4,r2,119
  800fcc:	200690fa 	slli	r3,r4,3
  800fd0:	003f7306 	br	800da0 <_malloc_r+0x4d8>
  800fd4:	0104303a 	nor	r2,zero,r4
  800fd8:	388e703a 	and	r7,r7,r2
  800fdc:	e1c00115 	stw	r7,4(fp)
  800fe0:	003fe906 	br	800f88 <_malloc_r+0x6c0>
  800fe4:	00815504 	movi	r2,1364
  800fe8:	1100032e 	bgeu	r2,r4,800ff8 <_malloc_r+0x730>
  800fec:	01001f84 	movi	r4,126
  800ff0:	00c0fc04 	movi	r3,1008
  800ff4:	003f6a06 	br	800da0 <_malloc_r+0x4d8>
  800ff8:	2804d4ba 	srli	r2,r5,18
  800ffc:	11001f04 	addi	r4,r2,124
  801000:	200690fa 	slli	r3,r4,3
  801004:	003f6606 	br	800da0 <_malloc_r+0x4d8>

00801008 <memchr>:
  801008:	008000c4 	movi	r2,3
  80100c:	29403fcc 	andi	r5,r5,255
  801010:	2007883a 	mov	r3,r4
  801014:	1180022e 	bgeu	r2,r6,801020 <memchr+0x18>
  801018:	2084703a 	and	r2,r4,r2
  80101c:	10000b26 	beq	r2,zero,80104c <memchr+0x44>
  801020:	313fffc4 	addi	r4,r6,-1
  801024:	3000051e 	bne	r6,zero,80103c <memchr+0x34>
  801028:	00002c06 	br	8010dc <memchr+0xd4>
  80102c:	213fffc4 	addi	r4,r4,-1
  801030:	00bfffc4 	movi	r2,-1
  801034:	18c00044 	addi	r3,r3,1
  801038:	20802826 	beq	r4,r2,8010dc <memchr+0xd4>
  80103c:	18800003 	ldbu	r2,0(r3)
  801040:	28bffa1e 	bne	r5,r2,80102c <memchr+0x24>
  801044:	1805883a 	mov	r2,r3
  801048:	f800283a 	ret
  80104c:	0011883a 	mov	r8,zero
  801050:	0007883a 	mov	r3,zero
  801054:	01c00104 	movi	r7,4
  801058:	4004923a 	slli	r2,r8,8
  80105c:	18c00044 	addi	r3,r3,1
  801060:	1151883a 	add	r8,r2,r5
  801064:	19fffc1e 	bne	r3,r7,801058 <memchr+0x50>
  801068:	02bfbff4 	movhi	r10,65279
  80106c:	52bfbfc4 	addi	r10,r10,-257
  801070:	02602074 	movhi	r9,32897
  801074:	4a602004 	addi	r9,r9,-32640
  801078:	02c000c4 	movi	r11,3
  80107c:	20800017 	ldw	r2,0(r4)
  801080:	31bfff04 	addi	r6,r6,-4
  801084:	200f883a 	mov	r7,r4
  801088:	1204f03a 	xor	r2,r2,r8
  80108c:	1287883a 	add	r3,r2,r10
  801090:	1a46703a 	and	r3,r3,r9
  801094:	0084303a 	nor	r2,zero,r2
  801098:	10c4703a 	and	r2,r2,r3
  80109c:	10000b26 	beq	r2,zero,8010cc <memchr+0xc4>
  8010a0:	20800003 	ldbu	r2,0(r4)
  8010a4:	28800f26 	beq	r5,r2,8010e4 <memchr+0xdc>
  8010a8:	20800043 	ldbu	r2,1(r4)
  8010ac:	21c00044 	addi	r7,r4,1
  8010b0:	28800c26 	beq	r5,r2,8010e4 <memchr+0xdc>
  8010b4:	20800083 	ldbu	r2,2(r4)
  8010b8:	21c00084 	addi	r7,r4,2
  8010bc:	28800926 	beq	r5,r2,8010e4 <memchr+0xdc>
  8010c0:	208000c3 	ldbu	r2,3(r4)
  8010c4:	21c000c4 	addi	r7,r4,3
  8010c8:	28800626 	beq	r5,r2,8010e4 <memchr+0xdc>
  8010cc:	21000104 	addi	r4,r4,4
  8010d0:	59bfea36 	bltu	r11,r6,80107c <memchr+0x74>
  8010d4:	2007883a 	mov	r3,r4
  8010d8:	003fd106 	br	801020 <memchr+0x18>
  8010dc:	0005883a 	mov	r2,zero
  8010e0:	f800283a 	ret
  8010e4:	3805883a 	mov	r2,r7
  8010e8:	f800283a 	ret

008010ec <memcpy>:
  8010ec:	01c003c4 	movi	r7,15
  8010f0:	2007883a 	mov	r3,r4
  8010f4:	3980032e 	bgeu	r7,r6,801104 <memcpy+0x18>
  8010f8:	2904b03a 	or	r2,r5,r4
  8010fc:	108000cc 	andi	r2,r2,3
  801100:	10000926 	beq	r2,zero,801128 <memcpy+0x3c>
  801104:	30000626 	beq	r6,zero,801120 <memcpy+0x34>
  801108:	30cd883a 	add	r6,r6,r3
  80110c:	28800003 	ldbu	r2,0(r5)
  801110:	29400044 	addi	r5,r5,1
  801114:	18800005 	stb	r2,0(r3)
  801118:	18c00044 	addi	r3,r3,1
  80111c:	30fffb1e 	bne	r6,r3,80110c <memcpy+0x20>
  801120:	2005883a 	mov	r2,r4
  801124:	f800283a 	ret
  801128:	3811883a 	mov	r8,r7
  80112c:	200f883a 	mov	r7,r4
  801130:	28c00017 	ldw	r3,0(r5)
  801134:	31bffc04 	addi	r6,r6,-16
  801138:	38c00015 	stw	r3,0(r7)
  80113c:	28800117 	ldw	r2,4(r5)
  801140:	38800115 	stw	r2,4(r7)
  801144:	28c00217 	ldw	r3,8(r5)
  801148:	38c00215 	stw	r3,8(r7)
  80114c:	28800317 	ldw	r2,12(r5)
  801150:	29400404 	addi	r5,r5,16
  801154:	38800315 	stw	r2,12(r7)
  801158:	39c00404 	addi	r7,r7,16
  80115c:	41bff436 	bltu	r8,r6,801130 <memcpy+0x44>
  801160:	008000c4 	movi	r2,3
  801164:	1180072e 	bgeu	r2,r6,801184 <memcpy+0x98>
  801168:	1007883a 	mov	r3,r2
  80116c:	28800017 	ldw	r2,0(r5)
  801170:	31bfff04 	addi	r6,r6,-4
  801174:	29400104 	addi	r5,r5,4
  801178:	38800015 	stw	r2,0(r7)
  80117c:	39c00104 	addi	r7,r7,4
  801180:	19bffa36 	bltu	r3,r6,80116c <memcpy+0x80>
  801184:	3807883a 	mov	r3,r7
  801188:	003fde06 	br	801104 <memcpy+0x18>

0080118c <memmove>:
  80118c:	2807883a 	mov	r3,r5
  801190:	2011883a 	mov	r8,r4
  801194:	29000c2e 	bgeu	r5,r4,8011c8 <memmove+0x3c>
  801198:	298f883a 	add	r7,r5,r6
  80119c:	21c00a2e 	bgeu	r4,r7,8011c8 <memmove+0x3c>
  8011a0:	30000726 	beq	r6,zero,8011c0 <memmove+0x34>
  8011a4:	2187883a 	add	r3,r4,r6
  8011a8:	198dc83a 	sub	r6,r3,r6
  8011ac:	39ffffc4 	addi	r7,r7,-1
  8011b0:	38800003 	ldbu	r2,0(r7)
  8011b4:	18ffffc4 	addi	r3,r3,-1
  8011b8:	18800005 	stb	r2,0(r3)
  8011bc:	19bffb1e 	bne	r3,r6,8011ac <memmove+0x20>
  8011c0:	2005883a 	mov	r2,r4
  8011c4:	f800283a 	ret
  8011c8:	01c003c4 	movi	r7,15
  8011cc:	39800a36 	bltu	r7,r6,8011f8 <memmove+0x6c>
  8011d0:	303ffb26 	beq	r6,zero,8011c0 <memmove+0x34>
  8011d4:	400f883a 	mov	r7,r8
  8011d8:	320d883a 	add	r6,r6,r8
  8011dc:	28800003 	ldbu	r2,0(r5)
  8011e0:	29400044 	addi	r5,r5,1
  8011e4:	38800005 	stb	r2,0(r7)
  8011e8:	39c00044 	addi	r7,r7,1
  8011ec:	39bffb1e 	bne	r7,r6,8011dc <memmove+0x50>
  8011f0:	2005883a 	mov	r2,r4
  8011f4:	f800283a 	ret
  8011f8:	1904b03a 	or	r2,r3,r4
  8011fc:	108000cc 	andi	r2,r2,3
  801200:	103ff31e 	bne	r2,zero,8011d0 <memmove+0x44>
  801204:	3811883a 	mov	r8,r7
  801208:	180b883a 	mov	r5,r3
  80120c:	200f883a 	mov	r7,r4
  801210:	28c00017 	ldw	r3,0(r5)
  801214:	31bffc04 	addi	r6,r6,-16
  801218:	38c00015 	stw	r3,0(r7)
  80121c:	28800117 	ldw	r2,4(r5)
  801220:	38800115 	stw	r2,4(r7)
  801224:	28c00217 	ldw	r3,8(r5)
  801228:	38c00215 	stw	r3,8(r7)
  80122c:	28800317 	ldw	r2,12(r5)
  801230:	29400404 	addi	r5,r5,16
  801234:	38800315 	stw	r2,12(r7)
  801238:	39c00404 	addi	r7,r7,16
  80123c:	41bff436 	bltu	r8,r6,801210 <memmove+0x84>
  801240:	008000c4 	movi	r2,3
  801244:	1180072e 	bgeu	r2,r6,801264 <memmove+0xd8>
  801248:	1007883a 	mov	r3,r2
  80124c:	28800017 	ldw	r2,0(r5)
  801250:	31bfff04 	addi	r6,r6,-4
  801254:	29400104 	addi	r5,r5,4
  801258:	38800015 	stw	r2,0(r7)
  80125c:	39c00104 	addi	r7,r7,4
  801260:	19bffa36 	bltu	r3,r6,80124c <memmove+0xc0>
  801264:	3811883a 	mov	r8,r7
  801268:	003fd906 	br	8011d0 <memmove+0x44>

0080126c <_realloc_r>:
  80126c:	defff404 	addi	sp,sp,-48
  801270:	dd800815 	stw	r22,32(sp)
  801274:	dc800415 	stw	r18,16(sp)
  801278:	dc400315 	stw	r17,12(sp)
  80127c:	dfc00b15 	stw	ra,44(sp)
  801280:	df000a15 	stw	fp,40(sp)
  801284:	ddc00915 	stw	r23,36(sp)
  801288:	dd400715 	stw	r21,28(sp)
  80128c:	dd000615 	stw	r20,24(sp)
  801290:	dcc00515 	stw	r19,20(sp)
  801294:	dc000215 	stw	r16,8(sp)
  801298:	2825883a 	mov	r18,r5
  80129c:	3023883a 	mov	r17,r6
  8012a0:	202d883a 	mov	r22,r4
  8012a4:	2800c926 	beq	r5,zero,8015cc <_realloc_r+0x360>
  8012a8:	08038180 	call	803818 <__malloc_lock>
  8012ac:	943ffe04 	addi	r16,r18,-8
  8012b0:	88c002c4 	addi	r3,r17,11
  8012b4:	00800584 	movi	r2,22
  8012b8:	82000117 	ldw	r8,4(r16)
  8012bc:	10c01b2e 	bgeu	r2,r3,80132c <_realloc_r+0xc0>
  8012c0:	00bffe04 	movi	r2,-8
  8012c4:	188e703a 	and	r7,r3,r2
  8012c8:	3839883a 	mov	fp,r7
  8012cc:	38001a16 	blt	r7,zero,801338 <_realloc_r+0xcc>
  8012d0:	e4401936 	bltu	fp,r17,801338 <_realloc_r+0xcc>
  8012d4:	013fff04 	movi	r4,-4
  8012d8:	4126703a 	and	r19,r8,r4
  8012dc:	99c02616 	blt	r19,r7,801378 <_realloc_r+0x10c>
  8012e0:	802b883a 	mov	r21,r16
  8012e4:	9829883a 	mov	r20,r19
  8012e8:	84000204 	addi	r16,r16,8
  8012ec:	a80f883a 	mov	r7,r21
  8012f0:	a70dc83a 	sub	r6,r20,fp
  8012f4:	008003c4 	movi	r2,15
  8012f8:	1180c136 	bltu	r2,r6,801600 <_realloc_r+0x394>
  8012fc:	38800117 	ldw	r2,4(r7)
  801300:	a549883a 	add	r4,r20,r21
  801304:	1080004c 	andi	r2,r2,1
  801308:	a084b03a 	or	r2,r20,r2
  80130c:	38800115 	stw	r2,4(r7)
  801310:	20c00117 	ldw	r3,4(r4)
  801314:	18c00054 	ori	r3,r3,1
  801318:	20c00115 	stw	r3,4(r4)
  80131c:	b009883a 	mov	r4,r22
  801320:	08039200 	call	803920 <__malloc_unlock>
  801324:	8023883a 	mov	r17,r16
  801328:	00000606 	br	801344 <_realloc_r+0xd8>
  80132c:	01c00404 	movi	r7,16
  801330:	3839883a 	mov	fp,r7
  801334:	e47fe72e 	bgeu	fp,r17,8012d4 <_realloc_r+0x68>
  801338:	00800304 	movi	r2,12
  80133c:	0023883a 	mov	r17,zero
  801340:	b0800015 	stw	r2,0(r22)
  801344:	8805883a 	mov	r2,r17
  801348:	dfc00b17 	ldw	ra,44(sp)
  80134c:	df000a17 	ldw	fp,40(sp)
  801350:	ddc00917 	ldw	r23,36(sp)
  801354:	dd800817 	ldw	r22,32(sp)
  801358:	dd400717 	ldw	r21,28(sp)
  80135c:	dd000617 	ldw	r20,24(sp)
  801360:	dcc00517 	ldw	r19,20(sp)
  801364:	dc800417 	ldw	r18,16(sp)
  801368:	dc400317 	ldw	r17,12(sp)
  80136c:	dc000217 	ldw	r16,8(sp)
  801370:	dec00c04 	addi	sp,sp,48
  801374:	f800283a 	ret
  801378:	00802074 	movhi	r2,129
  80137c:	10bcb504 	addi	r2,r2,-3372
  801380:	12400217 	ldw	r9,8(r2)
  801384:	84cd883a 	add	r6,r16,r19
  801388:	802b883a 	mov	r21,r16
  80138c:	3240b926 	beq	r6,r9,801674 <_realloc_r+0x408>
  801390:	31400117 	ldw	r5,4(r6)
  801394:	00bfff84 	movi	r2,-2
  801398:	2884703a 	and	r2,r5,r2
  80139c:	1185883a 	add	r2,r2,r6
  8013a0:	10c00117 	ldw	r3,4(r2)
  8013a4:	18c0004c 	andi	r3,r3,1
  8013a8:	1807003a 	cmpeq	r3,r3,zero
  8013ac:	1800a326 	beq	r3,zero,80163c <_realloc_r+0x3d0>
  8013b0:	2908703a 	and	r4,r5,r4
  8013b4:	9929883a 	add	r20,r19,r4
  8013b8:	a1c0a30e 	bge	r20,r7,801648 <_realloc_r+0x3dc>
  8013bc:	4080004c 	andi	r2,r8,1
  8013c0:	1000551e 	bne	r2,zero,801518 <_realloc_r+0x2ac>
  8013c4:	80800017 	ldw	r2,0(r16)
  8013c8:	80afc83a 	sub	r23,r16,r2
  8013cc:	b8c00117 	ldw	r3,4(r23)
  8013d0:	00bfff04 	movi	r2,-4
  8013d4:	1884703a 	and	r2,r3,r2
  8013d8:	30002e26 	beq	r6,zero,801494 <_realloc_r+0x228>
  8013dc:	3240b926 	beq	r6,r9,8016c4 <_realloc_r+0x458>
  8013e0:	98a9883a 	add	r20,r19,r2
  8013e4:	2509883a 	add	r4,r4,r20
  8013e8:	d9000015 	stw	r4,0(sp)
  8013ec:	21c02a16 	blt	r4,r7,801498 <_realloc_r+0x22c>
  8013f0:	30800317 	ldw	r2,12(r6)
  8013f4:	30c00217 	ldw	r3,8(r6)
  8013f8:	01400904 	movi	r5,36
  8013fc:	99bfff04 	addi	r6,r19,-4
  801400:	18800315 	stw	r2,12(r3)
  801404:	10c00215 	stw	r3,8(r2)
  801408:	b9000317 	ldw	r4,12(r23)
  80140c:	b8800217 	ldw	r2,8(r23)
  801410:	b82b883a 	mov	r21,r23
  801414:	bc000204 	addi	r16,r23,8
  801418:	20800215 	stw	r2,8(r4)
  80141c:	11000315 	stw	r4,12(r2)
  801420:	2980e436 	bltu	r5,r6,8017b4 <_realloc_r+0x548>
  801424:	008004c4 	movi	r2,19
  801428:	9009883a 	mov	r4,r18
  80142c:	8011883a 	mov	r8,r16
  801430:	11800f2e 	bgeu	r2,r6,801470 <_realloc_r+0x204>
  801434:	90800017 	ldw	r2,0(r18)
  801438:	ba000404 	addi	r8,r23,16
  80143c:	91000204 	addi	r4,r18,8
  801440:	b8800215 	stw	r2,8(r23)
  801444:	90c00117 	ldw	r3,4(r18)
  801448:	008006c4 	movi	r2,27
  80144c:	b8c00315 	stw	r3,12(r23)
  801450:	1180072e 	bgeu	r2,r6,801470 <_realloc_r+0x204>
  801454:	90c00217 	ldw	r3,8(r18)
  801458:	ba000604 	addi	r8,r23,24
  80145c:	91000404 	addi	r4,r18,16
  801460:	b8c00415 	stw	r3,16(r23)
  801464:	90800317 	ldw	r2,12(r18)
  801468:	b8800515 	stw	r2,20(r23)
  80146c:	3140e726 	beq	r6,r5,80180c <_realloc_r+0x5a0>
  801470:	20800017 	ldw	r2,0(r4)
  801474:	dd000017 	ldw	r20,0(sp)
  801478:	b80f883a 	mov	r7,r23
  80147c:	40800015 	stw	r2,0(r8)
  801480:	20c00117 	ldw	r3,4(r4)
  801484:	40c00115 	stw	r3,4(r8)
  801488:	20800217 	ldw	r2,8(r4)
  80148c:	40800215 	stw	r2,8(r8)
  801490:	003f9706 	br	8012f0 <_realloc_r+0x84>
  801494:	98a9883a 	add	r20,r19,r2
  801498:	a1c01f16 	blt	r20,r7,801518 <_realloc_r+0x2ac>
  80149c:	b8c00317 	ldw	r3,12(r23)
  8014a0:	b8800217 	ldw	r2,8(r23)
  8014a4:	99bfff04 	addi	r6,r19,-4
  8014a8:	01400904 	movi	r5,36
  8014ac:	b82b883a 	mov	r21,r23
  8014b0:	18800215 	stw	r2,8(r3)
  8014b4:	10c00315 	stw	r3,12(r2)
  8014b8:	bc000204 	addi	r16,r23,8
  8014bc:	2980c336 	bltu	r5,r6,8017cc <_realloc_r+0x560>
  8014c0:	008004c4 	movi	r2,19
  8014c4:	9009883a 	mov	r4,r18
  8014c8:	8011883a 	mov	r8,r16
  8014cc:	11800f2e 	bgeu	r2,r6,80150c <_realloc_r+0x2a0>
  8014d0:	90800017 	ldw	r2,0(r18)
  8014d4:	ba000404 	addi	r8,r23,16
  8014d8:	91000204 	addi	r4,r18,8
  8014dc:	b8800215 	stw	r2,8(r23)
  8014e0:	90c00117 	ldw	r3,4(r18)
  8014e4:	008006c4 	movi	r2,27
  8014e8:	b8c00315 	stw	r3,12(r23)
  8014ec:	1180072e 	bgeu	r2,r6,80150c <_realloc_r+0x2a0>
  8014f0:	90c00217 	ldw	r3,8(r18)
  8014f4:	ba000604 	addi	r8,r23,24
  8014f8:	91000404 	addi	r4,r18,16
  8014fc:	b8c00415 	stw	r3,16(r23)
  801500:	90800317 	ldw	r2,12(r18)
  801504:	b8800515 	stw	r2,20(r23)
  801508:	3140c726 	beq	r6,r5,801828 <_realloc_r+0x5bc>
  80150c:	20800017 	ldw	r2,0(r4)
  801510:	b80f883a 	mov	r7,r23
  801514:	003fd906 	br	80147c <_realloc_r+0x210>
  801518:	880b883a 	mov	r5,r17
  80151c:	b009883a 	mov	r4,r22
  801520:	08008c80 	call	8008c8 <_malloc_r>
  801524:	1023883a 	mov	r17,r2
  801528:	10002526 	beq	r2,zero,8015c0 <_realloc_r+0x354>
  80152c:	80800117 	ldw	r2,4(r16)
  801530:	00ffff84 	movi	r3,-2
  801534:	893ffe04 	addi	r4,r17,-8
  801538:	10c4703a 	and	r2,r2,r3
  80153c:	8085883a 	add	r2,r16,r2
  801540:	20809526 	beq	r4,r2,801798 <_realloc_r+0x52c>
  801544:	99bfff04 	addi	r6,r19,-4
  801548:	01c00904 	movi	r7,36
  80154c:	39804536 	bltu	r7,r6,801664 <_realloc_r+0x3f8>
  801550:	008004c4 	movi	r2,19
  801554:	9009883a 	mov	r4,r18
  801558:	880b883a 	mov	r5,r17
  80155c:	11800f2e 	bgeu	r2,r6,80159c <_realloc_r+0x330>
  801560:	90800017 	ldw	r2,0(r18)
  801564:	89400204 	addi	r5,r17,8
  801568:	91000204 	addi	r4,r18,8
  80156c:	88800015 	stw	r2,0(r17)
  801570:	90c00117 	ldw	r3,4(r18)
  801574:	008006c4 	movi	r2,27
  801578:	88c00115 	stw	r3,4(r17)
  80157c:	1180072e 	bgeu	r2,r6,80159c <_realloc_r+0x330>
  801580:	90c00217 	ldw	r3,8(r18)
  801584:	89400404 	addi	r5,r17,16
  801588:	91000404 	addi	r4,r18,16
  80158c:	88c00215 	stw	r3,8(r17)
  801590:	90800317 	ldw	r2,12(r18)
  801594:	88800315 	stw	r2,12(r17)
  801598:	31c09126 	beq	r6,r7,8017e0 <_realloc_r+0x574>
  80159c:	20800017 	ldw	r2,0(r4)
  8015a0:	28800015 	stw	r2,0(r5)
  8015a4:	20c00117 	ldw	r3,4(r4)
  8015a8:	28c00115 	stw	r3,4(r5)
  8015ac:	20800217 	ldw	r2,8(r4)
  8015b0:	28800215 	stw	r2,8(r5)
  8015b4:	900b883a 	mov	r5,r18
  8015b8:	b009883a 	mov	r4,r22
  8015bc:	08020280 	call	802028 <_free_r>
  8015c0:	b009883a 	mov	r4,r22
  8015c4:	08039200 	call	803920 <__malloc_unlock>
  8015c8:	003f5e06 	br	801344 <_realloc_r+0xd8>
  8015cc:	300b883a 	mov	r5,r6
  8015d0:	dfc00b17 	ldw	ra,44(sp)
  8015d4:	df000a17 	ldw	fp,40(sp)
  8015d8:	ddc00917 	ldw	r23,36(sp)
  8015dc:	dd800817 	ldw	r22,32(sp)
  8015e0:	dd400717 	ldw	r21,28(sp)
  8015e4:	dd000617 	ldw	r20,24(sp)
  8015e8:	dcc00517 	ldw	r19,20(sp)
  8015ec:	dc800417 	ldw	r18,16(sp)
  8015f0:	dc400317 	ldw	r17,12(sp)
  8015f4:	dc000217 	ldw	r16,8(sp)
  8015f8:	dec00c04 	addi	sp,sp,48
  8015fc:	08008c81 	jmpi	8008c8 <_malloc_r>
  801600:	38800117 	ldw	r2,4(r7)
  801604:	e54b883a 	add	r5,fp,r21
  801608:	31000054 	ori	r4,r6,1
  80160c:	1080004c 	andi	r2,r2,1
  801610:	1704b03a 	or	r2,r2,fp
  801614:	38800115 	stw	r2,4(r7)
  801618:	29000115 	stw	r4,4(r5)
  80161c:	2987883a 	add	r3,r5,r6
  801620:	18800117 	ldw	r2,4(r3)
  801624:	29400204 	addi	r5,r5,8
  801628:	b009883a 	mov	r4,r22
  80162c:	10800054 	ori	r2,r2,1
  801630:	18800115 	stw	r2,4(r3)
  801634:	08020280 	call	802028 <_free_r>
  801638:	003f3806 	br	80131c <_realloc_r+0xb0>
  80163c:	000d883a 	mov	r6,zero
  801640:	0009883a 	mov	r4,zero
  801644:	003f5d06 	br	8013bc <_realloc_r+0x150>
  801648:	30c00217 	ldw	r3,8(r6)
  80164c:	30800317 	ldw	r2,12(r6)
  801650:	800f883a 	mov	r7,r16
  801654:	84000204 	addi	r16,r16,8
  801658:	10c00215 	stw	r3,8(r2)
  80165c:	18800315 	stw	r2,12(r3)
  801660:	003f2306 	br	8012f0 <_realloc_r+0x84>
  801664:	8809883a 	mov	r4,r17
  801668:	900b883a 	mov	r5,r18
  80166c:	080118c0 	call	80118c <memmove>
  801670:	003fd006 	br	8015b4 <_realloc_r+0x348>
  801674:	30800117 	ldw	r2,4(r6)
  801678:	e0c00404 	addi	r3,fp,16
  80167c:	1108703a 	and	r4,r2,r4
  801680:	9905883a 	add	r2,r19,r4
  801684:	10ff4d16 	blt	r2,r3,8013bc <_realloc_r+0x150>
  801688:	1705c83a 	sub	r2,r2,fp
  80168c:	870b883a 	add	r5,r16,fp
  801690:	10800054 	ori	r2,r2,1
  801694:	28800115 	stw	r2,4(r5)
  801698:	80c00117 	ldw	r3,4(r16)
  80169c:	00802074 	movhi	r2,129
  8016a0:	10bcb504 	addi	r2,r2,-3372
  8016a4:	b009883a 	mov	r4,r22
  8016a8:	18c0004c 	andi	r3,r3,1
  8016ac:	e0c6b03a 	or	r3,fp,r3
  8016b0:	11400215 	stw	r5,8(r2)
  8016b4:	80c00115 	stw	r3,4(r16)
  8016b8:	08039200 	call	803920 <__malloc_unlock>
  8016bc:	84400204 	addi	r17,r16,8
  8016c0:	003f2006 	br	801344 <_realloc_r+0xd8>
  8016c4:	98a9883a 	add	r20,r19,r2
  8016c8:	2509883a 	add	r4,r4,r20
  8016cc:	e0800404 	addi	r2,fp,16
  8016d0:	d9000115 	stw	r4,4(sp)
  8016d4:	20bf7016 	blt	r4,r2,801498 <_realloc_r+0x22c>
  8016d8:	b8c00317 	ldw	r3,12(r23)
  8016dc:	b8800217 	ldw	r2,8(r23)
  8016e0:	99bfff04 	addi	r6,r19,-4
  8016e4:	01400904 	movi	r5,36
  8016e8:	18800215 	stw	r2,8(r3)
  8016ec:	10c00315 	stw	r3,12(r2)
  8016f0:	bc400204 	addi	r17,r23,8
  8016f4:	29804136 	bltu	r5,r6,8017fc <_realloc_r+0x590>
  8016f8:	008004c4 	movi	r2,19
  8016fc:	9009883a 	mov	r4,r18
  801700:	880f883a 	mov	r7,r17
  801704:	11800f2e 	bgeu	r2,r6,801744 <_realloc_r+0x4d8>
  801708:	90800017 	ldw	r2,0(r18)
  80170c:	b9c00404 	addi	r7,r23,16
  801710:	91000204 	addi	r4,r18,8
  801714:	b8800215 	stw	r2,8(r23)
  801718:	90c00117 	ldw	r3,4(r18)
  80171c:	008006c4 	movi	r2,27
  801720:	b8c00315 	stw	r3,12(r23)
  801724:	1180072e 	bgeu	r2,r6,801744 <_realloc_r+0x4d8>
  801728:	90c00217 	ldw	r3,8(r18)
  80172c:	b9c00604 	addi	r7,r23,24
  801730:	91000404 	addi	r4,r18,16
  801734:	b8c00415 	stw	r3,16(r23)
  801738:	90800317 	ldw	r2,12(r18)
  80173c:	b8800515 	stw	r2,20(r23)
  801740:	31404026 	beq	r6,r5,801844 <_realloc_r+0x5d8>
  801744:	20800017 	ldw	r2,0(r4)
  801748:	38800015 	stw	r2,0(r7)
  80174c:	20c00117 	ldw	r3,4(r4)
  801750:	38c00115 	stw	r3,4(r7)
  801754:	20800217 	ldw	r2,8(r4)
  801758:	38800215 	stw	r2,8(r7)
  80175c:	d8c00117 	ldw	r3,4(sp)
  801760:	bf0b883a 	add	r5,r23,fp
  801764:	b009883a 	mov	r4,r22
  801768:	1f05c83a 	sub	r2,r3,fp
  80176c:	10800054 	ori	r2,r2,1
  801770:	28800115 	stw	r2,4(r5)
  801774:	b8c00117 	ldw	r3,4(r23)
  801778:	00802074 	movhi	r2,129
  80177c:	10bcb504 	addi	r2,r2,-3372
  801780:	11400215 	stw	r5,8(r2)
  801784:	18c0004c 	andi	r3,r3,1
  801788:	e0c6b03a 	or	r3,fp,r3
  80178c:	b8c00115 	stw	r3,4(r23)
  801790:	08039200 	call	803920 <__malloc_unlock>
  801794:	003eeb06 	br	801344 <_realloc_r+0xd8>
  801798:	20800117 	ldw	r2,4(r4)
  80179c:	00ffff04 	movi	r3,-4
  8017a0:	800f883a 	mov	r7,r16
  8017a4:	10c4703a 	and	r2,r2,r3
  8017a8:	98a9883a 	add	r20,r19,r2
  8017ac:	84000204 	addi	r16,r16,8
  8017b0:	003ecf06 	br	8012f0 <_realloc_r+0x84>
  8017b4:	900b883a 	mov	r5,r18
  8017b8:	8009883a 	mov	r4,r16
  8017bc:	080118c0 	call	80118c <memmove>
  8017c0:	dd000017 	ldw	r20,0(sp)
  8017c4:	b80f883a 	mov	r7,r23
  8017c8:	003ec906 	br	8012f0 <_realloc_r+0x84>
  8017cc:	900b883a 	mov	r5,r18
  8017d0:	8009883a 	mov	r4,r16
  8017d4:	080118c0 	call	80118c <memmove>
  8017d8:	b80f883a 	mov	r7,r23
  8017dc:	003ec406 	br	8012f0 <_realloc_r+0x84>
  8017e0:	90c00417 	ldw	r3,16(r18)
  8017e4:	89400604 	addi	r5,r17,24
  8017e8:	91000604 	addi	r4,r18,24
  8017ec:	88c00415 	stw	r3,16(r17)
  8017f0:	90800517 	ldw	r2,20(r18)
  8017f4:	88800515 	stw	r2,20(r17)
  8017f8:	003f6806 	br	80159c <_realloc_r+0x330>
  8017fc:	900b883a 	mov	r5,r18
  801800:	8809883a 	mov	r4,r17
  801804:	080118c0 	call	80118c <memmove>
  801808:	003fd406 	br	80175c <_realloc_r+0x4f0>
  80180c:	90c00417 	ldw	r3,16(r18)
  801810:	91000604 	addi	r4,r18,24
  801814:	ba000804 	addi	r8,r23,32
  801818:	b8c00615 	stw	r3,24(r23)
  80181c:	90800517 	ldw	r2,20(r18)
  801820:	b8800715 	stw	r2,28(r23)
  801824:	003f1206 	br	801470 <_realloc_r+0x204>
  801828:	90c00417 	ldw	r3,16(r18)
  80182c:	91000604 	addi	r4,r18,24
  801830:	ba000804 	addi	r8,r23,32
  801834:	b8c00615 	stw	r3,24(r23)
  801838:	90800517 	ldw	r2,20(r18)
  80183c:	b8800715 	stw	r2,28(r23)
  801840:	003f3206 	br	80150c <_realloc_r+0x2a0>
  801844:	90c00417 	ldw	r3,16(r18)
  801848:	91000604 	addi	r4,r18,24
  80184c:	b9c00804 	addi	r7,r23,32
  801850:	b8c00615 	stw	r3,24(r23)
  801854:	90800517 	ldw	r2,20(r18)
  801858:	b8800715 	stw	r2,28(r23)
  80185c:	003fb906 	br	801744 <_realloc_r+0x4d8>

00801860 <_sbrk_r>:
  801860:	defffd04 	addi	sp,sp,-12
  801864:	dc000015 	stw	r16,0(sp)
  801868:	04002074 	movhi	r16,129
  80186c:	84097604 	addi	r16,r16,9688
  801870:	dc400115 	stw	r17,4(sp)
  801874:	80000015 	stw	zero,0(r16)
  801878:	2023883a 	mov	r17,r4
  80187c:	2809883a 	mov	r4,r5
  801880:	dfc00215 	stw	ra,8(sp)
  801884:	08034d40 	call	8034d4 <sbrk>
  801888:	1007883a 	mov	r3,r2
  80188c:	00bfffc4 	movi	r2,-1
  801890:	18800626 	beq	r3,r2,8018ac <_sbrk_r+0x4c>
  801894:	1805883a 	mov	r2,r3
  801898:	dfc00217 	ldw	ra,8(sp)
  80189c:	dc400117 	ldw	r17,4(sp)
  8018a0:	dc000017 	ldw	r16,0(sp)
  8018a4:	dec00304 	addi	sp,sp,12
  8018a8:	f800283a 	ret
  8018ac:	80800017 	ldw	r2,0(r16)
  8018b0:	103ff826 	beq	r2,zero,801894 <_sbrk_r+0x34>
  8018b4:	88800015 	stw	r2,0(r17)
  8018b8:	1805883a 	mov	r2,r3
  8018bc:	dfc00217 	ldw	ra,8(sp)
  8018c0:	dc400117 	ldw	r17,4(sp)
  8018c4:	dc000017 	ldw	r16,0(sp)
  8018c8:	dec00304 	addi	sp,sp,12
  8018cc:	f800283a 	ret

008018d0 <__swsetup_r>:
  8018d0:	00802074 	movhi	r2,129
  8018d4:	10826704 	addi	r2,r2,2460
  8018d8:	10c00017 	ldw	r3,0(r2)
  8018dc:	defffd04 	addi	sp,sp,-12
  8018e0:	dc400115 	stw	r17,4(sp)
  8018e4:	dc000015 	stw	r16,0(sp)
  8018e8:	dfc00215 	stw	ra,8(sp)
  8018ec:	2023883a 	mov	r17,r4
  8018f0:	2821883a 	mov	r16,r5
  8018f4:	18000226 	beq	r3,zero,801900 <__swsetup_r+0x30>
  8018f8:	18800e17 	ldw	r2,56(r3)
  8018fc:	10001f26 	beq	r2,zero,80197c <__swsetup_r+0xac>
  801900:	8100030b 	ldhu	r4,12(r16)
  801904:	2080020c 	andi	r2,r4,8
  801908:	10002826 	beq	r2,zero,8019ac <__swsetup_r+0xdc>
  80190c:	81400417 	ldw	r5,16(r16)
  801910:	28001d26 	beq	r5,zero,801988 <__swsetup_r+0xb8>
  801914:	2080004c 	andi	r2,r4,1
  801918:	1005003a 	cmpeq	r2,r2,zero
  80191c:	10000b26 	beq	r2,zero,80194c <__swsetup_r+0x7c>
  801920:	2080008c 	andi	r2,r4,2
  801924:	10001226 	beq	r2,zero,801970 <__swsetup_r+0xa0>
  801928:	0005883a 	mov	r2,zero
  80192c:	80800215 	stw	r2,8(r16)
  801930:	28000b26 	beq	r5,zero,801960 <__swsetup_r+0x90>
  801934:	0005883a 	mov	r2,zero
  801938:	dfc00217 	ldw	ra,8(sp)
  80193c:	dc400117 	ldw	r17,4(sp)
  801940:	dc000017 	ldw	r16,0(sp)
  801944:	dec00304 	addi	sp,sp,12
  801948:	f800283a 	ret
  80194c:	80800517 	ldw	r2,20(r16)
  801950:	80000215 	stw	zero,8(r16)
  801954:	0085c83a 	sub	r2,zero,r2
  801958:	80800615 	stw	r2,24(r16)
  80195c:	283ff51e 	bne	r5,zero,801934 <__swsetup_r+0x64>
  801960:	2080200c 	andi	r2,r4,128
  801964:	103ff326 	beq	r2,zero,801934 <__swsetup_r+0x64>
  801968:	00bfffc4 	movi	r2,-1
  80196c:	003ff206 	br	801938 <__swsetup_r+0x68>
  801970:	80800517 	ldw	r2,20(r16)
  801974:	80800215 	stw	r2,8(r16)
  801978:	003fed06 	br	801930 <__swsetup_r+0x60>
  80197c:	1809883a 	mov	r4,r3
  801980:	0801ca40 	call	801ca4 <__sinit>
  801984:	003fde06 	br	801900 <__swsetup_r+0x30>
  801988:	20c0a00c 	andi	r3,r4,640
  80198c:	00808004 	movi	r2,512
  801990:	18bfe026 	beq	r3,r2,801914 <__swsetup_r+0x44>
  801994:	8809883a 	mov	r4,r17
  801998:	800b883a 	mov	r5,r16
  80199c:	08024bc0 	call	8024bc <__smakebuf_r>
  8019a0:	8100030b 	ldhu	r4,12(r16)
  8019a4:	81400417 	ldw	r5,16(r16)
  8019a8:	003fda06 	br	801914 <__swsetup_r+0x44>
  8019ac:	2080040c 	andi	r2,r4,16
  8019b0:	103fed26 	beq	r2,zero,801968 <__swsetup_r+0x98>
  8019b4:	2080010c 	andi	r2,r4,4
  8019b8:	10001226 	beq	r2,zero,801a04 <__swsetup_r+0x134>
  8019bc:	81400c17 	ldw	r5,48(r16)
  8019c0:	28000526 	beq	r5,zero,8019d8 <__swsetup_r+0x108>
  8019c4:	80801004 	addi	r2,r16,64
  8019c8:	28800226 	beq	r5,r2,8019d4 <__swsetup_r+0x104>
  8019cc:	8809883a 	mov	r4,r17
  8019d0:	08020280 	call	802028 <_free_r>
  8019d4:	80000c15 	stw	zero,48(r16)
  8019d8:	8080030b 	ldhu	r2,12(r16)
  8019dc:	81400417 	ldw	r5,16(r16)
  8019e0:	80000115 	stw	zero,4(r16)
  8019e4:	10bff6cc 	andi	r2,r2,65499
  8019e8:	8080030d 	sth	r2,12(r16)
  8019ec:	81400015 	stw	r5,0(r16)
  8019f0:	8080030b 	ldhu	r2,12(r16)
  8019f4:	10800214 	ori	r2,r2,8
  8019f8:	113fffcc 	andi	r4,r2,65535
  8019fc:	8080030d 	sth	r2,12(r16)
  801a00:	003fc306 	br	801910 <__swsetup_r+0x40>
  801a04:	81400417 	ldw	r5,16(r16)
  801a08:	003ff906 	br	8019f0 <__swsetup_r+0x120>

00801a0c <_fflush_r>:
  801a0c:	defffb04 	addi	sp,sp,-20
  801a10:	dcc00315 	stw	r19,12(sp)
  801a14:	dc800215 	stw	r18,8(sp)
  801a18:	dfc00415 	stw	ra,16(sp)
  801a1c:	dc400115 	stw	r17,4(sp)
  801a20:	dc000015 	stw	r16,0(sp)
  801a24:	2027883a 	mov	r19,r4
  801a28:	2825883a 	mov	r18,r5
  801a2c:	20000226 	beq	r4,zero,801a38 <_fflush_r+0x2c>
  801a30:	20800e17 	ldw	r2,56(r4)
  801a34:	10005626 	beq	r2,zero,801b90 <_fflush_r+0x184>
  801a38:	9100030b 	ldhu	r4,12(r18)
  801a3c:	20ffffcc 	andi	r3,r4,65535
  801a40:	18e0001c 	xori	r3,r3,32768
  801a44:	18e00004 	addi	r3,r3,-32768
  801a48:	1880020c 	andi	r2,r3,8
  801a4c:	1000261e 	bne	r2,zero,801ae8 <_fflush_r+0xdc>
  801a50:	90c00117 	ldw	r3,4(r18)
  801a54:	20820014 	ori	r2,r4,2048
  801a58:	9080030d 	sth	r2,12(r18)
  801a5c:	1009883a 	mov	r4,r2
  801a60:	00c0400e 	bge	zero,r3,801b64 <_fflush_r+0x158>
  801a64:	92000a17 	ldw	r8,40(r18)
  801a68:	40004026 	beq	r8,zero,801b6c <_fflush_r+0x160>
  801a6c:	2084000c 	andi	r2,r4,4096
  801a70:	10005326 	beq	r2,zero,801bc0 <_fflush_r+0x1b4>
  801a74:	94001417 	ldw	r16,80(r18)
  801a78:	9080030b 	ldhu	r2,12(r18)
  801a7c:	1080010c 	andi	r2,r2,4
  801a80:	1000481e 	bne	r2,zero,801ba4 <_fflush_r+0x198>
  801a84:	91400717 	ldw	r5,28(r18)
  801a88:	9809883a 	mov	r4,r19
  801a8c:	800d883a 	mov	r6,r16
  801a90:	000f883a 	mov	r7,zero
  801a94:	403ee83a 	callr	r8
  801a98:	8080261e 	bne	r16,r2,801b34 <_fflush_r+0x128>
  801a9c:	9080030b 	ldhu	r2,12(r18)
  801aa0:	91000417 	ldw	r4,16(r18)
  801aa4:	90000115 	stw	zero,4(r18)
  801aa8:	10bdffcc 	andi	r2,r2,63487
  801aac:	10ffffcc 	andi	r3,r2,65535
  801ab0:	18c4000c 	andi	r3,r3,4096
  801ab4:	9080030d 	sth	r2,12(r18)
  801ab8:	91000015 	stw	r4,0(r18)
  801abc:	18002b26 	beq	r3,zero,801b6c <_fflush_r+0x160>
  801ac0:	0007883a 	mov	r3,zero
  801ac4:	1805883a 	mov	r2,r3
  801ac8:	94001415 	stw	r16,80(r18)
  801acc:	dfc00417 	ldw	ra,16(sp)
  801ad0:	dcc00317 	ldw	r19,12(sp)
  801ad4:	dc800217 	ldw	r18,8(sp)
  801ad8:	dc400117 	ldw	r17,4(sp)
  801adc:	dc000017 	ldw	r16,0(sp)
  801ae0:	dec00504 	addi	sp,sp,20
  801ae4:	f800283a 	ret
  801ae8:	94400417 	ldw	r17,16(r18)
  801aec:	88001f26 	beq	r17,zero,801b6c <_fflush_r+0x160>
  801af0:	90800017 	ldw	r2,0(r18)
  801af4:	18c000cc 	andi	r3,r3,3
  801af8:	94400015 	stw	r17,0(r18)
  801afc:	1461c83a 	sub	r16,r2,r17
  801b00:	18002526 	beq	r3,zero,801b98 <_fflush_r+0x18c>
  801b04:	0005883a 	mov	r2,zero
  801b08:	90800215 	stw	r2,8(r18)
  801b0c:	0400170e 	bge	zero,r16,801b6c <_fflush_r+0x160>
  801b10:	90c00917 	ldw	r3,36(r18)
  801b14:	91400717 	ldw	r5,28(r18)
  801b18:	880d883a 	mov	r6,r17
  801b1c:	800f883a 	mov	r7,r16
  801b20:	9809883a 	mov	r4,r19
  801b24:	183ee83a 	callr	r3
  801b28:	88a3883a 	add	r17,r17,r2
  801b2c:	80a1c83a 	sub	r16,r16,r2
  801b30:	00bff616 	blt	zero,r2,801b0c <_fflush_r+0x100>
  801b34:	9080030b 	ldhu	r2,12(r18)
  801b38:	00ffffc4 	movi	r3,-1
  801b3c:	10801014 	ori	r2,r2,64
  801b40:	9080030d 	sth	r2,12(r18)
  801b44:	1805883a 	mov	r2,r3
  801b48:	dfc00417 	ldw	ra,16(sp)
  801b4c:	dcc00317 	ldw	r19,12(sp)
  801b50:	dc800217 	ldw	r18,8(sp)
  801b54:	dc400117 	ldw	r17,4(sp)
  801b58:	dc000017 	ldw	r16,0(sp)
  801b5c:	dec00504 	addi	sp,sp,20
  801b60:	f800283a 	ret
  801b64:	90800f17 	ldw	r2,60(r18)
  801b68:	00bfbe16 	blt	zero,r2,801a64 <_fflush_r+0x58>
  801b6c:	0007883a 	mov	r3,zero
  801b70:	1805883a 	mov	r2,r3
  801b74:	dfc00417 	ldw	ra,16(sp)
  801b78:	dcc00317 	ldw	r19,12(sp)
  801b7c:	dc800217 	ldw	r18,8(sp)
  801b80:	dc400117 	ldw	r17,4(sp)
  801b84:	dc000017 	ldw	r16,0(sp)
  801b88:	dec00504 	addi	sp,sp,20
  801b8c:	f800283a 	ret
  801b90:	0801ca40 	call	801ca4 <__sinit>
  801b94:	003fa806 	br	801a38 <_fflush_r+0x2c>
  801b98:	90800517 	ldw	r2,20(r18)
  801b9c:	90800215 	stw	r2,8(r18)
  801ba0:	003fda06 	br	801b0c <_fflush_r+0x100>
  801ba4:	90800117 	ldw	r2,4(r18)
  801ba8:	90c00c17 	ldw	r3,48(r18)
  801bac:	80a1c83a 	sub	r16,r16,r2
  801bb0:	183fb426 	beq	r3,zero,801a84 <_fflush_r+0x78>
  801bb4:	90800f17 	ldw	r2,60(r18)
  801bb8:	80a1c83a 	sub	r16,r16,r2
  801bbc:	003fb106 	br	801a84 <_fflush_r+0x78>
  801bc0:	91400717 	ldw	r5,28(r18)
  801bc4:	9809883a 	mov	r4,r19
  801bc8:	000d883a 	mov	r6,zero
  801bcc:	01c00044 	movi	r7,1
  801bd0:	403ee83a 	callr	r8
  801bd4:	1021883a 	mov	r16,r2
  801bd8:	00bfffc4 	movi	r2,-1
  801bdc:	80800226 	beq	r16,r2,801be8 <_fflush_r+0x1dc>
  801be0:	92000a17 	ldw	r8,40(r18)
  801be4:	003fa406 	br	801a78 <_fflush_r+0x6c>
  801be8:	98c00017 	ldw	r3,0(r19)
  801bec:	00800744 	movi	r2,29
  801bf0:	18bfde26 	beq	r3,r2,801b6c <_fflush_r+0x160>
  801bf4:	9080030b 	ldhu	r2,12(r18)
  801bf8:	8007883a 	mov	r3,r16
  801bfc:	10801014 	ori	r2,r2,64
  801c00:	9080030d 	sth	r2,12(r18)
  801c04:	003fcf06 	br	801b44 <_fflush_r+0x138>

00801c08 <fflush>:
  801c08:	01402034 	movhi	r5,128
  801c0c:	29468304 	addi	r5,r5,6668
  801c10:	2007883a 	mov	r3,r4
  801c14:	20000526 	beq	r4,zero,801c2c <fflush+0x24>
  801c18:	00802074 	movhi	r2,129
  801c1c:	10826704 	addi	r2,r2,2460
  801c20:	11000017 	ldw	r4,0(r2)
  801c24:	180b883a 	mov	r5,r3
  801c28:	0801a0c1 	jmpi	801a0c <_fflush_r>
  801c2c:	00802074 	movhi	r2,129
  801c30:	10826804 	addi	r2,r2,2464
  801c34:	11000017 	ldw	r4,0(r2)
  801c38:	080233c1 	jmpi	80233c <_fwalk_reent>

00801c3c <std>:
  801c3c:	00802034 	movhi	r2,128
  801c40:	1089ba04 	addi	r2,r2,9960
  801c44:	20800b15 	stw	r2,44(r4)
  801c48:	00802034 	movhi	r2,128
  801c4c:	1089f504 	addi	r2,r2,10196
  801c50:	20800815 	stw	r2,32(r4)
  801c54:	00c02034 	movhi	r3,128
  801c58:	18c9d604 	addi	r3,r3,10072
  801c5c:	00802034 	movhi	r2,128
  801c60:	1089bc04 	addi	r2,r2,9968
  801c64:	2140030d 	sth	r5,12(r4)
  801c68:	2180038d 	sth	r6,14(r4)
  801c6c:	20c00915 	stw	r3,36(r4)
  801c70:	20800a15 	stw	r2,40(r4)
  801c74:	20000015 	stw	zero,0(r4)
  801c78:	20000115 	stw	zero,4(r4)
  801c7c:	20000215 	stw	zero,8(r4)
  801c80:	20000415 	stw	zero,16(r4)
  801c84:	20000515 	stw	zero,20(r4)
  801c88:	20000615 	stw	zero,24(r4)
  801c8c:	21000715 	stw	r4,28(r4)
  801c90:	f800283a 	ret

00801c94 <__sfp_lock_acquire>:
  801c94:	f800283a 	ret

00801c98 <__sfp_lock_release>:
  801c98:	f800283a 	ret

00801c9c <__sinit_lock_acquire>:
  801c9c:	f800283a 	ret

00801ca0 <__sinit_lock_release>:
  801ca0:	f800283a 	ret

00801ca4 <__sinit>:
  801ca4:	20800e17 	ldw	r2,56(r4)
  801ca8:	defffd04 	addi	sp,sp,-12
  801cac:	dc400115 	stw	r17,4(sp)
  801cb0:	dc000015 	stw	r16,0(sp)
  801cb4:	dfc00215 	stw	ra,8(sp)
  801cb8:	04400044 	movi	r17,1
  801cbc:	01400104 	movi	r5,4
  801cc0:	000d883a 	mov	r6,zero
  801cc4:	2021883a 	mov	r16,r4
  801cc8:	2200bb04 	addi	r8,r4,748
  801ccc:	200f883a 	mov	r7,r4
  801cd0:	10000526 	beq	r2,zero,801ce8 <__sinit+0x44>
  801cd4:	dfc00217 	ldw	ra,8(sp)
  801cd8:	dc400117 	ldw	r17,4(sp)
  801cdc:	dc000017 	ldw	r16,0(sp)
  801ce0:	dec00304 	addi	sp,sp,12
  801ce4:	f800283a 	ret
  801ce8:	21000117 	ldw	r4,4(r4)
  801cec:	00802034 	movhi	r2,128
  801cf0:	10876204 	addi	r2,r2,7560
  801cf4:	00c000c4 	movi	r3,3
  801cf8:	80800f15 	stw	r2,60(r16)
  801cfc:	80c0b915 	stw	r3,740(r16)
  801d00:	8200ba15 	stw	r8,744(r16)
  801d04:	84400e15 	stw	r17,56(r16)
  801d08:	8000b815 	stw	zero,736(r16)
  801d0c:	0801c3c0 	call	801c3c <std>
  801d10:	81000217 	ldw	r4,8(r16)
  801d14:	880d883a 	mov	r6,r17
  801d18:	800f883a 	mov	r7,r16
  801d1c:	01400284 	movi	r5,10
  801d20:	0801c3c0 	call	801c3c <std>
  801d24:	81000317 	ldw	r4,12(r16)
  801d28:	800f883a 	mov	r7,r16
  801d2c:	01400484 	movi	r5,18
  801d30:	01800084 	movi	r6,2
  801d34:	dfc00217 	ldw	ra,8(sp)
  801d38:	dc400117 	ldw	r17,4(sp)
  801d3c:	dc000017 	ldw	r16,0(sp)
  801d40:	dec00304 	addi	sp,sp,12
  801d44:	0801c3c1 	jmpi	801c3c <std>

00801d48 <__fp_lock>:
  801d48:	0005883a 	mov	r2,zero
  801d4c:	f800283a 	ret

00801d50 <__fp_unlock>:
  801d50:	0005883a 	mov	r2,zero
  801d54:	f800283a 	ret

00801d58 <__fp_unlock_all>:
  801d58:	00802074 	movhi	r2,129
  801d5c:	10826704 	addi	r2,r2,2460
  801d60:	11000017 	ldw	r4,0(r2)
  801d64:	01402034 	movhi	r5,128
  801d68:	29475404 	addi	r5,r5,7504
  801d6c:	08024041 	jmpi	802404 <_fwalk>

00801d70 <__fp_lock_all>:
  801d70:	00802074 	movhi	r2,129
  801d74:	10826704 	addi	r2,r2,2460
  801d78:	11000017 	ldw	r4,0(r2)
  801d7c:	01402034 	movhi	r5,128
  801d80:	29475204 	addi	r5,r5,7496
  801d84:	08024041 	jmpi	802404 <_fwalk>

00801d88 <_cleanup_r>:
  801d88:	01402034 	movhi	r5,128
  801d8c:	294a8b04 	addi	r5,r5,10796
  801d90:	08024041 	jmpi	802404 <_fwalk>

00801d94 <_cleanup>:
  801d94:	00802074 	movhi	r2,129
  801d98:	10826804 	addi	r2,r2,2464
  801d9c:	11000017 	ldw	r4,0(r2)
  801da0:	0801d881 	jmpi	801d88 <_cleanup_r>

00801da4 <__sfmoreglue>:
  801da4:	defffc04 	addi	sp,sp,-16
  801da8:	dc400115 	stw	r17,4(sp)
  801dac:	2c401724 	muli	r17,r5,92
  801db0:	dc800215 	stw	r18,8(sp)
  801db4:	2825883a 	mov	r18,r5
  801db8:	89400304 	addi	r5,r17,12
  801dbc:	dc000015 	stw	r16,0(sp)
  801dc0:	dfc00315 	stw	ra,12(sp)
  801dc4:	08008c80 	call	8008c8 <_malloc_r>
  801dc8:	0021883a 	mov	r16,zero
  801dcc:	880d883a 	mov	r6,r17
  801dd0:	000b883a 	mov	r5,zero
  801dd4:	10000626 	beq	r2,zero,801df0 <__sfmoreglue+0x4c>
  801dd8:	11000304 	addi	r4,r2,12
  801ddc:	14800115 	stw	r18,4(r2)
  801de0:	10000015 	stw	zero,0(r2)
  801de4:	11000215 	stw	r4,8(r2)
  801de8:	1021883a 	mov	r16,r2
  801dec:	08026500 	call	802650 <memset>
  801df0:	8005883a 	mov	r2,r16
  801df4:	dfc00317 	ldw	ra,12(sp)
  801df8:	dc800217 	ldw	r18,8(sp)
  801dfc:	dc400117 	ldw	r17,4(sp)
  801e00:	dc000017 	ldw	r16,0(sp)
  801e04:	dec00404 	addi	sp,sp,16
  801e08:	f800283a 	ret

00801e0c <__sfp>:
  801e0c:	defffd04 	addi	sp,sp,-12
  801e10:	00802074 	movhi	r2,129
  801e14:	10826804 	addi	r2,r2,2464
  801e18:	dc000015 	stw	r16,0(sp)
  801e1c:	14000017 	ldw	r16,0(r2)
  801e20:	dc400115 	stw	r17,4(sp)
  801e24:	dfc00215 	stw	ra,8(sp)
  801e28:	80800e17 	ldw	r2,56(r16)
  801e2c:	2023883a 	mov	r17,r4
  801e30:	10002626 	beq	r2,zero,801ecc <__sfp+0xc0>
  801e34:	8400b804 	addi	r16,r16,736
  801e38:	80800117 	ldw	r2,4(r16)
  801e3c:	81000217 	ldw	r4,8(r16)
  801e40:	10ffffc4 	addi	r3,r2,-1
  801e44:	18000916 	blt	r3,zero,801e6c <__sfp+0x60>
  801e48:	2080030f 	ldh	r2,12(r4)
  801e4c:	10000b26 	beq	r2,zero,801e7c <__sfp+0x70>
  801e50:	017fffc4 	movi	r5,-1
  801e54:	00000206 	br	801e60 <__sfp+0x54>
  801e58:	2080030f 	ldh	r2,12(r4)
  801e5c:	10000726 	beq	r2,zero,801e7c <__sfp+0x70>
  801e60:	18ffffc4 	addi	r3,r3,-1
  801e64:	21001704 	addi	r4,r4,92
  801e68:	197ffb1e 	bne	r3,r5,801e58 <__sfp+0x4c>
  801e6c:	80800017 	ldw	r2,0(r16)
  801e70:	10001926 	beq	r2,zero,801ed8 <__sfp+0xcc>
  801e74:	1021883a 	mov	r16,r2
  801e78:	003fef06 	br	801e38 <__sfp+0x2c>
  801e7c:	00bfffc4 	movi	r2,-1
  801e80:	00c00044 	movi	r3,1
  801e84:	2080038d 	sth	r2,14(r4)
  801e88:	20c0030d 	sth	r3,12(r4)
  801e8c:	20000015 	stw	zero,0(r4)
  801e90:	20000215 	stw	zero,8(r4)
  801e94:	20000115 	stw	zero,4(r4)
  801e98:	20000415 	stw	zero,16(r4)
  801e9c:	20000515 	stw	zero,20(r4)
  801ea0:	20000615 	stw	zero,24(r4)
  801ea4:	20000c15 	stw	zero,48(r4)
  801ea8:	20000d15 	stw	zero,52(r4)
  801eac:	20001115 	stw	zero,68(r4)
  801eb0:	20001215 	stw	zero,72(r4)
  801eb4:	2005883a 	mov	r2,r4
  801eb8:	dfc00217 	ldw	ra,8(sp)
  801ebc:	dc400117 	ldw	r17,4(sp)
  801ec0:	dc000017 	ldw	r16,0(sp)
  801ec4:	dec00304 	addi	sp,sp,12
  801ec8:	f800283a 	ret
  801ecc:	8009883a 	mov	r4,r16
  801ed0:	0801ca40 	call	801ca4 <__sinit>
  801ed4:	003fd706 	br	801e34 <__sfp+0x28>
  801ed8:	8809883a 	mov	r4,r17
  801edc:	01400104 	movi	r5,4
  801ee0:	0801da40 	call	801da4 <__sfmoreglue>
  801ee4:	80800015 	stw	r2,0(r16)
  801ee8:	103fe21e 	bne	r2,zero,801e74 <__sfp+0x68>
  801eec:	00800304 	movi	r2,12
  801ef0:	0009883a 	mov	r4,zero
  801ef4:	88800015 	stw	r2,0(r17)
  801ef8:	003fee06 	br	801eb4 <__sfp+0xa8>

00801efc <_malloc_trim_r>:
  801efc:	defffb04 	addi	sp,sp,-20
  801f00:	dcc00315 	stw	r19,12(sp)
  801f04:	04c02074 	movhi	r19,129
  801f08:	9cfcb504 	addi	r19,r19,-3372
  801f0c:	dc800215 	stw	r18,8(sp)
  801f10:	dc400115 	stw	r17,4(sp)
  801f14:	dc000015 	stw	r16,0(sp)
  801f18:	2823883a 	mov	r17,r5
  801f1c:	2025883a 	mov	r18,r4
  801f20:	dfc00415 	stw	ra,16(sp)
  801f24:	08038180 	call	803818 <__malloc_lock>
  801f28:	98800217 	ldw	r2,8(r19)
  801f2c:	9009883a 	mov	r4,r18
  801f30:	000b883a 	mov	r5,zero
  801f34:	10c00117 	ldw	r3,4(r2)
  801f38:	00bfff04 	movi	r2,-4
  801f3c:	18a0703a 	and	r16,r3,r2
  801f40:	8463c83a 	sub	r17,r16,r17
  801f44:	8c43fbc4 	addi	r17,r17,4079
  801f48:	8822d33a 	srli	r17,r17,12
  801f4c:	0083ffc4 	movi	r2,4095
  801f50:	8c7fffc4 	addi	r17,r17,-1
  801f54:	8822933a 	slli	r17,r17,12
  801f58:	1440060e 	bge	r2,r17,801f74 <_malloc_trim_r+0x78>
  801f5c:	08018600 	call	801860 <_sbrk_r>
  801f60:	98c00217 	ldw	r3,8(r19)
  801f64:	9009883a 	mov	r4,r18
  801f68:	044bc83a 	sub	r5,zero,r17
  801f6c:	80c7883a 	add	r3,r16,r3
  801f70:	10c00926 	beq	r2,r3,801f98 <_malloc_trim_r+0x9c>
  801f74:	08039200 	call	803920 <__malloc_unlock>
  801f78:	0005883a 	mov	r2,zero
  801f7c:	dfc00417 	ldw	ra,16(sp)
  801f80:	dcc00317 	ldw	r19,12(sp)
  801f84:	dc800217 	ldw	r18,8(sp)
  801f88:	dc400117 	ldw	r17,4(sp)
  801f8c:	dc000017 	ldw	r16,0(sp)
  801f90:	dec00504 	addi	sp,sp,20
  801f94:	f800283a 	ret
  801f98:	9009883a 	mov	r4,r18
  801f9c:	08018600 	call	801860 <_sbrk_r>
  801fa0:	844dc83a 	sub	r6,r16,r17
  801fa4:	00ffffc4 	movi	r3,-1
  801fa8:	9009883a 	mov	r4,r18
  801fac:	000b883a 	mov	r5,zero
  801fb0:	01c02074 	movhi	r7,129
  801fb4:	39c99604 	addi	r7,r7,9816
  801fb8:	31800054 	ori	r6,r6,1
  801fbc:	10c00926 	beq	r2,r3,801fe4 <_malloc_trim_r+0xe8>
  801fc0:	38800017 	ldw	r2,0(r7)
  801fc4:	98c00217 	ldw	r3,8(r19)
  801fc8:	9009883a 	mov	r4,r18
  801fcc:	1445c83a 	sub	r2,r2,r17
  801fd0:	38800015 	stw	r2,0(r7)
  801fd4:	19800115 	stw	r6,4(r3)
  801fd8:	08039200 	call	803920 <__malloc_unlock>
  801fdc:	00800044 	movi	r2,1
  801fe0:	003fe606 	br	801f7c <_malloc_trim_r+0x80>
  801fe4:	08018600 	call	801860 <_sbrk_r>
  801fe8:	99800217 	ldw	r6,8(r19)
  801fec:	100f883a 	mov	r7,r2
  801ff0:	9009883a 	mov	r4,r18
  801ff4:	1187c83a 	sub	r3,r2,r6
  801ff8:	008003c4 	movi	r2,15
  801ffc:	19400054 	ori	r5,r3,1
  802000:	10ffdc0e 	bge	r2,r3,801f74 <_malloc_trim_r+0x78>
  802004:	00802074 	movhi	r2,129
  802008:	10826a04 	addi	r2,r2,2472
  80200c:	10c00017 	ldw	r3,0(r2)
  802010:	00802074 	movhi	r2,129
  802014:	10899604 	addi	r2,r2,9816
  802018:	31400115 	stw	r5,4(r6)
  80201c:	38c7c83a 	sub	r3,r7,r3
  802020:	10c00015 	stw	r3,0(r2)
  802024:	003fd306 	br	801f74 <_malloc_trim_r+0x78>

00802028 <_free_r>:
  802028:	defffd04 	addi	sp,sp,-12
  80202c:	dc400115 	stw	r17,4(sp)
  802030:	dc000015 	stw	r16,0(sp)
  802034:	dfc00215 	stw	ra,8(sp)
  802038:	2821883a 	mov	r16,r5
  80203c:	2023883a 	mov	r17,r4
  802040:	28005a26 	beq	r5,zero,8021ac <_free_r+0x184>
  802044:	08038180 	call	803818 <__malloc_lock>
  802048:	823ffe04 	addi	r8,r16,-8
  80204c:	41400117 	ldw	r5,4(r8)
  802050:	00bfff84 	movi	r2,-2
  802054:	02802074 	movhi	r10,129
  802058:	52bcb504 	addi	r10,r10,-3372
  80205c:	288e703a 	and	r7,r5,r2
  802060:	41cd883a 	add	r6,r8,r7
  802064:	30c00117 	ldw	r3,4(r6)
  802068:	51000217 	ldw	r4,8(r10)
  80206c:	00bfff04 	movi	r2,-4
  802070:	1892703a 	and	r9,r3,r2
  802074:	5017883a 	mov	r11,r10
  802078:	31006726 	beq	r6,r4,802218 <_free_r+0x1f0>
  80207c:	2880004c 	andi	r2,r5,1
  802080:	1005003a 	cmpeq	r2,r2,zero
  802084:	32400115 	stw	r9,4(r6)
  802088:	10001a1e 	bne	r2,zero,8020f4 <_free_r+0xcc>
  80208c:	000b883a 	mov	r5,zero
  802090:	3247883a 	add	r3,r6,r9
  802094:	18800117 	ldw	r2,4(r3)
  802098:	1080004c 	andi	r2,r2,1
  80209c:	1000231e 	bne	r2,zero,80212c <_free_r+0x104>
  8020a0:	280ac03a 	cmpne	r5,r5,zero
  8020a4:	3a4f883a 	add	r7,r7,r9
  8020a8:	2800451e 	bne	r5,zero,8021c0 <_free_r+0x198>
  8020ac:	31000217 	ldw	r4,8(r6)
  8020b0:	00802074 	movhi	r2,129
  8020b4:	10bcb704 	addi	r2,r2,-3364
  8020b8:	20807b26 	beq	r4,r2,8022a8 <_free_r+0x280>
  8020bc:	30800317 	ldw	r2,12(r6)
  8020c0:	3a07883a 	add	r3,r7,r8
  8020c4:	19c00015 	stw	r7,0(r3)
  8020c8:	11000215 	stw	r4,8(r2)
  8020cc:	20800315 	stw	r2,12(r4)
  8020d0:	38800054 	ori	r2,r7,1
  8020d4:	40800115 	stw	r2,4(r8)
  8020d8:	28001a26 	beq	r5,zero,802144 <_free_r+0x11c>
  8020dc:	8809883a 	mov	r4,r17
  8020e0:	dfc00217 	ldw	ra,8(sp)
  8020e4:	dc400117 	ldw	r17,4(sp)
  8020e8:	dc000017 	ldw	r16,0(sp)
  8020ec:	dec00304 	addi	sp,sp,12
  8020f0:	08039201 	jmpi	803920 <__malloc_unlock>
  8020f4:	80bffe17 	ldw	r2,-8(r16)
  8020f8:	50c00204 	addi	r3,r10,8
  8020fc:	4091c83a 	sub	r8,r8,r2
  802100:	41000217 	ldw	r4,8(r8)
  802104:	388f883a 	add	r7,r7,r2
  802108:	20c06126 	beq	r4,r3,802290 <_free_r+0x268>
  80210c:	40800317 	ldw	r2,12(r8)
  802110:	3247883a 	add	r3,r6,r9
  802114:	000b883a 	mov	r5,zero
  802118:	11000215 	stw	r4,8(r2)
  80211c:	20800315 	stw	r2,12(r4)
  802120:	18800117 	ldw	r2,4(r3)
  802124:	1080004c 	andi	r2,r2,1
  802128:	103fdd26 	beq	r2,zero,8020a0 <_free_r+0x78>
  80212c:	38800054 	ori	r2,r7,1
  802130:	3a07883a 	add	r3,r7,r8
  802134:	280ac03a 	cmpne	r5,r5,zero
  802138:	40800115 	stw	r2,4(r8)
  80213c:	19c00015 	stw	r7,0(r3)
  802140:	283fe61e 	bne	r5,zero,8020dc <_free_r+0xb4>
  802144:	00807fc4 	movi	r2,511
  802148:	11c01f2e 	bgeu	r2,r7,8021c8 <_free_r+0x1a0>
  80214c:	3806d27a 	srli	r3,r7,9
  802150:	1800481e 	bne	r3,zero,802274 <_free_r+0x24c>
  802154:	3804d0fa 	srli	r2,r7,3
  802158:	100690fa 	slli	r3,r2,3
  80215c:	1acd883a 	add	r6,r3,r11
  802160:	31400217 	ldw	r5,8(r6)
  802164:	31405926 	beq	r6,r5,8022cc <_free_r+0x2a4>
  802168:	28800117 	ldw	r2,4(r5)
  80216c:	00ffff04 	movi	r3,-4
  802170:	10c4703a 	and	r2,r2,r3
  802174:	3880022e 	bgeu	r7,r2,802180 <_free_r+0x158>
  802178:	29400217 	ldw	r5,8(r5)
  80217c:	317ffa1e 	bne	r6,r5,802168 <_free_r+0x140>
  802180:	29800317 	ldw	r6,12(r5)
  802184:	41800315 	stw	r6,12(r8)
  802188:	41400215 	stw	r5,8(r8)
  80218c:	8809883a 	mov	r4,r17
  802190:	2a000315 	stw	r8,12(r5)
  802194:	32000215 	stw	r8,8(r6)
  802198:	dfc00217 	ldw	ra,8(sp)
  80219c:	dc400117 	ldw	r17,4(sp)
  8021a0:	dc000017 	ldw	r16,0(sp)
  8021a4:	dec00304 	addi	sp,sp,12
  8021a8:	08039201 	jmpi	803920 <__malloc_unlock>
  8021ac:	dfc00217 	ldw	ra,8(sp)
  8021b0:	dc400117 	ldw	r17,4(sp)
  8021b4:	dc000017 	ldw	r16,0(sp)
  8021b8:	dec00304 	addi	sp,sp,12
  8021bc:	f800283a 	ret
  8021c0:	31000217 	ldw	r4,8(r6)
  8021c4:	003fbd06 	br	8020bc <_free_r+0x94>
  8021c8:	3806d0fa 	srli	r3,r7,3
  8021cc:	00800044 	movi	r2,1
  8021d0:	51400117 	ldw	r5,4(r10)
  8021d4:	180890fa 	slli	r4,r3,3
  8021d8:	1807d0ba 	srai	r3,r3,2
  8021dc:	22c9883a 	add	r4,r4,r11
  8021e0:	21800217 	ldw	r6,8(r4)
  8021e4:	10c4983a 	sll	r2,r2,r3
  8021e8:	41000315 	stw	r4,12(r8)
  8021ec:	41800215 	stw	r6,8(r8)
  8021f0:	288ab03a 	or	r5,r5,r2
  8021f4:	22000215 	stw	r8,8(r4)
  8021f8:	8809883a 	mov	r4,r17
  8021fc:	51400115 	stw	r5,4(r10)
  802200:	32000315 	stw	r8,12(r6)
  802204:	dfc00217 	ldw	ra,8(sp)
  802208:	dc400117 	ldw	r17,4(sp)
  80220c:	dc000017 	ldw	r16,0(sp)
  802210:	dec00304 	addi	sp,sp,12
  802214:	08039201 	jmpi	803920 <__malloc_unlock>
  802218:	2880004c 	andi	r2,r5,1
  80221c:	3a4d883a 	add	r6,r7,r9
  802220:	1000071e 	bne	r2,zero,802240 <_free_r+0x218>
  802224:	80bffe17 	ldw	r2,-8(r16)
  802228:	4091c83a 	sub	r8,r8,r2
  80222c:	41000317 	ldw	r4,12(r8)
  802230:	40c00217 	ldw	r3,8(r8)
  802234:	308d883a 	add	r6,r6,r2
  802238:	20c00215 	stw	r3,8(r4)
  80223c:	19000315 	stw	r4,12(r3)
  802240:	00802074 	movhi	r2,129
  802244:	10826904 	addi	r2,r2,2468
  802248:	11000017 	ldw	r4,0(r2)
  80224c:	30c00054 	ori	r3,r6,1
  802250:	52000215 	stw	r8,8(r10)
  802254:	40c00115 	stw	r3,4(r8)
  802258:	313fa036 	bltu	r6,r4,8020dc <_free_r+0xb4>
  80225c:	00802074 	movhi	r2,129
  802260:	10897304 	addi	r2,r2,9676
  802264:	11400017 	ldw	r5,0(r2)
  802268:	8809883a 	mov	r4,r17
  80226c:	0801efc0 	call	801efc <_malloc_trim_r>
  802270:	003f9a06 	br	8020dc <_free_r+0xb4>
  802274:	00800104 	movi	r2,4
  802278:	10c0072e 	bgeu	r2,r3,802298 <_free_r+0x270>
  80227c:	00800504 	movi	r2,20
  802280:	10c01936 	bltu	r2,r3,8022e8 <_free_r+0x2c0>
  802284:	188016c4 	addi	r2,r3,91
  802288:	100690fa 	slli	r3,r2,3
  80228c:	003fb306 	br	80215c <_free_r+0x134>
  802290:	01400044 	movi	r5,1
  802294:	003f7e06 	br	802090 <_free_r+0x68>
  802298:	3804d1ba 	srli	r2,r7,6
  80229c:	10800e04 	addi	r2,r2,56
  8022a0:	100690fa 	slli	r3,r2,3
  8022a4:	003fad06 	br	80215c <_free_r+0x134>
  8022a8:	22000315 	stw	r8,12(r4)
  8022ac:	22000215 	stw	r8,8(r4)
  8022b0:	3a05883a 	add	r2,r7,r8
  8022b4:	38c00054 	ori	r3,r7,1
  8022b8:	11c00015 	stw	r7,0(r2)
  8022bc:	41000215 	stw	r4,8(r8)
  8022c0:	40c00115 	stw	r3,4(r8)
  8022c4:	41000315 	stw	r4,12(r8)
  8022c8:	003f8406 	br	8020dc <_free_r+0xb4>
  8022cc:	1005d0ba 	srai	r2,r2,2
  8022d0:	00c00044 	movi	r3,1
  8022d4:	51000117 	ldw	r4,4(r10)
  8022d8:	1886983a 	sll	r3,r3,r2
  8022dc:	20c8b03a 	or	r4,r4,r3
  8022e0:	51000115 	stw	r4,4(r10)
  8022e4:	003fa706 	br	802184 <_free_r+0x15c>
  8022e8:	00801504 	movi	r2,84
  8022ec:	10c00436 	bltu	r2,r3,802300 <_free_r+0x2d8>
  8022f0:	3804d33a 	srli	r2,r7,12
  8022f4:	10801b84 	addi	r2,r2,110
  8022f8:	100690fa 	slli	r3,r2,3
  8022fc:	003f9706 	br	80215c <_free_r+0x134>
  802300:	00805504 	movi	r2,340
  802304:	10c00436 	bltu	r2,r3,802318 <_free_r+0x2f0>
  802308:	3804d3fa 	srli	r2,r7,15
  80230c:	10801dc4 	addi	r2,r2,119
  802310:	100690fa 	slli	r3,r2,3
  802314:	003f9106 	br	80215c <_free_r+0x134>
  802318:	00815504 	movi	r2,1364
  80231c:	10c0032e 	bgeu	r2,r3,80232c <_free_r+0x304>
  802320:	00801f84 	movi	r2,126
  802324:	00c0fc04 	movi	r3,1008
  802328:	003f8c06 	br	80215c <_free_r+0x134>
  80232c:	3804d4ba 	srli	r2,r7,18
  802330:	10801f04 	addi	r2,r2,124
  802334:	100690fa 	slli	r3,r2,3
  802338:	003f8806 	br	80215c <_free_r+0x134>

0080233c <_fwalk_reent>:
  80233c:	defff704 	addi	sp,sp,-36
  802340:	dcc00315 	stw	r19,12(sp)
  802344:	24c0b804 	addi	r19,r4,736
  802348:	dd800615 	stw	r22,24(sp)
  80234c:	dd400515 	stw	r21,20(sp)
  802350:	dfc00815 	stw	ra,32(sp)
  802354:	ddc00715 	stw	r23,28(sp)
  802358:	dd000415 	stw	r20,16(sp)
  80235c:	dc800215 	stw	r18,8(sp)
  802360:	dc400115 	stw	r17,4(sp)
  802364:	dc000015 	stw	r16,0(sp)
  802368:	202b883a 	mov	r21,r4
  80236c:	282d883a 	mov	r22,r5
  802370:	0801c940 	call	801c94 <__sfp_lock_acquire>
  802374:	98002126 	beq	r19,zero,8023fc <_fwalk_reent+0xc0>
  802378:	002f883a 	mov	r23,zero
  80237c:	9c800117 	ldw	r18,4(r19)
  802380:	9c000217 	ldw	r16,8(r19)
  802384:	90bfffc4 	addi	r2,r18,-1
  802388:	10000d16 	blt	r2,zero,8023c0 <_fwalk_reent+0x84>
  80238c:	0023883a 	mov	r17,zero
  802390:	053fffc4 	movi	r20,-1
  802394:	8080030f 	ldh	r2,12(r16)
  802398:	8c400044 	addi	r17,r17,1
  80239c:	10000626 	beq	r2,zero,8023b8 <_fwalk_reent+0x7c>
  8023a0:	8080038f 	ldh	r2,14(r16)
  8023a4:	800b883a 	mov	r5,r16
  8023a8:	a809883a 	mov	r4,r21
  8023ac:	15000226 	beq	r2,r20,8023b8 <_fwalk_reent+0x7c>
  8023b0:	b03ee83a 	callr	r22
  8023b4:	b8aeb03a 	or	r23,r23,r2
  8023b8:	84001704 	addi	r16,r16,92
  8023bc:	947ff51e 	bne	r18,r17,802394 <_fwalk_reent+0x58>
  8023c0:	9cc00017 	ldw	r19,0(r19)
  8023c4:	983fed1e 	bne	r19,zero,80237c <_fwalk_reent+0x40>
  8023c8:	0801c980 	call	801c98 <__sfp_lock_release>
  8023cc:	b805883a 	mov	r2,r23
  8023d0:	dfc00817 	ldw	ra,32(sp)
  8023d4:	ddc00717 	ldw	r23,28(sp)
  8023d8:	dd800617 	ldw	r22,24(sp)
  8023dc:	dd400517 	ldw	r21,20(sp)
  8023e0:	dd000417 	ldw	r20,16(sp)
  8023e4:	dcc00317 	ldw	r19,12(sp)
  8023e8:	dc800217 	ldw	r18,8(sp)
  8023ec:	dc400117 	ldw	r17,4(sp)
  8023f0:	dc000017 	ldw	r16,0(sp)
  8023f4:	dec00904 	addi	sp,sp,36
  8023f8:	f800283a 	ret
  8023fc:	002f883a 	mov	r23,zero
  802400:	003ff106 	br	8023c8 <_fwalk_reent+0x8c>

00802404 <_fwalk>:
  802404:	defff804 	addi	sp,sp,-32
  802408:	dcc00315 	stw	r19,12(sp)
  80240c:	24c0b804 	addi	r19,r4,736
  802410:	dd400515 	stw	r21,20(sp)
  802414:	dfc00715 	stw	ra,28(sp)
  802418:	dd800615 	stw	r22,24(sp)
  80241c:	dd000415 	stw	r20,16(sp)
  802420:	dc800215 	stw	r18,8(sp)
  802424:	dc400115 	stw	r17,4(sp)
  802428:	dc000015 	stw	r16,0(sp)
  80242c:	282b883a 	mov	r21,r5
  802430:	0801c940 	call	801c94 <__sfp_lock_acquire>
  802434:	98001f26 	beq	r19,zero,8024b4 <_fwalk+0xb0>
  802438:	002d883a 	mov	r22,zero
  80243c:	9c800117 	ldw	r18,4(r19)
  802440:	9c000217 	ldw	r16,8(r19)
  802444:	90bfffc4 	addi	r2,r18,-1
  802448:	10000c16 	blt	r2,zero,80247c <_fwalk+0x78>
  80244c:	0023883a 	mov	r17,zero
  802450:	053fffc4 	movi	r20,-1
  802454:	8080030f 	ldh	r2,12(r16)
  802458:	8c400044 	addi	r17,r17,1
  80245c:	10000526 	beq	r2,zero,802474 <_fwalk+0x70>
  802460:	8080038f 	ldh	r2,14(r16)
  802464:	8009883a 	mov	r4,r16
  802468:	15000226 	beq	r2,r20,802474 <_fwalk+0x70>
  80246c:	a83ee83a 	callr	r21
  802470:	b0acb03a 	or	r22,r22,r2
  802474:	84001704 	addi	r16,r16,92
  802478:	947ff61e 	bne	r18,r17,802454 <_fwalk+0x50>
  80247c:	9cc00017 	ldw	r19,0(r19)
  802480:	983fee1e 	bne	r19,zero,80243c <_fwalk+0x38>
  802484:	0801c980 	call	801c98 <__sfp_lock_release>
  802488:	b005883a 	mov	r2,r22
  80248c:	dfc00717 	ldw	ra,28(sp)
  802490:	dd800617 	ldw	r22,24(sp)
  802494:	dd400517 	ldw	r21,20(sp)
  802498:	dd000417 	ldw	r20,16(sp)
  80249c:	dcc00317 	ldw	r19,12(sp)
  8024a0:	dc800217 	ldw	r18,8(sp)
  8024a4:	dc400117 	ldw	r17,4(sp)
  8024a8:	dc000017 	ldw	r16,0(sp)
  8024ac:	dec00804 	addi	sp,sp,32
  8024b0:	f800283a 	ret
  8024b4:	002d883a 	mov	r22,zero
  8024b8:	003ff206 	br	802484 <_fwalk+0x80>

008024bc <__smakebuf_r>:
  8024bc:	2880030b 	ldhu	r2,12(r5)
  8024c0:	deffed04 	addi	sp,sp,-76
  8024c4:	dc401015 	stw	r17,64(sp)
  8024c8:	1080008c 	andi	r2,r2,2
  8024cc:	dc000f15 	stw	r16,60(sp)
  8024d0:	dfc01215 	stw	ra,72(sp)
  8024d4:	dc801115 	stw	r18,68(sp)
  8024d8:	2821883a 	mov	r16,r5
  8024dc:	2023883a 	mov	r17,r4
  8024e0:	10000b26 	beq	r2,zero,802510 <__smakebuf_r+0x54>
  8024e4:	28c010c4 	addi	r3,r5,67
  8024e8:	00800044 	movi	r2,1
  8024ec:	28800515 	stw	r2,20(r5)
  8024f0:	28c00415 	stw	r3,16(r5)
  8024f4:	28c00015 	stw	r3,0(r5)
  8024f8:	dfc01217 	ldw	ra,72(sp)
  8024fc:	dc801117 	ldw	r18,68(sp)
  802500:	dc401017 	ldw	r17,64(sp)
  802504:	dc000f17 	ldw	r16,60(sp)
  802508:	dec01304 	addi	sp,sp,76
  80250c:	f800283a 	ret
  802510:	2940038f 	ldh	r5,14(r5)
  802514:	28002116 	blt	r5,zero,80259c <__smakebuf_r+0xe0>
  802518:	d80d883a 	mov	r6,sp
  80251c:	0802a400 	call	802a40 <_fstat_r>
  802520:	10001e16 	blt	r2,zero,80259c <__smakebuf_r+0xe0>
  802524:	d8800117 	ldw	r2,4(sp)
  802528:	00e00014 	movui	r3,32768
  80252c:	113c000c 	andi	r4,r2,61440
  802530:	20c03126 	beq	r4,r3,8025f8 <__smakebuf_r+0x13c>
  802534:	8080030b 	ldhu	r2,12(r16)
  802538:	00c80004 	movi	r3,8192
  80253c:	10820014 	ori	r2,r2,2048
  802540:	8080030d 	sth	r2,12(r16)
  802544:	20c01e26 	beq	r4,r3,8025c0 <__smakebuf_r+0x104>
  802548:	04810004 	movi	r18,1024
  80254c:	8809883a 	mov	r4,r17
  802550:	900b883a 	mov	r5,r18
  802554:	08008c80 	call	8008c8 <_malloc_r>
  802558:	1009883a 	mov	r4,r2
  80255c:	10003126 	beq	r2,zero,802624 <__smakebuf_r+0x168>
  802560:	80c0030b 	ldhu	r3,12(r16)
  802564:	00802034 	movhi	r2,128
  802568:	10876204 	addi	r2,r2,7560
  80256c:	88800f15 	stw	r2,60(r17)
  802570:	18c02014 	ori	r3,r3,128
  802574:	84800515 	stw	r18,20(r16)
  802578:	80c0030d 	sth	r3,12(r16)
  80257c:	81000415 	stw	r4,16(r16)
  802580:	81000015 	stw	r4,0(r16)
  802584:	dfc01217 	ldw	ra,72(sp)
  802588:	dc801117 	ldw	r18,68(sp)
  80258c:	dc401017 	ldw	r17,64(sp)
  802590:	dc000f17 	ldw	r16,60(sp)
  802594:	dec01304 	addi	sp,sp,76
  802598:	f800283a 	ret
  80259c:	80c0030b 	ldhu	r3,12(r16)
  8025a0:	1880200c 	andi	r2,r3,128
  8025a4:	10000426 	beq	r2,zero,8025b8 <__smakebuf_r+0xfc>
  8025a8:	04801004 	movi	r18,64
  8025ac:	18820014 	ori	r2,r3,2048
  8025b0:	8080030d 	sth	r2,12(r16)
  8025b4:	003fe506 	br	80254c <__smakebuf_r+0x90>
  8025b8:	04810004 	movi	r18,1024
  8025bc:	003ffb06 	br	8025ac <__smakebuf_r+0xf0>
  8025c0:	8140038f 	ldh	r5,14(r16)
  8025c4:	8809883a 	mov	r4,r17
  8025c8:	0802ab40 	call	802ab4 <_isatty_r>
  8025cc:	103fde26 	beq	r2,zero,802548 <__smakebuf_r+0x8c>
  8025d0:	8080030b 	ldhu	r2,12(r16)
  8025d4:	80c010c4 	addi	r3,r16,67
  8025d8:	04810004 	movi	r18,1024
  8025dc:	10800054 	ori	r2,r2,1
  8025e0:	8080030d 	sth	r2,12(r16)
  8025e4:	00800044 	movi	r2,1
  8025e8:	80c00415 	stw	r3,16(r16)
  8025ec:	80800515 	stw	r2,20(r16)
  8025f0:	80c00015 	stw	r3,0(r16)
  8025f4:	003fd506 	br	80254c <__smakebuf_r+0x90>
  8025f8:	80c00a17 	ldw	r3,40(r16)
  8025fc:	00802034 	movhi	r2,128
  802600:	1089bc04 	addi	r2,r2,9968
  802604:	18bfcb1e 	bne	r3,r2,802534 <__smakebuf_r+0x78>
  802608:	8080030b 	ldhu	r2,12(r16)
  80260c:	00c10004 	movi	r3,1024
  802610:	1825883a 	mov	r18,r3
  802614:	10c4b03a 	or	r2,r2,r3
  802618:	8080030d 	sth	r2,12(r16)
  80261c:	80c01315 	stw	r3,76(r16)
  802620:	003fca06 	br	80254c <__smakebuf_r+0x90>
  802624:	8100030b 	ldhu	r4,12(r16)
  802628:	2080800c 	andi	r2,r4,512
  80262c:	103fb21e 	bne	r2,zero,8024f8 <__smakebuf_r+0x3c>
  802630:	80c010c4 	addi	r3,r16,67
  802634:	21000094 	ori	r4,r4,2
  802638:	00800044 	movi	r2,1
  80263c:	80800515 	stw	r2,20(r16)
  802640:	8100030d 	sth	r4,12(r16)
  802644:	80c00415 	stw	r3,16(r16)
  802648:	80c00015 	stw	r3,0(r16)
  80264c:	003faa06 	br	8024f8 <__smakebuf_r+0x3c>

00802650 <memset>:
  802650:	008000c4 	movi	r2,3
  802654:	29403fcc 	andi	r5,r5,255
  802658:	2007883a 	mov	r3,r4
  80265c:	1180022e 	bgeu	r2,r6,802668 <memset+0x18>
  802660:	2084703a 	and	r2,r4,r2
  802664:	10000826 	beq	r2,zero,802688 <memset+0x38>
  802668:	30000526 	beq	r6,zero,802680 <memset+0x30>
  80266c:	2805883a 	mov	r2,r5
  802670:	30cd883a 	add	r6,r6,r3
  802674:	18800005 	stb	r2,0(r3)
  802678:	18c00044 	addi	r3,r3,1
  80267c:	19bffd1e 	bne	r3,r6,802674 <memset+0x24>
  802680:	2005883a 	mov	r2,r4
  802684:	f800283a 	ret
  802688:	2804923a 	slli	r2,r5,8
  80268c:	020003c4 	movi	r8,15
  802690:	200f883a 	mov	r7,r4
  802694:	2884b03a 	or	r2,r5,r2
  802698:	1006943a 	slli	r3,r2,16
  80269c:	10c6b03a 	or	r3,r2,r3
  8026a0:	41800a2e 	bgeu	r8,r6,8026cc <memset+0x7c>
  8026a4:	4005883a 	mov	r2,r8
  8026a8:	31bffc04 	addi	r6,r6,-16
  8026ac:	38c00015 	stw	r3,0(r7)
  8026b0:	38c00115 	stw	r3,4(r7)
  8026b4:	38c00215 	stw	r3,8(r7)
  8026b8:	38c00315 	stw	r3,12(r7)
  8026bc:	39c00404 	addi	r7,r7,16
  8026c0:	11bff936 	bltu	r2,r6,8026a8 <memset+0x58>
  8026c4:	008000c4 	movi	r2,3
  8026c8:	1180052e 	bgeu	r2,r6,8026e0 <memset+0x90>
  8026cc:	31bfff04 	addi	r6,r6,-4
  8026d0:	008000c4 	movi	r2,3
  8026d4:	38c00015 	stw	r3,0(r7)
  8026d8:	39c00104 	addi	r7,r7,4
  8026dc:	11bffb36 	bltu	r2,r6,8026cc <memset+0x7c>
  8026e0:	3807883a 	mov	r3,r7
  8026e4:	003fe006 	br	802668 <memset+0x18>

008026e8 <__sclose>:
  8026e8:	2940038f 	ldh	r5,14(r5)
  8026ec:	08028ac1 	jmpi	8028ac <_close_r>

008026f0 <__sseek>:
  8026f0:	defffe04 	addi	sp,sp,-8
  8026f4:	dc000015 	stw	r16,0(sp)
  8026f8:	2821883a 	mov	r16,r5
  8026fc:	2940038f 	ldh	r5,14(r5)
  802700:	dfc00115 	stw	ra,4(sp)
  802704:	0802b240 	call	802b24 <_lseek_r>
  802708:	1007883a 	mov	r3,r2
  80270c:	00bfffc4 	movi	r2,-1
  802710:	18800926 	beq	r3,r2,802738 <__sseek+0x48>
  802714:	8080030b 	ldhu	r2,12(r16)
  802718:	80c01415 	stw	r3,80(r16)
  80271c:	10840014 	ori	r2,r2,4096
  802720:	8080030d 	sth	r2,12(r16)
  802724:	1805883a 	mov	r2,r3
  802728:	dfc00117 	ldw	ra,4(sp)
  80272c:	dc000017 	ldw	r16,0(sp)
  802730:	dec00204 	addi	sp,sp,8
  802734:	f800283a 	ret
  802738:	8080030b 	ldhu	r2,12(r16)
  80273c:	10bbffcc 	andi	r2,r2,61439
  802740:	8080030d 	sth	r2,12(r16)
  802744:	1805883a 	mov	r2,r3
  802748:	dfc00117 	ldw	ra,4(sp)
  80274c:	dc000017 	ldw	r16,0(sp)
  802750:	dec00204 	addi	sp,sp,8
  802754:	f800283a 	ret

00802758 <__swrite>:
  802758:	2880030b 	ldhu	r2,12(r5)
  80275c:	defffb04 	addi	sp,sp,-20
  802760:	dcc00315 	stw	r19,12(sp)
  802764:	1080400c 	andi	r2,r2,256
  802768:	dc800215 	stw	r18,8(sp)
  80276c:	dc400115 	stw	r17,4(sp)
  802770:	dc000015 	stw	r16,0(sp)
  802774:	3027883a 	mov	r19,r6
  802778:	3825883a 	mov	r18,r7
  80277c:	dfc00415 	stw	ra,16(sp)
  802780:	2821883a 	mov	r16,r5
  802784:	000d883a 	mov	r6,zero
  802788:	01c00084 	movi	r7,2
  80278c:	2023883a 	mov	r17,r4
  802790:	10000226 	beq	r2,zero,80279c <__swrite+0x44>
  802794:	2940038f 	ldh	r5,14(r5)
  802798:	0802b240 	call	802b24 <_lseek_r>
  80279c:	8080030b 	ldhu	r2,12(r16)
  8027a0:	8140038f 	ldh	r5,14(r16)
  8027a4:	8809883a 	mov	r4,r17
  8027a8:	10bbffcc 	andi	r2,r2,61439
  8027ac:	980d883a 	mov	r6,r19
  8027b0:	900f883a 	mov	r7,r18
  8027b4:	8080030d 	sth	r2,12(r16)
  8027b8:	dfc00417 	ldw	ra,16(sp)
  8027bc:	dcc00317 	ldw	r19,12(sp)
  8027c0:	dc800217 	ldw	r18,8(sp)
  8027c4:	dc400117 	ldw	r17,4(sp)
  8027c8:	dc000017 	ldw	r16,0(sp)
  8027cc:	dec00504 	addi	sp,sp,20
  8027d0:	08028341 	jmpi	802834 <_write_r>

008027d4 <__sread>:
  8027d4:	defffe04 	addi	sp,sp,-8
  8027d8:	dc000015 	stw	r16,0(sp)
  8027dc:	2821883a 	mov	r16,r5
  8027e0:	2940038f 	ldh	r5,14(r5)
  8027e4:	dfc00115 	stw	ra,4(sp)
  8027e8:	0802b9c0 	call	802b9c <_read_r>
  8027ec:	1007883a 	mov	r3,r2
  8027f0:	10000816 	blt	r2,zero,802814 <__sread+0x40>
  8027f4:	80801417 	ldw	r2,80(r16)
  8027f8:	10c5883a 	add	r2,r2,r3
  8027fc:	80801415 	stw	r2,80(r16)
  802800:	1805883a 	mov	r2,r3
  802804:	dfc00117 	ldw	ra,4(sp)
  802808:	dc000017 	ldw	r16,0(sp)
  80280c:	dec00204 	addi	sp,sp,8
  802810:	f800283a 	ret
  802814:	8080030b 	ldhu	r2,12(r16)
  802818:	10bbffcc 	andi	r2,r2,61439
  80281c:	8080030d 	sth	r2,12(r16)
  802820:	1805883a 	mov	r2,r3
  802824:	dfc00117 	ldw	ra,4(sp)
  802828:	dc000017 	ldw	r16,0(sp)
  80282c:	dec00204 	addi	sp,sp,8
  802830:	f800283a 	ret

00802834 <_write_r>:
  802834:	defffd04 	addi	sp,sp,-12
  802838:	dc000015 	stw	r16,0(sp)
  80283c:	04002074 	movhi	r16,129
  802840:	84097604 	addi	r16,r16,9688
  802844:	dc400115 	stw	r17,4(sp)
  802848:	80000015 	stw	zero,0(r16)
  80284c:	2023883a 	mov	r17,r4
  802850:	2809883a 	mov	r4,r5
  802854:	300b883a 	mov	r5,r6
  802858:	380d883a 	mov	r6,r7
  80285c:	dfc00215 	stw	ra,8(sp)
  802860:	08035900 	call	803590 <write>
  802864:	1007883a 	mov	r3,r2
  802868:	00bfffc4 	movi	r2,-1
  80286c:	18800626 	beq	r3,r2,802888 <_write_r+0x54>
  802870:	1805883a 	mov	r2,r3
  802874:	dfc00217 	ldw	ra,8(sp)
  802878:	dc400117 	ldw	r17,4(sp)
  80287c:	dc000017 	ldw	r16,0(sp)
  802880:	dec00304 	addi	sp,sp,12
  802884:	f800283a 	ret
  802888:	80800017 	ldw	r2,0(r16)
  80288c:	103ff826 	beq	r2,zero,802870 <_write_r+0x3c>
  802890:	88800015 	stw	r2,0(r17)
  802894:	1805883a 	mov	r2,r3
  802898:	dfc00217 	ldw	ra,8(sp)
  80289c:	dc400117 	ldw	r17,4(sp)
  8028a0:	dc000017 	ldw	r16,0(sp)
  8028a4:	dec00304 	addi	sp,sp,12
  8028a8:	f800283a 	ret

008028ac <_close_r>:
  8028ac:	defffd04 	addi	sp,sp,-12
  8028b0:	dc000015 	stw	r16,0(sp)
  8028b4:	04002074 	movhi	r16,129
  8028b8:	84097604 	addi	r16,r16,9688
  8028bc:	dc400115 	stw	r17,4(sp)
  8028c0:	80000015 	stw	zero,0(r16)
  8028c4:	2023883a 	mov	r17,r4
  8028c8:	2809883a 	mov	r4,r5
  8028cc:	dfc00215 	stw	ra,8(sp)
  8028d0:	0802c140 	call	802c14 <close>
  8028d4:	1007883a 	mov	r3,r2
  8028d8:	00bfffc4 	movi	r2,-1
  8028dc:	18800626 	beq	r3,r2,8028f8 <_close_r+0x4c>
  8028e0:	1805883a 	mov	r2,r3
  8028e4:	dfc00217 	ldw	ra,8(sp)
  8028e8:	dc400117 	ldw	r17,4(sp)
  8028ec:	dc000017 	ldw	r16,0(sp)
  8028f0:	dec00304 	addi	sp,sp,12
  8028f4:	f800283a 	ret
  8028f8:	80800017 	ldw	r2,0(r16)
  8028fc:	103ff826 	beq	r2,zero,8028e0 <_close_r+0x34>
  802900:	88800015 	stw	r2,0(r17)
  802904:	1805883a 	mov	r2,r3
  802908:	dfc00217 	ldw	ra,8(sp)
  80290c:	dc400117 	ldw	r17,4(sp)
  802910:	dc000017 	ldw	r16,0(sp)
  802914:	dec00304 	addi	sp,sp,12
  802918:	f800283a 	ret

0080291c <_fclose_r>:
  80291c:	defffc04 	addi	sp,sp,-16
  802920:	dc400115 	stw	r17,4(sp)
  802924:	dc000015 	stw	r16,0(sp)
  802928:	dfc00315 	stw	ra,12(sp)
  80292c:	dc800215 	stw	r18,8(sp)
  802930:	2821883a 	mov	r16,r5
  802934:	2023883a 	mov	r17,r4
  802938:	28002926 	beq	r5,zero,8029e0 <_fclose_r+0xc4>
  80293c:	0801c940 	call	801c94 <__sfp_lock_acquire>
  802940:	88000226 	beq	r17,zero,80294c <_fclose_r+0x30>
  802944:	88800e17 	ldw	r2,56(r17)
  802948:	10002d26 	beq	r2,zero,802a00 <_fclose_r+0xe4>
  80294c:	8080030f 	ldh	r2,12(r16)
  802950:	10002226 	beq	r2,zero,8029dc <_fclose_r+0xc0>
  802954:	8809883a 	mov	r4,r17
  802958:	800b883a 	mov	r5,r16
  80295c:	0801a0c0 	call	801a0c <_fflush_r>
  802960:	1025883a 	mov	r18,r2
  802964:	80800b17 	ldw	r2,44(r16)
  802968:	10000426 	beq	r2,zero,80297c <_fclose_r+0x60>
  80296c:	81400717 	ldw	r5,28(r16)
  802970:	8809883a 	mov	r4,r17
  802974:	103ee83a 	callr	r2
  802978:	10002a16 	blt	r2,zero,802a24 <_fclose_r+0x108>
  80297c:	8080030b 	ldhu	r2,12(r16)
  802980:	1080200c 	andi	r2,r2,128
  802984:	1000231e 	bne	r2,zero,802a14 <_fclose_r+0xf8>
  802988:	81400c17 	ldw	r5,48(r16)
  80298c:	28000526 	beq	r5,zero,8029a4 <_fclose_r+0x88>
  802990:	80801004 	addi	r2,r16,64
  802994:	28800226 	beq	r5,r2,8029a0 <_fclose_r+0x84>
  802998:	8809883a 	mov	r4,r17
  80299c:	08020280 	call	802028 <_free_r>
  8029a0:	80000c15 	stw	zero,48(r16)
  8029a4:	81401117 	ldw	r5,68(r16)
  8029a8:	28000326 	beq	r5,zero,8029b8 <_fclose_r+0x9c>
  8029ac:	8809883a 	mov	r4,r17
  8029b0:	08020280 	call	802028 <_free_r>
  8029b4:	80001115 	stw	zero,68(r16)
  8029b8:	8000030d 	sth	zero,12(r16)
  8029bc:	0801c980 	call	801c98 <__sfp_lock_release>
  8029c0:	9005883a 	mov	r2,r18
  8029c4:	dfc00317 	ldw	ra,12(sp)
  8029c8:	dc800217 	ldw	r18,8(sp)
  8029cc:	dc400117 	ldw	r17,4(sp)
  8029d0:	dc000017 	ldw	r16,0(sp)
  8029d4:	dec00404 	addi	sp,sp,16
  8029d8:	f800283a 	ret
  8029dc:	0801c980 	call	801c98 <__sfp_lock_release>
  8029e0:	0025883a 	mov	r18,zero
  8029e4:	9005883a 	mov	r2,r18
  8029e8:	dfc00317 	ldw	ra,12(sp)
  8029ec:	dc800217 	ldw	r18,8(sp)
  8029f0:	dc400117 	ldw	r17,4(sp)
  8029f4:	dc000017 	ldw	r16,0(sp)
  8029f8:	dec00404 	addi	sp,sp,16
  8029fc:	f800283a 	ret
  802a00:	8809883a 	mov	r4,r17
  802a04:	0801ca40 	call	801ca4 <__sinit>
  802a08:	8080030f 	ldh	r2,12(r16)
  802a0c:	103fd11e 	bne	r2,zero,802954 <_fclose_r+0x38>
  802a10:	003ff206 	br	8029dc <_fclose_r+0xc0>
  802a14:	81400417 	ldw	r5,16(r16)
  802a18:	8809883a 	mov	r4,r17
  802a1c:	08020280 	call	802028 <_free_r>
  802a20:	003fd906 	br	802988 <_fclose_r+0x6c>
  802a24:	04bfffc4 	movi	r18,-1
  802a28:	003fd406 	br	80297c <_fclose_r+0x60>

00802a2c <fclose>:
  802a2c:	00802074 	movhi	r2,129
  802a30:	10826704 	addi	r2,r2,2460
  802a34:	200b883a 	mov	r5,r4
  802a38:	11000017 	ldw	r4,0(r2)
  802a3c:	080291c1 	jmpi	80291c <_fclose_r>

00802a40 <_fstat_r>:
  802a40:	defffd04 	addi	sp,sp,-12
  802a44:	dc000015 	stw	r16,0(sp)
  802a48:	04002074 	movhi	r16,129
  802a4c:	84097604 	addi	r16,r16,9688
  802a50:	dc400115 	stw	r17,4(sp)
  802a54:	80000015 	stw	zero,0(r16)
  802a58:	2023883a 	mov	r17,r4
  802a5c:	2809883a 	mov	r4,r5
  802a60:	300b883a 	mov	r5,r6
  802a64:	dfc00215 	stw	ra,8(sp)
  802a68:	0802d9c0 	call	802d9c <fstat>
  802a6c:	1007883a 	mov	r3,r2
  802a70:	00bfffc4 	movi	r2,-1
  802a74:	18800626 	beq	r3,r2,802a90 <_fstat_r+0x50>
  802a78:	1805883a 	mov	r2,r3
  802a7c:	dfc00217 	ldw	ra,8(sp)
  802a80:	dc400117 	ldw	r17,4(sp)
  802a84:	dc000017 	ldw	r16,0(sp)
  802a88:	dec00304 	addi	sp,sp,12
  802a8c:	f800283a 	ret
  802a90:	80800017 	ldw	r2,0(r16)
  802a94:	103ff826 	beq	r2,zero,802a78 <_fstat_r+0x38>
  802a98:	88800015 	stw	r2,0(r17)
  802a9c:	1805883a 	mov	r2,r3
  802aa0:	dfc00217 	ldw	ra,8(sp)
  802aa4:	dc400117 	ldw	r17,4(sp)
  802aa8:	dc000017 	ldw	r16,0(sp)
  802aac:	dec00304 	addi	sp,sp,12
  802ab0:	f800283a 	ret

00802ab4 <_isatty_r>:
  802ab4:	defffd04 	addi	sp,sp,-12
  802ab8:	dc000015 	stw	r16,0(sp)
  802abc:	04002074 	movhi	r16,129
  802ac0:	84097604 	addi	r16,r16,9688
  802ac4:	dc400115 	stw	r17,4(sp)
  802ac8:	80000015 	stw	zero,0(r16)
  802acc:	2023883a 	mov	r17,r4
  802ad0:	2809883a 	mov	r4,r5
  802ad4:	dfc00215 	stw	ra,8(sp)
  802ad8:	0802ed00 	call	802ed0 <isatty>
  802adc:	1007883a 	mov	r3,r2
  802ae0:	00bfffc4 	movi	r2,-1
  802ae4:	18800626 	beq	r3,r2,802b00 <_isatty_r+0x4c>
  802ae8:	1805883a 	mov	r2,r3
  802aec:	dfc00217 	ldw	ra,8(sp)
  802af0:	dc400117 	ldw	r17,4(sp)
  802af4:	dc000017 	ldw	r16,0(sp)
  802af8:	dec00304 	addi	sp,sp,12
  802afc:	f800283a 	ret
  802b00:	80800017 	ldw	r2,0(r16)
  802b04:	103ff826 	beq	r2,zero,802ae8 <_isatty_r+0x34>
  802b08:	88800015 	stw	r2,0(r17)
  802b0c:	1805883a 	mov	r2,r3
  802b10:	dfc00217 	ldw	ra,8(sp)
  802b14:	dc400117 	ldw	r17,4(sp)
  802b18:	dc000017 	ldw	r16,0(sp)
  802b1c:	dec00304 	addi	sp,sp,12
  802b20:	f800283a 	ret

00802b24 <_lseek_r>:
  802b24:	defffd04 	addi	sp,sp,-12
  802b28:	dc000015 	stw	r16,0(sp)
  802b2c:	04002074 	movhi	r16,129
  802b30:	84097604 	addi	r16,r16,9688
  802b34:	dc400115 	stw	r17,4(sp)
  802b38:	80000015 	stw	zero,0(r16)
  802b3c:	2023883a 	mov	r17,r4
  802b40:	2809883a 	mov	r4,r5
  802b44:	300b883a 	mov	r5,r6
  802b48:	380d883a 	mov	r6,r7
  802b4c:	dfc00215 	stw	ra,8(sp)
  802b50:	08030dc0 	call	8030dc <lseek>
  802b54:	1007883a 	mov	r3,r2
  802b58:	00bfffc4 	movi	r2,-1
  802b5c:	18800626 	beq	r3,r2,802b78 <_lseek_r+0x54>
  802b60:	1805883a 	mov	r2,r3
  802b64:	dfc00217 	ldw	ra,8(sp)
  802b68:	dc400117 	ldw	r17,4(sp)
  802b6c:	dc000017 	ldw	r16,0(sp)
  802b70:	dec00304 	addi	sp,sp,12
  802b74:	f800283a 	ret
  802b78:	80800017 	ldw	r2,0(r16)
  802b7c:	103ff826 	beq	r2,zero,802b60 <_lseek_r+0x3c>
  802b80:	88800015 	stw	r2,0(r17)
  802b84:	1805883a 	mov	r2,r3
  802b88:	dfc00217 	ldw	ra,8(sp)
  802b8c:	dc400117 	ldw	r17,4(sp)
  802b90:	dc000017 	ldw	r16,0(sp)
  802b94:	dec00304 	addi	sp,sp,12
  802b98:	f800283a 	ret

00802b9c <_read_r>:
  802b9c:	defffd04 	addi	sp,sp,-12
  802ba0:	dc000015 	stw	r16,0(sp)
  802ba4:	04002074 	movhi	r16,129
  802ba8:	84097604 	addi	r16,r16,9688
  802bac:	dc400115 	stw	r17,4(sp)
  802bb0:	80000015 	stw	zero,0(r16)
  802bb4:	2023883a 	mov	r17,r4
  802bb8:	2809883a 	mov	r4,r5
  802bbc:	300b883a 	mov	r5,r6
  802bc0:	380d883a 	mov	r6,r7
  802bc4:	dfc00215 	stw	ra,8(sp)
  802bc8:	08032f40 	call	8032f4 <read>
  802bcc:	1007883a 	mov	r3,r2
  802bd0:	00bfffc4 	movi	r2,-1
  802bd4:	18800626 	beq	r3,r2,802bf0 <_read_r+0x54>
  802bd8:	1805883a 	mov	r2,r3
  802bdc:	dfc00217 	ldw	ra,8(sp)
  802be0:	dc400117 	ldw	r17,4(sp)
  802be4:	dc000017 	ldw	r16,0(sp)
  802be8:	dec00304 	addi	sp,sp,12
  802bec:	f800283a 	ret
  802bf0:	80800017 	ldw	r2,0(r16)
  802bf4:	103ff826 	beq	r2,zero,802bd8 <_read_r+0x3c>
  802bf8:	88800015 	stw	r2,0(r17)
  802bfc:	1805883a 	mov	r2,r3
  802c00:	dfc00217 	ldw	ra,8(sp)
  802c04:	dc400117 	ldw	r17,4(sp)
  802c08:	dc000017 	ldw	r16,0(sp)
  802c0c:	dec00304 	addi	sp,sp,12
  802c10:	f800283a 	ret

00802c14 <close>:
 *
 * ALT_CLOSE is mapped onto the close() system call in alt_syscall.h
 */
 
int ALT_CLOSE (int fildes)
{
  802c14:	defff804 	addi	sp,sp,-32
  802c18:	dfc00715 	stw	ra,28(sp)
  802c1c:	df000615 	stw	fp,24(sp)
  802c20:	df000604 	addi	fp,sp,24
  802c24:	e13ffc15 	stw	r4,-16(fp)
   * A common error case is that when the file descriptor was created, the call
   * to open() failed resulting in a negative file descriptor. This is trapped
   * below so that we don't try and process an invalid file descriptor.
   */

  fd = (fildes < 0) ? NULL : &alt_fd_list[fildes];
  802c28:	e0bffc17 	ldw	r2,-16(fp)
  802c2c:	1004803a 	cmplt	r2,r2,zero
  802c30:	1000081e 	bne	r2,zero,802c54 <close+0x40>
  802c34:	e0bffc17 	ldw	r2,-16(fp)
  802c38:	10800324 	muli	r2,r2,12
  802c3c:	1007883a 	mov	r3,r2
  802c40:	00802074 	movhi	r2,129
  802c44:	10bdc104 	addi	r2,r2,-2300
  802c48:	1887883a 	add	r3,r3,r2
  802c4c:	e0ffff15 	stw	r3,-4(fp)
  802c50:	00000106 	br	802c58 <close+0x44>
  802c54:	e03fff15 	stw	zero,-4(fp)
  802c58:	e0bfff17 	ldw	r2,-4(fp)
  802c5c:	e0bffb15 	stw	r2,-20(fp)

  if (fd)
  802c60:	e0bffb17 	ldw	r2,-20(fp)
  802c64:	1005003a 	cmpeq	r2,r2,zero
  802c68:	10001d1e 	bne	r2,zero,802ce0 <close+0xcc>
    /*
     * If the associated file system/device has a close function, call it so 
     * that any necessary cleanup code can run.
     */

    rval = (fd->dev->close) ? fd->dev->close(fd) : 0;
  802c6c:	e0bffb17 	ldw	r2,-20(fp)
  802c70:	10800017 	ldw	r2,0(r2)
  802c74:	10800417 	ldw	r2,16(r2)
  802c78:	1005003a 	cmpeq	r2,r2,zero
  802c7c:	1000071e 	bne	r2,zero,802c9c <close+0x88>
  802c80:	e0bffb17 	ldw	r2,-20(fp)
  802c84:	10800017 	ldw	r2,0(r2)
  802c88:	10800417 	ldw	r2,16(r2)
  802c8c:	e13ffb17 	ldw	r4,-20(fp)
  802c90:	103ee83a 	callr	r2
  802c94:	e0bffe15 	stw	r2,-8(fp)
  802c98:	00000106 	br	802ca0 <close+0x8c>
  802c9c:	e03ffe15 	stw	zero,-8(fp)
  802ca0:	e0bffe17 	ldw	r2,-8(fp)
  802ca4:	e0bffa15 	stw	r2,-24(fp)

    /* Free the file descriptor structure and return. */

    alt_release_fd (fildes);
  802ca8:	e13ffc17 	ldw	r4,-16(fp)
  802cac:	08034740 	call	803474 <alt_release_fd>
    if (rval < 0)
  802cb0:	e0bffa17 	ldw	r2,-24(fp)
  802cb4:	1004403a 	cmpge	r2,r2,zero
  802cb8:	1000071e 	bne	r2,zero,802cd8 <close+0xc4>
    {
      ALT_ERRNO = -rval;
  802cbc:	0802d100 	call	802d10 <alt_get_errno>
  802cc0:	e0fffa17 	ldw	r3,-24(fp)
  802cc4:	00c7c83a 	sub	r3,zero,r3
  802cc8:	10c00015 	stw	r3,0(r2)
      return -1;
  802ccc:	00bfffc4 	movi	r2,-1
  802cd0:	e0bffd15 	stw	r2,-12(fp)
  802cd4:	00000806 	br	802cf8 <close+0xe4>
    }
    return 0;
  802cd8:	e03ffd15 	stw	zero,-12(fp)
  802cdc:	00000606 	br	802cf8 <close+0xe4>
  }
  else
  {
    ALT_ERRNO = EBADFD;
  802ce0:	0802d100 	call	802d10 <alt_get_errno>
  802ce4:	1007883a 	mov	r3,r2
  802ce8:	00801444 	movi	r2,81
  802cec:	18800015 	stw	r2,0(r3)
    return -1;
  802cf0:	00bfffc4 	movi	r2,-1
  802cf4:	e0bffd15 	stw	r2,-12(fp)
  802cf8:	e0bffd17 	ldw	r2,-12(fp)
  }
}
  802cfc:	e037883a 	mov	sp,fp
  802d00:	dfc00117 	ldw	ra,4(sp)
  802d04:	df000017 	ldw	fp,0(sp)
  802d08:	dec00204 	addi	sp,sp,8
  802d0c:	f800283a 	ret

00802d10 <alt_get_errno>:
#undef errno

extern int errno;

static ALT_INLINE int* alt_get_errno(void)
{
  802d10:	defffd04 	addi	sp,sp,-12
  802d14:	dfc00215 	stw	ra,8(sp)
  802d18:	df000115 	stw	fp,4(sp)
  802d1c:	df000104 	addi	fp,sp,4
  return ((alt_errno) ? alt_errno() : &errno);
  802d20:	00802074 	movhi	r2,129
  802d24:	10827004 	addi	r2,r2,2496
  802d28:	10800017 	ldw	r2,0(r2)
  802d2c:	1005003a 	cmpeq	r2,r2,zero
  802d30:	1000061e 	bne	r2,zero,802d4c <alt_get_errno+0x3c>
  802d34:	00802074 	movhi	r2,129
  802d38:	10827004 	addi	r2,r2,2496
  802d3c:	10800017 	ldw	r2,0(r2)
  802d40:	103ee83a 	callr	r2
  802d44:	e0bfff15 	stw	r2,-4(fp)
  802d48:	00000306 	br	802d58 <alt_get_errno+0x48>
  802d4c:	00802074 	movhi	r2,129
  802d50:	10897604 	addi	r2,r2,9688
  802d54:	e0bfff15 	stw	r2,-4(fp)
  802d58:	e0bfff17 	ldw	r2,-4(fp)
}
  802d5c:	e037883a 	mov	sp,fp
  802d60:	dfc00117 	ldw	ra,4(sp)
  802d64:	df000017 	ldw	fp,0(sp)
  802d68:	dec00204 	addi	sp,sp,8
  802d6c:	f800283a 	ret

00802d70 <alt_dev_null_write>:
 * by the alt_dev_null device. It simple discards all data passed to it, and
 * indicates that the data has been successfully transmitted.
 */

static int alt_dev_null_write (alt_fd* fd, const char* ptr, int len)
{
  802d70:	defffc04 	addi	sp,sp,-16
  802d74:	df000315 	stw	fp,12(sp)
  802d78:	df000304 	addi	fp,sp,12
  802d7c:	e13ffd15 	stw	r4,-12(fp)
  802d80:	e17ffe15 	stw	r5,-8(fp)
  802d84:	e1bfff15 	stw	r6,-4(fp)
  return len;
  802d88:	e0bfff17 	ldw	r2,-4(fp)
}
  802d8c:	e037883a 	mov	sp,fp
  802d90:	df000017 	ldw	fp,0(sp)
  802d94:	dec00104 	addi	sp,sp,4
  802d98:	f800283a 	ret

00802d9c <fstat>:
}

#else /* !ALT_USE_DIRECT_DRIVERS */

int ALT_FSTAT (int file, struct stat *st)
{
  802d9c:	defff904 	addi	sp,sp,-28
  802da0:	dfc00615 	stw	ra,24(sp)
  802da4:	df000515 	stw	fp,20(sp)
  802da8:	df000504 	addi	fp,sp,20
  802dac:	e13ffc15 	stw	r4,-16(fp)
  802db0:	e17ffd15 	stw	r5,-12(fp)
   * A common error case is that when the file descriptor was created, the call
   * to open() failed resulting in a negative file descriptor. This is trapped
   * below so that we don't try and process an invalid file descriptor.
   */

  fd = (file < 0) ? NULL : &alt_fd_list[file];
  802db4:	e0bffc17 	ldw	r2,-16(fp)
  802db8:	1004803a 	cmplt	r2,r2,zero
  802dbc:	1000081e 	bne	r2,zero,802de0 <fstat+0x44>
  802dc0:	e0bffc17 	ldw	r2,-16(fp)
  802dc4:	10800324 	muli	r2,r2,12
  802dc8:	1007883a 	mov	r3,r2
  802dcc:	00802074 	movhi	r2,129
  802dd0:	10bdc104 	addi	r2,r2,-2300
  802dd4:	1887883a 	add	r3,r3,r2
  802dd8:	e0ffff15 	stw	r3,-4(fp)
  802ddc:	00000106 	br	802de4 <fstat+0x48>
  802de0:	e03fff15 	stw	zero,-4(fp)
  802de4:	e0bfff17 	ldw	r2,-4(fp)
  802de8:	e0bffb15 	stw	r2,-20(fp)
  
  if (fd)
  802dec:	e0bffb17 	ldw	r2,-20(fp)
  802df0:	1005003a 	cmpeq	r2,r2,zero
  802df4:	1000121e 	bne	r2,zero,802e40 <fstat+0xa4>
  {
    /* Call the drivers fstat() function to fill out the "st" structure. */

    if (fd->dev->fstat)
  802df8:	e0bffb17 	ldw	r2,-20(fp)
  802dfc:	10800017 	ldw	r2,0(r2)
  802e00:	10800817 	ldw	r2,32(r2)
  802e04:	1005003a 	cmpeq	r2,r2,zero
  802e08:	1000081e 	bne	r2,zero,802e2c <fstat+0x90>
    {
      return fd->dev->fstat(fd, st);
  802e0c:	e0bffb17 	ldw	r2,-20(fp)
  802e10:	10800017 	ldw	r2,0(r2)
  802e14:	10800817 	ldw	r2,32(r2)
  802e18:	e13ffb17 	ldw	r4,-20(fp)
  802e1c:	e17ffd17 	ldw	r5,-12(fp)
  802e20:	103ee83a 	callr	r2
  802e24:	e0bffe15 	stw	r2,-8(fp)
  802e28:	00000b06 	br	802e58 <fstat+0xbc>
     * device.
     */
 
    else
    {
      st->st_mode = _IFCHR;
  802e2c:	e0fffd17 	ldw	r3,-12(fp)
  802e30:	00880004 	movi	r2,8192
  802e34:	18800115 	stw	r2,4(r3)
      return 0;
  802e38:	e03ffe15 	stw	zero,-8(fp)
  802e3c:	00000606 	br	802e58 <fstat+0xbc>
    }
  }
  else
  {
    ALT_ERRNO = EBADFD;
  802e40:	0802e700 	call	802e70 <alt_get_errno>
  802e44:	1007883a 	mov	r3,r2
  802e48:	00801444 	movi	r2,81
  802e4c:	18800015 	stw	r2,0(r3)
    return -1;
  802e50:	00bfffc4 	movi	r2,-1
  802e54:	e0bffe15 	stw	r2,-8(fp)
  802e58:	e0bffe17 	ldw	r2,-8(fp)
  }
}
  802e5c:	e037883a 	mov	sp,fp
  802e60:	dfc00117 	ldw	ra,4(sp)
  802e64:	df000017 	ldw	fp,0(sp)
  802e68:	dec00204 	addi	sp,sp,8
  802e6c:	f800283a 	ret

00802e70 <alt_get_errno>:
#undef errno

extern int errno;

static ALT_INLINE int* alt_get_errno(void)
{
  802e70:	defffd04 	addi	sp,sp,-12
  802e74:	dfc00215 	stw	ra,8(sp)
  802e78:	df000115 	stw	fp,4(sp)
  802e7c:	df000104 	addi	fp,sp,4
  return ((alt_errno) ? alt_errno() : &errno);
  802e80:	00802074 	movhi	r2,129
  802e84:	10827004 	addi	r2,r2,2496
  802e88:	10800017 	ldw	r2,0(r2)
  802e8c:	1005003a 	cmpeq	r2,r2,zero
  802e90:	1000061e 	bne	r2,zero,802eac <alt_get_errno+0x3c>
  802e94:	00802074 	movhi	r2,129
  802e98:	10827004 	addi	r2,r2,2496
  802e9c:	10800017 	ldw	r2,0(r2)
  802ea0:	103ee83a 	callr	r2
  802ea4:	e0bfff15 	stw	r2,-4(fp)
  802ea8:	00000306 	br	802eb8 <alt_get_errno+0x48>
  802eac:	00802074 	movhi	r2,129
  802eb0:	10897604 	addi	r2,r2,9688
  802eb4:	e0bfff15 	stw	r2,-4(fp)
  802eb8:	e0bfff17 	ldw	r2,-4(fp)
}
  802ebc:	e037883a 	mov	sp,fp
  802ec0:	dfc00117 	ldw	ra,4(sp)
  802ec4:	df000017 	ldw	fp,0(sp)
  802ec8:	dec00204 	addi	sp,sp,8
  802ecc:	f800283a 	ret

00802ed0 <isatty>:
 *
 * ALT_ISATTY is mapped onto the isatty() system call in alt_syscall.h
 */
 
int ALT_ISATTY (int file)
{
  802ed0:	deffeb04 	addi	sp,sp,-84
  802ed4:	dfc01415 	stw	ra,80(sp)
  802ed8:	df001315 	stw	fp,76(sp)
  802edc:	df001304 	addi	fp,sp,76
  802ee0:	e13ffd15 	stw	r4,-12(fp)
   * A common error case is that when the file descriptor was created, the call
   * to open() failed resulting in a negative file descriptor. This is trapped
   * below so that we don't try and process an invalid file descriptor.
   */

  fd = (file < 0) ? NULL : &alt_fd_list[file];
  802ee4:	e0bffd17 	ldw	r2,-12(fp)
  802ee8:	1004803a 	cmplt	r2,r2,zero
  802eec:	1000081e 	bne	r2,zero,802f10 <isatty+0x40>
  802ef0:	e0bffd17 	ldw	r2,-12(fp)
  802ef4:	10800324 	muli	r2,r2,12
  802ef8:	1007883a 	mov	r3,r2
  802efc:	00802074 	movhi	r2,129
  802f00:	10bdc104 	addi	r2,r2,-2300
  802f04:	1887883a 	add	r3,r3,r2
  802f08:	e0ffff15 	stw	r3,-4(fp)
  802f0c:	00000106 	br	802f14 <isatty+0x44>
  802f10:	e03fff15 	stw	zero,-4(fp)
  802f14:	e0bfff17 	ldw	r2,-4(fp)
  802f18:	e0bfed15 	stw	r2,-76(fp)
  
  if (fd)
  802f1c:	e0bfed17 	ldw	r2,-76(fp)
  802f20:	1005003a 	cmpeq	r2,r2,zero
  802f24:	10000f1e 	bne	r2,zero,802f64 <isatty+0x94>
    /*
     * If a device driver does not provide an fstat() function, then it is 
     * treated as a terminal device by default.
     */

    if (!fd->dev->fstat)
  802f28:	e0bfed17 	ldw	r2,-76(fp)
  802f2c:	10800017 	ldw	r2,0(r2)
  802f30:	10800817 	ldw	r2,32(r2)
  802f34:	1004c03a 	cmpne	r2,r2,zero
  802f38:	1000031e 	bne	r2,zero,802f48 <isatty+0x78>
    {
      return 1;
  802f3c:	00800044 	movi	r2,1
  802f40:	e0bffe15 	stw	r2,-8(fp)
  802f44:	00000c06 	br	802f78 <isatty+0xa8>
     * this is called so that the device can identify itself.
     */ 

    else
    {
      fstat (file, &stat);
  802f48:	e17fee04 	addi	r5,fp,-72
  802f4c:	e13ffd17 	ldw	r4,-12(fp)
  802f50:	0802d9c0 	call	802d9c <fstat>
      return (stat.st_mode == _IFCHR) ? 1 : 0;
  802f54:	e0bfef17 	ldw	r2,-68(fp)
  802f58:	10880020 	cmpeqi	r2,r2,8192
  802f5c:	e0bffe15 	stw	r2,-8(fp)
  802f60:	00000506 	br	802f78 <isatty+0xa8>
    }
  }
  else
  {
    ALT_ERRNO = EBADFD;
  802f64:	0802f900 	call	802f90 <alt_get_errno>
  802f68:	1007883a 	mov	r3,r2
  802f6c:	00801444 	movi	r2,81
  802f70:	18800015 	stw	r2,0(r3)
    return 0;
  802f74:	e03ffe15 	stw	zero,-8(fp)
  802f78:	e0bffe17 	ldw	r2,-8(fp)
  }
}
  802f7c:	e037883a 	mov	sp,fp
  802f80:	dfc00117 	ldw	ra,4(sp)
  802f84:	df000017 	ldw	fp,0(sp)
  802f88:	dec00204 	addi	sp,sp,8
  802f8c:	f800283a 	ret

00802f90 <alt_get_errno>:
#undef errno

extern int errno;

static ALT_INLINE int* alt_get_errno(void)
{
  802f90:	defffd04 	addi	sp,sp,-12
  802f94:	dfc00215 	stw	ra,8(sp)
  802f98:	df000115 	stw	fp,4(sp)
  802f9c:	df000104 	addi	fp,sp,4
  return ((alt_errno) ? alt_errno() : &errno);
  802fa0:	00802074 	movhi	r2,129
  802fa4:	10827004 	addi	r2,r2,2496
  802fa8:	10800017 	ldw	r2,0(r2)
  802fac:	1005003a 	cmpeq	r2,r2,zero
  802fb0:	1000061e 	bne	r2,zero,802fcc <alt_get_errno+0x3c>
  802fb4:	00802074 	movhi	r2,129
  802fb8:	10827004 	addi	r2,r2,2496
  802fbc:	10800017 	ldw	r2,0(r2)
  802fc0:	103ee83a 	callr	r2
  802fc4:	e0bfff15 	stw	r2,-4(fp)
  802fc8:	00000306 	br	802fd8 <alt_get_errno+0x48>
  802fcc:	00802074 	movhi	r2,129
  802fd0:	10897604 	addi	r2,r2,9688
  802fd4:	e0bfff15 	stw	r2,-4(fp)
  802fd8:	e0bfff17 	ldw	r2,-4(fp)
}
  802fdc:	e037883a 	mov	sp,fp
  802fe0:	dfc00117 	ldw	ra,4(sp)
  802fe4:	df000017 	ldw	fp,0(sp)
  802fe8:	dec00204 	addi	sp,sp,8
  802fec:	f800283a 	ret

00802ff0 <alt_load>:
  802ff0:	defffe04 	addi	sp,sp,-8
  802ff4:	dfc00115 	stw	ra,4(sp)
  802ff8:	df000015 	stw	fp,0(sp)
  802ffc:	d839883a 	mov	fp,sp
  803000:	01002074 	movhi	r4,129
  803004:	21029404 	addi	r4,r4,2640
  803008:	01402074 	movhi	r5,129
  80300c:	297bb504 	addi	r5,r5,-4396
  803010:	01802074 	movhi	r6,129
  803014:	31829404 	addi	r6,r6,2640
  803018:	08030700 	call	803070 <alt_load_section>
  80301c:	01002034 	movhi	r4,128
  803020:	21000004 	addi	r4,r4,0
  803024:	01404434 	movhi	r5,272
  803028:	29500804 	addi	r5,r5,16416
  80302c:	01804434 	movhi	r6,272
  803030:	31906f04 	addi	r6,r6,16828
  803034:	08030700 	call	803070 <alt_load_section>
  803038:	01002074 	movhi	r4,129
  80303c:	213b3a04 	addi	r4,r4,-4888
  803040:	01402074 	movhi	r5,129
  803044:	297b3a04 	addi	r5,r5,-4888
  803048:	01802074 	movhi	r6,129
  80304c:	31bbb504 	addi	r6,r6,-4396
  803050:	08030700 	call	803070 <alt_load_section>
  803054:	080d4800 	call	80d480 <alt_dcache_flush_all>
  803058:	080d7340 	call	80d734 <alt_icache_flush_all>
  80305c:	e037883a 	mov	sp,fp
  803060:	dfc00117 	ldw	ra,4(sp)
  803064:	df000017 	ldw	fp,0(sp)
  803068:	dec00204 	addi	sp,sp,8
  80306c:	f800283a 	ret

00803070 <alt_load_section>:
  803070:	defffc04 	addi	sp,sp,-16
  803074:	df000315 	stw	fp,12(sp)
  803078:	df000304 	addi	fp,sp,12
  80307c:	e13ffd15 	stw	r4,-12(fp)
  803080:	e17ffe15 	stw	r5,-8(fp)
  803084:	e1bfff15 	stw	r6,-4(fp)
  803088:	e0fffe17 	ldw	r3,-8(fp)
  80308c:	e0bffd17 	ldw	r2,-12(fp)
  803090:	18800e26 	beq	r3,r2,8030cc <alt_load_section+0x5c>
  803094:	00000a06 	br	8030c0 <alt_load_section+0x50>
  803098:	e0bffd17 	ldw	r2,-12(fp)
  80309c:	10c00017 	ldw	r3,0(r2)
  8030a0:	e0bffe17 	ldw	r2,-8(fp)
  8030a4:	10c00015 	stw	r3,0(r2)
  8030a8:	e0bffe17 	ldw	r2,-8(fp)
  8030ac:	10800104 	addi	r2,r2,4
  8030b0:	e0bffe15 	stw	r2,-8(fp)
  8030b4:	e0bffd17 	ldw	r2,-12(fp)
  8030b8:	10800104 	addi	r2,r2,4
  8030bc:	e0bffd15 	stw	r2,-12(fp)
  8030c0:	e0fffe17 	ldw	r3,-8(fp)
  8030c4:	e0bfff17 	ldw	r2,-4(fp)
  8030c8:	18bff31e 	bne	r3,r2,803098 <alt_load_section+0x28>
  8030cc:	e037883a 	mov	sp,fp
  8030d0:	df000017 	ldw	fp,0(sp)
  8030d4:	dec00104 	addi	sp,sp,4
  8030d8:	f800283a 	ret

008030dc <lseek>:
 * ALT_LSEEK is mapped onto the lseek() system call in alt_syscall.h
 *
 */

off_t ALT_LSEEK (int file, off_t ptr, int dir)
{
  8030dc:	defff804 	addi	sp,sp,-32
  8030e0:	dfc00715 	stw	ra,28(sp)
  8030e4:	df000615 	stw	fp,24(sp)
  8030e8:	df000604 	addi	fp,sp,24
  8030ec:	e13ffc15 	stw	r4,-16(fp)
  8030f0:	e17ffd15 	stw	r5,-12(fp)
  8030f4:	e1bffe15 	stw	r6,-8(fp)
  alt_fd* fd;
  off_t   rc = 0; 
  8030f8:	e03ffa15 	stw	zero,-24(fp)
   * A common error case is that when the file descriptor was created, the call
   * to open() failed resulting in a negative file descriptor. This is trapped
   * below so that we don't try and process an invalid file descriptor.
   */

  fd = (file < 0) ? NULL : &alt_fd_list[file];
  8030fc:	e0bffc17 	ldw	r2,-16(fp)
  803100:	1004803a 	cmplt	r2,r2,zero
  803104:	1000081e 	bne	r2,zero,803128 <lseek+0x4c>
  803108:	e0bffc17 	ldw	r2,-16(fp)
  80310c:	10800324 	muli	r2,r2,12
  803110:	1007883a 	mov	r3,r2
  803114:	00802074 	movhi	r2,129
  803118:	10bdc104 	addi	r2,r2,-2300
  80311c:	1887883a 	add	r3,r3,r2
  803120:	e0ffff15 	stw	r3,-4(fp)
  803124:	00000106 	br	80312c <lseek+0x50>
  803128:	e03fff15 	stw	zero,-4(fp)
  80312c:	e0bfff17 	ldw	r2,-4(fp)
  803130:	e0bffb15 	stw	r2,-20(fp)
  
  if (fd) 
  803134:	e0bffb17 	ldw	r2,-20(fp)
  803138:	1005003a 	cmpeq	r2,r2,zero
  80313c:	1000111e 	bne	r2,zero,803184 <lseek+0xa8>
    /*
     * If the device driver provides an implementation of the lseek() function,
     * then call that to process the request.
     */
 
    if (fd->dev->lseek)
  803140:	e0bffb17 	ldw	r2,-20(fp)
  803144:	10800017 	ldw	r2,0(r2)
  803148:	10800717 	ldw	r2,28(r2)
  80314c:	1005003a 	cmpeq	r2,r2,zero
  803150:	1000091e 	bne	r2,zero,803178 <lseek+0x9c>
    {
      rc = fd->dev->lseek(fd, ptr, dir);
  803154:	e0bffb17 	ldw	r2,-20(fp)
  803158:	10800017 	ldw	r2,0(r2)
  80315c:	10800717 	ldw	r2,28(r2)
  803160:	e13ffb17 	ldw	r4,-20(fp)
  803164:	e17ffd17 	ldw	r5,-12(fp)
  803168:	e1bffe17 	ldw	r6,-8(fp)
  80316c:	103ee83a 	callr	r2
  803170:	e0bffa15 	stw	r2,-24(fp)
  803174:	00000506 	br	80318c <lseek+0xb0>
     * Otherwise return an error.
     */

    else
    {
      rc = -ENOTSUP;
  803178:	00bfde84 	movi	r2,-134
  80317c:	e0bffa15 	stw	r2,-24(fp)
  803180:	00000206 	br	80318c <lseek+0xb0>
    }
  }
  else  
  {
    rc = -EBADFD;
  803184:	00bfebc4 	movi	r2,-81
  803188:	e0bffa15 	stw	r2,-24(fp)
  }

  if (rc < 0)
  80318c:	e0bffa17 	ldw	r2,-24(fp)
  803190:	1004403a 	cmpge	r2,r2,zero
  803194:	1000071e 	bne	r2,zero,8031b4 <lseek+0xd8>
  {
    ALT_ERRNO = -rc;
  803198:	08031cc0 	call	8031cc <alt_get_errno>
  80319c:	1007883a 	mov	r3,r2
  8031a0:	e0bffa17 	ldw	r2,-24(fp)
  8031a4:	0085c83a 	sub	r2,zero,r2
  8031a8:	18800015 	stw	r2,0(r3)
    rc = -1;
  8031ac:	00bfffc4 	movi	r2,-1
  8031b0:	e0bffa15 	stw	r2,-24(fp)
  }

  return rc;
  8031b4:	e0bffa17 	ldw	r2,-24(fp)
}
  8031b8:	e037883a 	mov	sp,fp
  8031bc:	dfc00117 	ldw	ra,4(sp)
  8031c0:	df000017 	ldw	fp,0(sp)
  8031c4:	dec00204 	addi	sp,sp,8
  8031c8:	f800283a 	ret

008031cc <alt_get_errno>:
#undef errno

extern int errno;

static ALT_INLINE int* alt_get_errno(void)
{
  8031cc:	defffd04 	addi	sp,sp,-12
  8031d0:	dfc00215 	stw	ra,8(sp)
  8031d4:	df000115 	stw	fp,4(sp)
  8031d8:	df000104 	addi	fp,sp,4
  return ((alt_errno) ? alt_errno() : &errno);
  8031dc:	00802074 	movhi	r2,129
  8031e0:	10827004 	addi	r2,r2,2496
  8031e4:	10800017 	ldw	r2,0(r2)
  8031e8:	1005003a 	cmpeq	r2,r2,zero
  8031ec:	1000061e 	bne	r2,zero,803208 <alt_get_errno+0x3c>
  8031f0:	00802074 	movhi	r2,129
  8031f4:	10827004 	addi	r2,r2,2496
  8031f8:	10800017 	ldw	r2,0(r2)
  8031fc:	103ee83a 	callr	r2
  803200:	e0bfff15 	stw	r2,-4(fp)
  803204:	00000306 	br	803214 <alt_get_errno+0x48>
  803208:	00802074 	movhi	r2,129
  80320c:	10897604 	addi	r2,r2,9688
  803210:	e0bfff15 	stw	r2,-4(fp)
  803214:	e0bfff17 	ldw	r2,-4(fp)
}
  803218:	e037883a 	mov	sp,fp
  80321c:	dfc00117 	ldw	ra,4(sp)
  803220:	df000017 	ldw	fp,0(sp)
  803224:	dec00204 	addi	sp,sp,8
  803228:	f800283a 	ret

0080322c <alt_main>:
 * devices/filesystems/components in the system; and call the entry point for
 * the users application, i.e. main().
 */

void alt_main (void)
{
  80322c:	defffb04 	addi	sp,sp,-20
  803230:	dfc00415 	stw	ra,16(sp)
  803234:	df000315 	stw	fp,12(sp)
  803238:	df000304 	addi	fp,sp,12
#endif

  /* ALT LOG - please see HAL/sys/alt_log_printf.h for details */
  ALT_LOG_PRINT_BOOT("[alt_main.c] Entering alt_main, calling alt_irq_init.\r\n");
  /* Initialize the interrupt controller. */
  alt_irq_init (NULL);
  80323c:	0009883a 	mov	r4,zero
  803240:	080bcbc0 	call	80bcbc <alt_irq_init>

  /* Initialize the operating system */
  ALT_LOG_PRINT_BOOT("[alt_main.c] Done alt_irq_init, calling alt_os_init.\r\n");
  ALT_OS_INIT();
  803244:	08043180 	call	804318 <OSInit>
  803248:	01000044 	movi	r4,1
  80324c:	08091dc0 	call	8091dc <OSSemCreate>
  803250:	1007883a 	mov	r3,r2
  803254:	00802074 	movhi	r2,129
  803258:	10897c04 	addi	r2,r2,9712
  80325c:	10c00015 	stw	r3,0(r2)
  803260:	01000044 	movi	r4,1
  803264:	08091dc0 	call	8091dc <OSSemCreate>
  803268:	1007883a 	mov	r3,r2
  80326c:	00802074 	movhi	r2,129
  803270:	10897e04 	addi	r2,r2,9720
  803274:	10c00015 	stw	r3,0(r2)
  803278:	00802074 	movhi	r2,129
  80327c:	10897704 	addi	r2,r2,9692
  803280:	e0bffd15 	stw	r2,-12(fp)
  803284:	00800044 	movi	r2,1
  803288:	e0bffe0d 	sth	r2,-8(fp)
 */

static ALT_INLINE int ALT_ALWAYS_INLINE alt_sem_create (OS_EVENT** sem, 
              INT16U value)
{
  *sem = OSSemCreate (value);
  80328c:	e13ffe0b 	ldhu	r4,-8(fp)
  803290:	08091dc0 	call	8091dc <OSSemCreate>
  803294:	1007883a 	mov	r3,r2
  803298:	e0bffd17 	ldw	r2,-12(fp)
  80329c:	10c00015 	stw	r3,0(r2)
  ALT_LOG_PRINT_BOOT("[alt_main.c] Done OS Init, calling alt_sem_create.\r\n");
  ALT_SEM_CREATE (&alt_fd_list_lock, 1);

  /* Initialize the device drivers/software components. */
  ALT_LOG_PRINT_BOOT("[alt_main.c] Calling alt_sys_init.\r\n");
  alt_sys_init();
  8032a0:	080bcf00 	call	80bcf0 <alt_sys_init>
   * devices be present (not equal to /dev/null) and if direct drivers
   * aren't being used.
   */

    ALT_LOG_PRINT_BOOT("[alt_main.c] Redirecting IO.\r\n");
    alt_io_redirect(ALT_STDOUT, ALT_STDIN, ALT_STDERR);
  8032a4:	01002074 	movhi	r4,129
  8032a8:	213b4904 	addi	r4,r4,-4828
  8032ac:	01402074 	movhi	r5,129
  8032b0:	297b4904 	addi	r5,r5,-4828
  8032b4:	01802074 	movhi	r6,129
  8032b8:	31bb4904 	addi	r6,r6,-4828
  8032bc:	080daf40 	call	80daf4 <alt_io_redirect>
  /* 
   * Call the C++ constructors 
   */

  ALT_LOG_PRINT_BOOT("[alt_main.c] Calling C++ constructors.\r\n");
  _do_ctors ();
  8032c0:	080d5d80 	call	80d5d8 <_do_ctors>
   * redefined as _exit()). This is in the interest of reducing code footprint,
   * in that the atexit() overhead is removed when it's not needed.
   */

  ALT_LOG_PRINT_BOOT("[alt_main.c] Calling atexit.\r\n");
  atexit (_do_dtors);
  8032c4:	01002074 	movhi	r4,129
  8032c8:	21358f04 	addi	r4,r4,-10692
  8032cc:	080e7840 	call	80e784 <atexit>
  ALT_LOG_PRINT_BOOT("[alt_main.c] Calling main.\r\n");

#ifdef ALT_NO_EXIT
  main (alt_argc, alt_argv, alt_envp);
#else
  result = main (alt_argc, alt_argv, alt_envp);
  8032d0:	d1271117 	ldw	r4,-25532(gp)
  8032d4:	d1671217 	ldw	r5,-25528(gp)
  8032d8:	d1a71317 	ldw	r6,-25524(gp)
  8032dc:	08002580 	call	800258 <main>
  8032e0:	e0bfff15 	stw	r2,-4(fp)
  close(STDOUT_FILENO);
  8032e4:	01000044 	movi	r4,1
  8032e8:	0802c140 	call	802c14 <close>
  exit (result);
  8032ec:	e13fff17 	ldw	r4,-4(fp)
  8032f0:	080e7980 	call	80e798 <exit>

008032f4 <read>:
  8032f4:	defff704 	addi	sp,sp,-36
  8032f8:	dfc00815 	stw	ra,32(sp)
  8032fc:	df000715 	stw	fp,28(sp)
  803300:	df000704 	addi	fp,sp,28
  803304:	e13ffb15 	stw	r4,-20(fp)
  803308:	e17ffc15 	stw	r5,-16(fp)
  80330c:	e1bffd15 	stw	r6,-12(fp)
  803310:	e0bffb17 	ldw	r2,-20(fp)
  803314:	1004803a 	cmplt	r2,r2,zero
  803318:	1000081e 	bne	r2,zero,80333c <read+0x48>
  80331c:	e0bffb17 	ldw	r2,-20(fp)
  803320:	10800324 	muli	r2,r2,12
  803324:	1007883a 	mov	r3,r2
  803328:	00802074 	movhi	r2,129
  80332c:	10bdc104 	addi	r2,r2,-2300
  803330:	1887883a 	add	r3,r3,r2
  803334:	e0ffff15 	stw	r3,-4(fp)
  803338:	00000106 	br	803340 <read+0x4c>
  80333c:	e03fff15 	stw	zero,-4(fp)
  803340:	e0bfff17 	ldw	r2,-4(fp)
  803344:	e0bffa15 	stw	r2,-24(fp)
  803348:	e0bffa17 	ldw	r2,-24(fp)
  80334c:	1005003a 	cmpeq	r2,r2,zero
  803350:	1000241e 	bne	r2,zero,8033e4 <read+0xf0>
  803354:	e0bffa17 	ldw	r2,-24(fp)
  803358:	10800217 	ldw	r2,8(r2)
  80335c:	108000cc 	andi	r2,r2,3
  803360:	10800060 	cmpeqi	r2,r2,1
  803364:	10001a1e 	bne	r2,zero,8033d0 <read+0xdc>
  803368:	e0bffa17 	ldw	r2,-24(fp)
  80336c:	10800017 	ldw	r2,0(r2)
  803370:	10800517 	ldw	r2,20(r2)
  803374:	1005003a 	cmpeq	r2,r2,zero
  803378:	1000151e 	bne	r2,zero,8033d0 <read+0xdc>
  80337c:	e0bffa17 	ldw	r2,-24(fp)
  803380:	10800017 	ldw	r2,0(r2)
  803384:	10800517 	ldw	r2,20(r2)
  803388:	e17ffc17 	ldw	r5,-16(fp)
  80338c:	e1bffd17 	ldw	r6,-12(fp)
  803390:	e13ffa17 	ldw	r4,-24(fp)
  803394:	103ee83a 	callr	r2
  803398:	e0bff915 	stw	r2,-28(fp)
  80339c:	e0bff917 	ldw	r2,-28(fp)
  8033a0:	1004403a 	cmpge	r2,r2,zero
  8033a4:	1000071e 	bne	r2,zero,8033c4 <read+0xd0>
  8033a8:	08034140 	call	803414 <alt_get_errno>
  8033ac:	e0fff917 	ldw	r3,-28(fp)
  8033b0:	00c7c83a 	sub	r3,zero,r3
  8033b4:	10c00015 	stw	r3,0(r2)
  8033b8:	00bfffc4 	movi	r2,-1
  8033bc:	e0bffe15 	stw	r2,-8(fp)
  8033c0:	00000e06 	br	8033fc <read+0x108>
  8033c4:	e0bff917 	ldw	r2,-28(fp)
  8033c8:	e0bffe15 	stw	r2,-8(fp)
  8033cc:	00000b06 	br	8033fc <read+0x108>
  8033d0:	08034140 	call	803414 <alt_get_errno>
  8033d4:	1007883a 	mov	r3,r2
  8033d8:	00800344 	movi	r2,13
  8033dc:	18800015 	stw	r2,0(r3)
  8033e0:	00000406 	br	8033f4 <read+0x100>
  8033e4:	08034140 	call	803414 <alt_get_errno>
  8033e8:	1007883a 	mov	r3,r2
  8033ec:	00801444 	movi	r2,81
  8033f0:	18800015 	stw	r2,0(r3)
  8033f4:	00bfffc4 	movi	r2,-1
  8033f8:	e0bffe15 	stw	r2,-8(fp)
  8033fc:	e0bffe17 	ldw	r2,-8(fp)
  803400:	e037883a 	mov	sp,fp
  803404:	dfc00117 	ldw	ra,4(sp)
  803408:	df000017 	ldw	fp,0(sp)
  80340c:	dec00204 	addi	sp,sp,8
  803410:	f800283a 	ret

00803414 <alt_get_errno>:
  803414:	defffd04 	addi	sp,sp,-12
  803418:	dfc00215 	stw	ra,8(sp)
  80341c:	df000115 	stw	fp,4(sp)
  803420:	df000104 	addi	fp,sp,4
  803424:	00802074 	movhi	r2,129
  803428:	10827004 	addi	r2,r2,2496
  80342c:	10800017 	ldw	r2,0(r2)
  803430:	1005003a 	cmpeq	r2,r2,zero
  803434:	1000061e 	bne	r2,zero,803450 <alt_get_errno+0x3c>
  803438:	00802074 	movhi	r2,129
  80343c:	10827004 	addi	r2,r2,2496
  803440:	10800017 	ldw	r2,0(r2)
  803444:	103ee83a 	callr	r2
  803448:	e0bfff15 	stw	r2,-4(fp)
  80344c:	00000306 	br	80345c <alt_get_errno+0x48>
  803450:	00802074 	movhi	r2,129
  803454:	10897604 	addi	r2,r2,9688
  803458:	e0bfff15 	stw	r2,-4(fp)
  80345c:	e0bfff17 	ldw	r2,-4(fp)
  803460:	e037883a 	mov	sp,fp
  803464:	dfc00117 	ldw	ra,4(sp)
  803468:	df000017 	ldw	fp,0(sp)
  80346c:	dec00204 	addi	sp,sp,8
  803470:	f800283a 	ret

00803474 <alt_release_fd>:
  803474:	defffe04 	addi	sp,sp,-8
  803478:	df000115 	stw	fp,4(sp)
  80347c:	df000104 	addi	fp,sp,4
  803480:	e13fff15 	stw	r4,-4(fp)
  803484:	e0bfff17 	ldw	r2,-4(fp)
  803488:	108000d0 	cmplti	r2,r2,3
  80348c:	10000d1e 	bne	r2,zero,8034c4 <alt_release_fd+0x50>
  803490:	e0bfff17 	ldw	r2,-4(fp)
  803494:	00c02074 	movhi	r3,129
  803498:	18fdc104 	addi	r3,r3,-2300
  80349c:	10800324 	muli	r2,r2,12
  8034a0:	10c5883a 	add	r2,r2,r3
  8034a4:	10800204 	addi	r2,r2,8
  8034a8:	10000015 	stw	zero,0(r2)
  8034ac:	e0bfff17 	ldw	r2,-4(fp)
  8034b0:	00c02074 	movhi	r3,129
  8034b4:	18fdc104 	addi	r3,r3,-2300
  8034b8:	10800324 	muli	r2,r2,12
  8034bc:	10c5883a 	add	r2,r2,r3
  8034c0:	10000015 	stw	zero,0(r2)
  8034c4:	e037883a 	mov	sp,fp
  8034c8:	df000017 	ldw	fp,0(sp)
  8034cc:	dec00104 	addi	sp,sp,4
  8034d0:	f800283a 	ret

008034d4 <sbrk>:
  8034d4:	defff804 	addi	sp,sp,-32
  8034d8:	df000715 	stw	fp,28(sp)
  8034dc:	df000704 	addi	fp,sp,28
  8034e0:	e13ffe15 	stw	r4,-8(fp)
  8034e4:	0005303a 	rdctl	r2,status
  8034e8:	e0bffb15 	stw	r2,-20(fp)
  8034ec:	e0fffb17 	ldw	r3,-20(fp)
  8034f0:	00bfff84 	movi	r2,-2
  8034f4:	1884703a 	and	r2,r3,r2
  8034f8:	1001703a 	wrctl	status,r2
  8034fc:	e0bffb17 	ldw	r2,-20(fp)
  803500:	e0bffd15 	stw	r2,-12(fp)
  803504:	d0a00a17 	ldw	r2,-32728(gp)
  803508:	10c000c4 	addi	r3,r2,3
  80350c:	00bfff04 	movi	r2,-4
  803510:	1884703a 	and	r2,r3,r2
  803514:	d0a00a15 	stw	r2,-32728(gp)
  803518:	d0e00a17 	ldw	r3,-32728(gp)
  80351c:	e0bffe17 	ldw	r2,-8(fp)
  803520:	1887883a 	add	r3,r3,r2
  803524:	00804034 	movhi	r2,256
  803528:	10800004 	addi	r2,r2,0
  80352c:	10c0072e 	bgeu	r2,r3,80354c <sbrk+0x78>
  803530:	e0bffd17 	ldw	r2,-12(fp)
  803534:	e0bffa15 	stw	r2,-24(fp)
  803538:	e0bffa17 	ldw	r2,-24(fp)
  80353c:	1001703a 	wrctl	status,r2
  803540:	00bfffc4 	movi	r2,-1
  803544:	e0bfff15 	stw	r2,-4(fp)
  803548:	00000c06 	br	80357c <sbrk+0xa8>
  80354c:	d0a00a17 	ldw	r2,-32728(gp)
  803550:	e0bffc15 	stw	r2,-16(fp)
  803554:	d0e00a17 	ldw	r3,-32728(gp)
  803558:	e0bffe17 	ldw	r2,-8(fp)
  80355c:	1885883a 	add	r2,r3,r2
  803560:	d0a00a15 	stw	r2,-32728(gp)
  803564:	e0bffd17 	ldw	r2,-12(fp)
  803568:	e0bff915 	stw	r2,-28(fp)
  80356c:	e0bff917 	ldw	r2,-28(fp)
  803570:	1001703a 	wrctl	status,r2
  803574:	e0bffc17 	ldw	r2,-16(fp)
  803578:	e0bfff15 	stw	r2,-4(fp)
  80357c:	e0bfff17 	ldw	r2,-4(fp)
  803580:	e037883a 	mov	sp,fp
  803584:	df000017 	ldw	fp,0(sp)
  803588:	dec00104 	addi	sp,sp,4
  80358c:	f800283a 	ret

00803590 <write>:
  803590:	defff704 	addi	sp,sp,-36
  803594:	dfc00815 	stw	ra,32(sp)
  803598:	df000715 	stw	fp,28(sp)
  80359c:	df000704 	addi	fp,sp,28
  8035a0:	e13ffb15 	stw	r4,-20(fp)
  8035a4:	e17ffc15 	stw	r5,-16(fp)
  8035a8:	e1bffd15 	stw	r6,-12(fp)
  8035ac:	e0bffb17 	ldw	r2,-20(fp)
  8035b0:	1004803a 	cmplt	r2,r2,zero
  8035b4:	1000081e 	bne	r2,zero,8035d8 <write+0x48>
  8035b8:	e0bffb17 	ldw	r2,-20(fp)
  8035bc:	10800324 	muli	r2,r2,12
  8035c0:	1007883a 	mov	r3,r2
  8035c4:	00802074 	movhi	r2,129
  8035c8:	10bdc104 	addi	r2,r2,-2300
  8035cc:	1887883a 	add	r3,r3,r2
  8035d0:	e0ffff15 	stw	r3,-4(fp)
  8035d4:	00000106 	br	8035dc <write+0x4c>
  8035d8:	e03fff15 	stw	zero,-4(fp)
  8035dc:	e0bfff17 	ldw	r2,-4(fp)
  8035e0:	e0bffa15 	stw	r2,-24(fp)
  8035e4:	e0bffa17 	ldw	r2,-24(fp)
  8035e8:	1005003a 	cmpeq	r2,r2,zero
  8035ec:	1000241e 	bne	r2,zero,803680 <write+0xf0>
  8035f0:	e0bffa17 	ldw	r2,-24(fp)
  8035f4:	10800217 	ldw	r2,8(r2)
  8035f8:	108000cc 	andi	r2,r2,3
  8035fc:	1005003a 	cmpeq	r2,r2,zero
  803600:	10001a1e 	bne	r2,zero,80366c <write+0xdc>
  803604:	e0bffa17 	ldw	r2,-24(fp)
  803608:	10800017 	ldw	r2,0(r2)
  80360c:	10800617 	ldw	r2,24(r2)
  803610:	1005003a 	cmpeq	r2,r2,zero
  803614:	1000151e 	bne	r2,zero,80366c <write+0xdc>
  803618:	e0bffa17 	ldw	r2,-24(fp)
  80361c:	10800017 	ldw	r2,0(r2)
  803620:	10800617 	ldw	r2,24(r2)
  803624:	e17ffc17 	ldw	r5,-16(fp)
  803628:	e1bffd17 	ldw	r6,-12(fp)
  80362c:	e13ffa17 	ldw	r4,-24(fp)
  803630:	103ee83a 	callr	r2
  803634:	e0bff915 	stw	r2,-28(fp)
  803638:	e0bff917 	ldw	r2,-28(fp)
  80363c:	1004403a 	cmpge	r2,r2,zero
  803640:	1000071e 	bne	r2,zero,803660 <write+0xd0>
  803644:	08036b00 	call	8036b0 <alt_get_errno>
  803648:	e0fff917 	ldw	r3,-28(fp)
  80364c:	00c7c83a 	sub	r3,zero,r3
  803650:	10c00015 	stw	r3,0(r2)
  803654:	00bfffc4 	movi	r2,-1
  803658:	e0bffe15 	stw	r2,-8(fp)
  80365c:	00000e06 	br	803698 <write+0x108>
  803660:	e0bff917 	ldw	r2,-28(fp)
  803664:	e0bffe15 	stw	r2,-8(fp)
  803668:	00000b06 	br	803698 <write+0x108>
  80366c:	08036b00 	call	8036b0 <alt_get_errno>
  803670:	1007883a 	mov	r3,r2
  803674:	00800344 	movi	r2,13
  803678:	18800015 	stw	r2,0(r3)
  80367c:	00000406 	br	803690 <write+0x100>
  803680:	08036b00 	call	8036b0 <alt_get_errno>
  803684:	1007883a 	mov	r3,r2
  803688:	00801444 	movi	r2,81
  80368c:	18800015 	stw	r2,0(r3)
  803690:	00bfffc4 	movi	r2,-1
  803694:	e0bffe15 	stw	r2,-8(fp)
  803698:	e0bffe17 	ldw	r2,-8(fp)
  80369c:	e037883a 	mov	sp,fp
  8036a0:	dfc00117 	ldw	ra,4(sp)
  8036a4:	df000017 	ldw	fp,0(sp)
  8036a8:	dec00204 	addi	sp,sp,8
  8036ac:	f800283a 	ret

008036b0 <alt_get_errno>:
  8036b0:	defffd04 	addi	sp,sp,-12
  8036b4:	dfc00215 	stw	ra,8(sp)
  8036b8:	df000115 	stw	fp,4(sp)
  8036bc:	df000104 	addi	fp,sp,4
  8036c0:	00802074 	movhi	r2,129
  8036c4:	10827004 	addi	r2,r2,2496
  8036c8:	10800017 	ldw	r2,0(r2)
  8036cc:	1005003a 	cmpeq	r2,r2,zero
  8036d0:	1000061e 	bne	r2,zero,8036ec <alt_get_errno+0x3c>
  8036d4:	00802074 	movhi	r2,129
  8036d8:	10827004 	addi	r2,r2,2496
  8036dc:	10800017 	ldw	r2,0(r2)
  8036e0:	103ee83a 	callr	r2
  8036e4:	e0bfff15 	stw	r2,-4(fp)
  8036e8:	00000306 	br	8036f8 <alt_get_errno+0x48>
  8036ec:	00802074 	movhi	r2,129
  8036f0:	10897604 	addi	r2,r2,9688
  8036f4:	e0bfff15 	stw	r2,-4(fp)
  8036f8:	e0bfff17 	ldw	r2,-4(fp)
  8036fc:	e037883a 	mov	sp,fp
  803700:	dfc00117 	ldw	ra,4(sp)
  803704:	df000017 	ldw	fp,0(sp)
  803708:	dec00204 	addi	sp,sp,8
  80370c:	f800283a 	ret

00803710 <__env_lock>:
  803710:	deffdf04 	addi	sp,sp,-132
  803714:	dfc02015 	stw	ra,128(sp)
  803718:	df001f15 	stw	fp,124(sp)
  80371c:	df001f04 	addi	fp,sp,124
  803720:	e13fff15 	stw	r4,-4(fp)
  803724:	e17fe204 	addi	r5,fp,-120
  803728:	01003fc4 	movi	r4,255
  80372c:	080b5640 	call	80b564 <OSTaskQuery>
  803730:	e0bffe85 	stb	r2,-6(fp)
  803734:	e0bffe83 	ldbu	r2,-6(fp)
  803738:	10803fcc 	andi	r2,r2,255
  80373c:	1004c03a 	cmpne	r2,r2,zero
  803740:	1000191e 	bne	r2,zero,8037a8 <__env_lock+0x98>
  803744:	e0bfee83 	ldbu	r2,-70(fp)
  803748:	10803fcc 	andi	r2,r2,255
  80374c:	e0bfe115 	stw	r2,-124(fp)
  803750:	d1271517 	ldw	r4,-25516(gp)
  803754:	e17ffd04 	addi	r5,fp,-12
  803758:	0809ab00 	call	809ab0 <OSSemQuery>
  80375c:	e0bffe43 	ldbu	r2,-7(fp)
  803760:	10803fcc 	andi	r2,r2,255
  803764:	1005003a 	cmpeq	r2,r2,zero
  803768:	1000071e 	bne	r2,zero,803788 <__env_lock+0x78>
  80376c:	d0e00b17 	ldw	r3,-32724(gp)
  803770:	e0bfe117 	ldw	r2,-124(fp)
  803774:	10c0041e 	bne	r2,r3,803788 <__env_lock+0x78>
  803778:	d0a71417 	ldw	r2,-25520(gp)
  80377c:	10800044 	addi	r2,r2,1
  803780:	d0a71415 	stw	r2,-25520(gp)
  803784:	00000806 	br	8037a8 <__env_lock+0x98>
  803788:	d1271517 	ldw	r4,-25516(gp)
  80378c:	e1bffe84 	addi	r6,fp,-6
  803790:	000b883a 	mov	r5,zero
  803794:	08095900 	call	809590 <OSSemPend>
  803798:	00800044 	movi	r2,1
  80379c:	d0a71415 	stw	r2,-25520(gp)
  8037a0:	e0bfe117 	ldw	r2,-124(fp)
  8037a4:	d0a00b15 	stw	r2,-32724(gp)
  8037a8:	e037883a 	mov	sp,fp
  8037ac:	dfc00117 	ldw	ra,4(sp)
  8037b0:	df000017 	ldw	fp,0(sp)
  8037b4:	dec00204 	addi	sp,sp,8
  8037b8:	f800283a 	ret

008037bc <__env_unlock>:
  8037bc:	defffd04 	addi	sp,sp,-12
  8037c0:	dfc00215 	stw	ra,8(sp)
  8037c4:	df000115 	stw	fp,4(sp)
  8037c8:	df000104 	addi	fp,sp,4
  8037cc:	e13fff15 	stw	r4,-4(fp)
  8037d0:	d0a71417 	ldw	r2,-25520(gp)
  8037d4:	1005003a 	cmpeq	r2,r2,zero
  8037d8:	10000a1e 	bne	r2,zero,803804 <__env_unlock+0x48>
  8037dc:	d0a71417 	ldw	r2,-25520(gp)
  8037e0:	10bfffc4 	addi	r2,r2,-1
  8037e4:	d0a71415 	stw	r2,-25520(gp)
  8037e8:	d0a71417 	ldw	r2,-25520(gp)
  8037ec:	1004c03a 	cmpne	r2,r2,zero
  8037f0:	1000041e 	bne	r2,zero,803804 <__env_unlock+0x48>
  8037f4:	00bfffc4 	movi	r2,-1
  8037f8:	d0a00b15 	stw	r2,-32724(gp)
  8037fc:	d1271517 	ldw	r4,-25516(gp)
  803800:	08099880 	call	809988 <OSSemPost>
  803804:	e037883a 	mov	sp,fp
  803808:	dfc00117 	ldw	ra,4(sp)
  80380c:	df000017 	ldw	fp,0(sp)
  803810:	dec00204 	addi	sp,sp,8
  803814:	f800283a 	ret

00803818 <__malloc_lock>:
  803818:	deffdb04 	addi	sp,sp,-148
  80381c:	dfc02415 	stw	ra,144(sp)
  803820:	df002315 	stw	fp,140(sp)
  803824:	df002304 	addi	fp,sp,140
  803828:	e13fff15 	stw	r4,-4(fp)
  80382c:	e03fe015 	stw	zero,-128(fp)
  803830:	00802074 	movhi	r2,129
  803834:	10897f44 	addi	r2,r2,9725
  803838:	10800003 	ldbu	r2,0(r2)
  80383c:	10803fcc 	andi	r2,r2,255
  803840:	10800058 	cmpnei	r2,r2,1
  803844:	1000311e 	bne	r2,zero,80390c <__malloc_lock+0xf4>
  803848:	e17fe204 	addi	r5,fp,-120
  80384c:	01003fc4 	movi	r4,255
  803850:	080b5640 	call	80b564 <OSTaskQuery>
  803854:	e0bffe85 	stb	r2,-6(fp)
  803858:	e0bffe83 	ldbu	r2,-6(fp)
  80385c:	10803fcc 	andi	r2,r2,255
  803860:	1004c03a 	cmpne	r2,r2,zero
  803864:	1000291e 	bne	r2,zero,80390c <__malloc_lock+0xf4>
  803868:	e0bfee83 	ldbu	r2,-70(fp)
  80386c:	10803fcc 	andi	r2,r2,255
  803870:	e0bfe115 	stw	r2,-124(fp)
  803874:	d1271717 	ldw	r4,-25508(gp)
  803878:	e17ffd04 	addi	r5,fp,-12
  80387c:	0809ab00 	call	809ab0 <OSSemQuery>
  803880:	0005303a 	rdctl	r2,status
  803884:	e0bfdf15 	stw	r2,-132(fp)
  803888:	e0ffdf17 	ldw	r3,-132(fp)
  80388c:	00bfff84 	movi	r2,-2
  803890:	1884703a 	and	r2,r3,r2
  803894:	1001703a 	wrctl	status,r2
  803898:	e0bfdf17 	ldw	r2,-132(fp)
  80389c:	e0bfe015 	stw	r2,-128(fp)
  8038a0:	e0bffd0b 	ldhu	r2,-12(fp)
  8038a4:	10bfffcc 	andi	r2,r2,65535
  8038a8:	1004c03a 	cmpne	r2,r2,zero
  8038ac:	10000b1e 	bne	r2,zero,8038dc <__malloc_lock+0xc4>
  8038b0:	d0e00c17 	ldw	r3,-32720(gp)
  8038b4:	e0bfe117 	ldw	r2,-124(fp)
  8038b8:	10c0081e 	bne	r2,r3,8038dc <__malloc_lock+0xc4>
  8038bc:	d0a71617 	ldw	r2,-25512(gp)
  8038c0:	10800044 	addi	r2,r2,1
  8038c4:	d0a71615 	stw	r2,-25512(gp)
  8038c8:	e0bfe017 	ldw	r2,-128(fp)
  8038cc:	e0bfde15 	stw	r2,-136(fp)
  8038d0:	e0bfde17 	ldw	r2,-136(fp)
  8038d4:	1001703a 	wrctl	status,r2
  8038d8:	00000c06 	br	80390c <__malloc_lock+0xf4>
  8038dc:	e0bfe017 	ldw	r2,-128(fp)
  8038e0:	e0bfdd15 	stw	r2,-140(fp)
  8038e4:	e0bfdd17 	ldw	r2,-140(fp)
  8038e8:	1001703a 	wrctl	status,r2
  8038ec:	d1271717 	ldw	r4,-25508(gp)
  8038f0:	e1bffe84 	addi	r6,fp,-6
  8038f4:	000b883a 	mov	r5,zero
  8038f8:	08095900 	call	809590 <OSSemPend>
  8038fc:	00800044 	movi	r2,1
  803900:	d0a71615 	stw	r2,-25512(gp)
  803904:	e0bfe117 	ldw	r2,-124(fp)
  803908:	d0a00c15 	stw	r2,-32720(gp)
  80390c:	e037883a 	mov	sp,fp
  803910:	dfc00117 	ldw	ra,4(sp)
  803914:	df000017 	ldw	fp,0(sp)
  803918:	dec00204 	addi	sp,sp,8
  80391c:	f800283a 	ret

00803920 <__malloc_unlock>:
  803920:	defff804 	addi	sp,sp,-32
  803924:	dfc00715 	stw	ra,28(sp)
  803928:	df000615 	stw	fp,24(sp)
  80392c:	df000604 	addi	fp,sp,24
  803930:	e13fff15 	stw	r4,-4(fp)
  803934:	e03ffe15 	stw	zero,-8(fp)
  803938:	00802074 	movhi	r2,129
  80393c:	10897f44 	addi	r2,r2,9725
  803940:	10800003 	ldbu	r2,0(r2)
  803944:	10803fcc 	andi	r2,r2,255
  803948:	10800058 	cmpnei	r2,r2,1
  80394c:	1000231e 	bne	r2,zero,8039dc <__malloc_unlock+0xbc>
  803950:	0005303a 	rdctl	r2,status
  803954:	e0bffd15 	stw	r2,-12(fp)
  803958:	e0fffd17 	ldw	r3,-12(fp)
  80395c:	00bfff84 	movi	r2,-2
  803960:	1884703a 	and	r2,r3,r2
  803964:	1001703a 	wrctl	status,r2
  803968:	e0bffd17 	ldw	r2,-12(fp)
  80396c:	e0bffe15 	stw	r2,-8(fp)
  803970:	d0a71617 	ldw	r2,-25512(gp)
  803974:	1004c03a 	cmpne	r2,r2,zero
  803978:	1000051e 	bne	r2,zero,803990 <__malloc_unlock+0x70>
  80397c:	e0bffe17 	ldw	r2,-8(fp)
  803980:	e0bffc15 	stw	r2,-16(fp)
  803984:	e0bffc17 	ldw	r2,-16(fp)
  803988:	1001703a 	wrctl	status,r2
  80398c:	00001306 	br	8039dc <__malloc_unlock+0xbc>
  803990:	d0a71617 	ldw	r2,-25512(gp)
  803994:	10bfffc4 	addi	r2,r2,-1
  803998:	d0a71615 	stw	r2,-25512(gp)
  80399c:	d0a71617 	ldw	r2,-25512(gp)
  8039a0:	1004c03a 	cmpne	r2,r2,zero
  8039a4:	1000091e 	bne	r2,zero,8039cc <__malloc_unlock+0xac>
  8039a8:	00bfffc4 	movi	r2,-1
  8039ac:	d0a00c15 	stw	r2,-32720(gp)
  8039b0:	e0bffe17 	ldw	r2,-8(fp)
  8039b4:	e0bffb15 	stw	r2,-20(fp)
  8039b8:	e0bffb17 	ldw	r2,-20(fp)
  8039bc:	1001703a 	wrctl	status,r2
  8039c0:	d1271717 	ldw	r4,-25508(gp)
  8039c4:	08099880 	call	809988 <OSSemPost>
  8039c8:	00000406 	br	8039dc <__malloc_unlock+0xbc>
  8039cc:	e0bffe17 	ldw	r2,-8(fp)
  8039d0:	e0bffa15 	stw	r2,-24(fp)
  8039d4:	e0bffa17 	ldw	r2,-24(fp)
  8039d8:	1001703a 	wrctl	status,r2
  8039dc:	e037883a 	mov	sp,fp
  8039e0:	dfc00117 	ldw	ra,4(sp)
  8039e4:	df000017 	ldw	fp,0(sp)
  8039e8:	dec00204 	addi	sp,sp,8
  8039ec:	f800283a 	ret

008039f0 <OSEventNameGet>:
  8039f0:	defff604 	addi	sp,sp,-40
  8039f4:	dfc00915 	stw	ra,36(sp)
  8039f8:	df000815 	stw	fp,32(sp)
  8039fc:	df000804 	addi	fp,sp,32
  803a00:	e13ffc15 	stw	r4,-16(fp)
  803a04:	e17ffd15 	stw	r5,-12(fp)
  803a08:	e1bffe15 	stw	r6,-8(fp)
  803a0c:	e03ffa15 	stw	zero,-24(fp)
  803a10:	e0bffe17 	ldw	r2,-8(fp)
  803a14:	1004c03a 	cmpne	r2,r2,zero
  803a18:	1000021e 	bne	r2,zero,803a24 <OSEventNameGet+0x34>
  803a1c:	e03fff15 	stw	zero,-4(fp)
  803a20:	00003906 	br	803b08 <OSEventNameGet+0x118>
  803a24:	e0bffc17 	ldw	r2,-16(fp)
  803a28:	1004c03a 	cmpne	r2,r2,zero
  803a2c:	1000051e 	bne	r2,zero,803a44 <OSEventNameGet+0x54>
  803a30:	e0fffe17 	ldw	r3,-8(fp)
  803a34:	00800104 	movi	r2,4
  803a38:	18800005 	stb	r2,0(r3)
  803a3c:	e03fff15 	stw	zero,-4(fp)
  803a40:	00003106 	br	803b08 <OSEventNameGet+0x118>
  803a44:	e0bffd17 	ldw	r2,-12(fp)
  803a48:	1004c03a 	cmpne	r2,r2,zero
  803a4c:	1000051e 	bne	r2,zero,803a64 <OSEventNameGet+0x74>
  803a50:	e0fffe17 	ldw	r3,-8(fp)
  803a54:	00800304 	movi	r2,12
  803a58:	18800005 	stb	r2,0(r3)
  803a5c:	e03fff15 	stw	zero,-4(fp)
  803a60:	00002906 	br	803b08 <OSEventNameGet+0x118>
  803a64:	d0a72603 	ldbu	r2,-25448(gp)
  803a68:	10803fcc 	andi	r2,r2,255
  803a6c:	1005003a 	cmpeq	r2,r2,zero
  803a70:	1000051e 	bne	r2,zero,803a88 <OSEventNameGet+0x98>
  803a74:	e0fffe17 	ldw	r3,-8(fp)
  803a78:	00800444 	movi	r2,17
  803a7c:	18800005 	stb	r2,0(r3)
  803a80:	e03fff15 	stw	zero,-4(fp)
  803a84:	00002006 	br	803b08 <OSEventNameGet+0x118>
  803a88:	e0bffc17 	ldw	r2,-16(fp)
  803a8c:	10800003 	ldbu	r2,0(r2)
  803a90:	10803fcc 	andi	r2,r2,255
  803a94:	10bfffc4 	addi	r2,r2,-1
  803a98:	10800128 	cmpgeui	r2,r2,4
  803a9c:	1000161e 	bne	r2,zero,803af8 <OSEventNameGet+0x108>
  803aa0:	0005303a 	rdctl	r2,status
  803aa4:	e0bff915 	stw	r2,-28(fp)
  803aa8:	e0fff917 	ldw	r3,-28(fp)
  803aac:	00bfff84 	movi	r2,-2
  803ab0:	1884703a 	and	r2,r3,r2
  803ab4:	1001703a 	wrctl	status,r2
  803ab8:	e0bff917 	ldw	r2,-28(fp)
  803abc:	e0bffa15 	stw	r2,-24(fp)
  803ac0:	e0bffc17 	ldw	r2,-16(fp)
  803ac4:	11400384 	addi	r5,r2,14
  803ac8:	e13ffd17 	ldw	r4,-12(fp)
  803acc:	08055740 	call	805574 <OS_StrCopy>
  803ad0:	e0bffb05 	stb	r2,-20(fp)
  803ad4:	e0bffa17 	ldw	r2,-24(fp)
  803ad8:	e0bff815 	stw	r2,-32(fp)
  803adc:	e0bff817 	ldw	r2,-32(fp)
  803ae0:	1001703a 	wrctl	status,r2
  803ae4:	e0bffe17 	ldw	r2,-8(fp)
  803ae8:	10000005 	stb	zero,0(r2)
  803aec:	e0bffb03 	ldbu	r2,-20(fp)
  803af0:	e0bfff15 	stw	r2,-4(fp)
  803af4:	00000406 	br	803b08 <OSEventNameGet+0x118>
  803af8:	e0fffe17 	ldw	r3,-8(fp)
  803afc:	00800044 	movi	r2,1
  803b00:	18800005 	stb	r2,0(r3)
  803b04:	e03fff15 	stw	zero,-4(fp)
  803b08:	e0bfff17 	ldw	r2,-4(fp)
  803b0c:	e037883a 	mov	sp,fp
  803b10:	dfc00117 	ldw	ra,4(sp)
  803b14:	df000017 	ldw	fp,0(sp)
  803b18:	dec00204 	addi	sp,sp,8
  803b1c:	f800283a 	ret

00803b20 <OSEventNameSet>:
  803b20:	defff604 	addi	sp,sp,-40
  803b24:	dfc00915 	stw	ra,36(sp)
  803b28:	df000815 	stw	fp,32(sp)
  803b2c:	df000804 	addi	fp,sp,32
  803b30:	e13ffd15 	stw	r4,-12(fp)
  803b34:	e17ffe15 	stw	r5,-8(fp)
  803b38:	e1bfff15 	stw	r6,-4(fp)
  803b3c:	e03ffb15 	stw	zero,-20(fp)
  803b40:	e0bfff17 	ldw	r2,-4(fp)
  803b44:	1005003a 	cmpeq	r2,r2,zero
  803b48:	1000411e 	bne	r2,zero,803c50 <OSEventNameSet+0x130>
  803b4c:	e0bffd17 	ldw	r2,-12(fp)
  803b50:	1004c03a 	cmpne	r2,r2,zero
  803b54:	1000041e 	bne	r2,zero,803b68 <OSEventNameSet+0x48>
  803b58:	e0ffff17 	ldw	r3,-4(fp)
  803b5c:	00800104 	movi	r2,4
  803b60:	18800005 	stb	r2,0(r3)
  803b64:	00003a06 	br	803c50 <OSEventNameSet+0x130>
  803b68:	e0bffe17 	ldw	r2,-8(fp)
  803b6c:	1004c03a 	cmpne	r2,r2,zero
  803b70:	1000041e 	bne	r2,zero,803b84 <OSEventNameSet+0x64>
  803b74:	e0ffff17 	ldw	r3,-4(fp)
  803b78:	00800304 	movi	r2,12
  803b7c:	18800005 	stb	r2,0(r3)
  803b80:	00003306 	br	803c50 <OSEventNameSet+0x130>
  803b84:	d0a72603 	ldbu	r2,-25448(gp)
  803b88:	10803fcc 	andi	r2,r2,255
  803b8c:	1005003a 	cmpeq	r2,r2,zero
  803b90:	1000041e 	bne	r2,zero,803ba4 <OSEventNameSet+0x84>
  803b94:	e0ffff17 	ldw	r3,-4(fp)
  803b98:	00800484 	movi	r2,18
  803b9c:	18800005 	stb	r2,0(r3)
  803ba0:	00002b06 	br	803c50 <OSEventNameSet+0x130>
  803ba4:	e0bffd17 	ldw	r2,-12(fp)
  803ba8:	10800003 	ldbu	r2,0(r2)
  803bac:	10803fcc 	andi	r2,r2,255
  803bb0:	10bfffc4 	addi	r2,r2,-1
  803bb4:	10800128 	cmpgeui	r2,r2,4
  803bb8:	10000f1e 	bne	r2,zero,803bf8 <OSEventNameSet+0xd8>
  803bbc:	0005303a 	rdctl	r2,status
  803bc0:	e0bffa15 	stw	r2,-24(fp)
  803bc4:	e0fffa17 	ldw	r3,-24(fp)
  803bc8:	00bfff84 	movi	r2,-2
  803bcc:	1884703a 	and	r2,r3,r2
  803bd0:	1001703a 	wrctl	status,r2
  803bd4:	e0bffa17 	ldw	r2,-24(fp)
  803bd8:	e0bffb15 	stw	r2,-20(fp)
  803bdc:	e13ffe17 	ldw	r4,-8(fp)
  803be0:	08055f40 	call	8055f4 <OS_StrLen>
  803be4:	e0bffc05 	stb	r2,-16(fp)
  803be8:	e0bffc03 	ldbu	r2,-16(fp)
  803bec:	10800828 	cmpgeui	r2,r2,32
  803bf0:	1000051e 	bne	r2,zero,803c08 <OSEventNameSet+0xe8>
  803bf4:	00000c06 	br	803c28 <OSEventNameSet+0x108>
  803bf8:	e0ffff17 	ldw	r3,-4(fp)
  803bfc:	00800044 	movi	r2,1
  803c00:	18800005 	stb	r2,0(r3)
  803c04:	00001206 	br	803c50 <OSEventNameSet+0x130>
  803c08:	e0bffb17 	ldw	r2,-20(fp)
  803c0c:	e0bff915 	stw	r2,-28(fp)
  803c10:	e0bff917 	ldw	r2,-28(fp)
  803c14:	1001703a 	wrctl	status,r2
  803c18:	e0ffff17 	ldw	r3,-4(fp)
  803c1c:	008002c4 	movi	r2,11
  803c20:	18800005 	stb	r2,0(r3)
  803c24:	00000a06 	br	803c50 <OSEventNameSet+0x130>
  803c28:	e0bffd17 	ldw	r2,-12(fp)
  803c2c:	11000384 	addi	r4,r2,14
  803c30:	e17ffe17 	ldw	r5,-8(fp)
  803c34:	08055740 	call	805574 <OS_StrCopy>
  803c38:	e0bffb17 	ldw	r2,-20(fp)
  803c3c:	e0bff815 	stw	r2,-32(fp)
  803c40:	e0bff817 	ldw	r2,-32(fp)
  803c44:	1001703a 	wrctl	status,r2
  803c48:	e0bfff17 	ldw	r2,-4(fp)
  803c4c:	10000005 	stb	zero,0(r2)
  803c50:	e037883a 	mov	sp,fp
  803c54:	dfc00117 	ldw	ra,4(sp)
  803c58:	df000017 	ldw	fp,0(sp)
  803c5c:	dec00204 	addi	sp,sp,8
  803c60:	f800283a 	ret

00803c64 <OSEventPendMulti>:
  803c64:	deffe704 	addi	sp,sp,-100
  803c68:	dfc01815 	stw	ra,96(sp)
  803c6c:	df001715 	stw	fp,92(sp)
  803c70:	df001704 	addi	fp,sp,92
  803c74:	e13ff615 	stw	r4,-40(fp)
  803c78:	e17ff715 	stw	r5,-36(fp)
  803c7c:	e1bff815 	stw	r6,-32(fp)
  803c80:	e1fff90d 	sth	r7,-28(fp)
  803c84:	e03ff015 	stw	zero,-64(fp)
  803c88:	e0800217 	ldw	r2,8(fp)
  803c8c:	1004c03a 	cmpne	r2,r2,zero
  803c90:	1000021e 	bne	r2,zero,803c9c <OSEventPendMulti+0x38>
  803c94:	e03fff15 	stw	zero,-4(fp)
  803c98:	00019906 	br	804300 <OSEventPendMulti+0x69c>
  803c9c:	e0bff617 	ldw	r2,-40(fp)
  803ca0:	1004c03a 	cmpne	r2,r2,zero
  803ca4:	1000051e 	bne	r2,zero,803cbc <OSEventPendMulti+0x58>
  803ca8:	e0c00217 	ldw	r3,8(fp)
  803cac:	00800104 	movi	r2,4
  803cb0:	18800005 	stb	r2,0(r3)
  803cb4:	e03fff15 	stw	zero,-4(fp)
  803cb8:	00019106 	br	804300 <OSEventPendMulti+0x69c>
  803cbc:	e0bff717 	ldw	r2,-36(fp)
  803cc0:	1004c03a 	cmpne	r2,r2,zero
  803cc4:	1000051e 	bne	r2,zero,803cdc <OSEventPendMulti+0x78>
  803cc8:	e0c00217 	ldw	r3,8(fp)
  803ccc:	00800104 	movi	r2,4
  803cd0:	18800005 	stb	r2,0(r3)
  803cd4:	e03fff15 	stw	zero,-4(fp)
  803cd8:	00018906 	br	804300 <OSEventPendMulti+0x69c>
  803cdc:	e0bff817 	ldw	r2,-32(fp)
  803ce0:	1004c03a 	cmpne	r2,r2,zero
  803ce4:	1000051e 	bne	r2,zero,803cfc <OSEventPendMulti+0x98>
  803ce8:	e0c00217 	ldw	r3,8(fp)
  803cec:	00800104 	movi	r2,4
  803cf0:	18800005 	stb	r2,0(r3)
  803cf4:	e03fff15 	stw	zero,-4(fp)
  803cf8:	00018106 	br	804300 <OSEventPendMulti+0x69c>
  803cfc:	e0bff717 	ldw	r2,-36(fp)
  803d00:	10000015 	stw	zero,0(r2)
  803d04:	e0bff617 	ldw	r2,-40(fp)
  803d08:	e0bff515 	stw	r2,-44(fp)
  803d0c:	e0bff517 	ldw	r2,-44(fp)
  803d10:	10800017 	ldw	r2,0(r2)
  803d14:	e0bff415 	stw	r2,-48(fp)
  803d18:	00001806 	br	803d7c <OSEventPendMulti+0x118>
  803d1c:	e0bff417 	ldw	r2,-48(fp)
  803d20:	10800003 	ldbu	r2,0(r2)
  803d24:	10803fcc 	andi	r2,r2,255
  803d28:	e0bffe15 	stw	r2,-8(fp)
  803d2c:	e0fffe17 	ldw	r3,-8(fp)
  803d30:	188000a0 	cmpeqi	r2,r3,2
  803d34:	10000b1e 	bne	r2,zero,803d64 <OSEventPendMulti+0x100>
  803d38:	e0fffe17 	ldw	r3,-8(fp)
  803d3c:	188000e0 	cmpeqi	r2,r3,3
  803d40:	1000081e 	bne	r2,zero,803d64 <OSEventPendMulti+0x100>
  803d44:	e0fffe17 	ldw	r3,-8(fp)
  803d48:	18800060 	cmpeqi	r2,r3,1
  803d4c:	1000051e 	bne	r2,zero,803d64 <OSEventPendMulti+0x100>
  803d50:	e0c00217 	ldw	r3,8(fp)
  803d54:	00800044 	movi	r2,1
  803d58:	18800005 	stb	r2,0(r3)
  803d5c:	e03fff15 	stw	zero,-4(fp)
  803d60:	00016706 	br	804300 <OSEventPendMulti+0x69c>
  803d64:	e0bff517 	ldw	r2,-44(fp)
  803d68:	10800104 	addi	r2,r2,4
  803d6c:	e0bff515 	stw	r2,-44(fp)
  803d70:	e0bff517 	ldw	r2,-44(fp)
  803d74:	10800017 	ldw	r2,0(r2)
  803d78:	e0bff415 	stw	r2,-48(fp)
  803d7c:	e0bff417 	ldw	r2,-48(fp)
  803d80:	1004c03a 	cmpne	r2,r2,zero
  803d84:	103fe51e 	bne	r2,zero,803d1c <OSEventPendMulti+0xb8>
  803d88:	d0a72603 	ldbu	r2,-25448(gp)
  803d8c:	10803fcc 	andi	r2,r2,255
  803d90:	1005003a 	cmpeq	r2,r2,zero
  803d94:	1000051e 	bne	r2,zero,803dac <OSEventPendMulti+0x148>
  803d98:	e0c00217 	ldw	r3,8(fp)
  803d9c:	00800084 	movi	r2,2
  803da0:	18800005 	stb	r2,0(r3)
  803da4:	e03fff15 	stw	zero,-4(fp)
  803da8:	00015506 	br	804300 <OSEventPendMulti+0x69c>
  803dac:	d0a71803 	ldbu	r2,-25504(gp)
  803db0:	10803fcc 	andi	r2,r2,255
  803db4:	1005003a 	cmpeq	r2,r2,zero
  803db8:	1000051e 	bne	r2,zero,803dd0 <OSEventPendMulti+0x16c>
  803dbc:	e0c00217 	ldw	r3,8(fp)
  803dc0:	00800344 	movi	r2,13
  803dc4:	18800005 	stb	r2,0(r3)
  803dc8:	e03fff15 	stw	zero,-4(fp)
  803dcc:	00014c06 	br	804300 <OSEventPendMulti+0x69c>
  803dd0:	0005303a 	rdctl	r2,status
  803dd4:	e0bfef15 	stw	r2,-68(fp)
  803dd8:	e0ffef17 	ldw	r3,-68(fp)
  803ddc:	00bfff84 	movi	r2,-2
  803de0:	1884703a 	and	r2,r3,r2
  803de4:	1001703a 	wrctl	status,r2
  803de8:	e0bfef17 	ldw	r2,-68(fp)
  803dec:	e0bff015 	stw	r2,-64(fp)
  803df0:	e03ff205 	stb	zero,-56(fp)
  803df4:	e03ff18d 	sth	zero,-58(fp)
  803df8:	e03ff105 	stb	zero,-60(fp)
  803dfc:	e0bff617 	ldw	r2,-40(fp)
  803e00:	e0bff515 	stw	r2,-44(fp)
  803e04:	e0bff517 	ldw	r2,-44(fp)
  803e08:	10800017 	ldw	r2,0(r2)
  803e0c:	e0bff415 	stw	r2,-48(fp)
  803e10:	00008f06 	br	804050 <OSEventPendMulti+0x3ec>
  803e14:	e0bff417 	ldw	r2,-48(fp)
  803e18:	10800003 	ldbu	r2,0(r2)
  803e1c:	10803fcc 	andi	r2,r2,255
  803e20:	e0bffd15 	stw	r2,-12(fp)
  803e24:	e0fffd17 	ldw	r3,-12(fp)
  803e28:	188000a0 	cmpeqi	r2,r3,2
  803e2c:	1000441e 	bne	r2,zero,803f40 <OSEventPendMulti+0x2dc>
  803e30:	e0fffd17 	ldw	r3,-12(fp)
  803e34:	188000e0 	cmpeqi	r2,r3,3
  803e38:	1000041e 	bne	r2,zero,803e4c <OSEventPendMulti+0x1e8>
  803e3c:	e0fffd17 	ldw	r3,-12(fp)
  803e40:	18800060 	cmpeqi	r2,r3,1
  803e44:	1000211e 	bne	r2,zero,803ecc <OSEventPendMulti+0x268>
  803e48:	00006f06 	br	804008 <OSEventPendMulti+0x3a4>
  803e4c:	e0bff417 	ldw	r2,-48(fp)
  803e50:	1080020b 	ldhu	r2,8(r2)
  803e54:	10bfffcc 	andi	r2,r2,65535
  803e58:	1005003a 	cmpeq	r2,r2,zero
  803e5c:	1000171e 	bne	r2,zero,803ebc <OSEventPendMulti+0x258>
  803e60:	e0bff417 	ldw	r2,-48(fp)
  803e64:	1080020b 	ldhu	r2,8(r2)
  803e68:	10bfffc4 	addi	r2,r2,-1
  803e6c:	1007883a 	mov	r3,r2
  803e70:	e0bff417 	ldw	r2,-48(fp)
  803e74:	10c0020d 	sth	r3,8(r2)
  803e78:	e0fff717 	ldw	r3,-36(fp)
  803e7c:	e0bff417 	ldw	r2,-48(fp)
  803e80:	18800015 	stw	r2,0(r3)
  803e84:	e0bff717 	ldw	r2,-36(fp)
  803e88:	10800104 	addi	r2,r2,4
  803e8c:	e0bff715 	stw	r2,-36(fp)
  803e90:	00800044 	movi	r2,1
  803e94:	e0bff205 	stb	r2,-56(fp)
  803e98:	e0bff817 	ldw	r2,-32(fp)
  803e9c:	10000015 	stw	zero,0(r2)
  803ea0:	e0bff817 	ldw	r2,-32(fp)
  803ea4:	10800104 	addi	r2,r2,4
  803ea8:	e0bff815 	stw	r2,-32(fp)
  803eac:	e0bff18b 	ldhu	r2,-58(fp)
  803eb0:	10800044 	addi	r2,r2,1
  803eb4:	e0bff18d 	sth	r2,-58(fp)
  803eb8:	00005f06 	br	804038 <OSEventPendMulti+0x3d4>
  803ebc:	e0bff103 	ldbu	r2,-60(fp)
  803ec0:	10800054 	ori	r2,r2,1
  803ec4:	e0bff105 	stb	r2,-60(fp)
  803ec8:	00005b06 	br	804038 <OSEventPendMulti+0x3d4>
  803ecc:	e0bff417 	ldw	r2,-48(fp)
  803ed0:	10800117 	ldw	r2,4(r2)
  803ed4:	1005003a 	cmpeq	r2,r2,zero
  803ed8:	1000151e 	bne	r2,zero,803f30 <OSEventPendMulti+0x2cc>
  803edc:	e0bff417 	ldw	r2,-48(fp)
  803ee0:	10c00117 	ldw	r3,4(r2)
  803ee4:	e0bff817 	ldw	r2,-32(fp)
  803ee8:	10c00015 	stw	r3,0(r2)
  803eec:	e0bff817 	ldw	r2,-32(fp)
  803ef0:	10800104 	addi	r2,r2,4
  803ef4:	e0bff815 	stw	r2,-32(fp)
  803ef8:	e0bff417 	ldw	r2,-48(fp)
  803efc:	10000115 	stw	zero,4(r2)
  803f00:	e0fff717 	ldw	r3,-36(fp)
  803f04:	e0bff417 	ldw	r2,-48(fp)
  803f08:	18800015 	stw	r2,0(r3)
  803f0c:	e0bff717 	ldw	r2,-36(fp)
  803f10:	10800104 	addi	r2,r2,4
  803f14:	e0bff715 	stw	r2,-36(fp)
  803f18:	00800044 	movi	r2,1
  803f1c:	e0bff205 	stb	r2,-56(fp)
  803f20:	e0bff18b 	ldhu	r2,-58(fp)
  803f24:	10800044 	addi	r2,r2,1
  803f28:	e0bff18d 	sth	r2,-58(fp)
  803f2c:	00004206 	br	804038 <OSEventPendMulti+0x3d4>
  803f30:	e0bff103 	ldbu	r2,-60(fp)
  803f34:	10800094 	ori	r2,r2,2
  803f38:	e0bff105 	stb	r2,-60(fp)
  803f3c:	00003e06 	br	804038 <OSEventPendMulti+0x3d4>
  803f40:	e0bff417 	ldw	r2,-48(fp)
  803f44:	10800117 	ldw	r2,4(r2)
  803f48:	e0bff315 	stw	r2,-52(fp)
  803f4c:	e0bff317 	ldw	r2,-52(fp)
  803f50:	1080058b 	ldhu	r2,22(r2)
  803f54:	10bfffcc 	andi	r2,r2,65535
  803f58:	1005003a 	cmpeq	r2,r2,zero
  803f5c:	1000261e 	bne	r2,zero,803ff8 <OSEventPendMulti+0x394>
  803f60:	e0bff317 	ldw	r2,-52(fp)
  803f64:	11000417 	ldw	r4,16(r2)
  803f68:	20c00017 	ldw	r3,0(r4)
  803f6c:	e0bff817 	ldw	r2,-32(fp)
  803f70:	10c00015 	stw	r3,0(r2)
  803f74:	e0bff817 	ldw	r2,-32(fp)
  803f78:	10800104 	addi	r2,r2,4
  803f7c:	e0bff815 	stw	r2,-32(fp)
  803f80:	20c00104 	addi	r3,r4,4
  803f84:	e0bff317 	ldw	r2,-52(fp)
  803f88:	10c00415 	stw	r3,16(r2)
  803f8c:	e0bff317 	ldw	r2,-52(fp)
  803f90:	10c00417 	ldw	r3,16(r2)
  803f94:	e0bff317 	ldw	r2,-52(fp)
  803f98:	10800217 	ldw	r2,8(r2)
  803f9c:	1880041e 	bne	r3,r2,803fb0 <OSEventPendMulti+0x34c>
  803fa0:	e0bff317 	ldw	r2,-52(fp)
  803fa4:	10c00117 	ldw	r3,4(r2)
  803fa8:	e0bff317 	ldw	r2,-52(fp)
  803fac:	10c00415 	stw	r3,16(r2)
  803fb0:	e0bff317 	ldw	r2,-52(fp)
  803fb4:	1080058b 	ldhu	r2,22(r2)
  803fb8:	10bfffc4 	addi	r2,r2,-1
  803fbc:	1007883a 	mov	r3,r2
  803fc0:	e0bff317 	ldw	r2,-52(fp)
  803fc4:	10c0058d 	sth	r3,22(r2)
  803fc8:	e0fff717 	ldw	r3,-36(fp)
  803fcc:	e0bff417 	ldw	r2,-48(fp)
  803fd0:	18800015 	stw	r2,0(r3)
  803fd4:	e0bff717 	ldw	r2,-36(fp)
  803fd8:	10800104 	addi	r2,r2,4
  803fdc:	e0bff715 	stw	r2,-36(fp)
  803fe0:	00800044 	movi	r2,1
  803fe4:	e0bff205 	stb	r2,-56(fp)
  803fe8:	e0bff18b 	ldhu	r2,-58(fp)
  803fec:	10800044 	addi	r2,r2,1
  803ff0:	e0bff18d 	sth	r2,-58(fp)
  803ff4:	00001006 	br	804038 <OSEventPendMulti+0x3d4>
  803ff8:	e0bff103 	ldbu	r2,-60(fp)
  803ffc:	10800114 	ori	r2,r2,4
  804000:	e0bff105 	stb	r2,-60(fp)
  804004:	00000c06 	br	804038 <OSEventPendMulti+0x3d4>
  804008:	e0bff017 	ldw	r2,-64(fp)
  80400c:	e0bfee15 	stw	r2,-72(fp)
  804010:	e0bfee17 	ldw	r2,-72(fp)
  804014:	1001703a 	wrctl	status,r2
  804018:	e0bff717 	ldw	r2,-36(fp)
  80401c:	10000015 	stw	zero,0(r2)
  804020:	e0c00217 	ldw	r3,8(fp)
  804024:	00800044 	movi	r2,1
  804028:	18800005 	stb	r2,0(r3)
  80402c:	e0bff18b 	ldhu	r2,-58(fp)
  804030:	e0bfff15 	stw	r2,-4(fp)
  804034:	0000b206 	br	804300 <OSEventPendMulti+0x69c>
  804038:	e0bff517 	ldw	r2,-44(fp)
  80403c:	10800104 	addi	r2,r2,4
  804040:	e0bff515 	stw	r2,-44(fp)
  804044:	e0bff517 	ldw	r2,-44(fp)
  804048:	10800017 	ldw	r2,0(r2)
  80404c:	e0bff415 	stw	r2,-48(fp)
  804050:	e0bff417 	ldw	r2,-48(fp)
  804054:	1004c03a 	cmpne	r2,r2,zero
  804058:	103f6e1e 	bne	r2,zero,803e14 <OSEventPendMulti+0x1b0>
  80405c:	e0bff203 	ldbu	r2,-56(fp)
  804060:	10800058 	cmpnei	r2,r2,1
  804064:	10000b1e 	bne	r2,zero,804094 <OSEventPendMulti+0x430>
  804068:	e0bff717 	ldw	r2,-36(fp)
  80406c:	10000015 	stw	zero,0(r2)
  804070:	e0bff017 	ldw	r2,-64(fp)
  804074:	e0bfed15 	stw	r2,-76(fp)
  804078:	e0bfed17 	ldw	r2,-76(fp)
  80407c:	1001703a 	wrctl	status,r2
  804080:	e0800217 	ldw	r2,8(fp)
  804084:	10000005 	stb	zero,0(r2)
  804088:	e0fff18b 	ldhu	r3,-58(fp)
  80408c:	e0ffff15 	stw	r3,-4(fp)
  804090:	00009b06 	br	804300 <OSEventPendMulti+0x69c>
  804094:	d1272717 	ldw	r4,-25444(gp)
  804098:	d0a72717 	ldw	r2,-25444(gp)
  80409c:	10c00c03 	ldbu	r3,48(r2)
  8040a0:	e0bff103 	ldbu	r2,-60(fp)
  8040a4:	1884b03a 	or	r2,r3,r2
  8040a8:	1007883a 	mov	r3,r2
  8040ac:	00bfe004 	movi	r2,-128
  8040b0:	1884b03a 	or	r2,r3,r2
  8040b4:	20800c05 	stb	r2,48(r4)
  8040b8:	d0a72717 	ldw	r2,-25444(gp)
  8040bc:	10000c45 	stb	zero,49(r2)
  8040c0:	d0e72717 	ldw	r3,-25444(gp)
  8040c4:	e0bff90b 	ldhu	r2,-28(fp)
  8040c8:	18800b8d 	sth	r2,46(r3)
  8040cc:	e13ff617 	ldw	r4,-40(fp)
  8040d0:	0804c940 	call	804c94 <OS_EventTaskWaitMulti>
  8040d4:	e0bff017 	ldw	r2,-64(fp)
  8040d8:	e0bfec15 	stw	r2,-80(fp)
  8040dc:	e0bfec17 	ldw	r2,-80(fp)
  8040e0:	1001703a 	wrctl	status,r2
  8040e4:	08054300 	call	805430 <OS_Sched>
  8040e8:	0005303a 	rdctl	r2,status
  8040ec:	e0bfeb15 	stw	r2,-84(fp)
  8040f0:	e0ffeb17 	ldw	r3,-84(fp)
  8040f4:	00bfff84 	movi	r2,-2
  8040f8:	1884703a 	and	r2,r3,r2
  8040fc:	1001703a 	wrctl	status,r2
  804100:	e0bfeb17 	ldw	r2,-84(fp)
  804104:	e0bff015 	stw	r2,-64(fp)
  804108:	d0a72717 	ldw	r2,-25444(gp)
  80410c:	10800c43 	ldbu	r2,49(r2)
  804110:	10803fcc 	andi	r2,r2,255
  804114:	e0bffc15 	stw	r2,-16(fp)
  804118:	e0fffc17 	ldw	r3,-16(fp)
  80411c:	1805003a 	cmpeq	r2,r3,zero
  804120:	1000041e 	bne	r2,zero,804134 <OSEventPendMulti+0x4d0>
  804124:	e0fffc17 	ldw	r3,-16(fp)
  804128:	188000a0 	cmpeqi	r2,r3,2
  80412c:	1000011e 	bne	r2,zero,804134 <OSEventPendMulti+0x4d0>
  804130:	00001906 	br	804198 <OSEventPendMulti+0x534>
  804134:	d0a72717 	ldw	r2,-25444(gp)
  804138:	10800717 	ldw	r2,28(r2)
  80413c:	e0bff415 	stw	r2,-48(fp)
  804140:	e0bff417 	ldw	r2,-48(fp)
  804144:	1005003a 	cmpeq	r2,r2,zero
  804148:	10000c1e 	bne	r2,zero,80417c <OSEventPendMulti+0x518>
  80414c:	e0fff717 	ldw	r3,-36(fp)
  804150:	e0bff417 	ldw	r2,-48(fp)
  804154:	18800015 	stw	r2,0(r3)
  804158:	e0bff717 	ldw	r2,-36(fp)
  80415c:	10800104 	addi	r2,r2,4
  804160:	e0bff715 	stw	r2,-36(fp)
  804164:	e0bff717 	ldw	r2,-36(fp)
  804168:	10000015 	stw	zero,0(r2)
  80416c:	e0bff18b 	ldhu	r2,-58(fp)
  804170:	10800044 	addi	r2,r2,1
  804174:	e0bff18d 	sth	r2,-58(fp)
  804178:	00000a06 	br	8041a4 <OSEventPendMulti+0x540>
  80417c:	d0a72717 	ldw	r2,-25444(gp)
  804180:	00c00044 	movi	r3,1
  804184:	10c00c45 	stb	r3,49(r2)
  804188:	d1272717 	ldw	r4,-25444(gp)
  80418c:	e17ff617 	ldw	r5,-40(fp)
  804190:	0804ea00 	call	804ea0 <OS_EventTaskRemoveMulti>
  804194:	00000306 	br	8041a4 <OSEventPendMulti+0x540>
  804198:	d1272717 	ldw	r4,-25444(gp)
  80419c:	e17ff617 	ldw	r5,-40(fp)
  8041a0:	0804ea00 	call	804ea0 <OS_EventTaskRemoveMulti>
  8041a4:	d0a72717 	ldw	r2,-25444(gp)
  8041a8:	10800c43 	ldbu	r2,49(r2)
  8041ac:	10803fcc 	andi	r2,r2,255
  8041b0:	e0bffb15 	stw	r2,-20(fp)
  8041b4:	e0fffb17 	ldw	r3,-20(fp)
  8041b8:	1805003a 	cmpeq	r2,r3,zero
  8041bc:	1000041e 	bne	r2,zero,8041d0 <OSEventPendMulti+0x56c>
  8041c0:	e0fffb17 	ldw	r3,-20(fp)
  8041c4:	188000a0 	cmpeqi	r2,r3,2
  8041c8:	10002c1e 	bne	r2,zero,80427c <OSEventPendMulti+0x618>
  8041cc:	00003406 	br	8042a0 <OSEventPendMulti+0x63c>
  8041d0:	e0bff417 	ldw	r2,-48(fp)
  8041d4:	10800003 	ldbu	r2,0(r2)
  8041d8:	10803fcc 	andi	r2,r2,255
  8041dc:	e0bffa15 	stw	r2,-24(fp)
  8041e0:	e0fffa17 	ldw	r3,-24(fp)
  8041e4:	18800050 	cmplti	r2,r3,1
  8041e8:	1000151e 	bne	r2,zero,804240 <OSEventPendMulti+0x5dc>
  8041ec:	e0fffa17 	ldw	r3,-24(fp)
  8041f0:	188000d0 	cmplti	r2,r3,3
  8041f4:	10000a1e 	bne	r2,zero,804220 <OSEventPendMulti+0x5bc>
  8041f8:	e0fffa17 	ldw	r3,-24(fp)
  8041fc:	188000e0 	cmpeqi	r2,r3,3
  804200:	1000011e 	bne	r2,zero,804208 <OSEventPendMulti+0x5a4>
  804204:	00000e06 	br	804240 <OSEventPendMulti+0x5dc>
  804208:	e0bff817 	ldw	r2,-32(fp)
  80420c:	10000015 	stw	zero,0(r2)
  804210:	e0bff817 	ldw	r2,-32(fp)
  804214:	10800104 	addi	r2,r2,4
  804218:	e0bff815 	stw	r2,-32(fp)
  80421c:	00001406 	br	804270 <OSEventPendMulti+0x60c>
  804220:	d0a72717 	ldw	r2,-25444(gp)
  804224:	10c00917 	ldw	r3,36(r2)
  804228:	e0bff817 	ldw	r2,-32(fp)
  80422c:	10c00015 	stw	r3,0(r2)
  804230:	e0bff817 	ldw	r2,-32(fp)
  804234:	10800104 	addi	r2,r2,4
  804238:	e0bff815 	stw	r2,-32(fp)
  80423c:	00000c06 	br	804270 <OSEventPendMulti+0x60c>
  804240:	e0bff017 	ldw	r2,-64(fp)
  804244:	e0bfea15 	stw	r2,-88(fp)
  804248:	e0bfea17 	ldw	r2,-88(fp)
  80424c:	1001703a 	wrctl	status,r2
  804250:	e0bff717 	ldw	r2,-36(fp)
  804254:	10000015 	stw	zero,0(r2)
  804258:	e0c00217 	ldw	r3,8(fp)
  80425c:	00800044 	movi	r2,1
  804260:	18800005 	stb	r2,0(r3)
  804264:	e0bff18b 	ldhu	r2,-58(fp)
  804268:	e0bfff15 	stw	r2,-4(fp)
  80426c:	00002406 	br	804300 <OSEventPendMulti+0x69c>
  804270:	e0800217 	ldw	r2,8(fp)
  804274:	10000005 	stb	zero,0(r2)
  804278:	00001106 	br	8042c0 <OSEventPendMulti+0x65c>
  80427c:	e0bff817 	ldw	r2,-32(fp)
  804280:	10000015 	stw	zero,0(r2)
  804284:	e0bff817 	ldw	r2,-32(fp)
  804288:	10800104 	addi	r2,r2,4
  80428c:	e0bff815 	stw	r2,-32(fp)
  804290:	e0c00217 	ldw	r3,8(fp)
  804294:	00800384 	movi	r2,14
  804298:	18800005 	stb	r2,0(r3)
  80429c:	00000806 	br	8042c0 <OSEventPendMulti+0x65c>
  8042a0:	e0bff817 	ldw	r2,-32(fp)
  8042a4:	10000015 	stw	zero,0(r2)
  8042a8:	e0bff817 	ldw	r2,-32(fp)
  8042ac:	10800104 	addi	r2,r2,4
  8042b0:	e0bff815 	stw	r2,-32(fp)
  8042b4:	e0c00217 	ldw	r3,8(fp)
  8042b8:	00800284 	movi	r2,10
  8042bc:	18800005 	stb	r2,0(r3)
  8042c0:	d0a72717 	ldw	r2,-25444(gp)
  8042c4:	10000c05 	stb	zero,48(r2)
  8042c8:	d0a72717 	ldw	r2,-25444(gp)
  8042cc:	10000c45 	stb	zero,49(r2)
  8042d0:	d0a72717 	ldw	r2,-25444(gp)
  8042d4:	10000715 	stw	zero,28(r2)
  8042d8:	d0a72717 	ldw	r2,-25444(gp)
  8042dc:	10000815 	stw	zero,32(r2)
  8042e0:	d0a72717 	ldw	r2,-25444(gp)
  8042e4:	10000915 	stw	zero,36(r2)
  8042e8:	e0bff017 	ldw	r2,-64(fp)
  8042ec:	e0bfe915 	stw	r2,-92(fp)
  8042f0:	e0bfe917 	ldw	r2,-92(fp)
  8042f4:	1001703a 	wrctl	status,r2
  8042f8:	e0fff18b 	ldhu	r3,-58(fp)
  8042fc:	e0ffff15 	stw	r3,-4(fp)
  804300:	e0bfff17 	ldw	r2,-4(fp)
  804304:	e037883a 	mov	sp,fp
  804308:	dfc00117 	ldw	ra,4(sp)
  80430c:	df000017 	ldw	fp,0(sp)
  804310:	dec00204 	addi	sp,sp,8
  804314:	f800283a 	ret

00804318 <OSInit>:
  804318:	defffe04 	addi	sp,sp,-8
  80431c:	dfc00115 	stw	ra,4(sp)
  804320:	df000015 	stw	fp,0(sp)
  804324:	d839883a 	mov	fp,sp
  804328:	080e46c0 	call	80e46c <OSInitHookBegin>
  80432c:	08050e80 	call	8050e8 <OS_InitMisc>
  804330:	080512c0 	call	80512c <OS_InitRdyList>
  804334:	08052900 	call	805290 <OS_InitTCBList>
  804338:	080500c0 	call	80500c <OS_InitEventList>
  80433c:	08073400 	call	807340 <OS_FlagInit>
  804340:	0807d180 	call	807d18 <OS_MemInit>
  804344:	08090700 	call	809070 <OS_QInit>
  804348:	08051980 	call	805198 <OS_InitTaskIdle>
  80434c:	08052140 	call	805214 <OS_InitTaskStat>
  804350:	080e4880 	call	80e488 <OSInitHookEnd>
  804354:	0805b180 	call	805b18 <OSDebugInit>
  804358:	e037883a 	mov	sp,fp
  80435c:	dfc00117 	ldw	ra,4(sp)
  804360:	df000017 	ldw	fp,0(sp)
  804364:	dec00204 	addi	sp,sp,8
  804368:	f800283a 	ret

0080436c <OSIntEnter>:
  80436c:	defffc04 	addi	sp,sp,-16
  804370:	df000315 	stw	fp,12(sp)
  804374:	df000304 	addi	fp,sp,12
  804378:	e03fff15 	stw	zero,-4(fp)
  80437c:	d0a71843 	ldbu	r2,-25503(gp)
  804380:	10803fcc 	andi	r2,r2,255
  804384:	10800058 	cmpnei	r2,r2,1
  804388:	1000131e 	bne	r2,zero,8043d8 <OSIntEnter+0x6c>
  80438c:	0005303a 	rdctl	r2,status
  804390:	e0bffe15 	stw	r2,-8(fp)
  804394:	e0fffe17 	ldw	r3,-8(fp)
  804398:	00bfff84 	movi	r2,-2
  80439c:	1884703a 	and	r2,r3,r2
  8043a0:	1001703a 	wrctl	status,r2
  8043a4:	e0bffe17 	ldw	r2,-8(fp)
  8043a8:	e0bfff15 	stw	r2,-4(fp)
  8043ac:	d0a72603 	ldbu	r2,-25448(gp)
  8043b0:	10803fcc 	andi	r2,r2,255
  8043b4:	10803fe0 	cmpeqi	r2,r2,255
  8043b8:	1000031e 	bne	r2,zero,8043c8 <OSIntEnter+0x5c>
  8043bc:	d0a72603 	ldbu	r2,-25448(gp)
  8043c0:	10800044 	addi	r2,r2,1
  8043c4:	d0a72605 	stb	r2,-25448(gp)
  8043c8:	e0bfff17 	ldw	r2,-4(fp)
  8043cc:	e0bffd15 	stw	r2,-12(fp)
  8043d0:	e0bffd17 	ldw	r2,-12(fp)
  8043d4:	1001703a 	wrctl	status,r2
  8043d8:	e037883a 	mov	sp,fp
  8043dc:	df000017 	ldw	fp,0(sp)
  8043e0:	dec00104 	addi	sp,sp,4
  8043e4:	f800283a 	ret

008043e8 <OSIntExit>:
  8043e8:	defffb04 	addi	sp,sp,-20
  8043ec:	dfc00415 	stw	ra,16(sp)
  8043f0:	df000315 	stw	fp,12(sp)
  8043f4:	df000304 	addi	fp,sp,12
  8043f8:	e03fff15 	stw	zero,-4(fp)
  8043fc:	d0a71843 	ldbu	r2,-25503(gp)
  804400:	10803fcc 	andi	r2,r2,255
  804404:	10800058 	cmpnei	r2,r2,1
  804408:	1000321e 	bne	r2,zero,8044d4 <OSIntExit+0xec>
  80440c:	0005303a 	rdctl	r2,status
  804410:	e0bffe15 	stw	r2,-8(fp)
  804414:	e0fffe17 	ldw	r3,-8(fp)
  804418:	00bfff84 	movi	r2,-2
  80441c:	1884703a 	and	r2,r3,r2
  804420:	1001703a 	wrctl	status,r2
  804424:	e0bffe17 	ldw	r2,-8(fp)
  804428:	e0bfff15 	stw	r2,-4(fp)
  80442c:	d0a72603 	ldbu	r2,-25448(gp)
  804430:	10803fcc 	andi	r2,r2,255
  804434:	1005003a 	cmpeq	r2,r2,zero
  804438:	1000031e 	bne	r2,zero,804448 <OSIntExit+0x60>
  80443c:	d0a72603 	ldbu	r2,-25448(gp)
  804440:	10bfffc4 	addi	r2,r2,-1
  804444:	d0a72605 	stb	r2,-25448(gp)
  804448:	d0a72603 	ldbu	r2,-25448(gp)
  80444c:	10803fcc 	andi	r2,r2,255
  804450:	1004c03a 	cmpne	r2,r2,zero
  804454:	10001b1e 	bne	r2,zero,8044c4 <OSIntExit+0xdc>
  804458:	d0a71803 	ldbu	r2,-25504(gp)
  80445c:	10803fcc 	andi	r2,r2,255
  804460:	1004c03a 	cmpne	r2,r2,zero
  804464:	1000171e 	bne	r2,zero,8044c4 <OSIntExit+0xdc>
  804468:	08055040 	call	805504 <OS_SchedNew>
  80446c:	d0a71a03 	ldbu	r2,-25496(gp)
  804470:	d0e71a43 	ldbu	r3,-25495(gp)
  804474:	11003fcc 	andi	r4,r2,255
  804478:	18803fcc 	andi	r2,r3,255
  80447c:	20801126 	beq	r4,r2,8044c4 <OSIntExit+0xdc>
  804480:	d0a71a03 	ldbu	r2,-25496(gp)
  804484:	10803fcc 	andi	r2,r2,255
  804488:	00c020b4 	movhi	r3,130
  80448c:	18e61404 	addi	r3,r3,-26544
  804490:	1085883a 	add	r2,r2,r2
  804494:	1085883a 	add	r2,r2,r2
  804498:	10c5883a 	add	r2,r2,r3
  80449c:	10800017 	ldw	r2,0(r2)
  8044a0:	d0a72215 	stw	r2,-25464(gp)
  8044a4:	d0e72217 	ldw	r3,-25464(gp)
  8044a8:	18800e17 	ldw	r2,56(r3)
  8044ac:	10800044 	addi	r2,r2,1
  8044b0:	18800e15 	stw	r2,56(r3)
  8044b4:	d0a71d17 	ldw	r2,-25484(gp)
  8044b8:	10800044 	addi	r2,r2,1
  8044bc:	d0a71d15 	stw	r2,-25484(gp)
  8044c0:	080dff80 	call	80dff8 <OSCtxSw>
  8044c4:	e0bfff17 	ldw	r2,-4(fp)
  8044c8:	e0bffd15 	stw	r2,-12(fp)
  8044cc:	e0bffd17 	ldw	r2,-12(fp)
  8044d0:	1001703a 	wrctl	status,r2
  8044d4:	e037883a 	mov	sp,fp
  8044d8:	dfc00117 	ldw	ra,4(sp)
  8044dc:	df000017 	ldw	fp,0(sp)
  8044e0:	dec00204 	addi	sp,sp,8
  8044e4:	f800283a 	ret

008044e8 <OSSchedLock>:
  8044e8:	defffc04 	addi	sp,sp,-16
  8044ec:	df000315 	stw	fp,12(sp)
  8044f0:	df000304 	addi	fp,sp,12
  8044f4:	e03fff15 	stw	zero,-4(fp)
  8044f8:	d0a71843 	ldbu	r2,-25503(gp)
  8044fc:	10803fcc 	andi	r2,r2,255
  804500:	10800058 	cmpnei	r2,r2,1
  804504:	1000171e 	bne	r2,zero,804564 <OSSchedLock+0x7c>
  804508:	0005303a 	rdctl	r2,status
  80450c:	e0bffe15 	stw	r2,-8(fp)
  804510:	e0fffe17 	ldw	r3,-8(fp)
  804514:	00bfff84 	movi	r2,-2
  804518:	1884703a 	and	r2,r3,r2
  80451c:	1001703a 	wrctl	status,r2
  804520:	e0bffe17 	ldw	r2,-8(fp)
  804524:	e0bfff15 	stw	r2,-4(fp)
  804528:	d0a72603 	ldbu	r2,-25448(gp)
  80452c:	10803fcc 	andi	r2,r2,255
  804530:	1004c03a 	cmpne	r2,r2,zero
  804534:	1000071e 	bne	r2,zero,804554 <OSSchedLock+0x6c>
  804538:	d0a71803 	ldbu	r2,-25504(gp)
  80453c:	10803fcc 	andi	r2,r2,255
  804540:	10803fe0 	cmpeqi	r2,r2,255
  804544:	1000031e 	bne	r2,zero,804554 <OSSchedLock+0x6c>
  804548:	d0a71803 	ldbu	r2,-25504(gp)
  80454c:	10800044 	addi	r2,r2,1
  804550:	d0a71805 	stb	r2,-25504(gp)
  804554:	e0bfff17 	ldw	r2,-4(fp)
  804558:	e0bffd15 	stw	r2,-12(fp)
  80455c:	e0bffd17 	ldw	r2,-12(fp)
  804560:	1001703a 	wrctl	status,r2
  804564:	e037883a 	mov	sp,fp
  804568:	df000017 	ldw	fp,0(sp)
  80456c:	dec00104 	addi	sp,sp,4
  804570:	f800283a 	ret

00804574 <OSSchedUnlock>:
  804574:	defff804 	addi	sp,sp,-32
  804578:	dfc00715 	stw	ra,28(sp)
  80457c:	df000615 	stw	fp,24(sp)
  804580:	df000604 	addi	fp,sp,24
  804584:	e03fff15 	stw	zero,-4(fp)
  804588:	d0a71843 	ldbu	r2,-25503(gp)
  80458c:	10803fcc 	andi	r2,r2,255
  804590:	10800058 	cmpnei	r2,r2,1
  804594:	10002b1e 	bne	r2,zero,804644 <OSSchedUnlock+0xd0>
  804598:	0005303a 	rdctl	r2,status
  80459c:	e0bffe15 	stw	r2,-8(fp)
  8045a0:	e0fffe17 	ldw	r3,-8(fp)
  8045a4:	00bfff84 	movi	r2,-2
  8045a8:	1884703a 	and	r2,r3,r2
  8045ac:	1001703a 	wrctl	status,r2
  8045b0:	e0bffe17 	ldw	r2,-8(fp)
  8045b4:	e0bfff15 	stw	r2,-4(fp)
  8045b8:	d0a71803 	ldbu	r2,-25504(gp)
  8045bc:	10803fcc 	andi	r2,r2,255
  8045c0:	1005003a 	cmpeq	r2,r2,zero
  8045c4:	10001b1e 	bne	r2,zero,804634 <OSSchedUnlock+0xc0>
  8045c8:	d0a71803 	ldbu	r2,-25504(gp)
  8045cc:	10bfffc4 	addi	r2,r2,-1
  8045d0:	d0a71805 	stb	r2,-25504(gp)
  8045d4:	d0a71803 	ldbu	r2,-25504(gp)
  8045d8:	10803fcc 	andi	r2,r2,255
  8045dc:	1004c03a 	cmpne	r2,r2,zero
  8045e0:	10000f1e 	bne	r2,zero,804620 <OSSchedUnlock+0xac>
  8045e4:	d0a72603 	ldbu	r2,-25448(gp)
  8045e8:	10803fcc 	andi	r2,r2,255
  8045ec:	1004c03a 	cmpne	r2,r2,zero
  8045f0:	1000061e 	bne	r2,zero,80460c <OSSchedUnlock+0x98>
  8045f4:	e0bfff17 	ldw	r2,-4(fp)
  8045f8:	e0bffd15 	stw	r2,-12(fp)
  8045fc:	e0bffd17 	ldw	r2,-12(fp)
  804600:	1001703a 	wrctl	status,r2
  804604:	08054300 	call	805430 <OS_Sched>
  804608:	00000e06 	br	804644 <OSSchedUnlock+0xd0>
  80460c:	e0bfff17 	ldw	r2,-4(fp)
  804610:	e0bffc15 	stw	r2,-16(fp)
  804614:	e0bffc17 	ldw	r2,-16(fp)
  804618:	1001703a 	wrctl	status,r2
  80461c:	00000906 	br	804644 <OSSchedUnlock+0xd0>
  804620:	e0bfff17 	ldw	r2,-4(fp)
  804624:	e0bffb15 	stw	r2,-20(fp)
  804628:	e0bffb17 	ldw	r2,-20(fp)
  80462c:	1001703a 	wrctl	status,r2
  804630:	00000406 	br	804644 <OSSchedUnlock+0xd0>
  804634:	e0bfff17 	ldw	r2,-4(fp)
  804638:	e0bffa15 	stw	r2,-24(fp)
  80463c:	e0bffa17 	ldw	r2,-24(fp)
  804640:	1001703a 	wrctl	status,r2
  804644:	e037883a 	mov	sp,fp
  804648:	dfc00117 	ldw	ra,4(sp)
  80464c:	df000017 	ldw	fp,0(sp)
  804650:	dec00204 	addi	sp,sp,8
  804654:	f800283a 	ret

00804658 <OSStart>:
  804658:	defffe04 	addi	sp,sp,-8
  80465c:	dfc00115 	stw	ra,4(sp)
  804660:	df000015 	stw	fp,0(sp)
  804664:	d839883a 	mov	fp,sp
  804668:	d0a71843 	ldbu	r2,-25503(gp)
  80466c:	10803fcc 	andi	r2,r2,255
  804670:	1004c03a 	cmpne	r2,r2,zero
  804674:	10000f1e 	bne	r2,zero,8046b4 <OSStart+0x5c>
  804678:	08055040 	call	805504 <OS_SchedNew>
  80467c:	d0a71a03 	ldbu	r2,-25496(gp)
  804680:	d0a71a45 	stb	r2,-25495(gp)
  804684:	d0a71a03 	ldbu	r2,-25496(gp)
  804688:	10803fcc 	andi	r2,r2,255
  80468c:	00c020b4 	movhi	r3,130
  804690:	18e61404 	addi	r3,r3,-26544
  804694:	1085883a 	add	r2,r2,r2
  804698:	1085883a 	add	r2,r2,r2
  80469c:	10c5883a 	add	r2,r2,r3
  8046a0:	10800017 	ldw	r2,0(r2)
  8046a4:	d0a72215 	stw	r2,-25464(gp)
  8046a8:	d0a72217 	ldw	r2,-25464(gp)
  8046ac:	d0a72715 	stw	r2,-25444(gp)
  8046b0:	080e0840 	call	80e084 <OSStartHighRdy>
  8046b4:	e037883a 	mov	sp,fp
  8046b8:	dfc00117 	ldw	ra,4(sp)
  8046bc:	df000017 	ldw	fp,0(sp)
  8046c0:	dec00204 	addi	sp,sp,8
  8046c4:	f800283a 	ret

008046c8 <OSStatInit>:
  8046c8:	defff904 	addi	sp,sp,-28
  8046cc:	dfc00615 	stw	ra,24(sp)
  8046d0:	df000515 	stw	fp,20(sp)
  8046d4:	df000504 	addi	fp,sp,20
  8046d8:	e03fff15 	stw	zero,-4(fp)
  8046dc:	01000084 	movi	r4,2
  8046e0:	080b7240 	call	80b724 <OSTimeDly>
  8046e4:	0005303a 	rdctl	r2,status
  8046e8:	e0bffe15 	stw	r2,-8(fp)
  8046ec:	e0fffe17 	ldw	r3,-8(fp)
  8046f0:	00bfff84 	movi	r2,-2
  8046f4:	1884703a 	and	r2,r3,r2
  8046f8:	1001703a 	wrctl	status,r2
  8046fc:	e0bffe17 	ldw	r2,-8(fp)
  804700:	e0bfff15 	stw	r2,-4(fp)
  804704:	d0271915 	stw	zero,-25500(gp)
  804708:	e0bfff17 	ldw	r2,-4(fp)
  80470c:	e0bffd15 	stw	r2,-12(fp)
  804710:	e0bffd17 	ldw	r2,-12(fp)
  804714:	1001703a 	wrctl	status,r2
  804718:	01001904 	movi	r4,100
  80471c:	080b7240 	call	80b724 <OSTimeDly>
  804720:	0005303a 	rdctl	r2,status
  804724:	e0bffc15 	stw	r2,-16(fp)
  804728:	e0fffc17 	ldw	r3,-16(fp)
  80472c:	00bfff84 	movi	r2,-2
  804730:	1884703a 	and	r2,r3,r2
  804734:	1001703a 	wrctl	status,r2
  804738:	e0bffc17 	ldw	r2,-16(fp)
  80473c:	e0bfff15 	stw	r2,-4(fp)
  804740:	d0a71917 	ldw	r2,-25500(gp)
  804744:	d0a71e15 	stw	r2,-25480(gp)
  804748:	00800044 	movi	r2,1
  80474c:	d0a72a05 	stb	r2,-25432(gp)
  804750:	e0bfff17 	ldw	r2,-4(fp)
  804754:	e0bffb15 	stw	r2,-20(fp)
  804758:	e0bffb17 	ldw	r2,-20(fp)
  80475c:	1001703a 	wrctl	status,r2
  804760:	e037883a 	mov	sp,fp
  804764:	dfc00117 	ldw	ra,4(sp)
  804768:	df000017 	ldw	fp,0(sp)
  80476c:	dec00204 	addi	sp,sp,8
  804770:	f800283a 	ret

00804774 <OSTimeTick>:
  804774:	defff604 	addi	sp,sp,-40
  804778:	dfc00915 	stw	ra,36(sp)
  80477c:	df000815 	stw	fp,32(sp)
  804780:	df000804 	addi	fp,sp,32
  804784:	e03ffc15 	stw	zero,-16(fp)
  804788:	080e4500 	call	80e450 <OSTimeTickHook>
  80478c:	0005303a 	rdctl	r2,status
  804790:	e0bffb15 	stw	r2,-20(fp)
  804794:	e0fffb17 	ldw	r3,-20(fp)
  804798:	00bfff84 	movi	r2,-2
  80479c:	1884703a 	and	r2,r3,r2
  8047a0:	1001703a 	wrctl	status,r2
  8047a4:	e0bffb17 	ldw	r2,-20(fp)
  8047a8:	e0bffc15 	stw	r2,-16(fp)
  8047ac:	d0a72817 	ldw	r2,-25440(gp)
  8047b0:	10800044 	addi	r2,r2,1
  8047b4:	d0a72815 	stw	r2,-25440(gp)
  8047b8:	e0bffc17 	ldw	r2,-16(fp)
  8047bc:	e0bffa15 	stw	r2,-24(fp)
  8047c0:	e0bffa17 	ldw	r2,-24(fp)
  8047c4:	1001703a 	wrctl	status,r2
  8047c8:	d0a71843 	ldbu	r2,-25503(gp)
  8047cc:	10803fcc 	andi	r2,r2,255
  8047d0:	10800058 	cmpnei	r2,r2,1
  8047d4:	1000721e 	bne	r2,zero,8049a0 <OSTimeTick+0x22c>
  8047d8:	d0a71c03 	ldbu	r2,-25488(gp)
  8047dc:	10803fcc 	andi	r2,r2,255
  8047e0:	e0bfff15 	stw	r2,-4(fp)
  8047e4:	e0ffff17 	ldw	r3,-4(fp)
  8047e8:	18800060 	cmpeqi	r2,r3,1
  8047ec:	10000a1e 	bne	r2,zero,804818 <OSTimeTick+0xa4>
  8047f0:	e0ffff17 	ldw	r3,-4(fp)
  8047f4:	188000a0 	cmpeqi	r2,r3,2
  8047f8:	1000091e 	bne	r2,zero,804820 <OSTimeTick+0xac>
  8047fc:	e0ffff17 	ldw	r3,-4(fp)
  804800:	1805003a 	cmpeq	r2,r3,zero
  804804:	1000011e 	bne	r2,zero,80480c <OSTimeTick+0x98>
  804808:	00000a06 	br	804834 <OSTimeTick+0xc0>
  80480c:	00800044 	movi	r2,1
  804810:	e0bffd05 	stb	r2,-12(fp)
  804814:	00000a06 	br	804840 <OSTimeTick+0xcc>
  804818:	e03ffd05 	stb	zero,-12(fp)
  80481c:	00000806 	br	804840 <OSTimeTick+0xcc>
  804820:	00800044 	movi	r2,1
  804824:	e0bffd05 	stb	r2,-12(fp)
  804828:	00800044 	movi	r2,1
  80482c:	d0a71c05 	stb	r2,-25488(gp)
  804830:	00000306 	br	804840 <OSTimeTick+0xcc>
  804834:	00800044 	movi	r2,1
  804838:	e0bffd05 	stb	r2,-12(fp)
  80483c:	d0271c05 	stb	zero,-25488(gp)
  804840:	e0bffd03 	ldbu	r2,-12(fp)
  804844:	1005003a 	cmpeq	r2,r2,zero
  804848:	1000551e 	bne	r2,zero,8049a0 <OSTimeTick+0x22c>
  80484c:	d0a71b17 	ldw	r2,-25492(gp)
  804850:	e0bffe15 	stw	r2,-8(fp)
  804854:	00004d06 	br	80498c <OSTimeTick+0x218>
  804858:	0005303a 	rdctl	r2,status
  80485c:	e0bff915 	stw	r2,-28(fp)
  804860:	e0fff917 	ldw	r3,-28(fp)
  804864:	00bfff84 	movi	r2,-2
  804868:	1884703a 	and	r2,r3,r2
  80486c:	1001703a 	wrctl	status,r2
  804870:	e0bff917 	ldw	r2,-28(fp)
  804874:	e0bffc15 	stw	r2,-16(fp)
  804878:	e0bffe17 	ldw	r2,-8(fp)
  80487c:	10800b8b 	ldhu	r2,46(r2)
  804880:	10bfffcc 	andi	r2,r2,65535
  804884:	1005003a 	cmpeq	r2,r2,zero
  804888:	1000391e 	bne	r2,zero,804970 <OSTimeTick+0x1fc>
  80488c:	e0bffe17 	ldw	r2,-8(fp)
  804890:	10800b8b 	ldhu	r2,46(r2)
  804894:	10bfffc4 	addi	r2,r2,-1
  804898:	1007883a 	mov	r3,r2
  80489c:	e0bffe17 	ldw	r2,-8(fp)
  8048a0:	10c00b8d 	sth	r3,46(r2)
  8048a4:	e0bffe17 	ldw	r2,-8(fp)
  8048a8:	10800b8b 	ldhu	r2,46(r2)
  8048ac:	10bfffcc 	andi	r2,r2,65535
  8048b0:	1004c03a 	cmpne	r2,r2,zero
  8048b4:	10002e1e 	bne	r2,zero,804970 <OSTimeTick+0x1fc>
  8048b8:	e0bffe17 	ldw	r2,-8(fp)
  8048bc:	10800c03 	ldbu	r2,48(r2)
  8048c0:	10803fcc 	andi	r2,r2,255
  8048c4:	10800dcc 	andi	r2,r2,55
  8048c8:	1005003a 	cmpeq	r2,r2,zero
  8048cc:	10000b1e 	bne	r2,zero,8048fc <OSTimeTick+0x188>
  8048d0:	e0bffe17 	ldw	r2,-8(fp)
  8048d4:	10c00c03 	ldbu	r3,48(r2)
  8048d8:	00bff204 	movi	r2,-56
  8048dc:	1884703a 	and	r2,r3,r2
  8048e0:	1007883a 	mov	r3,r2
  8048e4:	e0bffe17 	ldw	r2,-8(fp)
  8048e8:	10c00c05 	stb	r3,48(r2)
  8048ec:	e0fffe17 	ldw	r3,-8(fp)
  8048f0:	00800044 	movi	r2,1
  8048f4:	18800c45 	stb	r2,49(r3)
  8048f8:	00000206 	br	804904 <OSTimeTick+0x190>
  8048fc:	e0bffe17 	ldw	r2,-8(fp)
  804900:	10000c45 	stb	zero,49(r2)
  804904:	e0bffe17 	ldw	r2,-8(fp)
  804908:	10800c03 	ldbu	r2,48(r2)
  80490c:	10803fcc 	andi	r2,r2,255
  804910:	1080020c 	andi	r2,r2,8
  804914:	1004c03a 	cmpne	r2,r2,zero
  804918:	1000151e 	bne	r2,zero,804970 <OSTimeTick+0x1fc>
  80491c:	e0bffe17 	ldw	r2,-8(fp)
  804920:	10c00d83 	ldbu	r3,54(r2)
  804924:	d0a72403 	ldbu	r2,-25456(gp)
  804928:	1884b03a 	or	r2,r3,r2
  80492c:	d0a72405 	stb	r2,-25456(gp)
  804930:	e0bffe17 	ldw	r2,-8(fp)
  804934:	10800d03 	ldbu	r2,52(r2)
  804938:	11003fcc 	andi	r4,r2,255
  80493c:	e0bffe17 	ldw	r2,-8(fp)
  804940:	10800d03 	ldbu	r2,52(r2)
  804944:	10c03fcc 	andi	r3,r2,255
  804948:	d0a72444 	addi	r2,gp,-25455
  80494c:	1885883a 	add	r2,r3,r2
  804950:	10c00003 	ldbu	r3,0(r2)
  804954:	e0bffe17 	ldw	r2,-8(fp)
  804958:	10800d43 	ldbu	r2,53(r2)
  80495c:	1884b03a 	or	r2,r3,r2
  804960:	1007883a 	mov	r3,r2
  804964:	d0a72444 	addi	r2,gp,-25455
  804968:	2085883a 	add	r2,r4,r2
  80496c:	10c00005 	stb	r3,0(r2)
  804970:	e0bffe17 	ldw	r2,-8(fp)
  804974:	10800517 	ldw	r2,20(r2)
  804978:	e0bffe15 	stw	r2,-8(fp)
  80497c:	e0bffc17 	ldw	r2,-16(fp)
  804980:	e0bff815 	stw	r2,-32(fp)
  804984:	e0bff817 	ldw	r2,-32(fp)
  804988:	1001703a 	wrctl	status,r2
  80498c:	e0bffe17 	ldw	r2,-8(fp)
  804990:	10800c83 	ldbu	r2,50(r2)
  804994:	10803fcc 	andi	r2,r2,255
  804998:	10800518 	cmpnei	r2,r2,20
  80499c:	103fae1e 	bne	r2,zero,804858 <OSTimeTick+0xe4>
  8049a0:	e037883a 	mov	sp,fp
  8049a4:	dfc00117 	ldw	ra,4(sp)
  8049a8:	df000017 	ldw	fp,0(sp)
  8049ac:	dec00204 	addi	sp,sp,8
  8049b0:	f800283a 	ret

008049b4 <OSVersion>:
  8049b4:	deffff04 	addi	sp,sp,-4
  8049b8:	df000015 	stw	fp,0(sp)
  8049bc:	d839883a 	mov	fp,sp
  8049c0:	00804784 	movi	r2,286
  8049c4:	e037883a 	mov	sp,fp
  8049c8:	df000017 	ldw	fp,0(sp)
  8049cc:	dec00104 	addi	sp,sp,4
  8049d0:	f800283a 	ret

008049d4 <OS_Dummy>:
  8049d4:	deffff04 	addi	sp,sp,-4
  8049d8:	df000015 	stw	fp,0(sp)
  8049dc:	d839883a 	mov	fp,sp
  8049e0:	e037883a 	mov	sp,fp
  8049e4:	df000017 	ldw	fp,0(sp)
  8049e8:	dec00104 	addi	sp,sp,4
  8049ec:	f800283a 	ret

008049f0 <OS_EventTaskRdy>:
  8049f0:	defff804 	addi	sp,sp,-32
  8049f4:	dfc00715 	stw	ra,28(sp)
  8049f8:	df000615 	stw	fp,24(sp)
  8049fc:	df000604 	addi	fp,sp,24
  804a00:	e13ffc15 	stw	r4,-16(fp)
  804a04:	e17ffd15 	stw	r5,-12(fp)
  804a08:	e1bffe05 	stb	r6,-8(fp)
  804a0c:	e1ffff05 	stb	r7,-4(fp)
  804a10:	e0bffc17 	ldw	r2,-16(fp)
  804a14:	10800283 	ldbu	r2,10(r2)
  804a18:	10c03fcc 	andi	r3,r2,255
  804a1c:	00802074 	movhi	r2,129
  804a20:	10bb4e04 	addi	r2,r2,-4808
  804a24:	10c5883a 	add	r2,r2,r3
  804a28:	10800003 	ldbu	r2,0(r2)
  804a2c:	e0bffa85 	stb	r2,-22(fp)
  804a30:	e0fffa83 	ldbu	r3,-22(fp)
  804a34:	e0bffc17 	ldw	r2,-16(fp)
  804a38:	1885883a 	add	r2,r3,r2
  804a3c:	10800204 	addi	r2,r2,8
  804a40:	108000c3 	ldbu	r2,3(r2)
  804a44:	10c03fcc 	andi	r3,r2,255
  804a48:	00802074 	movhi	r2,129
  804a4c:	10bb4e04 	addi	r2,r2,-4808
  804a50:	10c5883a 	add	r2,r2,r3
  804a54:	10800003 	ldbu	r2,0(r2)
  804a58:	e0bffa45 	stb	r2,-23(fp)
  804a5c:	e0bffa83 	ldbu	r2,-22(fp)
  804a60:	100490fa 	slli	r2,r2,3
  804a64:	1007883a 	mov	r3,r2
  804a68:	e0bffa43 	ldbu	r2,-23(fp)
  804a6c:	1885883a 	add	r2,r3,r2
  804a70:	e0bffa05 	stb	r2,-24(fp)
  804a74:	e0bffa03 	ldbu	r2,-24(fp)
  804a78:	00c020b4 	movhi	r3,130
  804a7c:	18e61404 	addi	r3,r3,-26544
  804a80:	1085883a 	add	r2,r2,r2
  804a84:	1085883a 	add	r2,r2,r2
  804a88:	10c5883a 	add	r2,r2,r3
  804a8c:	10800017 	ldw	r2,0(r2)
  804a90:	e0bffb15 	stw	r2,-20(fp)
  804a94:	e0bffb17 	ldw	r2,-20(fp)
  804a98:	10000b8d 	sth	zero,46(r2)
  804a9c:	e0fffb17 	ldw	r3,-20(fp)
  804aa0:	e0bffd17 	ldw	r2,-12(fp)
  804aa4:	18800915 	stw	r2,36(r3)
  804aa8:	e0bffb17 	ldw	r2,-20(fp)
  804aac:	10800c03 	ldbu	r2,48(r2)
  804ab0:	1007883a 	mov	r3,r2
  804ab4:	e0bffe03 	ldbu	r2,-8(fp)
  804ab8:	0084303a 	nor	r2,zero,r2
  804abc:	1884703a 	and	r2,r3,r2
  804ac0:	1007883a 	mov	r3,r2
  804ac4:	e0bffb17 	ldw	r2,-20(fp)
  804ac8:	10c00c05 	stb	r3,48(r2)
  804acc:	e0fffb17 	ldw	r3,-20(fp)
  804ad0:	e0bfff03 	ldbu	r2,-4(fp)
  804ad4:	18800c45 	stb	r2,49(r3)
  804ad8:	e0bffb17 	ldw	r2,-20(fp)
  804adc:	10800c03 	ldbu	r2,48(r2)
  804ae0:	10803fcc 	andi	r2,r2,255
  804ae4:	1080020c 	andi	r2,r2,8
  804ae8:	1004c03a 	cmpne	r2,r2,zero
  804aec:	1000111e 	bne	r2,zero,804b34 <OS_EventTaskRdy+0x144>
  804af0:	e0bffb17 	ldw	r2,-20(fp)
  804af4:	10c00d83 	ldbu	r3,54(r2)
  804af8:	d0a72403 	ldbu	r2,-25456(gp)
  804afc:	1884b03a 	or	r2,r3,r2
  804b00:	d0a72405 	stb	r2,-25456(gp)
  804b04:	e13ffa83 	ldbu	r4,-22(fp)
  804b08:	e0fffa83 	ldbu	r3,-22(fp)
  804b0c:	d0a72444 	addi	r2,gp,-25455
  804b10:	1885883a 	add	r2,r3,r2
  804b14:	10c00003 	ldbu	r3,0(r2)
  804b18:	e0bffb17 	ldw	r2,-20(fp)
  804b1c:	10800d43 	ldbu	r2,53(r2)
  804b20:	1884b03a 	or	r2,r3,r2
  804b24:	1007883a 	mov	r3,r2
  804b28:	d0a72444 	addi	r2,gp,-25455
  804b2c:	2085883a 	add	r2,r4,r2
  804b30:	10c00005 	stb	r3,0(r2)
  804b34:	e13ffb17 	ldw	r4,-20(fp)
  804b38:	e17ffc17 	ldw	r5,-16(fp)
  804b3c:	0804de80 	call	804de8 <OS_EventTaskRemove>
  804b40:	e0bffb17 	ldw	r2,-20(fp)
  804b44:	10800817 	ldw	r2,32(r2)
  804b48:	1005003a 	cmpeq	r2,r2,zero
  804b4c:	1000071e 	bne	r2,zero,804b6c <OS_EventTaskRdy+0x17c>
  804b50:	e0bffb17 	ldw	r2,-20(fp)
  804b54:	11400817 	ldw	r5,32(r2)
  804b58:	e13ffb17 	ldw	r4,-20(fp)
  804b5c:	0804ea00 	call	804ea0 <OS_EventTaskRemoveMulti>
  804b60:	e0fffb17 	ldw	r3,-20(fp)
  804b64:	e0bffc17 	ldw	r2,-16(fp)
  804b68:	18800715 	stw	r2,28(r3)
  804b6c:	e0bffa03 	ldbu	r2,-24(fp)
  804b70:	e037883a 	mov	sp,fp
  804b74:	dfc00117 	ldw	ra,4(sp)
  804b78:	df000017 	ldw	fp,0(sp)
  804b7c:	dec00204 	addi	sp,sp,8
  804b80:	f800283a 	ret

00804b84 <OS_EventTaskWait>:
  804b84:	defffd04 	addi	sp,sp,-12
  804b88:	df000215 	stw	fp,8(sp)
  804b8c:	df000204 	addi	fp,sp,8
  804b90:	e13fff15 	stw	r4,-4(fp)
  804b94:	d0e72717 	ldw	r3,-25444(gp)
  804b98:	e0bfff17 	ldw	r2,-4(fp)
  804b9c:	18800715 	stw	r2,28(r3)
  804ba0:	d0a72717 	ldw	r2,-25444(gp)
  804ba4:	10800d03 	ldbu	r2,52(r2)
  804ba8:	11003fcc 	andi	r4,r2,255
  804bac:	d0a72717 	ldw	r2,-25444(gp)
  804bb0:	10800d03 	ldbu	r2,52(r2)
  804bb4:	10c03fcc 	andi	r3,r2,255
  804bb8:	e0bfff17 	ldw	r2,-4(fp)
  804bbc:	1885883a 	add	r2,r3,r2
  804bc0:	10800204 	addi	r2,r2,8
  804bc4:	10c000c3 	ldbu	r3,3(r2)
  804bc8:	d0a72717 	ldw	r2,-25444(gp)
  804bcc:	10800d43 	ldbu	r2,53(r2)
  804bd0:	1884b03a 	or	r2,r3,r2
  804bd4:	1007883a 	mov	r3,r2
  804bd8:	e0bfff17 	ldw	r2,-4(fp)
  804bdc:	2085883a 	add	r2,r4,r2
  804be0:	10800204 	addi	r2,r2,8
  804be4:	10c000c5 	stb	r3,3(r2)
  804be8:	e0bfff17 	ldw	r2,-4(fp)
  804bec:	10c00283 	ldbu	r3,10(r2)
  804bf0:	d0a72717 	ldw	r2,-25444(gp)
  804bf4:	10800d83 	ldbu	r2,54(r2)
  804bf8:	1884b03a 	or	r2,r3,r2
  804bfc:	1007883a 	mov	r3,r2
  804c00:	e0bfff17 	ldw	r2,-4(fp)
  804c04:	10c00285 	stb	r3,10(r2)
  804c08:	d0a72717 	ldw	r2,-25444(gp)
  804c0c:	10800d03 	ldbu	r2,52(r2)
  804c10:	e0bffe05 	stb	r2,-8(fp)
  804c14:	e13ffe03 	ldbu	r4,-8(fp)
  804c18:	e0fffe03 	ldbu	r3,-8(fp)
  804c1c:	d0a72444 	addi	r2,gp,-25455
  804c20:	1885883a 	add	r2,r3,r2
  804c24:	10800003 	ldbu	r2,0(r2)
  804c28:	1007883a 	mov	r3,r2
  804c2c:	d0a72717 	ldw	r2,-25444(gp)
  804c30:	10800d43 	ldbu	r2,53(r2)
  804c34:	0084303a 	nor	r2,zero,r2
  804c38:	1884703a 	and	r2,r3,r2
  804c3c:	1007883a 	mov	r3,r2
  804c40:	d0a72444 	addi	r2,gp,-25455
  804c44:	2085883a 	add	r2,r4,r2
  804c48:	10c00005 	stb	r3,0(r2)
  804c4c:	e0fffe03 	ldbu	r3,-8(fp)
  804c50:	d0a72444 	addi	r2,gp,-25455
  804c54:	1885883a 	add	r2,r3,r2
  804c58:	10800003 	ldbu	r2,0(r2)
  804c5c:	10803fcc 	andi	r2,r2,255
  804c60:	1004c03a 	cmpne	r2,r2,zero
  804c64:	1000071e 	bne	r2,zero,804c84 <OS_EventTaskWait+0x100>
  804c68:	d0a72717 	ldw	r2,-25444(gp)
  804c6c:	10800d83 	ldbu	r2,54(r2)
  804c70:	0084303a 	nor	r2,zero,r2
  804c74:	1007883a 	mov	r3,r2
  804c78:	d0a72403 	ldbu	r2,-25456(gp)
  804c7c:	1884703a 	and	r2,r3,r2
  804c80:	d0a72405 	stb	r2,-25456(gp)
  804c84:	e037883a 	mov	sp,fp
  804c88:	df000017 	ldw	fp,0(sp)
  804c8c:	dec00104 	addi	sp,sp,4
  804c90:	f800283a 	ret

00804c94 <OS_EventTaskWaitMulti>:
  804c94:	defffb04 	addi	sp,sp,-20
  804c98:	df000415 	stw	fp,16(sp)
  804c9c:	df000404 	addi	fp,sp,16
  804ca0:	e13fff15 	stw	r4,-4(fp)
  804ca4:	d0a72717 	ldw	r2,-25444(gp)
  804ca8:	10000715 	stw	zero,28(r2)
  804cac:	d0e72717 	ldw	r3,-25444(gp)
  804cb0:	e0bfff17 	ldw	r2,-4(fp)
  804cb4:	18800815 	stw	r2,32(r3)
  804cb8:	e0bfff17 	ldw	r2,-4(fp)
  804cbc:	e0bffe15 	stw	r2,-8(fp)
  804cc0:	e0bffe17 	ldw	r2,-8(fp)
  804cc4:	10800017 	ldw	r2,0(r2)
  804cc8:	e0bffd15 	stw	r2,-12(fp)
  804ccc:	00002006 	br	804d50 <OS_EventTaskWaitMulti+0xbc>
  804cd0:	d0a72717 	ldw	r2,-25444(gp)
  804cd4:	10800d03 	ldbu	r2,52(r2)
  804cd8:	11003fcc 	andi	r4,r2,255
  804cdc:	d0a72717 	ldw	r2,-25444(gp)
  804ce0:	10800d03 	ldbu	r2,52(r2)
  804ce4:	10c03fcc 	andi	r3,r2,255
  804ce8:	e0bffd17 	ldw	r2,-12(fp)
  804cec:	1885883a 	add	r2,r3,r2
  804cf0:	10800204 	addi	r2,r2,8
  804cf4:	10c000c3 	ldbu	r3,3(r2)
  804cf8:	d0a72717 	ldw	r2,-25444(gp)
  804cfc:	10800d43 	ldbu	r2,53(r2)
  804d00:	1884b03a 	or	r2,r3,r2
  804d04:	1007883a 	mov	r3,r2
  804d08:	e0bffd17 	ldw	r2,-12(fp)
  804d0c:	2085883a 	add	r2,r4,r2
  804d10:	10800204 	addi	r2,r2,8
  804d14:	10c000c5 	stb	r3,3(r2)
  804d18:	e0bffd17 	ldw	r2,-12(fp)
  804d1c:	10c00283 	ldbu	r3,10(r2)
  804d20:	d0a72717 	ldw	r2,-25444(gp)
  804d24:	10800d83 	ldbu	r2,54(r2)
  804d28:	1884b03a 	or	r2,r3,r2
  804d2c:	1007883a 	mov	r3,r2
  804d30:	e0bffd17 	ldw	r2,-12(fp)
  804d34:	10c00285 	stb	r3,10(r2)
  804d38:	e0bffe17 	ldw	r2,-8(fp)
  804d3c:	10800104 	addi	r2,r2,4
  804d40:	e0bffe15 	stw	r2,-8(fp)
  804d44:	e0bffe17 	ldw	r2,-8(fp)
  804d48:	10800017 	ldw	r2,0(r2)
  804d4c:	e0bffd15 	stw	r2,-12(fp)
  804d50:	e0bffd17 	ldw	r2,-12(fp)
  804d54:	1004c03a 	cmpne	r2,r2,zero
  804d58:	103fdd1e 	bne	r2,zero,804cd0 <OS_EventTaskWaitMulti+0x3c>
  804d5c:	d0a72717 	ldw	r2,-25444(gp)
  804d60:	10800d03 	ldbu	r2,52(r2)
  804d64:	e0bffc05 	stb	r2,-16(fp)
  804d68:	e13ffc03 	ldbu	r4,-16(fp)
  804d6c:	e0fffc03 	ldbu	r3,-16(fp)
  804d70:	d0a72444 	addi	r2,gp,-25455
  804d74:	1885883a 	add	r2,r3,r2
  804d78:	10800003 	ldbu	r2,0(r2)
  804d7c:	1007883a 	mov	r3,r2
  804d80:	d0a72717 	ldw	r2,-25444(gp)
  804d84:	10800d43 	ldbu	r2,53(r2)
  804d88:	0084303a 	nor	r2,zero,r2
  804d8c:	1884703a 	and	r2,r3,r2
  804d90:	1007883a 	mov	r3,r2
  804d94:	d0a72444 	addi	r2,gp,-25455
  804d98:	2085883a 	add	r2,r4,r2
  804d9c:	10c00005 	stb	r3,0(r2)
  804da0:	e0fffc03 	ldbu	r3,-16(fp)
  804da4:	d0a72444 	addi	r2,gp,-25455
  804da8:	1885883a 	add	r2,r3,r2
  804dac:	10800003 	ldbu	r2,0(r2)
  804db0:	10803fcc 	andi	r2,r2,255
  804db4:	1004c03a 	cmpne	r2,r2,zero
  804db8:	1000071e 	bne	r2,zero,804dd8 <OS_EventTaskWaitMulti+0x144>
  804dbc:	d0a72717 	ldw	r2,-25444(gp)
  804dc0:	10800d83 	ldbu	r2,54(r2)
  804dc4:	0084303a 	nor	r2,zero,r2
  804dc8:	1007883a 	mov	r3,r2
  804dcc:	d0a72403 	ldbu	r2,-25456(gp)
  804dd0:	1884703a 	and	r2,r3,r2
  804dd4:	d0a72405 	stb	r2,-25456(gp)
  804dd8:	e037883a 	mov	sp,fp
  804ddc:	df000017 	ldw	fp,0(sp)
  804de0:	dec00104 	addi	sp,sp,4
  804de4:	f800283a 	ret

00804de8 <OS_EventTaskRemove>:
  804de8:	defffc04 	addi	sp,sp,-16
  804dec:	df000315 	stw	fp,12(sp)
  804df0:	df000304 	addi	fp,sp,12
  804df4:	e13ffe15 	stw	r4,-8(fp)
  804df8:	e17fff15 	stw	r5,-4(fp)
  804dfc:	e0bffe17 	ldw	r2,-8(fp)
  804e00:	10800d03 	ldbu	r2,52(r2)
  804e04:	e0bffd05 	stb	r2,-12(fp)
  804e08:	e13ffd03 	ldbu	r4,-12(fp)
  804e0c:	e0fffd03 	ldbu	r3,-12(fp)
  804e10:	e0bfff17 	ldw	r2,-4(fp)
  804e14:	1885883a 	add	r2,r3,r2
  804e18:	10800204 	addi	r2,r2,8
  804e1c:	108000c3 	ldbu	r2,3(r2)
  804e20:	1007883a 	mov	r3,r2
  804e24:	e0bffe17 	ldw	r2,-8(fp)
  804e28:	10800d43 	ldbu	r2,53(r2)
  804e2c:	0084303a 	nor	r2,zero,r2
  804e30:	1884703a 	and	r2,r3,r2
  804e34:	1007883a 	mov	r3,r2
  804e38:	e0bfff17 	ldw	r2,-4(fp)
  804e3c:	2085883a 	add	r2,r4,r2
  804e40:	10800204 	addi	r2,r2,8
  804e44:	10c000c5 	stb	r3,3(r2)
  804e48:	e0fffd03 	ldbu	r3,-12(fp)
  804e4c:	e0bfff17 	ldw	r2,-4(fp)
  804e50:	1885883a 	add	r2,r3,r2
  804e54:	10800204 	addi	r2,r2,8
  804e58:	108000c3 	ldbu	r2,3(r2)
  804e5c:	10803fcc 	andi	r2,r2,255
  804e60:	1004c03a 	cmpne	r2,r2,zero
  804e64:	10000a1e 	bne	r2,zero,804e90 <OS_EventTaskRemove+0xa8>
  804e68:	e0bfff17 	ldw	r2,-4(fp)
  804e6c:	10800283 	ldbu	r2,10(r2)
  804e70:	1007883a 	mov	r3,r2
  804e74:	e0bffe17 	ldw	r2,-8(fp)
  804e78:	10800d83 	ldbu	r2,54(r2)
  804e7c:	0084303a 	nor	r2,zero,r2
  804e80:	1884703a 	and	r2,r3,r2
  804e84:	1007883a 	mov	r3,r2
  804e88:	e0bfff17 	ldw	r2,-4(fp)
  804e8c:	10c00285 	stb	r3,10(r2)
  804e90:	e037883a 	mov	sp,fp
  804e94:	df000017 	ldw	fp,0(sp)
  804e98:	dec00104 	addi	sp,sp,4
  804e9c:	f800283a 	ret

00804ea0 <OS_EventTaskRemoveMulti>:
  804ea0:	defffa04 	addi	sp,sp,-24
  804ea4:	df000515 	stw	fp,20(sp)
  804ea8:	df000504 	addi	fp,sp,20
  804eac:	e13ffe15 	stw	r4,-8(fp)
  804eb0:	e17fff15 	stw	r5,-4(fp)
  804eb4:	e0bffe17 	ldw	r2,-8(fp)
  804eb8:	10800d03 	ldbu	r2,52(r2)
  804ebc:	e0bffb85 	stb	r2,-18(fp)
  804ec0:	e0bffe17 	ldw	r2,-8(fp)
  804ec4:	10800d83 	ldbu	r2,54(r2)
  804ec8:	e0bffb45 	stb	r2,-19(fp)
  804ecc:	e0bffe17 	ldw	r2,-8(fp)
  804ed0:	10800d43 	ldbu	r2,53(r2)
  804ed4:	e0bffb05 	stb	r2,-20(fp)
  804ed8:	e0bfff17 	ldw	r2,-4(fp)
  804edc:	e0bffd15 	stw	r2,-12(fp)
  804ee0:	e0bffd17 	ldw	r2,-12(fp)
  804ee4:	10800017 	ldw	r2,0(r2)
  804ee8:	e0bffc15 	stw	r2,-16(fp)
  804eec:	00002606 	br	804f88 <OS_EventTaskRemoveMulti+0xe8>
  804ef0:	e13ffb83 	ldbu	r4,-18(fp)
  804ef4:	e0fffb83 	ldbu	r3,-18(fp)
  804ef8:	e0bffc17 	ldw	r2,-16(fp)
  804efc:	1885883a 	add	r2,r3,r2
  804f00:	10800204 	addi	r2,r2,8
  804f04:	108000c3 	ldbu	r2,3(r2)
  804f08:	1007883a 	mov	r3,r2
  804f0c:	e0bffb03 	ldbu	r2,-20(fp)
  804f10:	0084303a 	nor	r2,zero,r2
  804f14:	1884703a 	and	r2,r3,r2
  804f18:	1007883a 	mov	r3,r2
  804f1c:	e0bffc17 	ldw	r2,-16(fp)
  804f20:	2085883a 	add	r2,r4,r2
  804f24:	10800204 	addi	r2,r2,8
  804f28:	10c000c5 	stb	r3,3(r2)
  804f2c:	e0fffb83 	ldbu	r3,-18(fp)
  804f30:	e0bffc17 	ldw	r2,-16(fp)
  804f34:	1885883a 	add	r2,r3,r2
  804f38:	10800204 	addi	r2,r2,8
  804f3c:	108000c3 	ldbu	r2,3(r2)
  804f40:	10803fcc 	andi	r2,r2,255
  804f44:	1004c03a 	cmpne	r2,r2,zero
  804f48:	1000091e 	bne	r2,zero,804f70 <OS_EventTaskRemoveMulti+0xd0>
  804f4c:	e0bffc17 	ldw	r2,-16(fp)
  804f50:	10800283 	ldbu	r2,10(r2)
  804f54:	1007883a 	mov	r3,r2
  804f58:	e0bffb43 	ldbu	r2,-19(fp)
  804f5c:	0084303a 	nor	r2,zero,r2
  804f60:	1884703a 	and	r2,r3,r2
  804f64:	1007883a 	mov	r3,r2
  804f68:	e0bffc17 	ldw	r2,-16(fp)
  804f6c:	10c00285 	stb	r3,10(r2)
  804f70:	e0bffd17 	ldw	r2,-12(fp)
  804f74:	10800104 	addi	r2,r2,4
  804f78:	e0bffd15 	stw	r2,-12(fp)
  804f7c:	e0bffd17 	ldw	r2,-12(fp)
  804f80:	10800017 	ldw	r2,0(r2)
  804f84:	e0bffc15 	stw	r2,-16(fp)
  804f88:	e0bffc17 	ldw	r2,-16(fp)
  804f8c:	1004c03a 	cmpne	r2,r2,zero
  804f90:	103fd71e 	bne	r2,zero,804ef0 <OS_EventTaskRemoveMulti+0x50>
  804f94:	e037883a 	mov	sp,fp
  804f98:	df000017 	ldw	fp,0(sp)
  804f9c:	dec00104 	addi	sp,sp,4
  804fa0:	f800283a 	ret

00804fa4 <OS_EventWaitListInit>:
  804fa4:	defffc04 	addi	sp,sp,-16
  804fa8:	df000315 	stw	fp,12(sp)
  804fac:	df000304 	addi	fp,sp,12
  804fb0:	e13fff15 	stw	r4,-4(fp)
  804fb4:	e0bfff17 	ldw	r2,-4(fp)
  804fb8:	10000285 	stb	zero,10(r2)
  804fbc:	e0bfff17 	ldw	r2,-4(fp)
  804fc0:	108002c4 	addi	r2,r2,11
  804fc4:	e0bffe15 	stw	r2,-8(fp)
  804fc8:	e03ffd05 	stb	zero,-12(fp)
  804fcc:	00000806 	br	804ff0 <OS_EventWaitListInit+0x4c>
  804fd0:	e0bffe17 	ldw	r2,-8(fp)
  804fd4:	10000005 	stb	zero,0(r2)
  804fd8:	e0bffe17 	ldw	r2,-8(fp)
  804fdc:	10800044 	addi	r2,r2,1
  804fe0:	e0bffe15 	stw	r2,-8(fp)
  804fe4:	e0bffd03 	ldbu	r2,-12(fp)
  804fe8:	10800044 	addi	r2,r2,1
  804fec:	e0bffd05 	stb	r2,-12(fp)
  804ff0:	e0bffd03 	ldbu	r2,-12(fp)
  804ff4:	108000f0 	cmpltui	r2,r2,3
  804ff8:	103ff51e 	bne	r2,zero,804fd0 <OS_EventWaitListInit+0x2c>
  804ffc:	e037883a 	mov	sp,fp
  805000:	df000017 	ldw	fp,0(sp)
  805004:	dec00104 	addi	sp,sp,4
  805008:	f800283a 	ret

0080500c <OS_InitEventList>:
  80500c:	defffb04 	addi	sp,sp,-20
  805010:	dfc00415 	stw	ra,16(sp)
  805014:	df000315 	stw	fp,12(sp)
  805018:	df000304 	addi	fp,sp,12
  80501c:	010020b4 	movhi	r4,130
  805020:	21220004 	addi	r4,r4,-30720
  805024:	0142d004 	movi	r5,2880
  805028:	08053700 	call	805370 <OS_MemClr>
  80502c:	008020b4 	movhi	r2,130
  805030:	10a20004 	addi	r2,r2,-30720
  805034:	e0bffe15 	stw	r2,-8(fp)
  805038:	008020b4 	movhi	r2,130
  80503c:	10a20c04 	addi	r2,r2,-30672
  805040:	e0bffd15 	stw	r2,-12(fp)
  805044:	e03fff0d 	sth	zero,-4(fp)
  805048:	00001306 	br	805098 <OS_InitEventList+0x8c>
  80504c:	e0bffe17 	ldw	r2,-8(fp)
  805050:	10000005 	stb	zero,0(r2)
  805054:	e0fffe17 	ldw	r3,-8(fp)
  805058:	e0bffd17 	ldw	r2,-12(fp)
  80505c:	18800115 	stw	r2,4(r3)
  805060:	e0fffe17 	ldw	r3,-8(fp)
  805064:	00800fc4 	movi	r2,63
  805068:	18800385 	stb	r2,14(r3)
  80506c:	e0bffe17 	ldw	r2,-8(fp)
  805070:	100003c5 	stb	zero,15(r2)
  805074:	e0bffe17 	ldw	r2,-8(fp)
  805078:	10800c04 	addi	r2,r2,48
  80507c:	e0bffe15 	stw	r2,-8(fp)
  805080:	e0bffd17 	ldw	r2,-12(fp)
  805084:	10800c04 	addi	r2,r2,48
  805088:	e0bffd15 	stw	r2,-12(fp)
  80508c:	e0bfff0b 	ldhu	r2,-4(fp)
  805090:	10800044 	addi	r2,r2,1
  805094:	e0bfff0d 	sth	r2,-4(fp)
  805098:	e0bfff0b 	ldhu	r2,-4(fp)
  80509c:	10800ef0 	cmpltui	r2,r2,59
  8050a0:	103fea1e 	bne	r2,zero,80504c <OS_InitEventList+0x40>
  8050a4:	e0bffe17 	ldw	r2,-8(fp)
  8050a8:	10000005 	stb	zero,0(r2)
  8050ac:	e0bffe17 	ldw	r2,-8(fp)
  8050b0:	10000115 	stw	zero,4(r2)
  8050b4:	e0fffe17 	ldw	r3,-8(fp)
  8050b8:	00800fc4 	movi	r2,63
  8050bc:	18800385 	stb	r2,14(r3)
  8050c0:	e0bffe17 	ldw	r2,-8(fp)
  8050c4:	100003c5 	stb	zero,15(r2)
  8050c8:	008020b4 	movhi	r2,130
  8050cc:	10a20004 	addi	r2,r2,-30720
  8050d0:	d0a72515 	stw	r2,-25452(gp)
  8050d4:	e037883a 	mov	sp,fp
  8050d8:	dfc00117 	ldw	ra,4(sp)
  8050dc:	df000017 	ldw	fp,0(sp)
  8050e0:	dec00204 	addi	sp,sp,8
  8050e4:	f800283a 	ret

008050e8 <OS_InitMisc>:
  8050e8:	deffff04 	addi	sp,sp,-4
  8050ec:	df000015 	stw	fp,0(sp)
  8050f0:	d839883a 	mov	fp,sp
  8050f4:	d0272815 	stw	zero,-25440(gp)
  8050f8:	d0272605 	stb	zero,-25448(gp)
  8050fc:	d0271805 	stb	zero,-25504(gp)
  805100:	d0272045 	stb	zero,-25471(gp)
  805104:	d0271845 	stb	zero,-25503(gp)
  805108:	d0271d15 	stw	zero,-25484(gp)
  80510c:	d0271915 	stw	zero,-25500(gp)
  805110:	d0272b15 	stw	zero,-25428(gp)
  805114:	d0271e15 	stw	zero,-25480(gp)
  805118:	d0272a05 	stb	zero,-25432(gp)
  80511c:	e037883a 	mov	sp,fp
  805120:	df000017 	ldw	fp,0(sp)
  805124:	dec00104 	addi	sp,sp,4
  805128:	f800283a 	ret

0080512c <OS_InitRdyList>:
  80512c:	defffd04 	addi	sp,sp,-12
  805130:	df000215 	stw	fp,8(sp)
  805134:	df000204 	addi	fp,sp,8
  805138:	d0272405 	stb	zero,-25456(gp)
  80513c:	d0a72444 	addi	r2,gp,-25455
  805140:	e0bffe15 	stw	r2,-8(fp)
  805144:	e03fff05 	stb	zero,-4(fp)
  805148:	00000806 	br	80516c <OS_InitRdyList+0x40>
  80514c:	e0bffe17 	ldw	r2,-8(fp)
  805150:	10000005 	stb	zero,0(r2)
  805154:	e0bffe17 	ldw	r2,-8(fp)
  805158:	10800044 	addi	r2,r2,1
  80515c:	e0bffe15 	stw	r2,-8(fp)
  805160:	e0bfff03 	ldbu	r2,-4(fp)
  805164:	10800044 	addi	r2,r2,1
  805168:	e0bfff05 	stb	r2,-4(fp)
  80516c:	e0bfff03 	ldbu	r2,-4(fp)
  805170:	108000f0 	cmpltui	r2,r2,3
  805174:	103ff51e 	bne	r2,zero,80514c <OS_InitRdyList+0x20>
  805178:	d0271a45 	stb	zero,-25495(gp)
  80517c:	d0271a05 	stb	zero,-25496(gp)
  805180:	d0272215 	stw	zero,-25464(gp)
  805184:	d0272715 	stw	zero,-25444(gp)
  805188:	e037883a 	mov	sp,fp
  80518c:	df000017 	ldw	fp,0(sp)
  805190:	dec00104 	addi	sp,sp,4
  805194:	f800283a 	ret

00805198 <OS_InitTaskIdle>:
  805198:	defff804 	addi	sp,sp,-32
  80519c:	dfc00715 	stw	ra,28(sp)
  8051a0:	df000615 	stw	fp,24(sp)
  8051a4:	df000604 	addi	fp,sp,24
  8051a8:	018020b4 	movhi	r6,130
  8051ac:	31a1ff04 	addi	r6,r6,-30724
  8051b0:	00bfffd4 	movui	r2,65535
  8051b4:	d8800015 	stw	r2,0(sp)
  8051b8:	008020b4 	movhi	r2,130
  8051bc:	10a00004 	addi	r2,r2,-32768
  8051c0:	d8800115 	stw	r2,4(sp)
  8051c4:	00808004 	movi	r2,512
  8051c8:	d8800215 	stw	r2,8(sp)
  8051cc:	d8000315 	stw	zero,12(sp)
  8051d0:	008000c4 	movi	r2,3
  8051d4:	d8800415 	stw	r2,16(sp)
  8051d8:	01002034 	movhi	r4,128
  8051dc:	21159304 	addi	r4,r4,22092
  8051e0:	000b883a 	mov	r5,zero
  8051e4:	01c00504 	movi	r7,20
  8051e8:	080a42c0 	call	80a42c <OSTaskCreateExt>
  8051ec:	01402074 	movhi	r5,129
  8051f0:	297b8e04 	addi	r5,r5,-4552
  8051f4:	01000504 	movi	r4,20
  8051f8:	e1bfff04 	addi	r6,fp,-4
  8051fc:	080ad600 	call	80ad60 <OSTaskNameSet>
  805200:	e037883a 	mov	sp,fp
  805204:	dfc00117 	ldw	ra,4(sp)
  805208:	df000017 	ldw	fp,0(sp)
  80520c:	dec00204 	addi	sp,sp,8
  805210:	f800283a 	ret

00805214 <OS_InitTaskStat>:
  805214:	defff804 	addi	sp,sp,-32
  805218:	dfc00715 	stw	ra,28(sp)
  80521c:	df000615 	stw	fp,24(sp)
  805220:	df000604 	addi	fp,sp,24
  805224:	01802074 	movhi	r6,129
  805228:	319f8704 	addi	r6,r6,32284
  80522c:	00bfff94 	movui	r2,65534
  805230:	d8800015 	stw	r2,0(sp)
  805234:	00802074 	movhi	r2,129
  805238:	109d8804 	addi	r2,r2,30240
  80523c:	d8800115 	stw	r2,4(sp)
  805240:	00808004 	movi	r2,512
  805244:	d8800215 	stw	r2,8(sp)
  805248:	d8000315 	stw	zero,12(sp)
  80524c:	008000c4 	movi	r2,3
  805250:	d8800415 	stw	r2,16(sp)
  805254:	01002034 	movhi	r4,128
  805258:	2115aa04 	addi	r4,r4,22184
  80525c:	000b883a 	mov	r5,zero
  805260:	01c004c4 	movi	r7,19
  805264:	080a42c0 	call	80a42c <OSTaskCreateExt>
  805268:	01402074 	movhi	r5,129
  80526c:	297b9204 	addi	r5,r5,-4536
  805270:	010004c4 	movi	r4,19
  805274:	e1bfff04 	addi	r6,fp,-4
  805278:	080ad600 	call	80ad60 <OSTaskNameSet>
  80527c:	e037883a 	mov	sp,fp
  805280:	dfc00117 	ldw	ra,4(sp)
  805284:	df000017 	ldw	fp,0(sp)
  805288:	dec00204 	addi	sp,sp,8
  80528c:	f800283a 	ret

00805290 <OS_InitTCBList>:
  805290:	defffb04 	addi	sp,sp,-20
  805294:	dfc00415 	stw	ra,16(sp)
  805298:	df000315 	stw	fp,12(sp)
  80529c:	df000304 	addi	fp,sp,12
  8052a0:	010020b4 	movhi	r4,130
  8052a4:	2124d004 	addi	r4,r4,-27840
  8052a8:	01414404 	movi	r5,1296
  8052ac:	08053700 	call	805370 <OS_MemClr>
  8052b0:	010020b4 	movhi	r4,130
  8052b4:	21261404 	addi	r4,r4,-26544
  8052b8:	01401504 	movi	r5,84
  8052bc:	08053700 	call	805370 <OS_MemClr>
  8052c0:	008020b4 	movhi	r2,130
  8052c4:	10a4d004 	addi	r2,r2,-27840
  8052c8:	e0bffe15 	stw	r2,-8(fp)
  8052cc:	008020b4 	movhi	r2,130
  8052d0:	10a4eb04 	addi	r2,r2,-27732
  8052d4:	e0bffd15 	stw	r2,-12(fp)
  8052d8:	e03fff05 	stb	zero,-4(fp)
  8052dc:	00001106 	br	805324 <OS_InitTCBList+0x94>
  8052e0:	e0fffe17 	ldw	r3,-8(fp)
  8052e4:	e0bffd17 	ldw	r2,-12(fp)
  8052e8:	18800515 	stw	r2,20(r3)
  8052ec:	e0fffe17 	ldw	r3,-8(fp)
  8052f0:	00800fc4 	movi	r2,63
  8052f4:	18801305 	stb	r2,76(r3)
  8052f8:	e0bffe17 	ldw	r2,-8(fp)
  8052fc:	10001345 	stb	zero,77(r2)
  805300:	e0bffe17 	ldw	r2,-8(fp)
  805304:	10801b04 	addi	r2,r2,108
  805308:	e0bffe15 	stw	r2,-8(fp)
  80530c:	e0bffd17 	ldw	r2,-12(fp)
  805310:	10801b04 	addi	r2,r2,108
  805314:	e0bffd15 	stw	r2,-12(fp)
  805318:	e0bfff03 	ldbu	r2,-4(fp)
  80531c:	10800044 	addi	r2,r2,1
  805320:	e0bfff05 	stb	r2,-4(fp)
  805324:	e0bfff03 	ldbu	r2,-4(fp)
  805328:	108002f0 	cmpltui	r2,r2,11
  80532c:	103fec1e 	bne	r2,zero,8052e0 <OS_InitTCBList+0x50>
  805330:	e0bffe17 	ldw	r2,-8(fp)
  805334:	10000515 	stw	zero,20(r2)
  805338:	e0fffe17 	ldw	r3,-8(fp)
  80533c:	00800fc4 	movi	r2,63
  805340:	18801305 	stb	r2,76(r3)
  805344:	e0bffe17 	ldw	r2,-8(fp)
  805348:	10001345 	stb	zero,77(r2)
  80534c:	d0271b15 	stw	zero,-25492(gp)
  805350:	008020b4 	movhi	r2,130
  805354:	10a4d004 	addi	r2,r2,-27840
  805358:	d0a71f15 	stw	r2,-25476(gp)
  80535c:	e037883a 	mov	sp,fp
  805360:	dfc00117 	ldw	ra,4(sp)
  805364:	df000017 	ldw	fp,0(sp)
  805368:	dec00204 	addi	sp,sp,8
  80536c:	f800283a 	ret

00805370 <OS_MemClr>:
  805370:	defffd04 	addi	sp,sp,-12
  805374:	df000215 	stw	fp,8(sp)
  805378:	df000204 	addi	fp,sp,8
  80537c:	e13ffe15 	stw	r4,-8(fp)
  805380:	e17fff0d 	sth	r5,-4(fp)
  805384:	00000806 	br	8053a8 <OS_MemClr+0x38>
  805388:	e0bffe17 	ldw	r2,-8(fp)
  80538c:	10000005 	stb	zero,0(r2)
  805390:	e0bffe17 	ldw	r2,-8(fp)
  805394:	10800044 	addi	r2,r2,1
  805398:	e0bffe15 	stw	r2,-8(fp)
  80539c:	e0bfff0b 	ldhu	r2,-4(fp)
  8053a0:	10bfffc4 	addi	r2,r2,-1
  8053a4:	e0bfff0d 	sth	r2,-4(fp)
  8053a8:	e0bfff0b 	ldhu	r2,-4(fp)
  8053ac:	1004c03a 	cmpne	r2,r2,zero
  8053b0:	103ff51e 	bne	r2,zero,805388 <OS_MemClr+0x18>
  8053b4:	e037883a 	mov	sp,fp
  8053b8:	df000017 	ldw	fp,0(sp)
  8053bc:	dec00104 	addi	sp,sp,4
  8053c0:	f800283a 	ret

008053c4 <OS_MemCopy>:
  8053c4:	defffc04 	addi	sp,sp,-16
  8053c8:	df000315 	stw	fp,12(sp)
  8053cc:	df000304 	addi	fp,sp,12
  8053d0:	e13ffd15 	stw	r4,-12(fp)
  8053d4:	e17ffe15 	stw	r5,-8(fp)
  8053d8:	e1bfff0d 	sth	r6,-4(fp)
  8053dc:	00000d06 	br	805414 <OS_MemCopy+0x50>
  8053e0:	e0bffe17 	ldw	r2,-8(fp)
  8053e4:	10c00003 	ldbu	r3,0(r2)
  8053e8:	e0bffd17 	ldw	r2,-12(fp)
  8053ec:	10c00005 	stb	r3,0(r2)
  8053f0:	e0bffd17 	ldw	r2,-12(fp)
  8053f4:	10800044 	addi	r2,r2,1
  8053f8:	e0bffd15 	stw	r2,-12(fp)
  8053fc:	e0bffe17 	ldw	r2,-8(fp)
  805400:	10800044 	addi	r2,r2,1
  805404:	e0bffe15 	stw	r2,-8(fp)
  805408:	e0bfff0b 	ldhu	r2,-4(fp)
  80540c:	10bfffc4 	addi	r2,r2,-1
  805410:	e0bfff0d 	sth	r2,-4(fp)
  805414:	e0bfff0b 	ldhu	r2,-4(fp)
  805418:	1004c03a 	cmpne	r2,r2,zero
  80541c:	103ff01e 	bne	r2,zero,8053e0 <OS_MemCopy+0x1c>
  805420:	e037883a 	mov	sp,fp
  805424:	df000017 	ldw	fp,0(sp)
  805428:	dec00104 	addi	sp,sp,4
  80542c:	f800283a 	ret

00805430 <OS_Sched>:
  805430:	defffb04 	addi	sp,sp,-20
  805434:	dfc00415 	stw	ra,16(sp)
  805438:	df000315 	stw	fp,12(sp)
  80543c:	df000304 	addi	fp,sp,12
  805440:	e03fff15 	stw	zero,-4(fp)
  805444:	0005303a 	rdctl	r2,status
  805448:	e0bffe15 	stw	r2,-8(fp)
  80544c:	e0fffe17 	ldw	r3,-8(fp)
  805450:	00bfff84 	movi	r2,-2
  805454:	1884703a 	and	r2,r3,r2
  805458:	1001703a 	wrctl	status,r2
  80545c:	e0bffe17 	ldw	r2,-8(fp)
  805460:	e0bfff15 	stw	r2,-4(fp)
  805464:	d0a72603 	ldbu	r2,-25448(gp)
  805468:	10803fcc 	andi	r2,r2,255
  80546c:	1004c03a 	cmpne	r2,r2,zero
  805470:	10001b1e 	bne	r2,zero,8054e0 <OS_Sched+0xb0>
  805474:	d0a71803 	ldbu	r2,-25504(gp)
  805478:	10803fcc 	andi	r2,r2,255
  80547c:	1004c03a 	cmpne	r2,r2,zero
  805480:	1000171e 	bne	r2,zero,8054e0 <OS_Sched+0xb0>
  805484:	08055040 	call	805504 <OS_SchedNew>
  805488:	d0a71a03 	ldbu	r2,-25496(gp)
  80548c:	d0e71a43 	ldbu	r3,-25495(gp)
  805490:	11003fcc 	andi	r4,r2,255
  805494:	18803fcc 	andi	r2,r3,255
  805498:	20801126 	beq	r4,r2,8054e0 <OS_Sched+0xb0>
  80549c:	d0a71a03 	ldbu	r2,-25496(gp)
  8054a0:	10803fcc 	andi	r2,r2,255
  8054a4:	00c020b4 	movhi	r3,130
  8054a8:	18e61404 	addi	r3,r3,-26544
  8054ac:	1085883a 	add	r2,r2,r2
  8054b0:	1085883a 	add	r2,r2,r2
  8054b4:	10c5883a 	add	r2,r2,r3
  8054b8:	10800017 	ldw	r2,0(r2)
  8054bc:	d0a72215 	stw	r2,-25464(gp)
  8054c0:	d0e72217 	ldw	r3,-25464(gp)
  8054c4:	18800e17 	ldw	r2,56(r3)
  8054c8:	10800044 	addi	r2,r2,1
  8054cc:	18800e15 	stw	r2,56(r3)
  8054d0:	d0a71d17 	ldw	r2,-25484(gp)
  8054d4:	10800044 	addi	r2,r2,1
  8054d8:	d0a71d15 	stw	r2,-25484(gp)
  8054dc:	080dff80 	call	80dff8 <OSCtxSw>
  8054e0:	e0bfff17 	ldw	r2,-4(fp)
  8054e4:	e0bffd15 	stw	r2,-12(fp)
  8054e8:	e0bffd17 	ldw	r2,-12(fp)
  8054ec:	1001703a 	wrctl	status,r2
  8054f0:	e037883a 	mov	sp,fp
  8054f4:	dfc00117 	ldw	ra,4(sp)
  8054f8:	df000017 	ldw	fp,0(sp)
  8054fc:	dec00204 	addi	sp,sp,8
  805500:	f800283a 	ret

00805504 <OS_SchedNew>:
  805504:	defffe04 	addi	sp,sp,-8
  805508:	df000115 	stw	fp,4(sp)
  80550c:	df000104 	addi	fp,sp,4
  805510:	d0a72403 	ldbu	r2,-25456(gp)
  805514:	10c03fcc 	andi	r3,r2,255
  805518:	00802074 	movhi	r2,129
  80551c:	10bb4e04 	addi	r2,r2,-4808
  805520:	10c5883a 	add	r2,r2,r3
  805524:	10800003 	ldbu	r2,0(r2)
  805528:	e0bfff05 	stb	r2,-4(fp)
  80552c:	e0bfff03 	ldbu	r2,-4(fp)
  805530:	100490fa 	slli	r2,r2,3
  805534:	1009883a 	mov	r4,r2
  805538:	e0ffff03 	ldbu	r3,-4(fp)
  80553c:	d0a72444 	addi	r2,gp,-25455
  805540:	1885883a 	add	r2,r3,r2
  805544:	10800003 	ldbu	r2,0(r2)
  805548:	10c03fcc 	andi	r3,r2,255
  80554c:	00802074 	movhi	r2,129
  805550:	10bb4e04 	addi	r2,r2,-4808
  805554:	10c5883a 	add	r2,r2,r3
  805558:	10800003 	ldbu	r2,0(r2)
  80555c:	2085883a 	add	r2,r4,r2
  805560:	d0a71a05 	stb	r2,-25496(gp)
  805564:	e037883a 	mov	sp,fp
  805568:	df000017 	ldw	fp,0(sp)
  80556c:	dec00104 	addi	sp,sp,4
  805570:	f800283a 	ret

00805574 <OS_StrCopy>:
  805574:	defffc04 	addi	sp,sp,-16
  805578:	df000315 	stw	fp,12(sp)
  80557c:	df000304 	addi	fp,sp,12
  805580:	e13ffe15 	stw	r4,-8(fp)
  805584:	e17fff15 	stw	r5,-4(fp)
  805588:	e03ffd05 	stb	zero,-12(fp)
  80558c:	00000d06 	br	8055c4 <OS_StrCopy+0x50>
  805590:	e0bfff17 	ldw	r2,-4(fp)
  805594:	10c00003 	ldbu	r3,0(r2)
  805598:	e0bffe17 	ldw	r2,-8(fp)
  80559c:	10c00005 	stb	r3,0(r2)
  8055a0:	e0bffe17 	ldw	r2,-8(fp)
  8055a4:	10800044 	addi	r2,r2,1
  8055a8:	e0bffe15 	stw	r2,-8(fp)
  8055ac:	e0bfff17 	ldw	r2,-4(fp)
  8055b0:	10800044 	addi	r2,r2,1
  8055b4:	e0bfff15 	stw	r2,-4(fp)
  8055b8:	e0bffd03 	ldbu	r2,-12(fp)
  8055bc:	10800044 	addi	r2,r2,1
  8055c0:	e0bffd05 	stb	r2,-12(fp)
  8055c4:	e0bfff17 	ldw	r2,-4(fp)
  8055c8:	10800003 	ldbu	r2,0(r2)
  8055cc:	10803fcc 	andi	r2,r2,255
  8055d0:	1004c03a 	cmpne	r2,r2,zero
  8055d4:	103fee1e 	bne	r2,zero,805590 <OS_StrCopy+0x1c>
  8055d8:	e0bffe17 	ldw	r2,-8(fp)
  8055dc:	10000005 	stb	zero,0(r2)
  8055e0:	e0bffd03 	ldbu	r2,-12(fp)
  8055e4:	e037883a 	mov	sp,fp
  8055e8:	df000017 	ldw	fp,0(sp)
  8055ec:	dec00104 	addi	sp,sp,4
  8055f0:	f800283a 	ret

008055f4 <OS_StrLen>:
  8055f4:	defffd04 	addi	sp,sp,-12
  8055f8:	df000215 	stw	fp,8(sp)
  8055fc:	df000204 	addi	fp,sp,8
  805600:	e13fff15 	stw	r4,-4(fp)
  805604:	e03ffe05 	stb	zero,-8(fp)
  805608:	00000606 	br	805624 <OS_StrLen+0x30>
  80560c:	e0bfff17 	ldw	r2,-4(fp)
  805610:	10800044 	addi	r2,r2,1
  805614:	e0bfff15 	stw	r2,-4(fp)
  805618:	e0bffe03 	ldbu	r2,-8(fp)
  80561c:	10800044 	addi	r2,r2,1
  805620:	e0bffe05 	stb	r2,-8(fp)
  805624:	e0bfff17 	ldw	r2,-4(fp)
  805628:	10800003 	ldbu	r2,0(r2)
  80562c:	10803fcc 	andi	r2,r2,255
  805630:	1004c03a 	cmpne	r2,r2,zero
  805634:	103ff51e 	bne	r2,zero,80560c <OS_StrLen+0x18>
  805638:	e0bffe03 	ldbu	r2,-8(fp)
  80563c:	e037883a 	mov	sp,fp
  805640:	df000017 	ldw	fp,0(sp)
  805644:	dec00104 	addi	sp,sp,4
  805648:	f800283a 	ret

0080564c <OS_TaskIdle>:
  80564c:	defffa04 	addi	sp,sp,-24
  805650:	dfc00515 	stw	ra,20(sp)
  805654:	df000415 	stw	fp,16(sp)
  805658:	df000404 	addi	fp,sp,16
  80565c:	e13fff15 	stw	r4,-4(fp)
  805660:	e03ffe15 	stw	zero,-8(fp)
  805664:	0005303a 	rdctl	r2,status
  805668:	e0bffd15 	stw	r2,-12(fp)
  80566c:	e0fffd17 	ldw	r3,-12(fp)
  805670:	00bfff84 	movi	r2,-2
  805674:	1884703a 	and	r2,r3,r2
  805678:	1001703a 	wrctl	status,r2
  80567c:	e0bffd17 	ldw	r2,-12(fp)
  805680:	e0bffe15 	stw	r2,-8(fp)
  805684:	d0a71917 	ldw	r2,-25500(gp)
  805688:	10800044 	addi	r2,r2,1
  80568c:	d0a71915 	stw	r2,-25500(gp)
  805690:	e0bffe17 	ldw	r2,-8(fp)
  805694:	e0bffc15 	stw	r2,-16(fp)
  805698:	e0bffc17 	ldw	r2,-16(fp)
  80569c:	1001703a 	wrctl	status,r2
  8056a0:	080e4a40 	call	80e4a4 <OSTaskIdleHook>
  8056a4:	003fef06 	br	805664 <OS_TaskIdle+0x18>

008056a8 <OS_TaskStat>:
  8056a8:	defffa04 	addi	sp,sp,-24
  8056ac:	dfc00515 	stw	ra,20(sp)
  8056b0:	df000415 	stw	fp,16(sp)
  8056b4:	df000404 	addi	fp,sp,16
  8056b8:	e13fff15 	stw	r4,-4(fp)
  8056bc:	e03ffe15 	stw	zero,-8(fp)
  8056c0:	00000206 	br	8056cc <OS_TaskStat+0x24>
  8056c4:	01003204 	movi	r4,200
  8056c8:	080b7240 	call	80b724 <OSTimeDly>
  8056cc:	d0a72a03 	ldbu	r2,-25432(gp)
  8056d0:	10803fcc 	andi	r2,r2,255
  8056d4:	1005003a 	cmpeq	r2,r2,zero
  8056d8:	103ffa1e 	bne	r2,zero,8056c4 <OS_TaskStat+0x1c>
  8056dc:	d1271e17 	ldw	r4,-25480(gp)
  8056e0:	01401904 	movi	r5,100
  8056e4:	080ec680 	call	80ec68 <__udivsi3>
  8056e8:	d0a71e15 	stw	r2,-25480(gp)
  8056ec:	d0a71e17 	ldw	r2,-25480(gp)
  8056f0:	1004c03a 	cmpne	r2,r2,zero
  8056f4:	1000031e 	bne	r2,zero,805704 <OS_TaskStat+0x5c>
  8056f8:	d0272005 	stb	zero,-25472(gp)
  8056fc:	01003fc4 	movi	r4,255
  805700:	080b3380 	call	80b338 <OSTaskSuspend>
  805704:	0005303a 	rdctl	r2,status
  805708:	e0bffd15 	stw	r2,-12(fp)
  80570c:	e0fffd17 	ldw	r3,-12(fp)
  805710:	00bfff84 	movi	r2,-2
  805714:	1884703a 	and	r2,r3,r2
  805718:	1001703a 	wrctl	status,r2
  80571c:	e0bffd17 	ldw	r2,-12(fp)
  805720:	e0bffe15 	stw	r2,-8(fp)
  805724:	d0a71917 	ldw	r2,-25500(gp)
  805728:	d0a72b15 	stw	r2,-25428(gp)
  80572c:	d0271915 	stw	zero,-25500(gp)
  805730:	e0bffe17 	ldw	r2,-8(fp)
  805734:	e0bffc15 	stw	r2,-16(fp)
  805738:	e0bffc17 	ldw	r2,-16(fp)
  80573c:	1001703a 	wrctl	status,r2
  805740:	d1272b17 	ldw	r4,-25428(gp)
  805744:	d1671e17 	ldw	r5,-25480(gp)
  805748:	080ec680 	call	80ec68 <__udivsi3>
  80574c:	1007883a 	mov	r3,r2
  805750:	00801904 	movi	r2,100
  805754:	10c5c83a 	sub	r2,r2,r3
  805758:	d0a72005 	stb	r2,-25472(gp)
  80575c:	080e4340 	call	80e434 <OSTaskStatHook>
  805760:	08057700 	call	805770 <OS_TaskStatStkChk>
  805764:	01001904 	movi	r4,100
  805768:	080b7240 	call	80b724 <OSTimeDly>
  80576c:	003fe506 	br	805704 <OS_TaskStat+0x5c>

00805770 <OS_TaskStatStkChk>:
  805770:	defffa04 	addi	sp,sp,-24
  805774:	dfc00515 	stw	ra,20(sp)
  805778:	df000415 	stw	fp,16(sp)
  80577c:	df000404 	addi	fp,sp,16
  805780:	e03ffc05 	stb	zero,-16(fp)
  805784:	00002406 	br	805818 <OS_TaskStatStkChk+0xa8>
  805788:	e13ffc03 	ldbu	r4,-16(fp)
  80578c:	e17ffe04 	addi	r5,fp,-8
  805790:	080b13c0 	call	80b13c <OSTaskStkChk>
  805794:	e0bffc45 	stb	r2,-15(fp)
  805798:	e0bffc43 	ldbu	r2,-15(fp)
  80579c:	1004c03a 	cmpne	r2,r2,zero
  8057a0:	10001a1e 	bne	r2,zero,80580c <OS_TaskStatStkChk+0x9c>
  8057a4:	e0bffc03 	ldbu	r2,-16(fp)
  8057a8:	00c020b4 	movhi	r3,130
  8057ac:	18e61404 	addi	r3,r3,-26544
  8057b0:	1085883a 	add	r2,r2,r2
  8057b4:	1085883a 	add	r2,r2,r2
  8057b8:	10c5883a 	add	r2,r2,r3
  8057bc:	10800017 	ldw	r2,0(r2)
  8057c0:	e0bffd15 	stw	r2,-12(fp)
  8057c4:	e0bffd17 	ldw	r2,-12(fp)
  8057c8:	1005003a 	cmpeq	r2,r2,zero
  8057cc:	10000f1e 	bne	r2,zero,80580c <OS_TaskStatStkChk+0x9c>
  8057d0:	e0bffd17 	ldw	r2,-12(fp)
  8057d4:	10800060 	cmpeqi	r2,r2,1
  8057d8:	10000c1e 	bne	r2,zero,80580c <OS_TaskStatStkChk+0x9c>
  8057dc:	e0bffd17 	ldw	r2,-12(fp)
  8057e0:	10c00217 	ldw	r3,8(r2)
  8057e4:	e0bffd17 	ldw	r2,-12(fp)
  8057e8:	10800317 	ldw	r2,12(r2)
  8057ec:	1085883a 	add	r2,r2,r2
  8057f0:	1085883a 	add	r2,r2,r2
  8057f4:	1887883a 	add	r3,r3,r2
  8057f8:	e0bffd17 	ldw	r2,-12(fp)
  8057fc:	10c01115 	stw	r3,68(r2)
  805800:	e0ffff17 	ldw	r3,-4(fp)
  805804:	e0bffd17 	ldw	r2,-12(fp)
  805808:	10c01215 	stw	r3,72(r2)
  80580c:	e0bffc03 	ldbu	r2,-16(fp)
  805810:	10800044 	addi	r2,r2,1
  805814:	e0bffc05 	stb	r2,-16(fp)
  805818:	e0bffc03 	ldbu	r2,-16(fp)
  80581c:	10800570 	cmpltui	r2,r2,21
  805820:	103fd91e 	bne	r2,zero,805788 <OS_TaskStatStkChk+0x18>
  805824:	e037883a 	mov	sp,fp
  805828:	dfc00117 	ldw	ra,4(sp)
  80582c:	df000017 	ldw	fp,0(sp)
  805830:	dec00204 	addi	sp,sp,8
  805834:	f800283a 	ret

00805838 <OS_TCBInit>:
  805838:	defff104 	addi	sp,sp,-60
  80583c:	dfc00e15 	stw	ra,56(sp)
  805840:	df000d15 	stw	fp,52(sp)
  805844:	df000d04 	addi	fp,sp,52
  805848:	e17ffb15 	stw	r5,-20(fp)
  80584c:	e1bffc15 	stw	r6,-16(fp)
  805850:	e0800417 	ldw	r2,16(fp)
  805854:	e13ffa05 	stb	r4,-24(fp)
  805858:	e1fffd0d 	sth	r7,-12(fp)
  80585c:	e0bffe0d 	sth	r2,-8(fp)
  805860:	e03ff815 	stw	zero,-32(fp)
  805864:	0005303a 	rdctl	r2,status
  805868:	e0bff715 	stw	r2,-36(fp)
  80586c:	e0fff717 	ldw	r3,-36(fp)
  805870:	00bfff84 	movi	r2,-2
  805874:	1884703a 	and	r2,r3,r2
  805878:	1001703a 	wrctl	status,r2
  80587c:	e0bff717 	ldw	r2,-36(fp)
  805880:	e0bff815 	stw	r2,-32(fp)
  805884:	d0a71f17 	ldw	r2,-25476(gp)
  805888:	e0bff915 	stw	r2,-28(fp)
  80588c:	e0bff917 	ldw	r2,-28(fp)
  805890:	1005003a 	cmpeq	r2,r2,zero
  805894:	1000941e 	bne	r2,zero,805ae8 <OS_TCBInit+0x2b0>
  805898:	e0bff917 	ldw	r2,-28(fp)
  80589c:	10800517 	ldw	r2,20(r2)
  8058a0:	d0a71f15 	stw	r2,-25476(gp)
  8058a4:	e0bff817 	ldw	r2,-32(fp)
  8058a8:	e0bff615 	stw	r2,-40(fp)
  8058ac:	e0bff617 	ldw	r2,-40(fp)
  8058b0:	1001703a 	wrctl	status,r2
  8058b4:	e0fff917 	ldw	r3,-28(fp)
  8058b8:	e0bffb17 	ldw	r2,-20(fp)
  8058bc:	18800015 	stw	r2,0(r3)
  8058c0:	e0fff917 	ldw	r3,-28(fp)
  8058c4:	e0bffa03 	ldbu	r2,-24(fp)
  8058c8:	18800c85 	stb	r2,50(r3)
  8058cc:	e0bff917 	ldw	r2,-28(fp)
  8058d0:	10000c05 	stb	zero,48(r2)
  8058d4:	e0bff917 	ldw	r2,-28(fp)
  8058d8:	10000c45 	stb	zero,49(r2)
  8058dc:	e0bff917 	ldw	r2,-28(fp)
  8058e0:	10000b8d 	sth	zero,46(r2)
  8058e4:	e0fff917 	ldw	r3,-28(fp)
  8058e8:	e0800317 	ldw	r2,12(fp)
  8058ec:	18800115 	stw	r2,4(r3)
  8058f0:	e0fff917 	ldw	r3,-28(fp)
  8058f4:	e0800217 	ldw	r2,8(fp)
  8058f8:	18800315 	stw	r2,12(r3)
  8058fc:	e0fff917 	ldw	r3,-28(fp)
  805900:	e0bffc17 	ldw	r2,-16(fp)
  805904:	18800215 	stw	r2,8(r3)
  805908:	e0fff917 	ldw	r3,-28(fp)
  80590c:	e0bffe0b 	ldhu	r2,-8(fp)
  805910:	1880040d 	sth	r2,16(r3)
  805914:	e0fff917 	ldw	r3,-28(fp)
  805918:	e0bffd0b 	ldhu	r2,-12(fp)
  80591c:	1880048d 	sth	r2,18(r3)
  805920:	e0bff917 	ldw	r2,-28(fp)
  805924:	10000dc5 	stb	zero,55(r2)
  805928:	e0bffa03 	ldbu	r2,-24(fp)
  80592c:	1004d0fa 	srli	r2,r2,3
  805930:	1007883a 	mov	r3,r2
  805934:	e0bff917 	ldw	r2,-28(fp)
  805938:	10c00d05 	stb	r3,52(r2)
  80593c:	e0bffa03 	ldbu	r2,-24(fp)
  805940:	108001cc 	andi	r2,r2,7
  805944:	1007883a 	mov	r3,r2
  805948:	e0bff917 	ldw	r2,-28(fp)
  80594c:	10c00cc5 	stb	r3,51(r2)
  805950:	e0bff917 	ldw	r2,-28(fp)
  805954:	10800d03 	ldbu	r2,52(r2)
  805958:	10c03fcc 	andi	r3,r2,255
  80595c:	00800044 	movi	r2,1
  805960:	10c4983a 	sll	r2,r2,r3
  805964:	1007883a 	mov	r3,r2
  805968:	e0bff917 	ldw	r2,-28(fp)
  80596c:	10c00d85 	stb	r3,54(r2)
  805970:	e0bff917 	ldw	r2,-28(fp)
  805974:	10800cc3 	ldbu	r2,51(r2)
  805978:	10c03fcc 	andi	r3,r2,255
  80597c:	00800044 	movi	r2,1
  805980:	10c4983a 	sll	r2,r2,r3
  805984:	1007883a 	mov	r3,r2
  805988:	e0bff917 	ldw	r2,-28(fp)
  80598c:	10c00d45 	stb	r3,53(r2)
  805990:	e0bff917 	ldw	r2,-28(fp)
  805994:	10000715 	stw	zero,28(r2)
  805998:	e0bff917 	ldw	r2,-28(fp)
  80599c:	10000815 	stw	zero,32(r2)
  8059a0:	e0bff917 	ldw	r2,-28(fp)
  8059a4:	10000a15 	stw	zero,40(r2)
  8059a8:	e0bff917 	ldw	r2,-28(fp)
  8059ac:	10000915 	stw	zero,36(r2)
  8059b0:	e0bff917 	ldw	r2,-28(fp)
  8059b4:	10000e15 	stw	zero,56(r2)
  8059b8:	e0bff917 	ldw	r2,-28(fp)
  8059bc:	10001015 	stw	zero,64(r2)
  8059c0:	e0bff917 	ldw	r2,-28(fp)
  8059c4:	10000f15 	stw	zero,60(r2)
  8059c8:	e0bff917 	ldw	r2,-28(fp)
  8059cc:	10001115 	stw	zero,68(r2)
  8059d0:	e0bff917 	ldw	r2,-28(fp)
  8059d4:	10001215 	stw	zero,72(r2)
  8059d8:	e0fff917 	ldw	r3,-28(fp)
  8059dc:	00800fc4 	movi	r2,63
  8059e0:	18801305 	stb	r2,76(r3)
  8059e4:	e0bff917 	ldw	r2,-28(fp)
  8059e8:	10001345 	stb	zero,77(r2)
  8059ec:	e13ff917 	ldw	r4,-28(fp)
  8059f0:	080e4c00 	call	80e4c0 <OSTCBInitHook>
  8059f4:	e13ff917 	ldw	r4,-28(fp)
  8059f8:	080e3d80 	call	80e3d8 <OSTaskCreateHook>
  8059fc:	0005303a 	rdctl	r2,status
  805a00:	e0bff515 	stw	r2,-44(fp)
  805a04:	e0fff517 	ldw	r3,-44(fp)
  805a08:	00bfff84 	movi	r2,-2
  805a0c:	1884703a 	and	r2,r3,r2
  805a10:	1001703a 	wrctl	status,r2
  805a14:	e0bff517 	ldw	r2,-44(fp)
  805a18:	e0bff815 	stw	r2,-32(fp)
  805a1c:	e0bffa03 	ldbu	r2,-24(fp)
  805a20:	00c020b4 	movhi	r3,130
  805a24:	18e61404 	addi	r3,r3,-26544
  805a28:	1085883a 	add	r2,r2,r2
  805a2c:	1085883a 	add	r2,r2,r2
  805a30:	10c7883a 	add	r3,r2,r3
  805a34:	e0bff917 	ldw	r2,-28(fp)
  805a38:	18800015 	stw	r2,0(r3)
  805a3c:	d0e71b17 	ldw	r3,-25492(gp)
  805a40:	e0bff917 	ldw	r2,-28(fp)
  805a44:	10c00515 	stw	r3,20(r2)
  805a48:	e0bff917 	ldw	r2,-28(fp)
  805a4c:	10000615 	stw	zero,24(r2)
  805a50:	d0a71b17 	ldw	r2,-25492(gp)
  805a54:	1005003a 	cmpeq	r2,r2,zero
  805a58:	1000031e 	bne	r2,zero,805a68 <OS_TCBInit+0x230>
  805a5c:	d0e71b17 	ldw	r3,-25492(gp)
  805a60:	e0bff917 	ldw	r2,-28(fp)
  805a64:	18800615 	stw	r2,24(r3)
  805a68:	e0bff917 	ldw	r2,-28(fp)
  805a6c:	d0a71b15 	stw	r2,-25492(gp)
  805a70:	e0bff917 	ldw	r2,-28(fp)
  805a74:	10c00d83 	ldbu	r3,54(r2)
  805a78:	d0a72403 	ldbu	r2,-25456(gp)
  805a7c:	1884b03a 	or	r2,r3,r2
  805a80:	d0a72405 	stb	r2,-25456(gp)
  805a84:	e0bff917 	ldw	r2,-28(fp)
  805a88:	10800d03 	ldbu	r2,52(r2)
  805a8c:	11003fcc 	andi	r4,r2,255
  805a90:	e0bff917 	ldw	r2,-28(fp)
  805a94:	10800d03 	ldbu	r2,52(r2)
  805a98:	10c03fcc 	andi	r3,r2,255
  805a9c:	d0a72444 	addi	r2,gp,-25455
  805aa0:	1885883a 	add	r2,r3,r2
  805aa4:	10c00003 	ldbu	r3,0(r2)
  805aa8:	e0bff917 	ldw	r2,-28(fp)
  805aac:	10800d43 	ldbu	r2,53(r2)
  805ab0:	1884b03a 	or	r2,r3,r2
  805ab4:	1007883a 	mov	r3,r2
  805ab8:	d0a72444 	addi	r2,gp,-25455
  805abc:	2085883a 	add	r2,r4,r2
  805ac0:	10c00005 	stb	r3,0(r2)
  805ac4:	d0a72043 	ldbu	r2,-25471(gp)
  805ac8:	10800044 	addi	r2,r2,1
  805acc:	d0a72045 	stb	r2,-25471(gp)
  805ad0:	e0bff817 	ldw	r2,-32(fp)
  805ad4:	e0bff415 	stw	r2,-48(fp)
  805ad8:	e0bff417 	ldw	r2,-48(fp)
  805adc:	1001703a 	wrctl	status,r2
  805ae0:	e03fff15 	stw	zero,-4(fp)
  805ae4:	00000606 	br	805b00 <OS_TCBInit+0x2c8>
  805ae8:	e0bff817 	ldw	r2,-32(fp)
  805aec:	e0bff315 	stw	r2,-52(fp)
  805af0:	e0bff317 	ldw	r2,-52(fp)
  805af4:	1001703a 	wrctl	status,r2
  805af8:	00801084 	movi	r2,66
  805afc:	e0bfff15 	stw	r2,-4(fp)
  805b00:	e0bfff17 	ldw	r2,-4(fp)
  805b04:	e037883a 	mov	sp,fp
  805b08:	dfc00117 	ldw	ra,4(sp)
  805b0c:	df000017 	ldw	fp,0(sp)
  805b10:	dec00204 	addi	sp,sp,8
  805b14:	f800283a 	ret

00805b18 <OSDebugInit>:
  805b18:	defffe04 	addi	sp,sp,-8
  805b1c:	df000115 	stw	fp,4(sp)
  805b20:	df000104 	addi	fp,sp,4
  805b24:	d0a00d04 	addi	r2,gp,-32716
  805b28:	e0bfff15 	stw	r2,-4(fp)
  805b2c:	d0a00e04 	addi	r2,gp,-32712
  805b30:	e0bfff15 	stw	r2,-4(fp)
  805b34:	d0a00f84 	addi	r2,gp,-32706
  805b38:	e0bfff15 	stw	r2,-4(fp)
  805b3c:	d0a01004 	addi	r2,gp,-32704
  805b40:	e0bfff15 	stw	r2,-4(fp)
  805b44:	d0a00f04 	addi	r2,gp,-32708
  805b48:	e0bfff15 	stw	r2,-4(fp)
  805b4c:	d0a01084 	addi	r2,gp,-32702
  805b50:	e0bfff15 	stw	r2,-4(fp)
  805b54:	d0a01104 	addi	r2,gp,-32700
  805b58:	e0bfff15 	stw	r2,-4(fp)
  805b5c:	d0a01184 	addi	r2,gp,-32698
  805b60:	e0bfff15 	stw	r2,-4(fp)
  805b64:	d0a01204 	addi	r2,gp,-32696
  805b68:	e0bfff15 	stw	r2,-4(fp)
  805b6c:	d0a01284 	addi	r2,gp,-32694
  805b70:	e0bfff15 	stw	r2,-4(fp)
  805b74:	d0a01304 	addi	r2,gp,-32692
  805b78:	e0bfff15 	stw	r2,-4(fp)
  805b7c:	d0a01384 	addi	r2,gp,-32690
  805b80:	e0bfff15 	stw	r2,-4(fp)
  805b84:	d0a01404 	addi	r2,gp,-32688
  805b88:	e0bfff15 	stw	r2,-4(fp)
  805b8c:	d0a01484 	addi	r2,gp,-32686
  805b90:	e0bfff15 	stw	r2,-4(fp)
  805b94:	d0a01504 	addi	r2,gp,-32684
  805b98:	e0bfff15 	stw	r2,-4(fp)
  805b9c:	d0a01584 	addi	r2,gp,-32682
  805ba0:	e0bfff15 	stw	r2,-4(fp)
  805ba4:	d0a01604 	addi	r2,gp,-32680
  805ba8:	e0bfff15 	stw	r2,-4(fp)
  805bac:	d0a01684 	addi	r2,gp,-32678
  805bb0:	e0bfff15 	stw	r2,-4(fp)
  805bb4:	d0a01704 	addi	r2,gp,-32676
  805bb8:	e0bfff15 	stw	r2,-4(fp)
  805bbc:	d0a01784 	addi	r2,gp,-32674
  805bc0:	e0bfff15 	stw	r2,-4(fp)
  805bc4:	d0a01804 	addi	r2,gp,-32672
  805bc8:	e0bfff15 	stw	r2,-4(fp)
  805bcc:	d0a01884 	addi	r2,gp,-32670
  805bd0:	e0bfff15 	stw	r2,-4(fp)
  805bd4:	d0a01904 	addi	r2,gp,-32668
  805bd8:	e0bfff15 	stw	r2,-4(fp)
  805bdc:	d0a01984 	addi	r2,gp,-32666
  805be0:	e0bfff15 	stw	r2,-4(fp)
  805be4:	d0a01a04 	addi	r2,gp,-32664
  805be8:	e0bfff15 	stw	r2,-4(fp)
  805bec:	d0a01a84 	addi	r2,gp,-32662
  805bf0:	e0bfff15 	stw	r2,-4(fp)
  805bf4:	d0a01b04 	addi	r2,gp,-32660
  805bf8:	e0bfff15 	stw	r2,-4(fp)
  805bfc:	d0a01b84 	addi	r2,gp,-32658
  805c00:	e0bfff15 	stw	r2,-4(fp)
  805c04:	d0a01c04 	addi	r2,gp,-32656
  805c08:	e0bfff15 	stw	r2,-4(fp)
  805c0c:	d0a01c84 	addi	r2,gp,-32654
  805c10:	e0bfff15 	stw	r2,-4(fp)
  805c14:	d0a01d04 	addi	r2,gp,-32652
  805c18:	e0bfff15 	stw	r2,-4(fp)
  805c1c:	d0a01d84 	addi	r2,gp,-32650
  805c20:	e0bfff15 	stw	r2,-4(fp)
  805c24:	d0a01e04 	addi	r2,gp,-32648
  805c28:	e0bfff15 	stw	r2,-4(fp)
  805c2c:	d0a01e84 	addi	r2,gp,-32646
  805c30:	e0bfff15 	stw	r2,-4(fp)
  805c34:	d0a01f04 	addi	r2,gp,-32644
  805c38:	e0bfff15 	stw	r2,-4(fp)
  805c3c:	d0a01f84 	addi	r2,gp,-32642
  805c40:	e0bfff15 	stw	r2,-4(fp)
  805c44:	d0a02004 	addi	r2,gp,-32640
  805c48:	e0bfff15 	stw	r2,-4(fp)
  805c4c:	d0a02084 	addi	r2,gp,-32638
  805c50:	e0bfff15 	stw	r2,-4(fp)
  805c54:	d0a02104 	addi	r2,gp,-32636
  805c58:	e0bfff15 	stw	r2,-4(fp)
  805c5c:	d0a02184 	addi	r2,gp,-32634
  805c60:	e0bfff15 	stw	r2,-4(fp)
  805c64:	d0a02204 	addi	r2,gp,-32632
  805c68:	e0bfff15 	stw	r2,-4(fp)
  805c6c:	d0a02284 	addi	r2,gp,-32630
  805c70:	e0bfff15 	stw	r2,-4(fp)
  805c74:	d0a02304 	addi	r2,gp,-32628
  805c78:	e0bfff15 	stw	r2,-4(fp)
  805c7c:	d0a02384 	addi	r2,gp,-32626
  805c80:	e0bfff15 	stw	r2,-4(fp)
  805c84:	d0a02404 	addi	r2,gp,-32624
  805c88:	e0bfff15 	stw	r2,-4(fp)
  805c8c:	d0a02904 	addi	r2,gp,-32604
  805c90:	e0bfff15 	stw	r2,-4(fp)
  805c94:	e037883a 	mov	sp,fp
  805c98:	df000017 	ldw	fp,0(sp)
  805c9c:	dec00104 	addi	sp,sp,4
  805ca0:	f800283a 	ret

00805ca4 <OSFlagAccept>:
  805ca4:	defff104 	addi	sp,sp,-60
  805ca8:	df000e15 	stw	fp,56(sp)
  805cac:	df000e04 	addi	fp,sp,56
  805cb0:	e13ffa15 	stw	r4,-24(fp)
  805cb4:	e1fffd15 	stw	r7,-12(fp)
  805cb8:	e17ffb0d 	sth	r5,-20(fp)
  805cbc:	e1bffc05 	stb	r6,-16(fp)
  805cc0:	e03ff815 	stw	zero,-32(fp)
  805cc4:	e0bffd17 	ldw	r2,-12(fp)
  805cc8:	1004c03a 	cmpne	r2,r2,zero
  805ccc:	1000021e 	bne	r2,zero,805cd8 <OSFlagAccept+0x34>
  805cd0:	e03fff15 	stw	zero,-4(fp)
  805cd4:	0000bb06 	br	805fc4 <OSFlagAccept+0x320>
  805cd8:	e0bffa17 	ldw	r2,-24(fp)
  805cdc:	1004c03a 	cmpne	r2,r2,zero
  805ce0:	1000051e 	bne	r2,zero,805cf8 <OSFlagAccept+0x54>
  805ce4:	e0fffd17 	ldw	r3,-12(fp)
  805ce8:	00801b84 	movi	r2,110
  805cec:	18800005 	stb	r2,0(r3)
  805cf0:	e03fff15 	stw	zero,-4(fp)
  805cf4:	0000b306 	br	805fc4 <OSFlagAccept+0x320>
  805cf8:	e0bffa17 	ldw	r2,-24(fp)
  805cfc:	10800003 	ldbu	r2,0(r2)
  805d00:	10803fcc 	andi	r2,r2,255
  805d04:	10800160 	cmpeqi	r2,r2,5
  805d08:	1000051e 	bne	r2,zero,805d20 <OSFlagAccept+0x7c>
  805d0c:	e0fffd17 	ldw	r3,-12(fp)
  805d10:	00800044 	movi	r2,1
  805d14:	18800005 	stb	r2,0(r3)
  805d18:	e03fff15 	stw	zero,-4(fp)
  805d1c:	0000a906 	br	805fc4 <OSFlagAccept+0x320>
  805d20:	e0fffc03 	ldbu	r3,-16(fp)
  805d24:	00bfe004 	movi	r2,-128
  805d28:	1884703a 	and	r2,r3,r2
  805d2c:	e0bff945 	stb	r2,-27(fp)
  805d30:	e0bff943 	ldbu	r2,-27(fp)
  805d34:	1005003a 	cmpeq	r2,r2,zero
  805d38:	1000061e 	bne	r2,zero,805d54 <OSFlagAccept+0xb0>
  805d3c:	e0bffc03 	ldbu	r2,-16(fp)
  805d40:	10801fcc 	andi	r2,r2,127
  805d44:	e0bffc05 	stb	r2,-16(fp)
  805d48:	00800044 	movi	r2,1
  805d4c:	e0bff905 	stb	r2,-28(fp)
  805d50:	00000106 	br	805d58 <OSFlagAccept+0xb4>
  805d54:	e03ff905 	stb	zero,-28(fp)
  805d58:	e0bffd17 	ldw	r2,-12(fp)
  805d5c:	10000005 	stb	zero,0(r2)
  805d60:	0005303a 	rdctl	r2,status
  805d64:	e0bff715 	stw	r2,-36(fp)
  805d68:	e0fff717 	ldw	r3,-36(fp)
  805d6c:	00bfff84 	movi	r2,-2
  805d70:	1884703a 	and	r2,r3,r2
  805d74:	1001703a 	wrctl	status,r2
  805d78:	e0bff717 	ldw	r2,-36(fp)
  805d7c:	e0bff815 	stw	r2,-32(fp)
  805d80:	e0bffc03 	ldbu	r2,-16(fp)
  805d84:	e0bffe15 	stw	r2,-8(fp)
  805d88:	e0fffe17 	ldw	r3,-8(fp)
  805d8c:	18800060 	cmpeqi	r2,r3,1
  805d90:	1000651e 	bne	r2,zero,805f28 <OSFlagAccept+0x284>
  805d94:	e0fffe17 	ldw	r3,-8(fp)
  805d98:	18800088 	cmpgei	r2,r3,2
  805d9c:	1000041e 	bne	r2,zero,805db0 <OSFlagAccept+0x10c>
  805da0:	e0fffe17 	ldw	r3,-8(fp)
  805da4:	1805003a 	cmpeq	r2,r3,zero
  805da8:	1000421e 	bne	r2,zero,805eb4 <OSFlagAccept+0x210>
  805dac:	00007b06 	br	805f9c <OSFlagAccept+0x2f8>
  805db0:	e0fffe17 	ldw	r3,-8(fp)
  805db4:	188000a0 	cmpeqi	r2,r3,2
  805db8:	1000041e 	bne	r2,zero,805dcc <OSFlagAccept+0x128>
  805dbc:	e0fffe17 	ldw	r3,-8(fp)
  805dc0:	188000e0 	cmpeqi	r2,r3,3
  805dc4:	10001e1e 	bne	r2,zero,805e40 <OSFlagAccept+0x19c>
  805dc8:	00007406 	br	805f9c <OSFlagAccept+0x2f8>
  805dcc:	e0bffa17 	ldw	r2,-24(fp)
  805dd0:	10c0020b 	ldhu	r3,8(r2)
  805dd4:	e0bffb0b 	ldhu	r2,-20(fp)
  805dd8:	1884703a 	and	r2,r3,r2
  805ddc:	e0bff98d 	sth	r2,-26(fp)
  805de0:	e0fff98b 	ldhu	r3,-26(fp)
  805de4:	e0bffb0b 	ldhu	r2,-20(fp)
  805de8:	18800d1e 	bne	r3,r2,805e20 <OSFlagAccept+0x17c>
  805dec:	e0bff903 	ldbu	r2,-28(fp)
  805df0:	10800058 	cmpnei	r2,r2,1
  805df4:	10000d1e 	bne	r2,zero,805e2c <OSFlagAccept+0x188>
  805df8:	e0bffa17 	ldw	r2,-24(fp)
  805dfc:	1080020b 	ldhu	r2,8(r2)
  805e00:	1007883a 	mov	r3,r2
  805e04:	e0bff98b 	ldhu	r2,-26(fp)
  805e08:	0084303a 	nor	r2,zero,r2
  805e0c:	1884703a 	and	r2,r3,r2
  805e10:	1007883a 	mov	r3,r2
  805e14:	e0bffa17 	ldw	r2,-24(fp)
  805e18:	10c0020d 	sth	r3,8(r2)
  805e1c:	00000306 	br	805e2c <OSFlagAccept+0x188>
  805e20:	e0fffd17 	ldw	r3,-12(fp)
  805e24:	00801c04 	movi	r2,112
  805e28:	18800005 	stb	r2,0(r3)
  805e2c:	e0bff817 	ldw	r2,-32(fp)
  805e30:	e0bff615 	stw	r2,-40(fp)
  805e34:	e0bff617 	ldw	r2,-40(fp)
  805e38:	1001703a 	wrctl	status,r2
  805e3c:	00005f06 	br	805fbc <OSFlagAccept+0x318>
  805e40:	e0bffa17 	ldw	r2,-24(fp)
  805e44:	10c0020b 	ldhu	r3,8(r2)
  805e48:	e0bffb0b 	ldhu	r2,-20(fp)
  805e4c:	1884703a 	and	r2,r3,r2
  805e50:	e0bff98d 	sth	r2,-26(fp)
  805e54:	e0bff98b 	ldhu	r2,-26(fp)
  805e58:	1005003a 	cmpeq	r2,r2,zero
  805e5c:	10000d1e 	bne	r2,zero,805e94 <OSFlagAccept+0x1f0>
  805e60:	e0bff903 	ldbu	r2,-28(fp)
  805e64:	10800058 	cmpnei	r2,r2,1
  805e68:	10000d1e 	bne	r2,zero,805ea0 <OSFlagAccept+0x1fc>
  805e6c:	e0bffa17 	ldw	r2,-24(fp)
  805e70:	1080020b 	ldhu	r2,8(r2)
  805e74:	1007883a 	mov	r3,r2
  805e78:	e0bff98b 	ldhu	r2,-26(fp)
  805e7c:	0084303a 	nor	r2,zero,r2
  805e80:	1884703a 	and	r2,r3,r2
  805e84:	1007883a 	mov	r3,r2
  805e88:	e0bffa17 	ldw	r2,-24(fp)
  805e8c:	10c0020d 	sth	r3,8(r2)
  805e90:	00000306 	br	805ea0 <OSFlagAccept+0x1fc>
  805e94:	e0fffd17 	ldw	r3,-12(fp)
  805e98:	00801c04 	movi	r2,112
  805e9c:	18800005 	stb	r2,0(r3)
  805ea0:	e0bff817 	ldw	r2,-32(fp)
  805ea4:	e0bff515 	stw	r2,-44(fp)
  805ea8:	e0bff517 	ldw	r2,-44(fp)
  805eac:	1001703a 	wrctl	status,r2
  805eb0:	00004206 	br	805fbc <OSFlagAccept+0x318>
  805eb4:	e0bffa17 	ldw	r2,-24(fp)
  805eb8:	1080020b 	ldhu	r2,8(r2)
  805ebc:	0084303a 	nor	r2,zero,r2
  805ec0:	1007883a 	mov	r3,r2
  805ec4:	e0bffb0b 	ldhu	r2,-20(fp)
  805ec8:	1884703a 	and	r2,r3,r2
  805ecc:	e0bff98d 	sth	r2,-26(fp)
  805ed0:	e0fff98b 	ldhu	r3,-26(fp)
  805ed4:	e0bffb0b 	ldhu	r2,-20(fp)
  805ed8:	18800b1e 	bne	r3,r2,805f08 <OSFlagAccept+0x264>
  805edc:	e0bff903 	ldbu	r2,-28(fp)
  805ee0:	10800058 	cmpnei	r2,r2,1
  805ee4:	10000b1e 	bne	r2,zero,805f14 <OSFlagAccept+0x270>
  805ee8:	e0bffa17 	ldw	r2,-24(fp)
  805eec:	10c0020b 	ldhu	r3,8(r2)
  805ef0:	e0bff98b 	ldhu	r2,-26(fp)
  805ef4:	1884b03a 	or	r2,r3,r2
  805ef8:	1007883a 	mov	r3,r2
  805efc:	e0bffa17 	ldw	r2,-24(fp)
  805f00:	10c0020d 	sth	r3,8(r2)
  805f04:	00000306 	br	805f14 <OSFlagAccept+0x270>
  805f08:	e0fffd17 	ldw	r3,-12(fp)
  805f0c:	00801c04 	movi	r2,112
  805f10:	18800005 	stb	r2,0(r3)
  805f14:	e0bff817 	ldw	r2,-32(fp)
  805f18:	e0bff415 	stw	r2,-48(fp)
  805f1c:	e0bff417 	ldw	r2,-48(fp)
  805f20:	1001703a 	wrctl	status,r2
  805f24:	00002506 	br	805fbc <OSFlagAccept+0x318>
  805f28:	e0bffa17 	ldw	r2,-24(fp)
  805f2c:	1080020b 	ldhu	r2,8(r2)
  805f30:	0084303a 	nor	r2,zero,r2
  805f34:	1007883a 	mov	r3,r2
  805f38:	e0bffb0b 	ldhu	r2,-20(fp)
  805f3c:	1884703a 	and	r2,r3,r2
  805f40:	e0bff98d 	sth	r2,-26(fp)
  805f44:	e0bff98b 	ldhu	r2,-26(fp)
  805f48:	1005003a 	cmpeq	r2,r2,zero
  805f4c:	10000b1e 	bne	r2,zero,805f7c <OSFlagAccept+0x2d8>
  805f50:	e0bff903 	ldbu	r2,-28(fp)
  805f54:	10800058 	cmpnei	r2,r2,1
  805f58:	10000b1e 	bne	r2,zero,805f88 <OSFlagAccept+0x2e4>
  805f5c:	e0bffa17 	ldw	r2,-24(fp)
  805f60:	10c0020b 	ldhu	r3,8(r2)
  805f64:	e0bff98b 	ldhu	r2,-26(fp)
  805f68:	1884b03a 	or	r2,r3,r2
  805f6c:	1007883a 	mov	r3,r2
  805f70:	e0bffa17 	ldw	r2,-24(fp)
  805f74:	10c0020d 	sth	r3,8(r2)
  805f78:	00000306 	br	805f88 <OSFlagAccept+0x2e4>
  805f7c:	e0fffd17 	ldw	r3,-12(fp)
  805f80:	00801c04 	movi	r2,112
  805f84:	18800005 	stb	r2,0(r3)
  805f88:	e0bff817 	ldw	r2,-32(fp)
  805f8c:	e0bff315 	stw	r2,-52(fp)
  805f90:	e0bff317 	ldw	r2,-52(fp)
  805f94:	1001703a 	wrctl	status,r2
  805f98:	00000806 	br	805fbc <OSFlagAccept+0x318>
  805f9c:	e0bff817 	ldw	r2,-32(fp)
  805fa0:	e0bff215 	stw	r2,-56(fp)
  805fa4:	e0bff217 	ldw	r2,-56(fp)
  805fa8:	1001703a 	wrctl	status,r2
  805fac:	e03ff98d 	sth	zero,-26(fp)
  805fb0:	e0fffd17 	ldw	r3,-12(fp)
  805fb4:	00801bc4 	movi	r2,111
  805fb8:	18800005 	stb	r2,0(r3)
  805fbc:	e0bff98b 	ldhu	r2,-26(fp)
  805fc0:	e0bfff15 	stw	r2,-4(fp)
  805fc4:	e0bfff17 	ldw	r2,-4(fp)
  805fc8:	e037883a 	mov	sp,fp
  805fcc:	df000017 	ldw	fp,0(sp)
  805fd0:	dec00104 	addi	sp,sp,4
  805fd4:	f800283a 	ret

00805fd8 <OSFlagCreate>:
  805fd8:	defff704 	addi	sp,sp,-36
  805fdc:	df000815 	stw	fp,32(sp)
  805fe0:	df000804 	addi	fp,sp,32
  805fe4:	e17ffe15 	stw	r5,-8(fp)
  805fe8:	e13ffd0d 	sth	r4,-12(fp)
  805fec:	e03ffb15 	stw	zero,-20(fp)
  805ff0:	e0bffe17 	ldw	r2,-8(fp)
  805ff4:	1004c03a 	cmpne	r2,r2,zero
  805ff8:	1000021e 	bne	r2,zero,806004 <OSFlagCreate+0x2c>
  805ffc:	e03fff15 	stw	zero,-4(fp)
  806000:	00003f06 	br	806100 <OSFlagCreate+0x128>
  806004:	00802074 	movhi	r2,129
  806008:	10898d04 	addi	r2,r2,9780
  80600c:	10800003 	ldbu	r2,0(r2)
  806010:	10803fcc 	andi	r2,r2,255
  806014:	1005003a 	cmpeq	r2,r2,zero
  806018:	1000051e 	bne	r2,zero,806030 <OSFlagCreate+0x58>
  80601c:	e0fffe17 	ldw	r3,-8(fp)
  806020:	00800404 	movi	r2,16
  806024:	18800005 	stb	r2,0(r3)
  806028:	e03fff15 	stw	zero,-4(fp)
  80602c:	00003406 	br	806100 <OSFlagCreate+0x128>
  806030:	0005303a 	rdctl	r2,status
  806034:	e0bffa15 	stw	r2,-24(fp)
  806038:	e0fffa17 	ldw	r3,-24(fp)
  80603c:	00bfff84 	movi	r2,-2
  806040:	1884703a 	and	r2,r3,r2
  806044:	1001703a 	wrctl	status,r2
  806048:	e0bffa17 	ldw	r2,-24(fp)
  80604c:	e0bffb15 	stw	r2,-20(fp)
  806050:	00802074 	movhi	r2,129
  806054:	10899004 	addi	r2,r2,9792
  806058:	10800017 	ldw	r2,0(r2)
  80605c:	e0bffc15 	stw	r2,-16(fp)
  806060:	e0bffc17 	ldw	r2,-16(fp)
  806064:	1005003a 	cmpeq	r2,r2,zero
  806068:	10001c1e 	bne	r2,zero,8060dc <OSFlagCreate+0x104>
  80606c:	00802074 	movhi	r2,129
  806070:	10899004 	addi	r2,r2,9792
  806074:	10800017 	ldw	r2,0(r2)
  806078:	10800117 	ldw	r2,4(r2)
  80607c:	1007883a 	mov	r3,r2
  806080:	00802074 	movhi	r2,129
  806084:	10899004 	addi	r2,r2,9792
  806088:	10c00015 	stw	r3,0(r2)
  80608c:	e0fffc17 	ldw	r3,-16(fp)
  806090:	00800144 	movi	r2,5
  806094:	18800005 	stb	r2,0(r3)
  806098:	e0fffc17 	ldw	r3,-16(fp)
  80609c:	e0bffd0b 	ldhu	r2,-12(fp)
  8060a0:	1880020d 	sth	r2,8(r3)
  8060a4:	e0bffc17 	ldw	r2,-16(fp)
  8060a8:	10000115 	stw	zero,4(r2)
  8060ac:	e0fffc17 	ldw	r3,-16(fp)
  8060b0:	00800fc4 	movi	r2,63
  8060b4:	18800285 	stb	r2,10(r3)
  8060b8:	e0bffc17 	ldw	r2,-16(fp)
  8060bc:	100002c5 	stb	zero,11(r2)
  8060c0:	e0bffb17 	ldw	r2,-20(fp)
  8060c4:	e0bff915 	stw	r2,-28(fp)
  8060c8:	e0bff917 	ldw	r2,-28(fp)
  8060cc:	1001703a 	wrctl	status,r2
  8060d0:	e0bffe17 	ldw	r2,-8(fp)
  8060d4:	10000005 	stb	zero,0(r2)
  8060d8:	00000706 	br	8060f8 <OSFlagCreate+0x120>
  8060dc:	e0bffb17 	ldw	r2,-20(fp)
  8060e0:	e0bff815 	stw	r2,-32(fp)
  8060e4:	e0bff817 	ldw	r2,-32(fp)
  8060e8:	1001703a 	wrctl	status,r2
  8060ec:	e0fffe17 	ldw	r3,-8(fp)
  8060f0:	00801c84 	movi	r2,114
  8060f4:	18800005 	stb	r2,0(r3)
  8060f8:	e0bffc17 	ldw	r2,-16(fp)
  8060fc:	e0bfff15 	stw	r2,-4(fp)
  806100:	e0bfff17 	ldw	r2,-4(fp)
  806104:	e037883a 	mov	sp,fp
  806108:	df000017 	ldw	fp,0(sp)
  80610c:	dec00104 	addi	sp,sp,4
  806110:	f800283a 	ret

00806114 <OSFlagDel>:
  806114:	defff004 	addi	sp,sp,-64
  806118:	dfc00f15 	stw	ra,60(sp)
  80611c:	df000e15 	stw	fp,56(sp)
  806120:	df000e04 	addi	fp,sp,56
  806124:	e13ffb15 	stw	r4,-20(fp)
  806128:	e1bffd15 	stw	r6,-12(fp)
  80612c:	e17ffc05 	stb	r5,-16(fp)
  806130:	e03ff715 	stw	zero,-36(fp)
  806134:	e0bffd17 	ldw	r2,-12(fp)
  806138:	1004c03a 	cmpne	r2,r2,zero
  80613c:	1000031e 	bne	r2,zero,80614c <OSFlagDel+0x38>
  806140:	e0bffb17 	ldw	r2,-20(fp)
  806144:	e0bfff15 	stw	r2,-4(fp)
  806148:	00009606 	br	8063a4 <OSFlagDel+0x290>
  80614c:	e0bffb17 	ldw	r2,-20(fp)
  806150:	1004c03a 	cmpne	r2,r2,zero
  806154:	1000061e 	bne	r2,zero,806170 <OSFlagDel+0x5c>
  806158:	e0fffd17 	ldw	r3,-12(fp)
  80615c:	00801b84 	movi	r2,110
  806160:	18800005 	stb	r2,0(r3)
  806164:	e0fffb17 	ldw	r3,-20(fp)
  806168:	e0ffff15 	stw	r3,-4(fp)
  80616c:	00008d06 	br	8063a4 <OSFlagDel+0x290>
  806170:	00802074 	movhi	r2,129
  806174:	10898d04 	addi	r2,r2,9780
  806178:	10800003 	ldbu	r2,0(r2)
  80617c:	10803fcc 	andi	r2,r2,255
  806180:	1005003a 	cmpeq	r2,r2,zero
  806184:	1000061e 	bne	r2,zero,8061a0 <OSFlagDel+0x8c>
  806188:	e0fffd17 	ldw	r3,-12(fp)
  80618c:	008003c4 	movi	r2,15
  806190:	18800005 	stb	r2,0(r3)
  806194:	e0bffb17 	ldw	r2,-20(fp)
  806198:	e0bfff15 	stw	r2,-4(fp)
  80619c:	00008106 	br	8063a4 <OSFlagDel+0x290>
  8061a0:	e0bffb17 	ldw	r2,-20(fp)
  8061a4:	10800003 	ldbu	r2,0(r2)
  8061a8:	10803fcc 	andi	r2,r2,255
  8061ac:	10800160 	cmpeqi	r2,r2,5
  8061b0:	1000061e 	bne	r2,zero,8061cc <OSFlagDel+0xb8>
  8061b4:	e0fffd17 	ldw	r3,-12(fp)
  8061b8:	00800044 	movi	r2,1
  8061bc:	18800005 	stb	r2,0(r3)
  8061c0:	e0fffb17 	ldw	r3,-20(fp)
  8061c4:	e0ffff15 	stw	r3,-4(fp)
  8061c8:	00007606 	br	8063a4 <OSFlagDel+0x290>
  8061cc:	0005303a 	rdctl	r2,status
  8061d0:	e0bff615 	stw	r2,-40(fp)
  8061d4:	e0fff617 	ldw	r3,-40(fp)
  8061d8:	00bfff84 	movi	r2,-2
  8061dc:	1884703a 	and	r2,r3,r2
  8061e0:	1001703a 	wrctl	status,r2
  8061e4:	e0bff617 	ldw	r2,-40(fp)
  8061e8:	e0bff715 	stw	r2,-36(fp)
  8061ec:	e0bffb17 	ldw	r2,-20(fp)
  8061f0:	10800117 	ldw	r2,4(r2)
  8061f4:	1005003a 	cmpeq	r2,r2,zero
  8061f8:	1000031e 	bne	r2,zero,806208 <OSFlagDel+0xf4>
  8061fc:	00800044 	movi	r2,1
  806200:	e0bffa05 	stb	r2,-24(fp)
  806204:	00000106 	br	80620c <OSFlagDel+0xf8>
  806208:	e03ffa05 	stb	zero,-24(fp)
  80620c:	e0bffc03 	ldbu	r2,-16(fp)
  806210:	e0bffe15 	stw	r2,-8(fp)
  806214:	e0fffe17 	ldw	r3,-8(fp)
  806218:	1805003a 	cmpeq	r2,r3,zero
  80621c:	1000041e 	bne	r2,zero,806230 <OSFlagDel+0x11c>
  806220:	e0fffe17 	ldw	r3,-8(fp)
  806224:	18800060 	cmpeqi	r2,r3,1
  806228:	1000281e 	bne	r2,zero,8062cc <OSFlagDel+0x1b8>
  80622c:	00005206 	br	806378 <OSFlagDel+0x264>
  806230:	e0bffa03 	ldbu	r2,-24(fp)
  806234:	1004c03a 	cmpne	r2,r2,zero
  806238:	10001a1e 	bne	r2,zero,8062a4 <OSFlagDel+0x190>
  80623c:	e0fffb17 	ldw	r3,-20(fp)
  806240:	00800fc4 	movi	r2,63
  806244:	18800285 	stb	r2,10(r3)
  806248:	e0bffb17 	ldw	r2,-20(fp)
  80624c:	100002c5 	stb	zero,11(r2)
  806250:	e0bffb17 	ldw	r2,-20(fp)
  806254:	10000005 	stb	zero,0(r2)
  806258:	00802074 	movhi	r2,129
  80625c:	10899004 	addi	r2,r2,9792
  806260:	10c00017 	ldw	r3,0(r2)
  806264:	e0bffb17 	ldw	r2,-20(fp)
  806268:	10c00115 	stw	r3,4(r2)
  80626c:	e0bffb17 	ldw	r2,-20(fp)
  806270:	1000020d 	sth	zero,8(r2)
  806274:	00c02074 	movhi	r3,129
  806278:	18c99004 	addi	r3,r3,9792
  80627c:	e0bffb17 	ldw	r2,-20(fp)
  806280:	18800015 	stw	r2,0(r3)
  806284:	e0bff717 	ldw	r2,-36(fp)
  806288:	e0bff515 	stw	r2,-44(fp)
  80628c:	e0bff517 	ldw	r2,-44(fp)
  806290:	1001703a 	wrctl	status,r2
  806294:	e0bffd17 	ldw	r2,-12(fp)
  806298:	10000005 	stb	zero,0(r2)
  80629c:	e03ff815 	stw	zero,-32(fp)
  8062a0:	00003e06 	br	80639c <OSFlagDel+0x288>
  8062a4:	e0bff717 	ldw	r2,-36(fp)
  8062a8:	e0bff415 	stw	r2,-48(fp)
  8062ac:	e0bff417 	ldw	r2,-48(fp)
  8062b0:	1001703a 	wrctl	status,r2
  8062b4:	e0fffd17 	ldw	r3,-12(fp)
  8062b8:	00801244 	movi	r2,73
  8062bc:	18800005 	stb	r2,0(r3)
  8062c0:	e0bffb17 	ldw	r2,-20(fp)
  8062c4:	e0bff815 	stw	r2,-32(fp)
  8062c8:	00003406 	br	80639c <OSFlagDel+0x288>
  8062cc:	e0bffb17 	ldw	r2,-20(fp)
  8062d0:	10800117 	ldw	r2,4(r2)
  8062d4:	e0bff915 	stw	r2,-28(fp)
  8062d8:	00000606 	br	8062f4 <OSFlagDel+0x1e0>
  8062dc:	e13ff917 	ldw	r4,-28(fp)
  8062e0:	000b883a 	mov	r5,zero
  8062e4:	08074240 	call	807424 <OS_FlagTaskRdy>
  8062e8:	e0bff917 	ldw	r2,-28(fp)
  8062ec:	10800017 	ldw	r2,0(r2)
  8062f0:	e0bff915 	stw	r2,-28(fp)
  8062f4:	e0bff917 	ldw	r2,-28(fp)
  8062f8:	1004c03a 	cmpne	r2,r2,zero
  8062fc:	103ff71e 	bne	r2,zero,8062dc <OSFlagDel+0x1c8>
  806300:	e0fffb17 	ldw	r3,-20(fp)
  806304:	00800fc4 	movi	r2,63
  806308:	18800285 	stb	r2,10(r3)
  80630c:	e0bffb17 	ldw	r2,-20(fp)
  806310:	100002c5 	stb	zero,11(r2)
  806314:	e0bffb17 	ldw	r2,-20(fp)
  806318:	10000005 	stb	zero,0(r2)
  80631c:	00802074 	movhi	r2,129
  806320:	10899004 	addi	r2,r2,9792
  806324:	10c00017 	ldw	r3,0(r2)
  806328:	e0bffb17 	ldw	r2,-20(fp)
  80632c:	10c00115 	stw	r3,4(r2)
  806330:	e0bffb17 	ldw	r2,-20(fp)
  806334:	1000020d 	sth	zero,8(r2)
  806338:	00c02074 	movhi	r3,129
  80633c:	18c99004 	addi	r3,r3,9792
  806340:	e0bffb17 	ldw	r2,-20(fp)
  806344:	18800015 	stw	r2,0(r3)
  806348:	e0bff717 	ldw	r2,-36(fp)
  80634c:	e0bff315 	stw	r2,-52(fp)
  806350:	e0bff317 	ldw	r2,-52(fp)
  806354:	1001703a 	wrctl	status,r2
  806358:	e0bffa03 	ldbu	r2,-24(fp)
  80635c:	10800058 	cmpnei	r2,r2,1
  806360:	1000011e 	bne	r2,zero,806368 <OSFlagDel+0x254>
  806364:	08054300 	call	805430 <OS_Sched>
  806368:	e0bffd17 	ldw	r2,-12(fp)
  80636c:	10000005 	stb	zero,0(r2)
  806370:	e03ff815 	stw	zero,-32(fp)
  806374:	00000906 	br	80639c <OSFlagDel+0x288>
  806378:	e0bff717 	ldw	r2,-36(fp)
  80637c:	e0bff215 	stw	r2,-56(fp)
  806380:	e0bff217 	ldw	r2,-56(fp)
  806384:	1001703a 	wrctl	status,r2
  806388:	e0fffd17 	ldw	r3,-12(fp)
  80638c:	008001c4 	movi	r2,7
  806390:	18800005 	stb	r2,0(r3)
  806394:	e0bffb17 	ldw	r2,-20(fp)
  806398:	e0bff815 	stw	r2,-32(fp)
  80639c:	e0bff817 	ldw	r2,-32(fp)
  8063a0:	e0bfff15 	stw	r2,-4(fp)
  8063a4:	e0bfff17 	ldw	r2,-4(fp)
  8063a8:	e037883a 	mov	sp,fp
  8063ac:	dfc00117 	ldw	ra,4(sp)
  8063b0:	df000017 	ldw	fp,0(sp)
  8063b4:	dec00204 	addi	sp,sp,8
  8063b8:	f800283a 	ret

008063bc <OSFlagNameGet>:
  8063bc:	defff504 	addi	sp,sp,-44
  8063c0:	dfc00a15 	stw	ra,40(sp)
  8063c4:	df000915 	stw	fp,36(sp)
  8063c8:	df000904 	addi	fp,sp,36
  8063cc:	e13ffc15 	stw	r4,-16(fp)
  8063d0:	e17ffd15 	stw	r5,-12(fp)
  8063d4:	e1bffe15 	stw	r6,-8(fp)
  8063d8:	e03ffa15 	stw	zero,-24(fp)
  8063dc:	e0bffe17 	ldw	r2,-8(fp)
  8063e0:	1004c03a 	cmpne	r2,r2,zero
  8063e4:	1000021e 	bne	r2,zero,8063f0 <OSFlagNameGet+0x34>
  8063e8:	e03fff15 	stw	zero,-4(fp)
  8063ec:	00003e06 	br	8064e8 <OSFlagNameGet+0x12c>
  8063f0:	e0bffc17 	ldw	r2,-16(fp)
  8063f4:	1004c03a 	cmpne	r2,r2,zero
  8063f8:	1000051e 	bne	r2,zero,806410 <OSFlagNameGet+0x54>
  8063fc:	e0fffe17 	ldw	r3,-8(fp)
  806400:	00801b84 	movi	r2,110
  806404:	18800005 	stb	r2,0(r3)
  806408:	e03fff15 	stw	zero,-4(fp)
  80640c:	00003606 	br	8064e8 <OSFlagNameGet+0x12c>
  806410:	e0bffd17 	ldw	r2,-12(fp)
  806414:	1004c03a 	cmpne	r2,r2,zero
  806418:	1000051e 	bne	r2,zero,806430 <OSFlagNameGet+0x74>
  80641c:	e0fffe17 	ldw	r3,-8(fp)
  806420:	00800304 	movi	r2,12
  806424:	18800005 	stb	r2,0(r3)
  806428:	e03fff15 	stw	zero,-4(fp)
  80642c:	00002e06 	br	8064e8 <OSFlagNameGet+0x12c>
  806430:	00802074 	movhi	r2,129
  806434:	10898d04 	addi	r2,r2,9780
  806438:	10800003 	ldbu	r2,0(r2)
  80643c:	10803fcc 	andi	r2,r2,255
  806440:	1005003a 	cmpeq	r2,r2,zero
  806444:	1000051e 	bne	r2,zero,80645c <OSFlagNameGet+0xa0>
  806448:	e0fffe17 	ldw	r3,-8(fp)
  80644c:	00800444 	movi	r2,17
  806450:	18800005 	stb	r2,0(r3)
  806454:	e03fff15 	stw	zero,-4(fp)
  806458:	00002306 	br	8064e8 <OSFlagNameGet+0x12c>
  80645c:	0005303a 	rdctl	r2,status
  806460:	e0bff915 	stw	r2,-28(fp)
  806464:	e0fff917 	ldw	r3,-28(fp)
  806468:	00bfff84 	movi	r2,-2
  80646c:	1884703a 	and	r2,r3,r2
  806470:	1001703a 	wrctl	status,r2
  806474:	e0bff917 	ldw	r2,-28(fp)
  806478:	e0bffa15 	stw	r2,-24(fp)
  80647c:	e0bffc17 	ldw	r2,-16(fp)
  806480:	10800003 	ldbu	r2,0(r2)
  806484:	10803fcc 	andi	r2,r2,255
  806488:	10800160 	cmpeqi	r2,r2,5
  80648c:	1000091e 	bne	r2,zero,8064b4 <OSFlagNameGet+0xf8>
  806490:	e0bffa17 	ldw	r2,-24(fp)
  806494:	e0bff815 	stw	r2,-32(fp)
  806498:	e0bff817 	ldw	r2,-32(fp)
  80649c:	1001703a 	wrctl	status,r2
  8064a0:	e0fffe17 	ldw	r3,-8(fp)
  8064a4:	00800044 	movi	r2,1
  8064a8:	18800005 	stb	r2,0(r3)
  8064ac:	e03fff15 	stw	zero,-4(fp)
  8064b0:	00000d06 	br	8064e8 <OSFlagNameGet+0x12c>
  8064b4:	e0bffc17 	ldw	r2,-16(fp)
  8064b8:	11400284 	addi	r5,r2,10
  8064bc:	e13ffd17 	ldw	r4,-12(fp)
  8064c0:	08055740 	call	805574 <OS_StrCopy>
  8064c4:	e0bffb05 	stb	r2,-20(fp)
  8064c8:	e0bffa17 	ldw	r2,-24(fp)
  8064cc:	e0bff715 	stw	r2,-36(fp)
  8064d0:	e0bff717 	ldw	r2,-36(fp)
  8064d4:	1001703a 	wrctl	status,r2
  8064d8:	e0bffe17 	ldw	r2,-8(fp)
  8064dc:	10000005 	stb	zero,0(r2)
  8064e0:	e0bffb03 	ldbu	r2,-20(fp)
  8064e4:	e0bfff15 	stw	r2,-4(fp)
  8064e8:	e0bfff17 	ldw	r2,-4(fp)
  8064ec:	e037883a 	mov	sp,fp
  8064f0:	dfc00117 	ldw	ra,4(sp)
  8064f4:	df000017 	ldw	fp,0(sp)
  8064f8:	dec00204 	addi	sp,sp,8
  8064fc:	f800283a 	ret

00806500 <OSFlagNameSet>:
  806500:	defff504 	addi	sp,sp,-44
  806504:	dfc00a15 	stw	ra,40(sp)
  806508:	df000915 	stw	fp,36(sp)
  80650c:	df000904 	addi	fp,sp,36
  806510:	e13ffd15 	stw	r4,-12(fp)
  806514:	e17ffe15 	stw	r5,-8(fp)
  806518:	e1bfff15 	stw	r6,-4(fp)
  80651c:	e03ffb15 	stw	zero,-20(fp)
  806520:	e0bfff17 	ldw	r2,-4(fp)
  806524:	1005003a 	cmpeq	r2,r2,zero
  806528:	1000451e 	bne	r2,zero,806640 <OSFlagNameSet+0x140>
  80652c:	e0bffd17 	ldw	r2,-12(fp)
  806530:	1004c03a 	cmpne	r2,r2,zero
  806534:	1000041e 	bne	r2,zero,806548 <OSFlagNameSet+0x48>
  806538:	e0ffff17 	ldw	r3,-4(fp)
  80653c:	00801b84 	movi	r2,110
  806540:	18800005 	stb	r2,0(r3)
  806544:	00003e06 	br	806640 <OSFlagNameSet+0x140>
  806548:	e0bffe17 	ldw	r2,-8(fp)
  80654c:	1004c03a 	cmpne	r2,r2,zero
  806550:	1000041e 	bne	r2,zero,806564 <OSFlagNameSet+0x64>
  806554:	e0ffff17 	ldw	r3,-4(fp)
  806558:	00800304 	movi	r2,12
  80655c:	18800005 	stb	r2,0(r3)
  806560:	00003706 	br	806640 <OSFlagNameSet+0x140>
  806564:	00802074 	movhi	r2,129
  806568:	10898d04 	addi	r2,r2,9780
  80656c:	10800003 	ldbu	r2,0(r2)
  806570:	10803fcc 	andi	r2,r2,255
  806574:	1005003a 	cmpeq	r2,r2,zero
  806578:	1000041e 	bne	r2,zero,80658c <OSFlagNameSet+0x8c>
  80657c:	e0ffff17 	ldw	r3,-4(fp)
  806580:	00800484 	movi	r2,18
  806584:	18800005 	stb	r2,0(r3)
  806588:	00002d06 	br	806640 <OSFlagNameSet+0x140>
  80658c:	0005303a 	rdctl	r2,status
  806590:	e0bffa15 	stw	r2,-24(fp)
  806594:	e0fffa17 	ldw	r3,-24(fp)
  806598:	00bfff84 	movi	r2,-2
  80659c:	1884703a 	and	r2,r3,r2
  8065a0:	1001703a 	wrctl	status,r2
  8065a4:	e0bffa17 	ldw	r2,-24(fp)
  8065a8:	e0bffb15 	stw	r2,-20(fp)
  8065ac:	e0bffd17 	ldw	r2,-12(fp)
  8065b0:	10800003 	ldbu	r2,0(r2)
  8065b4:	10803fcc 	andi	r2,r2,255
  8065b8:	10800160 	cmpeqi	r2,r2,5
  8065bc:	1000081e 	bne	r2,zero,8065e0 <OSFlagNameSet+0xe0>
  8065c0:	e0bffb17 	ldw	r2,-20(fp)
  8065c4:	e0bff915 	stw	r2,-28(fp)
  8065c8:	e0bff917 	ldw	r2,-28(fp)
  8065cc:	1001703a 	wrctl	status,r2
  8065d0:	e0ffff17 	ldw	r3,-4(fp)
  8065d4:	00800044 	movi	r2,1
  8065d8:	18800005 	stb	r2,0(r3)
  8065dc:	00001806 	br	806640 <OSFlagNameSet+0x140>
  8065e0:	e13ffe17 	ldw	r4,-8(fp)
  8065e4:	08055f40 	call	8055f4 <OS_StrLen>
  8065e8:	e0bffc05 	stb	r2,-16(fp)
  8065ec:	e0bffc03 	ldbu	r2,-16(fp)
  8065f0:	10800830 	cmpltui	r2,r2,32
  8065f4:	1000081e 	bne	r2,zero,806618 <OSFlagNameSet+0x118>
  8065f8:	e0bffb17 	ldw	r2,-20(fp)
  8065fc:	e0bff815 	stw	r2,-32(fp)
  806600:	e0bff817 	ldw	r2,-32(fp)
  806604:	1001703a 	wrctl	status,r2
  806608:	e0ffff17 	ldw	r3,-4(fp)
  80660c:	00801cc4 	movi	r2,115
  806610:	18800005 	stb	r2,0(r3)
  806614:	00000a06 	br	806640 <OSFlagNameSet+0x140>
  806618:	e0bffd17 	ldw	r2,-12(fp)
  80661c:	11000284 	addi	r4,r2,10
  806620:	e17ffe17 	ldw	r5,-8(fp)
  806624:	08055740 	call	805574 <OS_StrCopy>
  806628:	e0bffb17 	ldw	r2,-20(fp)
  80662c:	e0bff715 	stw	r2,-36(fp)
  806630:	e0bff717 	ldw	r2,-36(fp)
  806634:	1001703a 	wrctl	status,r2
  806638:	e0bfff17 	ldw	r2,-4(fp)
  80663c:	10000005 	stb	zero,0(r2)
  806640:	e037883a 	mov	sp,fp
  806644:	dfc00117 	ldw	ra,4(sp)
  806648:	df000017 	ldw	fp,0(sp)
  80664c:	dec00204 	addi	sp,sp,8
  806650:	f800283a 	ret

00806654 <OSFlagPend>:
  806654:	deffe004 	addi	sp,sp,-128
  806658:	dfc01f15 	stw	ra,124(sp)
  80665c:	df001e15 	stw	fp,120(sp)
  806660:	df001e04 	addi	fp,sp,120
  806664:	e13ff915 	stw	r4,-28(fp)
  806668:	e17ffa0d 	sth	r5,-24(fp)
  80666c:	e1bffb05 	stb	r6,-20(fp)
  806670:	e1fffc0d 	sth	r7,-16(fp)
  806674:	e03ff115 	stw	zero,-60(fp)
  806678:	e0800217 	ldw	r2,8(fp)
  80667c:	1004c03a 	cmpne	r2,r2,zero
  806680:	1000021e 	bne	r2,zero,80668c <OSFlagPend+0x38>
  806684:	e03fff15 	stw	zero,-4(fp)
  806688:	00017d06 	br	806c80 <OSFlagPend+0x62c>
  80668c:	e0bff917 	ldw	r2,-28(fp)
  806690:	1004c03a 	cmpne	r2,r2,zero
  806694:	1000051e 	bne	r2,zero,8066ac <OSFlagPend+0x58>
  806698:	e0c00217 	ldw	r3,8(fp)
  80669c:	00801b84 	movi	r2,110
  8066a0:	18800005 	stb	r2,0(r3)
  8066a4:	e03fff15 	stw	zero,-4(fp)
  8066a8:	00017506 	br	806c80 <OSFlagPend+0x62c>
  8066ac:	00802074 	movhi	r2,129
  8066b0:	10898d04 	addi	r2,r2,9780
  8066b4:	10800003 	ldbu	r2,0(r2)
  8066b8:	10803fcc 	andi	r2,r2,255
  8066bc:	1005003a 	cmpeq	r2,r2,zero
  8066c0:	1000051e 	bne	r2,zero,8066d8 <OSFlagPend+0x84>
  8066c4:	e0c00217 	ldw	r3,8(fp)
  8066c8:	00800084 	movi	r2,2
  8066cc:	18800005 	stb	r2,0(r3)
  8066d0:	e03fff15 	stw	zero,-4(fp)
  8066d4:	00016a06 	br	806c80 <OSFlagPend+0x62c>
  8066d8:	00802074 	movhi	r2,129
  8066dc:	10897f04 	addi	r2,r2,9724
  8066e0:	10800003 	ldbu	r2,0(r2)
  8066e4:	10803fcc 	andi	r2,r2,255
  8066e8:	1005003a 	cmpeq	r2,r2,zero
  8066ec:	1000051e 	bne	r2,zero,806704 <OSFlagPend+0xb0>
  8066f0:	e0c00217 	ldw	r3,8(fp)
  8066f4:	00800344 	movi	r2,13
  8066f8:	18800005 	stb	r2,0(r3)
  8066fc:	e03fff15 	stw	zero,-4(fp)
  806700:	00015f06 	br	806c80 <OSFlagPend+0x62c>
  806704:	e0bff917 	ldw	r2,-28(fp)
  806708:	10800003 	ldbu	r2,0(r2)
  80670c:	10803fcc 	andi	r2,r2,255
  806710:	10800160 	cmpeqi	r2,r2,5
  806714:	1000051e 	bne	r2,zero,80672c <OSFlagPend+0xd8>
  806718:	e0c00217 	ldw	r3,8(fp)
  80671c:	00800044 	movi	r2,1
  806720:	18800005 	stb	r2,0(r3)
  806724:	e03fff15 	stw	zero,-4(fp)
  806728:	00015506 	br	806c80 <OSFlagPend+0x62c>
  80672c:	e0fffb03 	ldbu	r3,-20(fp)
  806730:	00bfe004 	movi	r2,-128
  806734:	1884703a 	and	r2,r3,r2
  806738:	e0bff285 	stb	r2,-54(fp)
  80673c:	e0bff283 	ldbu	r2,-54(fp)
  806740:	1005003a 	cmpeq	r2,r2,zero
  806744:	1000071e 	bne	r2,zero,806764 <OSFlagPend+0x110>
  806748:	00c01fc4 	movi	r3,127
  80674c:	e0bffb03 	ldbu	r2,-20(fp)
  806750:	10c4703a 	and	r2,r2,r3
  806754:	e0bffb05 	stb	r2,-20(fp)
  806758:	00800044 	movi	r2,1
  80675c:	e0bff205 	stb	r2,-56(fp)
  806760:	00000106 	br	806768 <OSFlagPend+0x114>
  806764:	e03ff205 	stb	zero,-56(fp)
  806768:	0005303a 	rdctl	r2,status
  80676c:	e0bff015 	stw	r2,-64(fp)
  806770:	e0fff017 	ldw	r3,-64(fp)
  806774:	00bfff84 	movi	r2,-2
  806778:	1884703a 	and	r2,r3,r2
  80677c:	1001703a 	wrctl	status,r2
  806780:	e0bff017 	ldw	r2,-64(fp)
  806784:	e0bff115 	stw	r2,-60(fp)
  806788:	e0bffb03 	ldbu	r2,-20(fp)
  80678c:	e0bffe15 	stw	r2,-8(fp)
  806790:	e0fffe17 	ldw	r3,-8(fp)
  806794:	18800060 	cmpeqi	r2,r3,1
  806798:	1000981e 	bne	r2,zero,8069fc <OSFlagPend+0x3a8>
  80679c:	e0fffe17 	ldw	r3,-8(fp)
  8067a0:	18800088 	cmpgei	r2,r3,2
  8067a4:	1000041e 	bne	r2,zero,8067b8 <OSFlagPend+0x164>
  8067a8:	e0fffe17 	ldw	r3,-8(fp)
  8067ac:	1805003a 	cmpeq	r2,r3,zero
  8067b0:	1000641e 	bne	r2,zero,806944 <OSFlagPend+0x2f0>
  8067b4:	0000bf06 	br	806ab4 <OSFlagPend+0x460>
  8067b8:	e0fffe17 	ldw	r3,-8(fp)
  8067bc:	188000a0 	cmpeqi	r2,r3,2
  8067c0:	1000041e 	bne	r2,zero,8067d4 <OSFlagPend+0x180>
  8067c4:	e0fffe17 	ldw	r3,-8(fp)
  8067c8:	188000e0 	cmpeqi	r2,r3,3
  8067cc:	10002f1e 	bne	r2,zero,80688c <OSFlagPend+0x238>
  8067d0:	0000b806 	br	806ab4 <OSFlagPend+0x460>
  8067d4:	e0bff917 	ldw	r2,-28(fp)
  8067d8:	10c0020b 	ldhu	r3,8(r2)
  8067dc:	e0bffa0b 	ldhu	r2,-24(fp)
  8067e0:	1884703a 	and	r2,r3,r2
  8067e4:	e0bff30d 	sth	r2,-52(fp)
  8067e8:	e0fff30b 	ldhu	r3,-52(fp)
  8067ec:	e0bffa0b 	ldhu	r2,-24(fp)
  8067f0:	18801a1e 	bne	r3,r2,80685c <OSFlagPend+0x208>
  8067f4:	e0bff203 	ldbu	r2,-56(fp)
  8067f8:	10800058 	cmpnei	r2,r2,1
  8067fc:	1000091e 	bne	r2,zero,806824 <OSFlagPend+0x1d0>
  806800:	e0bff917 	ldw	r2,-28(fp)
  806804:	1080020b 	ldhu	r2,8(r2)
  806808:	1007883a 	mov	r3,r2
  80680c:	e0bff30b 	ldhu	r2,-52(fp)
  806810:	0084303a 	nor	r2,zero,r2
  806814:	1884703a 	and	r2,r3,r2
  806818:	1007883a 	mov	r3,r2
  80681c:	e0bff917 	ldw	r2,-28(fp)
  806820:	10c0020d 	sth	r3,8(r2)
  806824:	00802074 	movhi	r2,129
  806828:	10898e04 	addi	r2,r2,9784
  80682c:	10c00017 	ldw	r3,0(r2)
  806830:	e0bff30b 	ldhu	r2,-52(fp)
  806834:	18800b0d 	sth	r2,44(r3)
  806838:	e0bff117 	ldw	r2,-60(fp)
  80683c:	e0bfef15 	stw	r2,-68(fp)
  806840:	e0bfef17 	ldw	r2,-68(fp)
  806844:	1001703a 	wrctl	status,r2
  806848:	e0800217 	ldw	r2,8(fp)
  80684c:	10000005 	stb	zero,0(r2)
  806850:	e0bff30b 	ldhu	r2,-52(fp)
  806854:	e0bfff15 	stw	r2,-4(fp)
  806858:	00010906 	br	806c80 <OSFlagPend+0x62c>
  80685c:	e1bffa0b 	ldhu	r6,-24(fp)
  806860:	e1fffb03 	ldbu	r7,-20(fp)
  806864:	e0bffc0b 	ldhu	r2,-16(fp)
  806868:	e17ff404 	addi	r5,fp,-48
  80686c:	d8800015 	stw	r2,0(sp)
  806870:	e13ff917 	ldw	r4,-28(fp)
  806874:	080717c0 	call	80717c <OS_FlagBlock>
  806878:	e0bff117 	ldw	r2,-60(fp)
  80687c:	e0bfee15 	stw	r2,-72(fp)
  806880:	e0bfee17 	ldw	r2,-72(fp)
  806884:	1001703a 	wrctl	status,r2
  806888:	00009506 	br	806ae0 <OSFlagPend+0x48c>
  80688c:	e0bff917 	ldw	r2,-28(fp)
  806890:	10c0020b 	ldhu	r3,8(r2)
  806894:	e0bffa0b 	ldhu	r2,-24(fp)
  806898:	1884703a 	and	r2,r3,r2
  80689c:	e0bff30d 	sth	r2,-52(fp)
  8068a0:	e0bff30b 	ldhu	r2,-52(fp)
  8068a4:	1005003a 	cmpeq	r2,r2,zero
  8068a8:	10001a1e 	bne	r2,zero,806914 <OSFlagPend+0x2c0>
  8068ac:	e0bff203 	ldbu	r2,-56(fp)
  8068b0:	10800058 	cmpnei	r2,r2,1
  8068b4:	1000091e 	bne	r2,zero,8068dc <OSFlagPend+0x288>
  8068b8:	e0bff917 	ldw	r2,-28(fp)
  8068bc:	1080020b 	ldhu	r2,8(r2)
  8068c0:	1007883a 	mov	r3,r2
  8068c4:	e0bff30b 	ldhu	r2,-52(fp)
  8068c8:	0084303a 	nor	r2,zero,r2
  8068cc:	1884703a 	and	r2,r3,r2
  8068d0:	1007883a 	mov	r3,r2
  8068d4:	e0bff917 	ldw	r2,-28(fp)
  8068d8:	10c0020d 	sth	r3,8(r2)
  8068dc:	00802074 	movhi	r2,129
  8068e0:	10898e04 	addi	r2,r2,9784
  8068e4:	10c00017 	ldw	r3,0(r2)
  8068e8:	e0bff30b 	ldhu	r2,-52(fp)
  8068ec:	18800b0d 	sth	r2,44(r3)
  8068f0:	e0bff117 	ldw	r2,-60(fp)
  8068f4:	e0bfed15 	stw	r2,-76(fp)
  8068f8:	e0bfed17 	ldw	r2,-76(fp)
  8068fc:	1001703a 	wrctl	status,r2
  806900:	e0800217 	ldw	r2,8(fp)
  806904:	10000005 	stb	zero,0(r2)
  806908:	e0fff30b 	ldhu	r3,-52(fp)
  80690c:	e0ffff15 	stw	r3,-4(fp)
  806910:	0000db06 	br	806c80 <OSFlagPend+0x62c>
  806914:	e1bffa0b 	ldhu	r6,-24(fp)
  806918:	e1fffb03 	ldbu	r7,-20(fp)
  80691c:	e0bffc0b 	ldhu	r2,-16(fp)
  806920:	e17ff404 	addi	r5,fp,-48
  806924:	d8800015 	stw	r2,0(sp)
  806928:	e13ff917 	ldw	r4,-28(fp)
  80692c:	080717c0 	call	80717c <OS_FlagBlock>
  806930:	e0bff117 	ldw	r2,-60(fp)
  806934:	e0bfec15 	stw	r2,-80(fp)
  806938:	e0bfec17 	ldw	r2,-80(fp)
  80693c:	1001703a 	wrctl	status,r2
  806940:	00006706 	br	806ae0 <OSFlagPend+0x48c>
  806944:	e0bff917 	ldw	r2,-28(fp)
  806948:	1080020b 	ldhu	r2,8(r2)
  80694c:	0084303a 	nor	r2,zero,r2
  806950:	1007883a 	mov	r3,r2
  806954:	e0bffa0b 	ldhu	r2,-24(fp)
  806958:	1884703a 	and	r2,r3,r2
  80695c:	e0bff30d 	sth	r2,-52(fp)
  806960:	e0fff30b 	ldhu	r3,-52(fp)
  806964:	e0bffa0b 	ldhu	r2,-24(fp)
  806968:	1880181e 	bne	r3,r2,8069cc <OSFlagPend+0x378>
  80696c:	e0bff203 	ldbu	r2,-56(fp)
  806970:	10800058 	cmpnei	r2,r2,1
  806974:	1000071e 	bne	r2,zero,806994 <OSFlagPend+0x340>
  806978:	e0bff917 	ldw	r2,-28(fp)
  80697c:	10c0020b 	ldhu	r3,8(r2)
  806980:	e0bff30b 	ldhu	r2,-52(fp)
  806984:	1884b03a 	or	r2,r3,r2
  806988:	1007883a 	mov	r3,r2
  80698c:	e0bff917 	ldw	r2,-28(fp)
  806990:	10c0020d 	sth	r3,8(r2)
  806994:	00802074 	movhi	r2,129
  806998:	10898e04 	addi	r2,r2,9784
  80699c:	10c00017 	ldw	r3,0(r2)
  8069a0:	e0bff30b 	ldhu	r2,-52(fp)
  8069a4:	18800b0d 	sth	r2,44(r3)
  8069a8:	e0bff117 	ldw	r2,-60(fp)
  8069ac:	e0bfeb15 	stw	r2,-84(fp)
  8069b0:	e0bfeb17 	ldw	r2,-84(fp)
  8069b4:	1001703a 	wrctl	status,r2
  8069b8:	e0800217 	ldw	r2,8(fp)
  8069bc:	10000005 	stb	zero,0(r2)
  8069c0:	e0bff30b 	ldhu	r2,-52(fp)
  8069c4:	e0bfff15 	stw	r2,-4(fp)
  8069c8:	0000ad06 	br	806c80 <OSFlagPend+0x62c>
  8069cc:	e1bffa0b 	ldhu	r6,-24(fp)
  8069d0:	e1fffb03 	ldbu	r7,-20(fp)
  8069d4:	e0bffc0b 	ldhu	r2,-16(fp)
  8069d8:	e17ff404 	addi	r5,fp,-48
  8069dc:	d8800015 	stw	r2,0(sp)
  8069e0:	e13ff917 	ldw	r4,-28(fp)
  8069e4:	080717c0 	call	80717c <OS_FlagBlock>
  8069e8:	e0bff117 	ldw	r2,-60(fp)
  8069ec:	e0bfea15 	stw	r2,-88(fp)
  8069f0:	e0bfea17 	ldw	r2,-88(fp)
  8069f4:	1001703a 	wrctl	status,r2
  8069f8:	00003906 	br	806ae0 <OSFlagPend+0x48c>
  8069fc:	e0bff917 	ldw	r2,-28(fp)
  806a00:	1080020b 	ldhu	r2,8(r2)
  806a04:	0084303a 	nor	r2,zero,r2
  806a08:	1007883a 	mov	r3,r2
  806a0c:	e0bffa0b 	ldhu	r2,-24(fp)
  806a10:	1884703a 	and	r2,r3,r2
  806a14:	e0bff30d 	sth	r2,-52(fp)
  806a18:	e0bff30b 	ldhu	r2,-52(fp)
  806a1c:	1005003a 	cmpeq	r2,r2,zero
  806a20:	1000181e 	bne	r2,zero,806a84 <OSFlagPend+0x430>
  806a24:	e0bff203 	ldbu	r2,-56(fp)
  806a28:	10800058 	cmpnei	r2,r2,1
  806a2c:	1000071e 	bne	r2,zero,806a4c <OSFlagPend+0x3f8>
  806a30:	e0bff917 	ldw	r2,-28(fp)
  806a34:	10c0020b 	ldhu	r3,8(r2)
  806a38:	e0bff30b 	ldhu	r2,-52(fp)
  806a3c:	1884b03a 	or	r2,r3,r2
  806a40:	1007883a 	mov	r3,r2
  806a44:	e0bff917 	ldw	r2,-28(fp)
  806a48:	10c0020d 	sth	r3,8(r2)
  806a4c:	00802074 	movhi	r2,129
  806a50:	10898e04 	addi	r2,r2,9784
  806a54:	10c00017 	ldw	r3,0(r2)
  806a58:	e0bff30b 	ldhu	r2,-52(fp)
  806a5c:	18800b0d 	sth	r2,44(r3)
  806a60:	e0bff117 	ldw	r2,-60(fp)
  806a64:	e0bfe915 	stw	r2,-92(fp)
  806a68:	e0bfe917 	ldw	r2,-92(fp)
  806a6c:	1001703a 	wrctl	status,r2
  806a70:	e0800217 	ldw	r2,8(fp)
  806a74:	10000005 	stb	zero,0(r2)
  806a78:	e0fff30b 	ldhu	r3,-52(fp)
  806a7c:	e0ffff15 	stw	r3,-4(fp)
  806a80:	00007f06 	br	806c80 <OSFlagPend+0x62c>
  806a84:	e1bffa0b 	ldhu	r6,-24(fp)
  806a88:	e1fffb03 	ldbu	r7,-20(fp)
  806a8c:	e0bffc0b 	ldhu	r2,-16(fp)
  806a90:	e17ff404 	addi	r5,fp,-48
  806a94:	d8800015 	stw	r2,0(sp)
  806a98:	e13ff917 	ldw	r4,-28(fp)
  806a9c:	080717c0 	call	80717c <OS_FlagBlock>
  806aa0:	e0bff117 	ldw	r2,-60(fp)
  806aa4:	e0bfe815 	stw	r2,-96(fp)
  806aa8:	e0bfe817 	ldw	r2,-96(fp)
  806aac:	1001703a 	wrctl	status,r2
  806ab0:	00000b06 	br	806ae0 <OSFlagPend+0x48c>
  806ab4:	e0bff117 	ldw	r2,-60(fp)
  806ab8:	e0bfe715 	stw	r2,-100(fp)
  806abc:	e0bfe717 	ldw	r2,-100(fp)
  806ac0:	1001703a 	wrctl	status,r2
  806ac4:	e03ff30d 	sth	zero,-52(fp)
  806ac8:	e0c00217 	ldw	r3,8(fp)
  806acc:	00801bc4 	movi	r2,111
  806ad0:	18800005 	stb	r2,0(r3)
  806ad4:	e0bff30b 	ldhu	r2,-52(fp)
  806ad8:	e0bfff15 	stw	r2,-4(fp)
  806adc:	00006806 	br	806c80 <OSFlagPend+0x62c>
  806ae0:	08054300 	call	805430 <OS_Sched>
  806ae4:	0005303a 	rdctl	r2,status
  806ae8:	e0bfe615 	stw	r2,-104(fp)
  806aec:	e0ffe617 	ldw	r3,-104(fp)
  806af0:	00bfff84 	movi	r2,-2
  806af4:	1884703a 	and	r2,r3,r2
  806af8:	1001703a 	wrctl	status,r2
  806afc:	e0bfe617 	ldw	r2,-104(fp)
  806b00:	e0bff115 	stw	r2,-60(fp)
  806b04:	00802074 	movhi	r2,129
  806b08:	10898e04 	addi	r2,r2,9784
  806b0c:	10800017 	ldw	r2,0(r2)
  806b10:	10800c43 	ldbu	r2,49(r2)
  806b14:	10803fcc 	andi	r2,r2,255
  806b18:	1005003a 	cmpeq	r2,r2,zero
  806b1c:	1000221e 	bne	r2,zero,806ba8 <OSFlagPend+0x554>
  806b20:	00802074 	movhi	r2,129
  806b24:	10898e04 	addi	r2,r2,9784
  806b28:	10800017 	ldw	r2,0(r2)
  806b2c:	10800c43 	ldbu	r2,49(r2)
  806b30:	e0bff245 	stb	r2,-55(fp)
  806b34:	00802074 	movhi	r2,129
  806b38:	10898e04 	addi	r2,r2,9784
  806b3c:	10800017 	ldw	r2,0(r2)
  806b40:	10000c45 	stb	zero,49(r2)
  806b44:	e13ff404 	addi	r4,fp,-48
  806b48:	08075340 	call	807534 <OS_FlagUnlink>
  806b4c:	00802074 	movhi	r2,129
  806b50:	10898e04 	addi	r2,r2,9784
  806b54:	10800017 	ldw	r2,0(r2)
  806b58:	10000c05 	stb	zero,48(r2)
  806b5c:	e0bff117 	ldw	r2,-60(fp)
  806b60:	e0bfe515 	stw	r2,-108(fp)
  806b64:	e0bfe517 	ldw	r2,-108(fp)
  806b68:	1001703a 	wrctl	status,r2
  806b6c:	e03ff30d 	sth	zero,-52(fp)
  806b70:	e0bff243 	ldbu	r2,-55(fp)
  806b74:	108000a0 	cmpeqi	r2,r2,2
  806b78:	1000011e 	bne	r2,zero,806b80 <OSFlagPend+0x52c>
  806b7c:	00000406 	br	806b90 <OSFlagPend+0x53c>
  806b80:	e0c00217 	ldw	r3,8(fp)
  806b84:	00800384 	movi	r2,14
  806b88:	18800005 	stb	r2,0(r3)
  806b8c:	00000306 	br	806b9c <OSFlagPend+0x548>
  806b90:	e0c00217 	ldw	r3,8(fp)
  806b94:	00800284 	movi	r2,10
  806b98:	18800005 	stb	r2,0(r3)
  806b9c:	e0fff30b 	ldhu	r3,-52(fp)
  806ba0:	e0ffff15 	stw	r3,-4(fp)
  806ba4:	00003606 	br	806c80 <OSFlagPend+0x62c>
  806ba8:	00802074 	movhi	r2,129
  806bac:	10898e04 	addi	r2,r2,9784
  806bb0:	10800017 	ldw	r2,0(r2)
  806bb4:	10800b0b 	ldhu	r2,44(r2)
  806bb8:	e0bff30d 	sth	r2,-52(fp)
  806bbc:	e0bff203 	ldbu	r2,-56(fp)
  806bc0:	10800058 	cmpnei	r2,r2,1
  806bc4:	1000261e 	bne	r2,zero,806c60 <OSFlagPend+0x60c>
  806bc8:	e0bffb03 	ldbu	r2,-20(fp)
  806bcc:	e0bffd15 	stw	r2,-12(fp)
  806bd0:	e0fffd17 	ldw	r3,-12(fp)
  806bd4:	1804803a 	cmplt	r2,r3,zero
  806bd8:	1000181e 	bne	r2,zero,806c3c <OSFlagPend+0x5e8>
  806bdc:	e0fffd17 	ldw	r3,-12(fp)
  806be0:	18800090 	cmplti	r2,r3,2
  806be4:	10000d1e 	bne	r2,zero,806c1c <OSFlagPend+0x5c8>
  806be8:	e0fffd17 	ldw	r3,-12(fp)
  806bec:	18800108 	cmpgei	r2,r3,4
  806bf0:	1000121e 	bne	r2,zero,806c3c <OSFlagPend+0x5e8>
  806bf4:	e0bff917 	ldw	r2,-28(fp)
  806bf8:	1080020b 	ldhu	r2,8(r2)
  806bfc:	1007883a 	mov	r3,r2
  806c00:	e0bff30b 	ldhu	r2,-52(fp)
  806c04:	0084303a 	nor	r2,zero,r2
  806c08:	1884703a 	and	r2,r3,r2
  806c0c:	1007883a 	mov	r3,r2
  806c10:	e0bff917 	ldw	r2,-28(fp)
  806c14:	10c0020d 	sth	r3,8(r2)
  806c18:	00001106 	br	806c60 <OSFlagPend+0x60c>
  806c1c:	e0bff917 	ldw	r2,-28(fp)
  806c20:	10c0020b 	ldhu	r3,8(r2)
  806c24:	e0bff30b 	ldhu	r2,-52(fp)
  806c28:	1884b03a 	or	r2,r3,r2
  806c2c:	1007883a 	mov	r3,r2
  806c30:	e0bff917 	ldw	r2,-28(fp)
  806c34:	10c0020d 	sth	r3,8(r2)
  806c38:	00000906 	br	806c60 <OSFlagPend+0x60c>
  806c3c:	e0bff117 	ldw	r2,-60(fp)
  806c40:	e0bfe415 	stw	r2,-112(fp)
  806c44:	e0bfe417 	ldw	r2,-112(fp)
  806c48:	1001703a 	wrctl	status,r2
  806c4c:	e0c00217 	ldw	r3,8(fp)
  806c50:	00801bc4 	movi	r2,111
  806c54:	18800005 	stb	r2,0(r3)
  806c58:	e03fff15 	stw	zero,-4(fp)
  806c5c:	00000806 	br	806c80 <OSFlagPend+0x62c>
  806c60:	e0bff117 	ldw	r2,-60(fp)
  806c64:	e0bfe315 	stw	r2,-116(fp)
  806c68:	e0bfe317 	ldw	r2,-116(fp)
  806c6c:	1001703a 	wrctl	status,r2
  806c70:	e0800217 	ldw	r2,8(fp)
  806c74:	10000005 	stb	zero,0(r2)
  806c78:	e0bff30b 	ldhu	r2,-52(fp)
  806c7c:	e0bfff15 	stw	r2,-4(fp)
  806c80:	e0bfff17 	ldw	r2,-4(fp)
  806c84:	e037883a 	mov	sp,fp
  806c88:	dfc00117 	ldw	ra,4(sp)
  806c8c:	df000017 	ldw	fp,0(sp)
  806c90:	dec00204 	addi	sp,sp,8
  806c94:	f800283a 	ret

00806c98 <OSFlagPendGetFlagsRdy>:
  806c98:	defffb04 	addi	sp,sp,-20
  806c9c:	df000415 	stw	fp,16(sp)
  806ca0:	df000404 	addi	fp,sp,16
  806ca4:	e03ffe15 	stw	zero,-8(fp)
  806ca8:	0005303a 	rdctl	r2,status
  806cac:	e0bffd15 	stw	r2,-12(fp)
  806cb0:	e0fffd17 	ldw	r3,-12(fp)
  806cb4:	00bfff84 	movi	r2,-2
  806cb8:	1884703a 	and	r2,r3,r2
  806cbc:	1001703a 	wrctl	status,r2
  806cc0:	e0bffd17 	ldw	r2,-12(fp)
  806cc4:	e0bffe15 	stw	r2,-8(fp)
  806cc8:	00802074 	movhi	r2,129
  806ccc:	10898e04 	addi	r2,r2,9784
  806cd0:	10800017 	ldw	r2,0(r2)
  806cd4:	10800b0b 	ldhu	r2,44(r2)
  806cd8:	e0bfff0d 	sth	r2,-4(fp)
  806cdc:	e0bffe17 	ldw	r2,-8(fp)
  806ce0:	e0bffc15 	stw	r2,-16(fp)
  806ce4:	e0bffc17 	ldw	r2,-16(fp)
  806ce8:	1001703a 	wrctl	status,r2
  806cec:	e0bfff0b 	ldhu	r2,-4(fp)
  806cf0:	e037883a 	mov	sp,fp
  806cf4:	df000017 	ldw	fp,0(sp)
  806cf8:	dec00104 	addi	sp,sp,4
  806cfc:	f800283a 	ret

00806d00 <OSFlagPost>:
  806d00:	deffed04 	addi	sp,sp,-76
  806d04:	dfc01215 	stw	ra,72(sp)
  806d08:	df001115 	stw	fp,68(sp)
  806d0c:	df001104 	addi	fp,sp,68
  806d10:	e13ff915 	stw	r4,-28(fp)
  806d14:	e1fffc15 	stw	r7,-16(fp)
  806d18:	e17ffa0d 	sth	r5,-24(fp)
  806d1c:	e1bffb05 	stb	r6,-20(fp)
  806d20:	e03ff515 	stw	zero,-44(fp)
  806d24:	e0bffc17 	ldw	r2,-16(fp)
  806d28:	1004c03a 	cmpne	r2,r2,zero
  806d2c:	1000021e 	bne	r2,zero,806d38 <OSFlagPost+0x38>
  806d30:	e03fff15 	stw	zero,-4(fp)
  806d34:	0000d606 	br	807090 <OSFlagPost+0x390>
  806d38:	e0bff917 	ldw	r2,-28(fp)
  806d3c:	1004c03a 	cmpne	r2,r2,zero
  806d40:	1000051e 	bne	r2,zero,806d58 <OSFlagPost+0x58>
  806d44:	e0fffc17 	ldw	r3,-16(fp)
  806d48:	00801b84 	movi	r2,110
  806d4c:	18800005 	stb	r2,0(r3)
  806d50:	e03fff15 	stw	zero,-4(fp)
  806d54:	0000ce06 	br	807090 <OSFlagPost+0x390>
  806d58:	e0bff917 	ldw	r2,-28(fp)
  806d5c:	10800003 	ldbu	r2,0(r2)
  806d60:	10803fcc 	andi	r2,r2,255
  806d64:	10800160 	cmpeqi	r2,r2,5
  806d68:	1000051e 	bne	r2,zero,806d80 <OSFlagPost+0x80>
  806d6c:	e0fffc17 	ldw	r3,-16(fp)
  806d70:	00800044 	movi	r2,1
  806d74:	18800005 	stb	r2,0(r3)
  806d78:	e03fff15 	stw	zero,-4(fp)
  806d7c:	0000c406 	br	807090 <OSFlagPost+0x390>
  806d80:	0005303a 	rdctl	r2,status
  806d84:	e0bff415 	stw	r2,-48(fp)
  806d88:	e0fff417 	ldw	r3,-48(fp)
  806d8c:	00bfff84 	movi	r2,-2
  806d90:	1884703a 	and	r2,r3,r2
  806d94:	1001703a 	wrctl	status,r2
  806d98:	e0bff417 	ldw	r2,-48(fp)
  806d9c:	e0bff515 	stw	r2,-44(fp)
  806da0:	e0bffb03 	ldbu	r2,-20(fp)
  806da4:	e0bffe15 	stw	r2,-8(fp)
  806da8:	e0fffe17 	ldw	r3,-8(fp)
  806dac:	1805003a 	cmpeq	r2,r3,zero
  806db0:	1000041e 	bne	r2,zero,806dc4 <OSFlagPost+0xc4>
  806db4:	e0fffe17 	ldw	r3,-8(fp)
  806db8:	18800060 	cmpeqi	r2,r3,1
  806dbc:	10000b1e 	bne	r2,zero,806dec <OSFlagPost+0xec>
  806dc0:	00001206 	br	806e0c <OSFlagPost+0x10c>
  806dc4:	e0bff917 	ldw	r2,-28(fp)
  806dc8:	1080020b 	ldhu	r2,8(r2)
  806dcc:	1007883a 	mov	r3,r2
  806dd0:	e0bffa0b 	ldhu	r2,-24(fp)
  806dd4:	0084303a 	nor	r2,zero,r2
  806dd8:	1884703a 	and	r2,r3,r2
  806ddc:	1007883a 	mov	r3,r2
  806de0:	e0bff917 	ldw	r2,-28(fp)
  806de4:	10c0020d 	sth	r3,8(r2)
  806de8:	00001106 	br	806e30 <OSFlagPost+0x130>
  806dec:	e0bff917 	ldw	r2,-28(fp)
  806df0:	10c0020b 	ldhu	r3,8(r2)
  806df4:	e0bffa0b 	ldhu	r2,-24(fp)
  806df8:	1884b03a 	or	r2,r3,r2
  806dfc:	1007883a 	mov	r3,r2
  806e00:	e0bff917 	ldw	r2,-28(fp)
  806e04:	10c0020d 	sth	r3,8(r2)
  806e08:	00000906 	br	806e30 <OSFlagPost+0x130>
  806e0c:	e0bff517 	ldw	r2,-44(fp)
  806e10:	e0bff315 	stw	r2,-52(fp)
  806e14:	e0bff317 	ldw	r2,-52(fp)
  806e18:	1001703a 	wrctl	status,r2
  806e1c:	e0fffc17 	ldw	r3,-16(fp)
  806e20:	00801c44 	movi	r2,113
  806e24:	18800005 	stb	r2,0(r3)
  806e28:	e03fff15 	stw	zero,-4(fp)
  806e2c:	00009806 	br	807090 <OSFlagPost+0x390>
  806e30:	e03ff785 	stb	zero,-34(fp)
  806e34:	e0bff917 	ldw	r2,-28(fp)
  806e38:	10800117 	ldw	r2,4(r2)
  806e3c:	e0bff815 	stw	r2,-32(fp)
  806e40:	00007506 	br	807018 <OSFlagPost+0x318>
  806e44:	e0bff817 	ldw	r2,-32(fp)
  806e48:	10800483 	ldbu	r2,18(r2)
  806e4c:	10803fcc 	andi	r2,r2,255
  806e50:	e0bffd15 	stw	r2,-12(fp)
  806e54:	e0fffd17 	ldw	r3,-12(fp)
  806e58:	18800060 	cmpeqi	r2,r3,1
  806e5c:	10004d1e 	bne	r2,zero,806f94 <OSFlagPost+0x294>
  806e60:	e0fffd17 	ldw	r3,-12(fp)
  806e64:	18800088 	cmpgei	r2,r3,2
  806e68:	1000041e 	bne	r2,zero,806e7c <OSFlagPost+0x17c>
  806e6c:	e0fffd17 	ldw	r3,-12(fp)
  806e70:	1805003a 	cmpeq	r2,r3,zero
  806e74:	1000301e 	bne	r2,zero,806f38 <OSFlagPost+0x238>
  806e78:	00005b06 	br	806fe8 <OSFlagPost+0x2e8>
  806e7c:	e0fffd17 	ldw	r3,-12(fp)
  806e80:	188000a0 	cmpeqi	r2,r3,2
  806e84:	1000041e 	bne	r2,zero,806e98 <OSFlagPost+0x198>
  806e88:	e0fffd17 	ldw	r3,-12(fp)
  806e8c:	188000e0 	cmpeqi	r2,r3,3
  806e90:	1000161e 	bne	r2,zero,806eec <OSFlagPost+0x1ec>
  806e94:	00005406 	br	806fe8 <OSFlagPost+0x2e8>
  806e98:	e0bff917 	ldw	r2,-28(fp)
  806e9c:	10c0020b 	ldhu	r3,8(r2)
  806ea0:	e0bff817 	ldw	r2,-32(fp)
  806ea4:	1080040b 	ldhu	r2,16(r2)
  806ea8:	1884703a 	and	r2,r3,r2
  806eac:	e0bff68d 	sth	r2,-38(fp)
  806eb0:	e0bff817 	ldw	r2,-32(fp)
  806eb4:	1080040b 	ldhu	r2,16(r2)
  806eb8:	10ffffcc 	andi	r3,r2,65535
  806ebc:	e0bff68b 	ldhu	r2,-38(fp)
  806ec0:	1880521e 	bne	r3,r2,80700c <OSFlagPost+0x30c>
  806ec4:	e17ff68b 	ldhu	r5,-38(fp)
  806ec8:	e13ff817 	ldw	r4,-32(fp)
  806ecc:	08074240 	call	807424 <OS_FlagTaskRdy>
  806ed0:	e0bff605 	stb	r2,-40(fp)
  806ed4:	e0bff603 	ldbu	r2,-40(fp)
  806ed8:	10800058 	cmpnei	r2,r2,1
  806edc:	10004b1e 	bne	r2,zero,80700c <OSFlagPost+0x30c>
  806ee0:	00800044 	movi	r2,1
  806ee4:	e0bff785 	stb	r2,-34(fp)
  806ee8:	00004806 	br	80700c <OSFlagPost+0x30c>
  806eec:	e0bff917 	ldw	r2,-28(fp)
  806ef0:	10c0020b 	ldhu	r3,8(r2)
  806ef4:	e0bff817 	ldw	r2,-32(fp)
  806ef8:	1080040b 	ldhu	r2,16(r2)
  806efc:	1884703a 	and	r2,r3,r2
  806f00:	e0bff68d 	sth	r2,-38(fp)
  806f04:	e0bff68b 	ldhu	r2,-38(fp)
  806f08:	1005003a 	cmpeq	r2,r2,zero
  806f0c:	10003f1e 	bne	r2,zero,80700c <OSFlagPost+0x30c>
  806f10:	e17ff68b 	ldhu	r5,-38(fp)
  806f14:	e13ff817 	ldw	r4,-32(fp)
  806f18:	08074240 	call	807424 <OS_FlagTaskRdy>
  806f1c:	e0bff605 	stb	r2,-40(fp)
  806f20:	e0bff603 	ldbu	r2,-40(fp)
  806f24:	10800058 	cmpnei	r2,r2,1
  806f28:	1000381e 	bne	r2,zero,80700c <OSFlagPost+0x30c>
  806f2c:	00800044 	movi	r2,1
  806f30:	e0bff785 	stb	r2,-34(fp)
  806f34:	00003506 	br	80700c <OSFlagPost+0x30c>
  806f38:	e0bff917 	ldw	r2,-28(fp)
  806f3c:	1080020b 	ldhu	r2,8(r2)
  806f40:	0084303a 	nor	r2,zero,r2
  806f44:	1007883a 	mov	r3,r2
  806f48:	e0bff817 	ldw	r2,-32(fp)
  806f4c:	1080040b 	ldhu	r2,16(r2)
  806f50:	1884703a 	and	r2,r3,r2
  806f54:	e0bff68d 	sth	r2,-38(fp)
  806f58:	e0bff817 	ldw	r2,-32(fp)
  806f5c:	1080040b 	ldhu	r2,16(r2)
  806f60:	10ffffcc 	andi	r3,r2,65535
  806f64:	e0bff68b 	ldhu	r2,-38(fp)
  806f68:	1880281e 	bne	r3,r2,80700c <OSFlagPost+0x30c>
  806f6c:	e17ff68b 	ldhu	r5,-38(fp)
  806f70:	e13ff817 	ldw	r4,-32(fp)
  806f74:	08074240 	call	807424 <OS_FlagTaskRdy>
  806f78:	e0bff605 	stb	r2,-40(fp)
  806f7c:	e0bff603 	ldbu	r2,-40(fp)
  806f80:	10800058 	cmpnei	r2,r2,1
  806f84:	1000211e 	bne	r2,zero,80700c <OSFlagPost+0x30c>
  806f88:	00800044 	movi	r2,1
  806f8c:	e0bff785 	stb	r2,-34(fp)
  806f90:	00001e06 	br	80700c <OSFlagPost+0x30c>
  806f94:	e0bff917 	ldw	r2,-28(fp)
  806f98:	1080020b 	ldhu	r2,8(r2)
  806f9c:	0084303a 	nor	r2,zero,r2
  806fa0:	1007883a 	mov	r3,r2
  806fa4:	e0bff817 	ldw	r2,-32(fp)
  806fa8:	1080040b 	ldhu	r2,16(r2)
  806fac:	1884703a 	and	r2,r3,r2
  806fb0:	e0bff68d 	sth	r2,-38(fp)
  806fb4:	e0bff68b 	ldhu	r2,-38(fp)
  806fb8:	1005003a 	cmpeq	r2,r2,zero
  806fbc:	1000131e 	bne	r2,zero,80700c <OSFlagPost+0x30c>
  806fc0:	e17ff68b 	ldhu	r5,-38(fp)
  806fc4:	e13ff817 	ldw	r4,-32(fp)
  806fc8:	08074240 	call	807424 <OS_FlagTaskRdy>
  806fcc:	e0bff605 	stb	r2,-40(fp)
  806fd0:	e0bff603 	ldbu	r2,-40(fp)
  806fd4:	10800058 	cmpnei	r2,r2,1
  806fd8:	10000c1e 	bne	r2,zero,80700c <OSFlagPost+0x30c>
  806fdc:	00800044 	movi	r2,1
  806fe0:	e0bff785 	stb	r2,-34(fp)
  806fe4:	00000906 	br	80700c <OSFlagPost+0x30c>
  806fe8:	e0bff517 	ldw	r2,-44(fp)
  806fec:	e0bff215 	stw	r2,-56(fp)
  806ff0:	e0bff217 	ldw	r2,-56(fp)
  806ff4:	1001703a 	wrctl	status,r2
  806ff8:	e0fffc17 	ldw	r3,-16(fp)
  806ffc:	00801bc4 	movi	r2,111
  807000:	18800005 	stb	r2,0(r3)
  807004:	e03fff15 	stw	zero,-4(fp)
  807008:	00002106 	br	807090 <OSFlagPost+0x390>
  80700c:	e0bff817 	ldw	r2,-32(fp)
  807010:	10800017 	ldw	r2,0(r2)
  807014:	e0bff815 	stw	r2,-32(fp)
  807018:	e0bff817 	ldw	r2,-32(fp)
  80701c:	1004c03a 	cmpne	r2,r2,zero
  807020:	103f881e 	bne	r2,zero,806e44 <OSFlagPost+0x144>
  807024:	e0bff517 	ldw	r2,-44(fp)
  807028:	e0bff115 	stw	r2,-60(fp)
  80702c:	e0bff117 	ldw	r2,-60(fp)
  807030:	1001703a 	wrctl	status,r2
  807034:	e0bff783 	ldbu	r2,-34(fp)
  807038:	10800058 	cmpnei	r2,r2,1
  80703c:	1000011e 	bne	r2,zero,807044 <OSFlagPost+0x344>
  807040:	08054300 	call	805430 <OS_Sched>
  807044:	0005303a 	rdctl	r2,status
  807048:	e0bff015 	stw	r2,-64(fp)
  80704c:	e0fff017 	ldw	r3,-64(fp)
  807050:	00bfff84 	movi	r2,-2
  807054:	1884703a 	and	r2,r3,r2
  807058:	1001703a 	wrctl	status,r2
  80705c:	e0bff017 	ldw	r2,-64(fp)
  807060:	e0bff515 	stw	r2,-44(fp)
  807064:	e0bff917 	ldw	r2,-28(fp)
  807068:	1080020b 	ldhu	r2,8(r2)
  80706c:	e0bff70d 	sth	r2,-36(fp)
  807070:	e0bff517 	ldw	r2,-44(fp)
  807074:	e0bfef15 	stw	r2,-68(fp)
  807078:	e0bfef17 	ldw	r2,-68(fp)
  80707c:	1001703a 	wrctl	status,r2
  807080:	e0bffc17 	ldw	r2,-16(fp)
  807084:	10000005 	stb	zero,0(r2)
  807088:	e0bff70b 	ldhu	r2,-36(fp)
  80708c:	e0bfff15 	stw	r2,-4(fp)
  807090:	e0bfff17 	ldw	r2,-4(fp)
  807094:	e037883a 	mov	sp,fp
  807098:	dfc00117 	ldw	ra,4(sp)
  80709c:	df000017 	ldw	fp,0(sp)
  8070a0:	dec00204 	addi	sp,sp,8
  8070a4:	f800283a 	ret

008070a8 <OSFlagQuery>:
  8070a8:	defff804 	addi	sp,sp,-32
  8070ac:	df000715 	stw	fp,28(sp)
  8070b0:	df000704 	addi	fp,sp,28
  8070b4:	e13ffd15 	stw	r4,-12(fp)
  8070b8:	e17ffe15 	stw	r5,-8(fp)
  8070bc:	e03ffb15 	stw	zero,-20(fp)
  8070c0:	e0bffe17 	ldw	r2,-8(fp)
  8070c4:	1004c03a 	cmpne	r2,r2,zero
  8070c8:	1000021e 	bne	r2,zero,8070d4 <OSFlagQuery+0x2c>
  8070cc:	e03fff15 	stw	zero,-4(fp)
  8070d0:	00002506 	br	807168 <OSFlagQuery+0xc0>
  8070d4:	e0bffd17 	ldw	r2,-12(fp)
  8070d8:	1004c03a 	cmpne	r2,r2,zero
  8070dc:	1000051e 	bne	r2,zero,8070f4 <OSFlagQuery+0x4c>
  8070e0:	e0fffe17 	ldw	r3,-8(fp)
  8070e4:	00801b84 	movi	r2,110
  8070e8:	18800005 	stb	r2,0(r3)
  8070ec:	e03fff15 	stw	zero,-4(fp)
  8070f0:	00001d06 	br	807168 <OSFlagQuery+0xc0>
  8070f4:	e0bffd17 	ldw	r2,-12(fp)
  8070f8:	10800003 	ldbu	r2,0(r2)
  8070fc:	10803fcc 	andi	r2,r2,255
  807100:	10800160 	cmpeqi	r2,r2,5
  807104:	1000051e 	bne	r2,zero,80711c <OSFlagQuery+0x74>
  807108:	e0fffe17 	ldw	r3,-8(fp)
  80710c:	00800044 	movi	r2,1
  807110:	18800005 	stb	r2,0(r3)
  807114:	e03fff15 	stw	zero,-4(fp)
  807118:	00001306 	br	807168 <OSFlagQuery+0xc0>
  80711c:	0005303a 	rdctl	r2,status
  807120:	e0bffa15 	stw	r2,-24(fp)
  807124:	e0fffa17 	ldw	r3,-24(fp)
  807128:	00bfff84 	movi	r2,-2
  80712c:	1884703a 	and	r2,r3,r2
  807130:	1001703a 	wrctl	status,r2
  807134:	e0bffa17 	ldw	r2,-24(fp)
  807138:	e0bffb15 	stw	r2,-20(fp)
  80713c:	e0bffd17 	ldw	r2,-12(fp)
  807140:	1080020b 	ldhu	r2,8(r2)
  807144:	e0bffc0d 	sth	r2,-16(fp)
  807148:	e0bffb17 	ldw	r2,-20(fp)
  80714c:	e0bff915 	stw	r2,-28(fp)
  807150:	e0bff917 	ldw	r2,-28(fp)
  807154:	1001703a 	wrctl	status,r2
  807158:	e0bffe17 	ldw	r2,-8(fp)
  80715c:	10000005 	stb	zero,0(r2)
  807160:	e0bffc0b 	ldhu	r2,-16(fp)
  807164:	e0bfff15 	stw	r2,-4(fp)
  807168:	e0bfff17 	ldw	r2,-4(fp)
  80716c:	e037883a 	mov	sp,fp
  807170:	df000017 	ldw	fp,0(sp)
  807174:	dec00104 	addi	sp,sp,4
  807178:	f800283a 	ret

0080717c <OS_FlagBlock>:
  80717c:	defff804 	addi	sp,sp,-32
  807180:	df000715 	stw	fp,28(sp)
  807184:	df000704 	addi	fp,sp,28
  807188:	e13ffb15 	stw	r4,-20(fp)
  80718c:	e17ffc15 	stw	r5,-16(fp)
  807190:	e0800117 	ldw	r2,4(fp)
  807194:	e1bffd0d 	sth	r6,-12(fp)
  807198:	e1fffe05 	stb	r7,-8(fp)
  80719c:	e0bfff0d 	sth	r2,-4(fp)
  8071a0:	00802074 	movhi	r2,129
  8071a4:	10898e04 	addi	r2,r2,9784
  8071a8:	10c00017 	ldw	r3,0(r2)
  8071ac:	00802074 	movhi	r2,129
  8071b0:	10898e04 	addi	r2,r2,9784
  8071b4:	10800017 	ldw	r2,0(r2)
  8071b8:	10800c03 	ldbu	r2,48(r2)
  8071bc:	10800814 	ori	r2,r2,32
  8071c0:	18800c05 	stb	r2,48(r3)
  8071c4:	00802074 	movhi	r2,129
  8071c8:	10898e04 	addi	r2,r2,9784
  8071cc:	10800017 	ldw	r2,0(r2)
  8071d0:	10000c45 	stb	zero,49(r2)
  8071d4:	00802074 	movhi	r2,129
  8071d8:	10898e04 	addi	r2,r2,9784
  8071dc:	10c00017 	ldw	r3,0(r2)
  8071e0:	e0bfff0b 	ldhu	r2,-4(fp)
  8071e4:	18800b8d 	sth	r2,46(r3)
  8071e8:	00802074 	movhi	r2,129
  8071ec:	10898e04 	addi	r2,r2,9784
  8071f0:	10c00017 	ldw	r3,0(r2)
  8071f4:	e0bffc17 	ldw	r2,-16(fp)
  8071f8:	18800a15 	stw	r2,40(r3)
  8071fc:	e0fffc17 	ldw	r3,-16(fp)
  807200:	e0bffd0b 	ldhu	r2,-12(fp)
  807204:	1880040d 	sth	r2,16(r3)
  807208:	e0fffc17 	ldw	r3,-16(fp)
  80720c:	e0bffe03 	ldbu	r2,-8(fp)
  807210:	18800485 	stb	r2,18(r3)
  807214:	00802074 	movhi	r2,129
  807218:	10898e04 	addi	r2,r2,9784
  80721c:	10c00017 	ldw	r3,0(r2)
  807220:	e0bffc17 	ldw	r2,-16(fp)
  807224:	10c00215 	stw	r3,8(r2)
  807228:	e0bffb17 	ldw	r2,-20(fp)
  80722c:	10c00117 	ldw	r3,4(r2)
  807230:	e0bffc17 	ldw	r2,-16(fp)
  807234:	10c00015 	stw	r3,0(r2)
  807238:	e0bffc17 	ldw	r2,-16(fp)
  80723c:	10000115 	stw	zero,4(r2)
  807240:	e0fffc17 	ldw	r3,-16(fp)
  807244:	e0bffb17 	ldw	r2,-20(fp)
  807248:	18800315 	stw	r2,12(r3)
  80724c:	e0bffb17 	ldw	r2,-20(fp)
  807250:	10800117 	ldw	r2,4(r2)
  807254:	e0bffa15 	stw	r2,-24(fp)
  807258:	e0bffa17 	ldw	r2,-24(fp)
  80725c:	1005003a 	cmpeq	r2,r2,zero
  807260:	1000031e 	bne	r2,zero,807270 <OS_FlagBlock+0xf4>
  807264:	e0fffa17 	ldw	r3,-24(fp)
  807268:	e0bffc17 	ldw	r2,-16(fp)
  80726c:	18800115 	stw	r2,4(r3)
  807270:	e0fffb17 	ldw	r3,-20(fp)
  807274:	e0bffc17 	ldw	r2,-16(fp)
  807278:	18800115 	stw	r2,4(r3)
  80727c:	00802074 	movhi	r2,129
  807280:	10898e04 	addi	r2,r2,9784
  807284:	10800017 	ldw	r2,0(r2)
  807288:	10800d03 	ldbu	r2,52(r2)
  80728c:	e0bff905 	stb	r2,-28(fp)
  807290:	e13ff903 	ldbu	r4,-28(fp)
  807294:	e0fff903 	ldbu	r3,-28(fp)
  807298:	00802074 	movhi	r2,129
  80729c:	10898b44 	addi	r2,r2,9773
  8072a0:	10c5883a 	add	r2,r2,r3
  8072a4:	10800003 	ldbu	r2,0(r2)
  8072a8:	1007883a 	mov	r3,r2
  8072ac:	00802074 	movhi	r2,129
  8072b0:	10898e04 	addi	r2,r2,9784
  8072b4:	10800017 	ldw	r2,0(r2)
  8072b8:	10800d43 	ldbu	r2,53(r2)
  8072bc:	0084303a 	nor	r2,zero,r2
  8072c0:	1884703a 	and	r2,r3,r2
  8072c4:	1007883a 	mov	r3,r2
  8072c8:	00802074 	movhi	r2,129
  8072cc:	10898b44 	addi	r2,r2,9773
  8072d0:	1105883a 	add	r2,r2,r4
  8072d4:	10c00005 	stb	r3,0(r2)
  8072d8:	e0fff903 	ldbu	r3,-28(fp)
  8072dc:	00802074 	movhi	r2,129
  8072e0:	10898b44 	addi	r2,r2,9773
  8072e4:	10c5883a 	add	r2,r2,r3
  8072e8:	10800003 	ldbu	r2,0(r2)
  8072ec:	10803fcc 	andi	r2,r2,255
  8072f0:	1004c03a 	cmpne	r2,r2,zero
  8072f4:	10000e1e 	bne	r2,zero,807330 <OS_FlagBlock+0x1b4>
  8072f8:	00802074 	movhi	r2,129
  8072fc:	10898e04 	addi	r2,r2,9784
  807300:	10800017 	ldw	r2,0(r2)
  807304:	10800d83 	ldbu	r2,54(r2)
  807308:	0084303a 	nor	r2,zero,r2
  80730c:	1007883a 	mov	r3,r2
  807310:	00802074 	movhi	r2,129
  807314:	10898b04 	addi	r2,r2,9772
  807318:	10800003 	ldbu	r2,0(r2)
  80731c:	1884703a 	and	r2,r3,r2
  807320:	1007883a 	mov	r3,r2
  807324:	00802074 	movhi	r2,129
  807328:	10898b04 	addi	r2,r2,9772
  80732c:	10c00005 	stb	r3,0(r2)
  807330:	e037883a 	mov	sp,fp
  807334:	df000017 	ldw	fp,0(sp)
  807338:	dec00104 	addi	sp,sp,4
  80733c:	f800283a 	ret

00807340 <OS_FlagInit>:
  807340:	defffb04 	addi	sp,sp,-20
  807344:	dfc00415 	stw	ra,16(sp)
  807348:	df000315 	stw	fp,12(sp)
  80734c:	df000304 	addi	fp,sp,12
  807350:	01002074 	movhi	r4,129
  807354:	2119a004 	addi	r4,r4,26240
  807358:	0140dc04 	movi	r5,880
  80735c:	08053700 	call	805370 <OS_MemClr>
  807360:	00802074 	movhi	r2,129
  807364:	1099a004 	addi	r2,r2,26240
  807368:	e0bffe15 	stw	r2,-8(fp)
  80736c:	00802074 	movhi	r2,129
  807370:	1099ab04 	addi	r2,r2,26284
  807374:	e0bffd15 	stw	r2,-12(fp)
  807378:	e03fff0d 	sth	zero,-4(fp)
  80737c:	00001306 	br	8073cc <OS_FlagInit+0x8c>
  807380:	e0bffe17 	ldw	r2,-8(fp)
  807384:	10000005 	stb	zero,0(r2)
  807388:	e0fffe17 	ldw	r3,-8(fp)
  80738c:	e0bffd17 	ldw	r2,-12(fp)
  807390:	18800115 	stw	r2,4(r3)
  807394:	e0fffe17 	ldw	r3,-8(fp)
  807398:	00800fc4 	movi	r2,63
  80739c:	18800285 	stb	r2,10(r3)
  8073a0:	e0bffe17 	ldw	r2,-8(fp)
  8073a4:	100002c5 	stb	zero,11(r2)
  8073a8:	e0bffe17 	ldw	r2,-8(fp)
  8073ac:	10800b04 	addi	r2,r2,44
  8073b0:	e0bffe15 	stw	r2,-8(fp)
  8073b4:	e0bffd17 	ldw	r2,-12(fp)
  8073b8:	10800b04 	addi	r2,r2,44
  8073bc:	e0bffd15 	stw	r2,-12(fp)
  8073c0:	e0bfff0b 	ldhu	r2,-4(fp)
  8073c4:	10800044 	addi	r2,r2,1
  8073c8:	e0bfff0d 	sth	r2,-4(fp)
  8073cc:	e0bfff0b 	ldhu	r2,-4(fp)
  8073d0:	108004f0 	cmpltui	r2,r2,19
  8073d4:	103fea1e 	bne	r2,zero,807380 <OS_FlagInit+0x40>
  8073d8:	e0bffe17 	ldw	r2,-8(fp)
  8073dc:	10000005 	stb	zero,0(r2)
  8073e0:	e0bffe17 	ldw	r2,-8(fp)
  8073e4:	10000115 	stw	zero,4(r2)
  8073e8:	e0fffe17 	ldw	r3,-8(fp)
  8073ec:	00800fc4 	movi	r2,63
  8073f0:	18800285 	stb	r2,10(r3)
  8073f4:	e0bffe17 	ldw	r2,-8(fp)
  8073f8:	100002c5 	stb	zero,11(r2)
  8073fc:	00c02074 	movhi	r3,129
  807400:	18c99004 	addi	r3,r3,9792
  807404:	00802074 	movhi	r2,129
  807408:	1099a004 	addi	r2,r2,26240
  80740c:	18800015 	stw	r2,0(r3)
  807410:	e037883a 	mov	sp,fp
  807414:	dfc00117 	ldw	ra,4(sp)
  807418:	df000017 	ldw	fp,0(sp)
  80741c:	dec00204 	addi	sp,sp,8
  807420:	f800283a 	ret

00807424 <OS_FlagTaskRdy>:
  807424:	defffa04 	addi	sp,sp,-24
  807428:	dfc00515 	stw	ra,20(sp)
  80742c:	df000415 	stw	fp,16(sp)
  807430:	df000404 	addi	fp,sp,16
  807434:	e13ffe15 	stw	r4,-8(fp)
  807438:	e17fff0d 	sth	r5,-4(fp)
  80743c:	e0bffe17 	ldw	r2,-8(fp)
  807440:	10800217 	ldw	r2,8(r2)
  807444:	e0bffd15 	stw	r2,-12(fp)
  807448:	e0bffd17 	ldw	r2,-12(fp)
  80744c:	10000b8d 	sth	zero,46(r2)
  807450:	e0fffd17 	ldw	r3,-12(fp)
  807454:	e0bfff0b 	ldhu	r2,-4(fp)
  807458:	18800b0d 	sth	r2,44(r3)
  80745c:	e0bffd17 	ldw	r2,-12(fp)
  807460:	10c00c03 	ldbu	r3,48(r2)
  807464:	00bff7c4 	movi	r2,-33
  807468:	1884703a 	and	r2,r3,r2
  80746c:	1007883a 	mov	r3,r2
  807470:	e0bffd17 	ldw	r2,-12(fp)
  807474:	10c00c05 	stb	r3,48(r2)
  807478:	e0bffd17 	ldw	r2,-12(fp)
  80747c:	10000c45 	stb	zero,49(r2)
  807480:	e0bffd17 	ldw	r2,-12(fp)
  807484:	10800c03 	ldbu	r2,48(r2)
  807488:	10803fcc 	andi	r2,r2,255
  80748c:	1004c03a 	cmpne	r2,r2,zero
  807490:	10001f1e 	bne	r2,zero,807510 <OS_FlagTaskRdy+0xec>
  807494:	e0bffd17 	ldw	r2,-12(fp)
  807498:	10c00d83 	ldbu	r3,54(r2)
  80749c:	00802074 	movhi	r2,129
  8074a0:	10898b04 	addi	r2,r2,9772
  8074a4:	10800003 	ldbu	r2,0(r2)
  8074a8:	1884b03a 	or	r2,r3,r2
  8074ac:	1007883a 	mov	r3,r2
  8074b0:	00802074 	movhi	r2,129
  8074b4:	10898b04 	addi	r2,r2,9772
  8074b8:	10c00005 	stb	r3,0(r2)
  8074bc:	e0bffd17 	ldw	r2,-12(fp)
  8074c0:	10800d03 	ldbu	r2,52(r2)
  8074c4:	11003fcc 	andi	r4,r2,255
  8074c8:	e0bffd17 	ldw	r2,-12(fp)
  8074cc:	10800d03 	ldbu	r2,52(r2)
  8074d0:	10c03fcc 	andi	r3,r2,255
  8074d4:	00802074 	movhi	r2,129
  8074d8:	10898b44 	addi	r2,r2,9773
  8074dc:	10c5883a 	add	r2,r2,r3
  8074e0:	10c00003 	ldbu	r3,0(r2)
  8074e4:	e0bffd17 	ldw	r2,-12(fp)
  8074e8:	10800d43 	ldbu	r2,53(r2)
  8074ec:	1884b03a 	or	r2,r3,r2
  8074f0:	1007883a 	mov	r3,r2
  8074f4:	00802074 	movhi	r2,129
  8074f8:	10898b44 	addi	r2,r2,9773
  8074fc:	1105883a 	add	r2,r2,r4
  807500:	10c00005 	stb	r3,0(r2)
  807504:	00800044 	movi	r2,1
  807508:	e0bffc05 	stb	r2,-16(fp)
  80750c:	00000106 	br	807514 <OS_FlagTaskRdy+0xf0>
  807510:	e03ffc05 	stb	zero,-16(fp)
  807514:	e13ffe17 	ldw	r4,-8(fp)
  807518:	08075340 	call	807534 <OS_FlagUnlink>
  80751c:	e0bffc03 	ldbu	r2,-16(fp)
  807520:	e037883a 	mov	sp,fp
  807524:	dfc00117 	ldw	ra,4(sp)
  807528:	df000017 	ldw	fp,0(sp)
  80752c:	dec00204 	addi	sp,sp,8
  807530:	f800283a 	ret

00807534 <OS_FlagUnlink>:
  807534:	defffa04 	addi	sp,sp,-24
  807538:	df000515 	stw	fp,20(sp)
  80753c:	df000504 	addi	fp,sp,20
  807540:	e13fff15 	stw	r4,-4(fp)
  807544:	e0bfff17 	ldw	r2,-4(fp)
  807548:	10800117 	ldw	r2,4(r2)
  80754c:	e0bffc15 	stw	r2,-16(fp)
  807550:	e0bfff17 	ldw	r2,-4(fp)
  807554:	10800017 	ldw	r2,0(r2)
  807558:	e0bffb15 	stw	r2,-20(fp)
  80755c:	e0bffc17 	ldw	r2,-16(fp)
  807560:	1004c03a 	cmpne	r2,r2,zero
  807564:	10000c1e 	bne	r2,zero,807598 <OS_FlagUnlink+0x64>
  807568:	e0bfff17 	ldw	r2,-4(fp)
  80756c:	10800317 	ldw	r2,12(r2)
  807570:	e0bffd15 	stw	r2,-12(fp)
  807574:	e0fffd17 	ldw	r3,-12(fp)
  807578:	e0bffb17 	ldw	r2,-20(fp)
  80757c:	18800115 	stw	r2,4(r3)
  807580:	e0bffb17 	ldw	r2,-20(fp)
  807584:	1005003a 	cmpeq	r2,r2,zero
  807588:	10000c1e 	bne	r2,zero,8075bc <OS_FlagUnlink+0x88>
  80758c:	e0bffb17 	ldw	r2,-20(fp)
  807590:	10000115 	stw	zero,4(r2)
  807594:	00000906 	br	8075bc <OS_FlagUnlink+0x88>
  807598:	e0fffc17 	ldw	r3,-16(fp)
  80759c:	e0bffb17 	ldw	r2,-20(fp)
  8075a0:	18800015 	stw	r2,0(r3)
  8075a4:	e0bffb17 	ldw	r2,-20(fp)
  8075a8:	1005003a 	cmpeq	r2,r2,zero
  8075ac:	1000031e 	bne	r2,zero,8075bc <OS_FlagUnlink+0x88>
  8075b0:	e0fffb17 	ldw	r3,-20(fp)
  8075b4:	e0bffc17 	ldw	r2,-16(fp)
  8075b8:	18800115 	stw	r2,4(r3)
  8075bc:	e0bfff17 	ldw	r2,-4(fp)
  8075c0:	10800217 	ldw	r2,8(r2)
  8075c4:	e0bffe15 	stw	r2,-8(fp)
  8075c8:	e0bffe17 	ldw	r2,-8(fp)
  8075cc:	10000a15 	stw	zero,40(r2)
  8075d0:	e037883a 	mov	sp,fp
  8075d4:	df000017 	ldw	fp,0(sp)
  8075d8:	dec00104 	addi	sp,sp,4
  8075dc:	f800283a 	ret

008075e0 <OSMemCreate>:
  8075e0:	defff304 	addi	sp,sp,-52
  8075e4:	df000c15 	stw	fp,48(sp)
  8075e8:	df000c04 	addi	fp,sp,48
  8075ec:	e13ffb15 	stw	r4,-20(fp)
  8075f0:	e17ffc15 	stw	r5,-16(fp)
  8075f4:	e1bffd15 	stw	r6,-12(fp)
  8075f8:	e1fffe15 	stw	r7,-8(fp)
  8075fc:	e03ff615 	stw	zero,-40(fp)
  807600:	e0bffe17 	ldw	r2,-8(fp)
  807604:	1004c03a 	cmpne	r2,r2,zero
  807608:	1000021e 	bne	r2,zero,807614 <OSMemCreate+0x34>
  80760c:	e03fff15 	stw	zero,-4(fp)
  807610:	00007506 	br	8077e8 <OSMemCreate+0x208>
  807614:	e0bffb17 	ldw	r2,-20(fp)
  807618:	1004c03a 	cmpne	r2,r2,zero
  80761c:	1000051e 	bne	r2,zero,807634 <OSMemCreate+0x54>
  807620:	e0fffe17 	ldw	r3,-8(fp)
  807624:	00801884 	movi	r2,98
  807628:	18800005 	stb	r2,0(r3)
  80762c:	e03fff15 	stw	zero,-4(fp)
  807630:	00006d06 	br	8077e8 <OSMemCreate+0x208>
  807634:	e0bffb17 	ldw	r2,-20(fp)
  807638:	108000cc 	andi	r2,r2,3
  80763c:	1005003a 	cmpeq	r2,r2,zero
  807640:	1000051e 	bne	r2,zero,807658 <OSMemCreate+0x78>
  807644:	e0fffe17 	ldw	r3,-8(fp)
  807648:	00801884 	movi	r2,98
  80764c:	18800005 	stb	r2,0(r3)
  807650:	e03fff15 	stw	zero,-4(fp)
  807654:	00006406 	br	8077e8 <OSMemCreate+0x208>
  807658:	e0bffc17 	ldw	r2,-16(fp)
  80765c:	108000a8 	cmpgeui	r2,r2,2
  807660:	1000051e 	bne	r2,zero,807678 <OSMemCreate+0x98>
  807664:	e0fffe17 	ldw	r3,-8(fp)
  807668:	008016c4 	movi	r2,91
  80766c:	18800005 	stb	r2,0(r3)
  807670:	e03fff15 	stw	zero,-4(fp)
  807674:	00005c06 	br	8077e8 <OSMemCreate+0x208>
  807678:	e0bffd17 	ldw	r2,-12(fp)
  80767c:	10800128 	cmpgeui	r2,r2,4
  807680:	1000051e 	bne	r2,zero,807698 <OSMemCreate+0xb8>
  807684:	e0fffe17 	ldw	r3,-8(fp)
  807688:	00801704 	movi	r2,92
  80768c:	18800005 	stb	r2,0(r3)
  807690:	e03fff15 	stw	zero,-4(fp)
  807694:	00005406 	br	8077e8 <OSMemCreate+0x208>
  807698:	0005303a 	rdctl	r2,status
  80769c:	e0bff515 	stw	r2,-44(fp)
  8076a0:	e0fff517 	ldw	r3,-44(fp)
  8076a4:	00bfff84 	movi	r2,-2
  8076a8:	1884703a 	and	r2,r3,r2
  8076ac:	1001703a 	wrctl	status,r2
  8076b0:	e0bff517 	ldw	r2,-44(fp)
  8076b4:	e0bff615 	stw	r2,-40(fp)
  8076b8:	00802074 	movhi	r2,129
  8076bc:	10898804 	addi	r2,r2,9760
  8076c0:	10800017 	ldw	r2,0(r2)
  8076c4:	e0bffa15 	stw	r2,-24(fp)
  8076c8:	00802074 	movhi	r2,129
  8076cc:	10898804 	addi	r2,r2,9760
  8076d0:	10800017 	ldw	r2,0(r2)
  8076d4:	1005003a 	cmpeq	r2,r2,zero
  8076d8:	1000081e 	bne	r2,zero,8076fc <OSMemCreate+0x11c>
  8076dc:	00802074 	movhi	r2,129
  8076e0:	10898804 	addi	r2,r2,9760
  8076e4:	10800017 	ldw	r2,0(r2)
  8076e8:	10800117 	ldw	r2,4(r2)
  8076ec:	1007883a 	mov	r3,r2
  8076f0:	00802074 	movhi	r2,129
  8076f4:	10898804 	addi	r2,r2,9760
  8076f8:	10c00015 	stw	r3,0(r2)
  8076fc:	e0bff617 	ldw	r2,-40(fp)
  807700:	e0bff415 	stw	r2,-48(fp)
  807704:	e0bff417 	ldw	r2,-48(fp)
  807708:	1001703a 	wrctl	status,r2
  80770c:	e0bffa17 	ldw	r2,-24(fp)
  807710:	1004c03a 	cmpne	r2,r2,zero
  807714:	1000051e 	bne	r2,zero,80772c <OSMemCreate+0x14c>
  807718:	e0fffe17 	ldw	r3,-8(fp)
  80771c:	00801684 	movi	r2,90
  807720:	18800005 	stb	r2,0(r3)
  807724:	e03fff15 	stw	zero,-4(fp)
  807728:	00002f06 	br	8077e8 <OSMemCreate+0x208>
  80772c:	e0bffb17 	ldw	r2,-20(fp)
  807730:	e0bff815 	stw	r2,-32(fp)
  807734:	e0bffb17 	ldw	r2,-20(fp)
  807738:	1007883a 	mov	r3,r2
  80773c:	e0bffd17 	ldw	r2,-12(fp)
  807740:	1885883a 	add	r2,r3,r2
  807744:	e0bff915 	stw	r2,-28(fp)
  807748:	e03ff715 	stw	zero,-36(fp)
  80774c:	00000d06 	br	807784 <OSMemCreate+0x1a4>
  807750:	e0fff817 	ldw	r3,-32(fp)
  807754:	e0bff917 	ldw	r2,-28(fp)
  807758:	18800015 	stw	r2,0(r3)
  80775c:	e0bff917 	ldw	r2,-28(fp)
  807760:	e0bff815 	stw	r2,-32(fp)
  807764:	e0bff917 	ldw	r2,-28(fp)
  807768:	1007883a 	mov	r3,r2
  80776c:	e0bffd17 	ldw	r2,-12(fp)
  807770:	1885883a 	add	r2,r3,r2
  807774:	e0bff915 	stw	r2,-28(fp)
  807778:	e0bff717 	ldw	r2,-36(fp)
  80777c:	10800044 	addi	r2,r2,1
  807780:	e0bff715 	stw	r2,-36(fp)
  807784:	e0bffc17 	ldw	r2,-16(fp)
  807788:	10ffffc4 	addi	r3,r2,-1
  80778c:	e0bff717 	ldw	r2,-36(fp)
  807790:	10ffef36 	bltu	r2,r3,807750 <OSMemCreate+0x170>
  807794:	e0bff817 	ldw	r2,-32(fp)
  807798:	10000015 	stw	zero,0(r2)
  80779c:	e0fffa17 	ldw	r3,-24(fp)
  8077a0:	e0bffb17 	ldw	r2,-20(fp)
  8077a4:	18800015 	stw	r2,0(r3)
  8077a8:	e0fffa17 	ldw	r3,-24(fp)
  8077ac:	e0bffb17 	ldw	r2,-20(fp)
  8077b0:	18800115 	stw	r2,4(r3)
  8077b4:	e0fffa17 	ldw	r3,-24(fp)
  8077b8:	e0bffc17 	ldw	r2,-16(fp)
  8077bc:	18800415 	stw	r2,16(r3)
  8077c0:	e0fffa17 	ldw	r3,-24(fp)
  8077c4:	e0bffc17 	ldw	r2,-16(fp)
  8077c8:	18800315 	stw	r2,12(r3)
  8077cc:	e0fffa17 	ldw	r3,-24(fp)
  8077d0:	e0bffd17 	ldw	r2,-12(fp)
  8077d4:	18800215 	stw	r2,8(r3)
  8077d8:	e0bffe17 	ldw	r2,-8(fp)
  8077dc:	10000005 	stb	zero,0(r2)
  8077e0:	e0bffa17 	ldw	r2,-24(fp)
  8077e4:	e0bfff15 	stw	r2,-4(fp)
  8077e8:	e0bfff17 	ldw	r2,-4(fp)
  8077ec:	e037883a 	mov	sp,fp
  8077f0:	df000017 	ldw	fp,0(sp)
  8077f4:	dec00104 	addi	sp,sp,4
  8077f8:	f800283a 	ret

008077fc <OSMemGet>:
  8077fc:	defff704 	addi	sp,sp,-36
  807800:	df000815 	stw	fp,32(sp)
  807804:	df000804 	addi	fp,sp,32
  807808:	e13ffd15 	stw	r4,-12(fp)
  80780c:	e17ffe15 	stw	r5,-8(fp)
  807810:	e03ffb15 	stw	zero,-20(fp)
  807814:	e0bffe17 	ldw	r2,-8(fp)
  807818:	1004c03a 	cmpne	r2,r2,zero
  80781c:	1000021e 	bne	r2,zero,807828 <OSMemGet+0x2c>
  807820:	e03fff15 	stw	zero,-4(fp)
  807824:	00003106 	br	8078ec <OSMemGet+0xf0>
  807828:	e0bffd17 	ldw	r2,-12(fp)
  80782c:	1004c03a 	cmpne	r2,r2,zero
  807830:	1000051e 	bne	r2,zero,807848 <OSMemGet+0x4c>
  807834:	e0fffe17 	ldw	r3,-8(fp)
  807838:	00801804 	movi	r2,96
  80783c:	18800005 	stb	r2,0(r3)
  807840:	e03fff15 	stw	zero,-4(fp)
  807844:	00002906 	br	8078ec <OSMemGet+0xf0>
  807848:	0005303a 	rdctl	r2,status
  80784c:	e0bffa15 	stw	r2,-24(fp)
  807850:	e0fffa17 	ldw	r3,-24(fp)
  807854:	00bfff84 	movi	r2,-2
  807858:	1884703a 	and	r2,r3,r2
  80785c:	1001703a 	wrctl	status,r2
  807860:	e0bffa17 	ldw	r2,-24(fp)
  807864:	e0bffb15 	stw	r2,-20(fp)
  807868:	e0bffd17 	ldw	r2,-12(fp)
  80786c:	10800417 	ldw	r2,16(r2)
  807870:	1005003a 	cmpeq	r2,r2,zero
  807874:	1000151e 	bne	r2,zero,8078cc <OSMemGet+0xd0>
  807878:	e0bffd17 	ldw	r2,-12(fp)
  80787c:	10800117 	ldw	r2,4(r2)
  807880:	e0bffc15 	stw	r2,-16(fp)
  807884:	e0bffc17 	ldw	r2,-16(fp)
  807888:	10c00017 	ldw	r3,0(r2)
  80788c:	e0bffd17 	ldw	r2,-12(fp)
  807890:	10c00115 	stw	r3,4(r2)
  807894:	e0bffd17 	ldw	r2,-12(fp)
  807898:	10800417 	ldw	r2,16(r2)
  80789c:	10ffffc4 	addi	r3,r2,-1
  8078a0:	e0bffd17 	ldw	r2,-12(fp)
  8078a4:	10c00415 	stw	r3,16(r2)
  8078a8:	e0bffb17 	ldw	r2,-20(fp)
  8078ac:	e0bff915 	stw	r2,-28(fp)
  8078b0:	e0bff917 	ldw	r2,-28(fp)
  8078b4:	1001703a 	wrctl	status,r2
  8078b8:	e0bffe17 	ldw	r2,-8(fp)
  8078bc:	10000005 	stb	zero,0(r2)
  8078c0:	e0bffc17 	ldw	r2,-16(fp)
  8078c4:	e0bfff15 	stw	r2,-4(fp)
  8078c8:	00000806 	br	8078ec <OSMemGet+0xf0>
  8078cc:	e0bffb17 	ldw	r2,-20(fp)
  8078d0:	e0bff815 	stw	r2,-32(fp)
  8078d4:	e0bff817 	ldw	r2,-32(fp)
  8078d8:	1001703a 	wrctl	status,r2
  8078dc:	e0fffe17 	ldw	r3,-8(fp)
  8078e0:	00801744 	movi	r2,93
  8078e4:	18800005 	stb	r2,0(r3)
  8078e8:	e03fff15 	stw	zero,-4(fp)
  8078ec:	e0bfff17 	ldw	r2,-4(fp)
  8078f0:	e037883a 	mov	sp,fp
  8078f4:	df000017 	ldw	fp,0(sp)
  8078f8:	dec00104 	addi	sp,sp,4
  8078fc:	f800283a 	ret

00807900 <OSMemNameGet>:
  807900:	defff604 	addi	sp,sp,-40
  807904:	dfc00915 	stw	ra,36(sp)
  807908:	df000815 	stw	fp,32(sp)
  80790c:	df000804 	addi	fp,sp,32
  807910:	e13ffc15 	stw	r4,-16(fp)
  807914:	e17ffd15 	stw	r5,-12(fp)
  807918:	e1bffe15 	stw	r6,-8(fp)
  80791c:	e03ffa15 	stw	zero,-24(fp)
  807920:	e0bffe17 	ldw	r2,-8(fp)
  807924:	1004c03a 	cmpne	r2,r2,zero
  807928:	1000021e 	bne	r2,zero,807934 <OSMemNameGet+0x34>
  80792c:	e03fff15 	stw	zero,-4(fp)
  807930:	00003006 	br	8079f4 <OSMemNameGet+0xf4>
  807934:	e0bffc17 	ldw	r2,-16(fp)
  807938:	1004c03a 	cmpne	r2,r2,zero
  80793c:	1000051e 	bne	r2,zero,807954 <OSMemNameGet+0x54>
  807940:	e0fffe17 	ldw	r3,-8(fp)
  807944:	00801804 	movi	r2,96
  807948:	18800005 	stb	r2,0(r3)
  80794c:	e03fff15 	stw	zero,-4(fp)
  807950:	00002806 	br	8079f4 <OSMemNameGet+0xf4>
  807954:	e0bffd17 	ldw	r2,-12(fp)
  807958:	1004c03a 	cmpne	r2,r2,zero
  80795c:	1000051e 	bne	r2,zero,807974 <OSMemNameGet+0x74>
  807960:	e0fffe17 	ldw	r3,-8(fp)
  807964:	00800304 	movi	r2,12
  807968:	18800005 	stb	r2,0(r3)
  80796c:	e03fff15 	stw	zero,-4(fp)
  807970:	00002006 	br	8079f4 <OSMemNameGet+0xf4>
  807974:	00802074 	movhi	r2,129
  807978:	10898d04 	addi	r2,r2,9780
  80797c:	10800003 	ldbu	r2,0(r2)
  807980:	10803fcc 	andi	r2,r2,255
  807984:	1005003a 	cmpeq	r2,r2,zero
  807988:	1000051e 	bne	r2,zero,8079a0 <OSMemNameGet+0xa0>
  80798c:	e0fffe17 	ldw	r3,-8(fp)
  807990:	00800444 	movi	r2,17
  807994:	18800005 	stb	r2,0(r3)
  807998:	e03fff15 	stw	zero,-4(fp)
  80799c:	00001506 	br	8079f4 <OSMemNameGet+0xf4>
  8079a0:	0005303a 	rdctl	r2,status
  8079a4:	e0bff915 	stw	r2,-28(fp)
  8079a8:	e0fff917 	ldw	r3,-28(fp)
  8079ac:	00bfff84 	movi	r2,-2
  8079b0:	1884703a 	and	r2,r3,r2
  8079b4:	1001703a 	wrctl	status,r2
  8079b8:	e0bff917 	ldw	r2,-28(fp)
  8079bc:	e0bffa15 	stw	r2,-24(fp)
  8079c0:	e0bffc17 	ldw	r2,-16(fp)
  8079c4:	11400504 	addi	r5,r2,20
  8079c8:	e13ffd17 	ldw	r4,-12(fp)
  8079cc:	08055740 	call	805574 <OS_StrCopy>
  8079d0:	e0bffb05 	stb	r2,-20(fp)
  8079d4:	e0bffa17 	ldw	r2,-24(fp)
  8079d8:	e0bff815 	stw	r2,-32(fp)
  8079dc:	e0bff817 	ldw	r2,-32(fp)
  8079e0:	1001703a 	wrctl	status,r2
  8079e4:	e0bffe17 	ldw	r2,-8(fp)
  8079e8:	10000005 	stb	zero,0(r2)
  8079ec:	e0bffb03 	ldbu	r2,-20(fp)
  8079f0:	e0bfff15 	stw	r2,-4(fp)
  8079f4:	e0bfff17 	ldw	r2,-4(fp)
  8079f8:	e037883a 	mov	sp,fp
  8079fc:	dfc00117 	ldw	ra,4(sp)
  807a00:	df000017 	ldw	fp,0(sp)
  807a04:	dec00204 	addi	sp,sp,8
  807a08:	f800283a 	ret

00807a0c <OSMemNameSet>:
  807a0c:	defff604 	addi	sp,sp,-40
  807a10:	dfc00915 	stw	ra,36(sp)
  807a14:	df000815 	stw	fp,32(sp)
  807a18:	df000804 	addi	fp,sp,32
  807a1c:	e13ffd15 	stw	r4,-12(fp)
  807a20:	e17ffe15 	stw	r5,-8(fp)
  807a24:	e1bfff15 	stw	r6,-4(fp)
  807a28:	e03ffb15 	stw	zero,-20(fp)
  807a2c:	e0bfff17 	ldw	r2,-4(fp)
  807a30:	1005003a 	cmpeq	r2,r2,zero
  807a34:	1000381e 	bne	r2,zero,807b18 <OSMemNameSet+0x10c>
  807a38:	e0bffd17 	ldw	r2,-12(fp)
  807a3c:	1004c03a 	cmpne	r2,r2,zero
  807a40:	1000041e 	bne	r2,zero,807a54 <OSMemNameSet+0x48>
  807a44:	e0ffff17 	ldw	r3,-4(fp)
  807a48:	00801804 	movi	r2,96
  807a4c:	18800005 	stb	r2,0(r3)
  807a50:	00003106 	br	807b18 <OSMemNameSet+0x10c>
  807a54:	e0bffe17 	ldw	r2,-8(fp)
  807a58:	1004c03a 	cmpne	r2,r2,zero
  807a5c:	1000041e 	bne	r2,zero,807a70 <OSMemNameSet+0x64>
  807a60:	e0ffff17 	ldw	r3,-4(fp)
  807a64:	00800304 	movi	r2,12
  807a68:	18800005 	stb	r2,0(r3)
  807a6c:	00002a06 	br	807b18 <OSMemNameSet+0x10c>
  807a70:	00802074 	movhi	r2,129
  807a74:	10898d04 	addi	r2,r2,9780
  807a78:	10800003 	ldbu	r2,0(r2)
  807a7c:	10803fcc 	andi	r2,r2,255
  807a80:	1005003a 	cmpeq	r2,r2,zero
  807a84:	1000041e 	bne	r2,zero,807a98 <OSMemNameSet+0x8c>
  807a88:	e0ffff17 	ldw	r3,-4(fp)
  807a8c:	00800484 	movi	r2,18
  807a90:	18800005 	stb	r2,0(r3)
  807a94:	00002006 	br	807b18 <OSMemNameSet+0x10c>
  807a98:	0005303a 	rdctl	r2,status
  807a9c:	e0bffa15 	stw	r2,-24(fp)
  807aa0:	e0fffa17 	ldw	r3,-24(fp)
  807aa4:	00bfff84 	movi	r2,-2
  807aa8:	1884703a 	and	r2,r3,r2
  807aac:	1001703a 	wrctl	status,r2
  807ab0:	e0bffa17 	ldw	r2,-24(fp)
  807ab4:	e0bffb15 	stw	r2,-20(fp)
  807ab8:	e13ffe17 	ldw	r4,-8(fp)
  807abc:	08055f40 	call	8055f4 <OS_StrLen>
  807ac0:	e0bffc05 	stb	r2,-16(fp)
  807ac4:	e0bffc03 	ldbu	r2,-16(fp)
  807ac8:	10800830 	cmpltui	r2,r2,32
  807acc:	1000081e 	bne	r2,zero,807af0 <OSMemNameSet+0xe4>
  807ad0:	e0bffb17 	ldw	r2,-20(fp)
  807ad4:	e0bff915 	stw	r2,-28(fp)
  807ad8:	e0bff917 	ldw	r2,-28(fp)
  807adc:	1001703a 	wrctl	status,r2
  807ae0:	e0ffff17 	ldw	r3,-4(fp)
  807ae4:	008018c4 	movi	r2,99
  807ae8:	18800005 	stb	r2,0(r3)
  807aec:	00000a06 	br	807b18 <OSMemNameSet+0x10c>
  807af0:	e0bffd17 	ldw	r2,-12(fp)
  807af4:	11000504 	addi	r4,r2,20
  807af8:	e17ffe17 	ldw	r5,-8(fp)
  807afc:	08055740 	call	805574 <OS_StrCopy>
  807b00:	e0bffb17 	ldw	r2,-20(fp)
  807b04:	e0bff815 	stw	r2,-32(fp)
  807b08:	e0bff817 	ldw	r2,-32(fp)
  807b0c:	1001703a 	wrctl	status,r2
  807b10:	e0bfff17 	ldw	r2,-4(fp)
  807b14:	10000005 	stb	zero,0(r2)
  807b18:	e037883a 	mov	sp,fp
  807b1c:	dfc00117 	ldw	ra,4(sp)
  807b20:	df000017 	ldw	fp,0(sp)
  807b24:	dec00204 	addi	sp,sp,8
  807b28:	f800283a 	ret

00807b2c <OSMemPut>:
  807b2c:	defff804 	addi	sp,sp,-32
  807b30:	df000715 	stw	fp,28(sp)
  807b34:	df000704 	addi	fp,sp,28
  807b38:	e13ffd15 	stw	r4,-12(fp)
  807b3c:	e17ffe15 	stw	r5,-8(fp)
  807b40:	e03ffc15 	stw	zero,-16(fp)
  807b44:	e0bffd17 	ldw	r2,-12(fp)
  807b48:	1004c03a 	cmpne	r2,r2,zero
  807b4c:	1000031e 	bne	r2,zero,807b5c <OSMemPut+0x30>
  807b50:	00801804 	movi	r2,96
  807b54:	e0bfff15 	stw	r2,-4(fp)
  807b58:	00002b06 	br	807c08 <OSMemPut+0xdc>
  807b5c:	e0bffe17 	ldw	r2,-8(fp)
  807b60:	1004c03a 	cmpne	r2,r2,zero
  807b64:	1000031e 	bne	r2,zero,807b74 <OSMemPut+0x48>
  807b68:	008017c4 	movi	r2,95
  807b6c:	e0bfff15 	stw	r2,-4(fp)
  807b70:	00002506 	br	807c08 <OSMemPut+0xdc>
  807b74:	0005303a 	rdctl	r2,status
  807b78:	e0bffb15 	stw	r2,-20(fp)
  807b7c:	e0fffb17 	ldw	r3,-20(fp)
  807b80:	00bfff84 	movi	r2,-2
  807b84:	1884703a 	and	r2,r3,r2
  807b88:	1001703a 	wrctl	status,r2
  807b8c:	e0bffb17 	ldw	r2,-20(fp)
  807b90:	e0bffc15 	stw	r2,-16(fp)
  807b94:	e0bffd17 	ldw	r2,-12(fp)
  807b98:	10c00417 	ldw	r3,16(r2)
  807b9c:	e0bffd17 	ldw	r2,-12(fp)
  807ba0:	10800317 	ldw	r2,12(r2)
  807ba4:	18800736 	bltu	r3,r2,807bc4 <OSMemPut+0x98>
  807ba8:	e0bffc17 	ldw	r2,-16(fp)
  807bac:	e0bffa15 	stw	r2,-24(fp)
  807bb0:	e0bffa17 	ldw	r2,-24(fp)
  807bb4:	1001703a 	wrctl	status,r2
  807bb8:	00801784 	movi	r2,94
  807bbc:	e0bfff15 	stw	r2,-4(fp)
  807bc0:	00001106 	br	807c08 <OSMemPut+0xdc>
  807bc4:	e0fffe17 	ldw	r3,-8(fp)
  807bc8:	e0bffd17 	ldw	r2,-12(fp)
  807bcc:	10800117 	ldw	r2,4(r2)
  807bd0:	18800015 	stw	r2,0(r3)
  807bd4:	e0fffd17 	ldw	r3,-12(fp)
  807bd8:	e0bffe17 	ldw	r2,-8(fp)
  807bdc:	18800115 	stw	r2,4(r3)
  807be0:	e0bffd17 	ldw	r2,-12(fp)
  807be4:	10800417 	ldw	r2,16(r2)
  807be8:	10c00044 	addi	r3,r2,1
  807bec:	e0bffd17 	ldw	r2,-12(fp)
  807bf0:	10c00415 	stw	r3,16(r2)
  807bf4:	e0bffc17 	ldw	r2,-16(fp)
  807bf8:	e0bff915 	stw	r2,-28(fp)
  807bfc:	e0bff917 	ldw	r2,-28(fp)
  807c00:	1001703a 	wrctl	status,r2
  807c04:	e03fff15 	stw	zero,-4(fp)
  807c08:	e0bfff17 	ldw	r2,-4(fp)
  807c0c:	e037883a 	mov	sp,fp
  807c10:	df000017 	ldw	fp,0(sp)
  807c14:	dec00104 	addi	sp,sp,4
  807c18:	f800283a 	ret

00807c1c <OSMemQuery>:
  807c1c:	defff904 	addi	sp,sp,-28
  807c20:	df000615 	stw	fp,24(sp)
  807c24:	df000604 	addi	fp,sp,24
  807c28:	e13ffd15 	stw	r4,-12(fp)
  807c2c:	e17ffe15 	stw	r5,-8(fp)
  807c30:	e03ffc15 	stw	zero,-16(fp)
  807c34:	e0bffd17 	ldw	r2,-12(fp)
  807c38:	1004c03a 	cmpne	r2,r2,zero
  807c3c:	1000031e 	bne	r2,zero,807c4c <OSMemQuery+0x30>
  807c40:	00801804 	movi	r2,96
  807c44:	e0bfff15 	stw	r2,-4(fp)
  807c48:	00002e06 	br	807d04 <OSMemQuery+0xe8>
  807c4c:	e0bffe17 	ldw	r2,-8(fp)
  807c50:	1004c03a 	cmpne	r2,r2,zero
  807c54:	1000031e 	bne	r2,zero,807c64 <OSMemQuery+0x48>
  807c58:	00801844 	movi	r2,97
  807c5c:	e0bfff15 	stw	r2,-4(fp)
  807c60:	00002806 	br	807d04 <OSMemQuery+0xe8>
  807c64:	0005303a 	rdctl	r2,status
  807c68:	e0bffb15 	stw	r2,-20(fp)
  807c6c:	e0fffb17 	ldw	r3,-20(fp)
  807c70:	00bfff84 	movi	r2,-2
  807c74:	1884703a 	and	r2,r3,r2
  807c78:	1001703a 	wrctl	status,r2
  807c7c:	e0bffb17 	ldw	r2,-20(fp)
  807c80:	e0bffc15 	stw	r2,-16(fp)
  807c84:	e0bffd17 	ldw	r2,-12(fp)
  807c88:	10c00017 	ldw	r3,0(r2)
  807c8c:	e0bffe17 	ldw	r2,-8(fp)
  807c90:	10c00015 	stw	r3,0(r2)
  807c94:	e0bffd17 	ldw	r2,-12(fp)
  807c98:	10c00117 	ldw	r3,4(r2)
  807c9c:	e0bffe17 	ldw	r2,-8(fp)
  807ca0:	10c00115 	stw	r3,4(r2)
  807ca4:	e0bffd17 	ldw	r2,-12(fp)
  807ca8:	10c00217 	ldw	r3,8(r2)
  807cac:	e0bffe17 	ldw	r2,-8(fp)
  807cb0:	10c00215 	stw	r3,8(r2)
  807cb4:	e0bffd17 	ldw	r2,-12(fp)
  807cb8:	10c00317 	ldw	r3,12(r2)
  807cbc:	e0bffe17 	ldw	r2,-8(fp)
  807cc0:	10c00315 	stw	r3,12(r2)
  807cc4:	e0bffd17 	ldw	r2,-12(fp)
  807cc8:	10c00417 	ldw	r3,16(r2)
  807ccc:	e0bffe17 	ldw	r2,-8(fp)
  807cd0:	10c00415 	stw	r3,16(r2)
  807cd4:	e0bffc17 	ldw	r2,-16(fp)
  807cd8:	e0bffa15 	stw	r2,-24(fp)
  807cdc:	e0bffa17 	ldw	r2,-24(fp)
  807ce0:	1001703a 	wrctl	status,r2
  807ce4:	e0bffe17 	ldw	r2,-8(fp)
  807ce8:	10c00317 	ldw	r3,12(r2)
  807cec:	e0bffe17 	ldw	r2,-8(fp)
  807cf0:	10800417 	ldw	r2,16(r2)
  807cf4:	1887c83a 	sub	r3,r3,r2
  807cf8:	e0bffe17 	ldw	r2,-8(fp)
  807cfc:	10c00515 	stw	r3,20(r2)
  807d00:	e03fff15 	stw	zero,-4(fp)
  807d04:	e0bfff17 	ldw	r2,-4(fp)
  807d08:	e037883a 	mov	sp,fp
  807d0c:	df000017 	ldw	fp,0(sp)
  807d10:	dec00104 	addi	sp,sp,4
  807d14:	f800283a 	ret

00807d18 <OS_MemInit>:
  807d18:	defffc04 	addi	sp,sp,-16
  807d1c:	dfc00315 	stw	ra,12(sp)
  807d20:	df000215 	stw	fp,8(sp)
  807d24:	df000204 	addi	fp,sp,8
  807d28:	01002074 	movhi	r4,129
  807d2c:	211a7c04 	addi	r4,r4,27120
  807d30:	01430c04 	movi	r5,3120
  807d34:	08053700 	call	805370 <OS_MemClr>
  807d38:	00802074 	movhi	r2,129
  807d3c:	109a7c04 	addi	r2,r2,27120
  807d40:	e0bfff15 	stw	r2,-4(fp)
  807d44:	e03ffe0d 	sth	zero,-8(fp)
  807d48:	00001306 	br	807d98 <OS_MemInit+0x80>
  807d4c:	e0bffe0b 	ldhu	r2,-8(fp)
  807d50:	10800d24 	muli	r2,r2,52
  807d54:	1007883a 	mov	r3,r2
  807d58:	00802074 	movhi	r2,129
  807d5c:	109a8904 	addi	r2,r2,27172
  807d60:	1887883a 	add	r3,r3,r2
  807d64:	e0bfff17 	ldw	r2,-4(fp)
  807d68:	10c00115 	stw	r3,4(r2)
  807d6c:	e0ffff17 	ldw	r3,-4(fp)
  807d70:	00800fc4 	movi	r2,63
  807d74:	18800505 	stb	r2,20(r3)
  807d78:	e0bfff17 	ldw	r2,-4(fp)
  807d7c:	10000545 	stb	zero,21(r2)
  807d80:	e0bfff17 	ldw	r2,-4(fp)
  807d84:	10800d04 	addi	r2,r2,52
  807d88:	e0bfff15 	stw	r2,-4(fp)
  807d8c:	e0bffe0b 	ldhu	r2,-8(fp)
  807d90:	10800044 	addi	r2,r2,1
  807d94:	e0bffe0d 	sth	r2,-8(fp)
  807d98:	e0bffe0b 	ldhu	r2,-8(fp)
  807d9c:	10800ef0 	cmpltui	r2,r2,59
  807da0:	103fea1e 	bne	r2,zero,807d4c <OS_MemInit+0x34>
  807da4:	e0bfff17 	ldw	r2,-4(fp)
  807da8:	10000115 	stw	zero,4(r2)
  807dac:	e0ffff17 	ldw	r3,-4(fp)
  807db0:	00800fc4 	movi	r2,63
  807db4:	18800505 	stb	r2,20(r3)
  807db8:	e0bfff17 	ldw	r2,-4(fp)
  807dbc:	10000545 	stb	zero,21(r2)
  807dc0:	00c02074 	movhi	r3,129
  807dc4:	18c98804 	addi	r3,r3,9760
  807dc8:	00802074 	movhi	r2,129
  807dcc:	109a7c04 	addi	r2,r2,27120
  807dd0:	18800015 	stw	r2,0(r3)
  807dd4:	e037883a 	mov	sp,fp
  807dd8:	dfc00117 	ldw	ra,4(sp)
  807ddc:	df000017 	ldw	fp,0(sp)
  807de0:	dec00204 	addi	sp,sp,8
  807de4:	f800283a 	ret

00807de8 <OSQAccept>:
  807de8:	defff704 	addi	sp,sp,-36
  807dec:	df000815 	stw	fp,32(sp)
  807df0:	df000804 	addi	fp,sp,32
  807df4:	e13ffd15 	stw	r4,-12(fp)
  807df8:	e17ffe15 	stw	r5,-8(fp)
  807dfc:	e03ffa15 	stw	zero,-24(fp)
  807e00:	e0bffe17 	ldw	r2,-8(fp)
  807e04:	1004c03a 	cmpne	r2,r2,zero
  807e08:	1000021e 	bne	r2,zero,807e14 <OSQAccept+0x2c>
  807e0c:	e03fff15 	stw	zero,-4(fp)
  807e10:	00004506 	br	807f28 <OSQAccept+0x140>
  807e14:	e0bffd17 	ldw	r2,-12(fp)
  807e18:	1004c03a 	cmpne	r2,r2,zero
  807e1c:	1000051e 	bne	r2,zero,807e34 <OSQAccept+0x4c>
  807e20:	e0fffe17 	ldw	r3,-8(fp)
  807e24:	00800104 	movi	r2,4
  807e28:	18800005 	stb	r2,0(r3)
  807e2c:	e03fff15 	stw	zero,-4(fp)
  807e30:	00003d06 	br	807f28 <OSQAccept+0x140>
  807e34:	e0bffd17 	ldw	r2,-12(fp)
  807e38:	10800003 	ldbu	r2,0(r2)
  807e3c:	10803fcc 	andi	r2,r2,255
  807e40:	108000a0 	cmpeqi	r2,r2,2
  807e44:	1000051e 	bne	r2,zero,807e5c <OSQAccept+0x74>
  807e48:	e0fffe17 	ldw	r3,-8(fp)
  807e4c:	00800044 	movi	r2,1
  807e50:	18800005 	stb	r2,0(r3)
  807e54:	e03fff15 	stw	zero,-4(fp)
  807e58:	00003306 	br	807f28 <OSQAccept+0x140>
  807e5c:	0005303a 	rdctl	r2,status
  807e60:	e0bff915 	stw	r2,-28(fp)
  807e64:	e0fff917 	ldw	r3,-28(fp)
  807e68:	00bfff84 	movi	r2,-2
  807e6c:	1884703a 	and	r2,r3,r2
  807e70:	1001703a 	wrctl	status,r2
  807e74:	e0bff917 	ldw	r2,-28(fp)
  807e78:	e0bffa15 	stw	r2,-24(fp)
  807e7c:	e0bffd17 	ldw	r2,-12(fp)
  807e80:	10800117 	ldw	r2,4(r2)
  807e84:	e0bffb15 	stw	r2,-20(fp)
  807e88:	e0bffb17 	ldw	r2,-20(fp)
  807e8c:	1080058b 	ldhu	r2,22(r2)
  807e90:	10bfffcc 	andi	r2,r2,65535
  807e94:	1005003a 	cmpeq	r2,r2,zero
  807e98:	1000191e 	bne	r2,zero,807f00 <OSQAccept+0x118>
  807e9c:	e0bffb17 	ldw	r2,-20(fp)
  807ea0:	10c00417 	ldw	r3,16(r2)
  807ea4:	18800017 	ldw	r2,0(r3)
  807ea8:	e0bffc15 	stw	r2,-16(fp)
  807eac:	18c00104 	addi	r3,r3,4
  807eb0:	e0bffb17 	ldw	r2,-20(fp)
  807eb4:	10c00415 	stw	r3,16(r2)
  807eb8:	e0bffb17 	ldw	r2,-20(fp)
  807ebc:	1080058b 	ldhu	r2,22(r2)
  807ec0:	10bfffc4 	addi	r2,r2,-1
  807ec4:	1007883a 	mov	r3,r2
  807ec8:	e0bffb17 	ldw	r2,-20(fp)
  807ecc:	10c0058d 	sth	r3,22(r2)
  807ed0:	e0bffb17 	ldw	r2,-20(fp)
  807ed4:	10c00417 	ldw	r3,16(r2)
  807ed8:	e0bffb17 	ldw	r2,-20(fp)
  807edc:	10800217 	ldw	r2,8(r2)
  807ee0:	1880041e 	bne	r3,r2,807ef4 <OSQAccept+0x10c>
  807ee4:	e0bffb17 	ldw	r2,-20(fp)
  807ee8:	10c00117 	ldw	r3,4(r2)
  807eec:	e0bffb17 	ldw	r2,-20(fp)
  807ef0:	10c00415 	stw	r3,16(r2)
  807ef4:	e0bffe17 	ldw	r2,-8(fp)
  807ef8:	10000005 	stb	zero,0(r2)
  807efc:	00000406 	br	807f10 <OSQAccept+0x128>
  807f00:	e0fffe17 	ldw	r3,-8(fp)
  807f04:	008007c4 	movi	r2,31
  807f08:	18800005 	stb	r2,0(r3)
  807f0c:	e03ffc15 	stw	zero,-16(fp)
  807f10:	e0bffa17 	ldw	r2,-24(fp)
  807f14:	e0bff815 	stw	r2,-32(fp)
  807f18:	e0bff817 	ldw	r2,-32(fp)
  807f1c:	1001703a 	wrctl	status,r2
  807f20:	e0bffc17 	ldw	r2,-16(fp)
  807f24:	e0bfff15 	stw	r2,-4(fp)
  807f28:	e0bfff17 	ldw	r2,-4(fp)
  807f2c:	e037883a 	mov	sp,fp
  807f30:	df000017 	ldw	fp,0(sp)
  807f34:	dec00104 	addi	sp,sp,4
  807f38:	f800283a 	ret

00807f3c <OSQCreate>:
  807f3c:	defff304 	addi	sp,sp,-52
  807f40:	dfc00c15 	stw	ra,48(sp)
  807f44:	df000b15 	stw	fp,44(sp)
  807f48:	df000b04 	addi	fp,sp,44
  807f4c:	e13ffd15 	stw	r4,-12(fp)
  807f50:	e17ffe0d 	sth	r5,-8(fp)
  807f54:	e03ffa15 	stw	zero,-24(fp)
  807f58:	00802074 	movhi	r2,129
  807f5c:	10898d04 	addi	r2,r2,9780
  807f60:	10800003 	ldbu	r2,0(r2)
  807f64:	10803fcc 	andi	r2,r2,255
  807f68:	1005003a 	cmpeq	r2,r2,zero
  807f6c:	1000021e 	bne	r2,zero,807f78 <OSQCreate+0x3c>
  807f70:	e03fff15 	stw	zero,-4(fp)
  807f74:	00007006 	br	808138 <OSQCreate+0x1fc>
  807f78:	0005303a 	rdctl	r2,status
  807f7c:	e0bff915 	stw	r2,-28(fp)
  807f80:	e0fff917 	ldw	r3,-28(fp)
  807f84:	00bfff84 	movi	r2,-2
  807f88:	1884703a 	and	r2,r3,r2
  807f8c:	1001703a 	wrctl	status,r2
  807f90:	e0bff917 	ldw	r2,-28(fp)
  807f94:	e0bffa15 	stw	r2,-24(fp)
  807f98:	00802074 	movhi	r2,129
  807f9c:	10898c04 	addi	r2,r2,9776
  807fa0:	10800017 	ldw	r2,0(r2)
  807fa4:	e0bffc15 	stw	r2,-16(fp)
  807fa8:	00802074 	movhi	r2,129
  807fac:	10898c04 	addi	r2,r2,9776
  807fb0:	10800017 	ldw	r2,0(r2)
  807fb4:	1005003a 	cmpeq	r2,r2,zero
  807fb8:	1000081e 	bne	r2,zero,807fdc <OSQCreate+0xa0>
  807fbc:	00802074 	movhi	r2,129
  807fc0:	10898c04 	addi	r2,r2,9776
  807fc4:	10800017 	ldw	r2,0(r2)
  807fc8:	10800117 	ldw	r2,4(r2)
  807fcc:	1007883a 	mov	r3,r2
  807fd0:	00802074 	movhi	r2,129
  807fd4:	10898c04 	addi	r2,r2,9776
  807fd8:	10c00015 	stw	r3,0(r2)
  807fdc:	e0bffa17 	ldw	r2,-24(fp)
  807fe0:	e0bff815 	stw	r2,-32(fp)
  807fe4:	e0bff817 	ldw	r2,-32(fp)
  807fe8:	1001703a 	wrctl	status,r2
  807fec:	e0bffc17 	ldw	r2,-16(fp)
  807ff0:	1005003a 	cmpeq	r2,r2,zero
  807ff4:	10004e1e 	bne	r2,zero,808130 <OSQCreate+0x1f4>
  807ff8:	0005303a 	rdctl	r2,status
  807ffc:	e0bff715 	stw	r2,-36(fp)
  808000:	e0fff717 	ldw	r3,-36(fp)
  808004:	00bfff84 	movi	r2,-2
  808008:	1884703a 	and	r2,r3,r2
  80800c:	1001703a 	wrctl	status,r2
  808010:	e0bff717 	ldw	r2,-36(fp)
  808014:	e0bffa15 	stw	r2,-24(fp)
  808018:	00802074 	movhi	r2,129
  80801c:	10898a04 	addi	r2,r2,9768
  808020:	10800017 	ldw	r2,0(r2)
  808024:	e0bffb15 	stw	r2,-20(fp)
  808028:	e0bffb17 	ldw	r2,-20(fp)
  80802c:	1005003a 	cmpeq	r2,r2,zero
  808030:	1000311e 	bne	r2,zero,8080f8 <OSQCreate+0x1bc>
  808034:	00802074 	movhi	r2,129
  808038:	10898a04 	addi	r2,r2,9768
  80803c:	10800017 	ldw	r2,0(r2)
  808040:	10c00017 	ldw	r3,0(r2)
  808044:	00802074 	movhi	r2,129
  808048:	10898a04 	addi	r2,r2,9768
  80804c:	10c00015 	stw	r3,0(r2)
  808050:	e0bffa17 	ldw	r2,-24(fp)
  808054:	e0bff615 	stw	r2,-40(fp)
  808058:	e0bff617 	ldw	r2,-40(fp)
  80805c:	1001703a 	wrctl	status,r2
  808060:	e0fffb17 	ldw	r3,-20(fp)
  808064:	e0bffd17 	ldw	r2,-12(fp)
  808068:	18800115 	stw	r2,4(r3)
  80806c:	e0bffe0b 	ldhu	r2,-8(fp)
  808070:	1085883a 	add	r2,r2,r2
  808074:	1085883a 	add	r2,r2,r2
  808078:	1007883a 	mov	r3,r2
  80807c:	e0bffd17 	ldw	r2,-12(fp)
  808080:	1887883a 	add	r3,r3,r2
  808084:	e0bffb17 	ldw	r2,-20(fp)
  808088:	10c00215 	stw	r3,8(r2)
  80808c:	e0fffb17 	ldw	r3,-20(fp)
  808090:	e0bffd17 	ldw	r2,-12(fp)
  808094:	18800315 	stw	r2,12(r3)
  808098:	e0fffb17 	ldw	r3,-20(fp)
  80809c:	e0bffd17 	ldw	r2,-12(fp)
  8080a0:	18800415 	stw	r2,16(r3)
  8080a4:	e0fffb17 	ldw	r3,-20(fp)
  8080a8:	e0bffe0b 	ldhu	r2,-8(fp)
  8080ac:	1880050d 	sth	r2,20(r3)
  8080b0:	e0bffb17 	ldw	r2,-20(fp)
  8080b4:	1000058d 	sth	zero,22(r2)
  8080b8:	e0fffc17 	ldw	r3,-16(fp)
  8080bc:	00800084 	movi	r2,2
  8080c0:	18800005 	stb	r2,0(r3)
  8080c4:	e0bffc17 	ldw	r2,-16(fp)
  8080c8:	1000020d 	sth	zero,8(r2)
  8080cc:	e0fffc17 	ldw	r3,-16(fp)
  8080d0:	e0bffb17 	ldw	r2,-20(fp)
  8080d4:	18800115 	stw	r2,4(r3)
  8080d8:	e0fffc17 	ldw	r3,-16(fp)
  8080dc:	00800fc4 	movi	r2,63
  8080e0:	18800385 	stb	r2,14(r3)
  8080e4:	e0bffc17 	ldw	r2,-16(fp)
  8080e8:	100003c5 	stb	zero,15(r2)
  8080ec:	e13ffc17 	ldw	r4,-16(fp)
  8080f0:	0804fa40 	call	804fa4 <OS_EventWaitListInit>
  8080f4:	00000e06 	br	808130 <OSQCreate+0x1f4>
  8080f8:	00802074 	movhi	r2,129
  8080fc:	10898c04 	addi	r2,r2,9776
  808100:	10c00017 	ldw	r3,0(r2)
  808104:	e0bffc17 	ldw	r2,-16(fp)
  808108:	10c00115 	stw	r3,4(r2)
  80810c:	00c02074 	movhi	r3,129
  808110:	18c98c04 	addi	r3,r3,9776
  808114:	e0bffc17 	ldw	r2,-16(fp)
  808118:	18800015 	stw	r2,0(r3)
  80811c:	e0bffa17 	ldw	r2,-24(fp)
  808120:	e0bff515 	stw	r2,-44(fp)
  808124:	e0bff517 	ldw	r2,-44(fp)
  808128:	1001703a 	wrctl	status,r2
  80812c:	e03ffc15 	stw	zero,-16(fp)
  808130:	e0bffc17 	ldw	r2,-16(fp)
  808134:	e0bfff15 	stw	r2,-4(fp)
  808138:	e0bfff17 	ldw	r2,-4(fp)
  80813c:	e037883a 	mov	sp,fp
  808140:	dfc00117 	ldw	ra,4(sp)
  808144:	df000017 	ldw	fp,0(sp)
  808148:	dec00204 	addi	sp,sp,8
  80814c:	f800283a 	ret

00808150 <OSQDel>:
  808150:	defff004 	addi	sp,sp,-64
  808154:	dfc00f15 	stw	ra,60(sp)
  808158:	df000e15 	stw	fp,56(sp)
  80815c:	df000e04 	addi	fp,sp,56
  808160:	e13ffb15 	stw	r4,-20(fp)
  808164:	e1bffd15 	stw	r6,-12(fp)
  808168:	e17ffc05 	stb	r5,-16(fp)
  80816c:	e03ff715 	stw	zero,-36(fp)
  808170:	e0bffd17 	ldw	r2,-12(fp)
  808174:	1004c03a 	cmpne	r2,r2,zero
  808178:	1000031e 	bne	r2,zero,808188 <OSQDel+0x38>
  80817c:	e0bffb17 	ldw	r2,-20(fp)
  808180:	e0bfff15 	stw	r2,-4(fp)
  808184:	0000ac06 	br	808438 <OSQDel+0x2e8>
  808188:	e0bffb17 	ldw	r2,-20(fp)
  80818c:	1004c03a 	cmpne	r2,r2,zero
  808190:	1000061e 	bne	r2,zero,8081ac <OSQDel+0x5c>
  808194:	e0fffd17 	ldw	r3,-12(fp)
  808198:	00800104 	movi	r2,4
  80819c:	18800005 	stb	r2,0(r3)
  8081a0:	e0fffb17 	ldw	r3,-20(fp)
  8081a4:	e0ffff15 	stw	r3,-4(fp)
  8081a8:	0000a306 	br	808438 <OSQDel+0x2e8>
  8081ac:	e0bffb17 	ldw	r2,-20(fp)
  8081b0:	10800003 	ldbu	r2,0(r2)
  8081b4:	10803fcc 	andi	r2,r2,255
  8081b8:	108000a0 	cmpeqi	r2,r2,2
  8081bc:	1000061e 	bne	r2,zero,8081d8 <OSQDel+0x88>
  8081c0:	e0fffd17 	ldw	r3,-12(fp)
  8081c4:	00800044 	movi	r2,1
  8081c8:	18800005 	stb	r2,0(r3)
  8081cc:	e0bffb17 	ldw	r2,-20(fp)
  8081d0:	e0bfff15 	stw	r2,-4(fp)
  8081d4:	00009806 	br	808438 <OSQDel+0x2e8>
  8081d8:	00802074 	movhi	r2,129
  8081dc:	10898d04 	addi	r2,r2,9780
  8081e0:	10800003 	ldbu	r2,0(r2)
  8081e4:	10803fcc 	andi	r2,r2,255
  8081e8:	1005003a 	cmpeq	r2,r2,zero
  8081ec:	1000061e 	bne	r2,zero,808208 <OSQDel+0xb8>
  8081f0:	e0fffd17 	ldw	r3,-12(fp)
  8081f4:	008003c4 	movi	r2,15
  8081f8:	18800005 	stb	r2,0(r3)
  8081fc:	e0fffb17 	ldw	r3,-20(fp)
  808200:	e0ffff15 	stw	r3,-4(fp)
  808204:	00008c06 	br	808438 <OSQDel+0x2e8>
  808208:	0005303a 	rdctl	r2,status
  80820c:	e0bff615 	stw	r2,-40(fp)
  808210:	e0fff617 	ldw	r3,-40(fp)
  808214:	00bfff84 	movi	r2,-2
  808218:	1884703a 	and	r2,r3,r2
  80821c:	1001703a 	wrctl	status,r2
  808220:	e0bff617 	ldw	r2,-40(fp)
  808224:	e0bff715 	stw	r2,-36(fp)
  808228:	e0bffb17 	ldw	r2,-20(fp)
  80822c:	10800283 	ldbu	r2,10(r2)
  808230:	10803fcc 	andi	r2,r2,255
  808234:	1005003a 	cmpeq	r2,r2,zero
  808238:	1000031e 	bne	r2,zero,808248 <OSQDel+0xf8>
  80823c:	00800044 	movi	r2,1
  808240:	e0bffa05 	stb	r2,-24(fp)
  808244:	00000106 	br	80824c <OSQDel+0xfc>
  808248:	e03ffa05 	stb	zero,-24(fp)
  80824c:	e0bffc03 	ldbu	r2,-16(fp)
  808250:	e0bffe15 	stw	r2,-8(fp)
  808254:	e0fffe17 	ldw	r3,-8(fp)
  808258:	1805003a 	cmpeq	r2,r3,zero
  80825c:	1000041e 	bne	r2,zero,808270 <OSQDel+0x120>
  808260:	e0fffe17 	ldw	r3,-8(fp)
  808264:	18800060 	cmpeqi	r2,r3,1
  808268:	1000391e 	bne	r2,zero,808350 <OSQDel+0x200>
  80826c:	00006706 	br	80840c <OSQDel+0x2bc>
  808270:	e0bffa03 	ldbu	r2,-24(fp)
  808274:	1004c03a 	cmpne	r2,r2,zero
  808278:	1000261e 	bne	r2,zero,808314 <OSQDel+0x1c4>
  80827c:	e0fffb17 	ldw	r3,-20(fp)
  808280:	00800fc4 	movi	r2,63
  808284:	18800385 	stb	r2,14(r3)
  808288:	e0bffb17 	ldw	r2,-20(fp)
  80828c:	100003c5 	stb	zero,15(r2)
  808290:	e0bffb17 	ldw	r2,-20(fp)
  808294:	10800117 	ldw	r2,4(r2)
  808298:	e0bff815 	stw	r2,-32(fp)
  80829c:	00802074 	movhi	r2,129
  8082a0:	10898a04 	addi	r2,r2,9768
  8082a4:	10c00017 	ldw	r3,0(r2)
  8082a8:	e0bff817 	ldw	r2,-32(fp)
  8082ac:	10c00015 	stw	r3,0(r2)
  8082b0:	00c02074 	movhi	r3,129
  8082b4:	18c98a04 	addi	r3,r3,9768
  8082b8:	e0bff817 	ldw	r2,-32(fp)
  8082bc:	18800015 	stw	r2,0(r3)
  8082c0:	e0bffb17 	ldw	r2,-20(fp)
  8082c4:	10000005 	stb	zero,0(r2)
  8082c8:	00802074 	movhi	r2,129
  8082cc:	10898c04 	addi	r2,r2,9776
  8082d0:	10c00017 	ldw	r3,0(r2)
  8082d4:	e0bffb17 	ldw	r2,-20(fp)
  8082d8:	10c00115 	stw	r3,4(r2)
  8082dc:	e0bffb17 	ldw	r2,-20(fp)
  8082e0:	1000020d 	sth	zero,8(r2)
  8082e4:	00c02074 	movhi	r3,129
  8082e8:	18c98c04 	addi	r3,r3,9776
  8082ec:	e0bffb17 	ldw	r2,-20(fp)
  8082f0:	18800015 	stw	r2,0(r3)
  8082f4:	e0bff717 	ldw	r2,-36(fp)
  8082f8:	e0bff515 	stw	r2,-44(fp)
  8082fc:	e0bff517 	ldw	r2,-44(fp)
  808300:	1001703a 	wrctl	status,r2
  808304:	e0bffd17 	ldw	r2,-12(fp)
  808308:	10000005 	stb	zero,0(r2)
  80830c:	e03ff915 	stw	zero,-28(fp)
  808310:	00004706 	br	808430 <OSQDel+0x2e0>
  808314:	e0bff717 	ldw	r2,-36(fp)
  808318:	e0bff415 	stw	r2,-48(fp)
  80831c:	e0bff417 	ldw	r2,-48(fp)
  808320:	1001703a 	wrctl	status,r2
  808324:	e0fffd17 	ldw	r3,-12(fp)
  808328:	00801244 	movi	r2,73
  80832c:	18800005 	stb	r2,0(r3)
  808330:	e0bffb17 	ldw	r2,-20(fp)
  808334:	e0bff915 	stw	r2,-28(fp)
  808338:	00003d06 	br	808430 <OSQDel+0x2e0>
  80833c:	e13ffb17 	ldw	r4,-20(fp)
  808340:	000b883a 	mov	r5,zero
  808344:	01800104 	movi	r6,4
  808348:	000f883a 	mov	r7,zero
  80834c:	08049f00 	call	8049f0 <OS_EventTaskRdy>
  808350:	e0bffb17 	ldw	r2,-20(fp)
  808354:	10800283 	ldbu	r2,10(r2)
  808358:	10803fcc 	andi	r2,r2,255
  80835c:	1004c03a 	cmpne	r2,r2,zero
  808360:	103ff61e 	bne	r2,zero,80833c <OSQDel+0x1ec>
  808364:	e0fffb17 	ldw	r3,-20(fp)
  808368:	00800fc4 	movi	r2,63
  80836c:	18800385 	stb	r2,14(r3)
  808370:	e0bffb17 	ldw	r2,-20(fp)
  808374:	100003c5 	stb	zero,15(r2)
  808378:	e0bffb17 	ldw	r2,-20(fp)
  80837c:	10800117 	ldw	r2,4(r2)
  808380:	e0bff815 	stw	r2,-32(fp)
  808384:	00802074 	movhi	r2,129
  808388:	10898a04 	addi	r2,r2,9768
  80838c:	10c00017 	ldw	r3,0(r2)
  808390:	e0bff817 	ldw	r2,-32(fp)
  808394:	10c00015 	stw	r3,0(r2)
  808398:	00c02074 	movhi	r3,129
  80839c:	18c98a04 	addi	r3,r3,9768
  8083a0:	e0bff817 	ldw	r2,-32(fp)
  8083a4:	18800015 	stw	r2,0(r3)
  8083a8:	e0bffb17 	ldw	r2,-20(fp)
  8083ac:	10000005 	stb	zero,0(r2)
  8083b0:	00802074 	movhi	r2,129
  8083b4:	10898c04 	addi	r2,r2,9776
  8083b8:	10c00017 	ldw	r3,0(r2)
  8083bc:	e0bffb17 	ldw	r2,-20(fp)
  8083c0:	10c00115 	stw	r3,4(r2)
  8083c4:	e0bffb17 	ldw	r2,-20(fp)
  8083c8:	1000020d 	sth	zero,8(r2)
  8083cc:	00c02074 	movhi	r3,129
  8083d0:	18c98c04 	addi	r3,r3,9776
  8083d4:	e0bffb17 	ldw	r2,-20(fp)
  8083d8:	18800015 	stw	r2,0(r3)
  8083dc:	e0bff717 	ldw	r2,-36(fp)
  8083e0:	e0bff315 	stw	r2,-52(fp)
  8083e4:	e0bff317 	ldw	r2,-52(fp)
  8083e8:	1001703a 	wrctl	status,r2
  8083ec:	e0bffa03 	ldbu	r2,-24(fp)
  8083f0:	10800058 	cmpnei	r2,r2,1
  8083f4:	1000011e 	bne	r2,zero,8083fc <OSQDel+0x2ac>
  8083f8:	08054300 	call	805430 <OS_Sched>
  8083fc:	e0bffd17 	ldw	r2,-12(fp)
  808400:	10000005 	stb	zero,0(r2)
  808404:	e03ff915 	stw	zero,-28(fp)
  808408:	00000906 	br	808430 <OSQDel+0x2e0>
  80840c:	e0bff717 	ldw	r2,-36(fp)
  808410:	e0bff215 	stw	r2,-56(fp)
  808414:	e0bff217 	ldw	r2,-56(fp)
  808418:	1001703a 	wrctl	status,r2
  80841c:	e0fffd17 	ldw	r3,-12(fp)
  808420:	008001c4 	movi	r2,7
  808424:	18800005 	stb	r2,0(r3)
  808428:	e0bffb17 	ldw	r2,-20(fp)
  80842c:	e0bff915 	stw	r2,-28(fp)
  808430:	e0bff917 	ldw	r2,-28(fp)
  808434:	e0bfff15 	stw	r2,-4(fp)
  808438:	e0bfff17 	ldw	r2,-4(fp)
  80843c:	e037883a 	mov	sp,fp
  808440:	dfc00117 	ldw	ra,4(sp)
  808444:	df000017 	ldw	fp,0(sp)
  808448:	dec00204 	addi	sp,sp,8
  80844c:	f800283a 	ret

00808450 <OSQFlush>:
  808450:	defff904 	addi	sp,sp,-28
  808454:	df000615 	stw	fp,24(sp)
  808458:	df000604 	addi	fp,sp,24
  80845c:	e13ffe15 	stw	r4,-8(fp)
  808460:	e03ffc15 	stw	zero,-16(fp)
  808464:	e0bffe17 	ldw	r2,-8(fp)
  808468:	1004c03a 	cmpne	r2,r2,zero
  80846c:	1000031e 	bne	r2,zero,80847c <OSQFlush+0x2c>
  808470:	00800104 	movi	r2,4
  808474:	e0bfff15 	stw	r2,-4(fp)
  808478:	00002206 	br	808504 <OSQFlush+0xb4>
  80847c:	e0bffe17 	ldw	r2,-8(fp)
  808480:	10800003 	ldbu	r2,0(r2)
  808484:	10803fcc 	andi	r2,r2,255
  808488:	108000a0 	cmpeqi	r2,r2,2
  80848c:	1000031e 	bne	r2,zero,80849c <OSQFlush+0x4c>
  808490:	00800044 	movi	r2,1
  808494:	e0bfff15 	stw	r2,-4(fp)
  808498:	00001a06 	br	808504 <OSQFlush+0xb4>
  80849c:	0005303a 	rdctl	r2,status
  8084a0:	e0bffb15 	stw	r2,-20(fp)
  8084a4:	e0fffb17 	ldw	r3,-20(fp)
  8084a8:	00bfff84 	movi	r2,-2
  8084ac:	1884703a 	and	r2,r3,r2
  8084b0:	1001703a 	wrctl	status,r2
  8084b4:	e0bffb17 	ldw	r2,-20(fp)
  8084b8:	e0bffc15 	stw	r2,-16(fp)
  8084bc:	e0bffe17 	ldw	r2,-8(fp)
  8084c0:	10800117 	ldw	r2,4(r2)
  8084c4:	e0bffd15 	stw	r2,-12(fp)
  8084c8:	e0bffd17 	ldw	r2,-12(fp)
  8084cc:	10c00117 	ldw	r3,4(r2)
  8084d0:	e0bffd17 	ldw	r2,-12(fp)
  8084d4:	10c00315 	stw	r3,12(r2)
  8084d8:	e0bffd17 	ldw	r2,-12(fp)
  8084dc:	10c00117 	ldw	r3,4(r2)
  8084e0:	e0bffd17 	ldw	r2,-12(fp)
  8084e4:	10c00415 	stw	r3,16(r2)
  8084e8:	e0bffd17 	ldw	r2,-12(fp)
  8084ec:	1000058d 	sth	zero,22(r2)
  8084f0:	e0bffc17 	ldw	r2,-16(fp)
  8084f4:	e0bffa15 	stw	r2,-24(fp)
  8084f8:	e0bffa17 	ldw	r2,-24(fp)
  8084fc:	1001703a 	wrctl	status,r2
  808500:	e03fff15 	stw	zero,-4(fp)
  808504:	e0bfff17 	ldw	r2,-4(fp)
  808508:	e037883a 	mov	sp,fp
  80850c:	df000017 	ldw	fp,0(sp)
  808510:	dec00104 	addi	sp,sp,4
  808514:	f800283a 	ret

00808518 <OSQPend>:
  808518:	defff104 	addi	sp,sp,-60
  80851c:	dfc00e15 	stw	ra,56(sp)
  808520:	df000d15 	stw	fp,52(sp)
  808524:	df000d04 	addi	fp,sp,52
  808528:	e13ffb15 	stw	r4,-20(fp)
  80852c:	e1bffd15 	stw	r6,-12(fp)
  808530:	e17ffc0d 	sth	r5,-16(fp)
  808534:	e03ff815 	stw	zero,-32(fp)
  808538:	e0bffd17 	ldw	r2,-12(fp)
  80853c:	1004c03a 	cmpne	r2,r2,zero
  808540:	1000021e 	bne	r2,zero,80854c <OSQPend+0x34>
  808544:	e03fff15 	stw	zero,-4(fp)
  808548:	0000b506 	br	808820 <OSQPend+0x308>
  80854c:	e0bffb17 	ldw	r2,-20(fp)
  808550:	1004c03a 	cmpne	r2,r2,zero
  808554:	1000051e 	bne	r2,zero,80856c <OSQPend+0x54>
  808558:	e0fffd17 	ldw	r3,-12(fp)
  80855c:	00800104 	movi	r2,4
  808560:	18800005 	stb	r2,0(r3)
  808564:	e03fff15 	stw	zero,-4(fp)
  808568:	0000ad06 	br	808820 <OSQPend+0x308>
  80856c:	e0bffb17 	ldw	r2,-20(fp)
  808570:	10800003 	ldbu	r2,0(r2)
  808574:	10803fcc 	andi	r2,r2,255
  808578:	108000a0 	cmpeqi	r2,r2,2
  80857c:	1000051e 	bne	r2,zero,808594 <OSQPend+0x7c>
  808580:	e0fffd17 	ldw	r3,-12(fp)
  808584:	00800044 	movi	r2,1
  808588:	18800005 	stb	r2,0(r3)
  80858c:	e03fff15 	stw	zero,-4(fp)
  808590:	0000a306 	br	808820 <OSQPend+0x308>
  808594:	00802074 	movhi	r2,129
  808598:	10898d04 	addi	r2,r2,9780
  80859c:	10800003 	ldbu	r2,0(r2)
  8085a0:	10803fcc 	andi	r2,r2,255
  8085a4:	1005003a 	cmpeq	r2,r2,zero
  8085a8:	1000051e 	bne	r2,zero,8085c0 <OSQPend+0xa8>
  8085ac:	e0fffd17 	ldw	r3,-12(fp)
  8085b0:	00800084 	movi	r2,2
  8085b4:	18800005 	stb	r2,0(r3)
  8085b8:	e03fff15 	stw	zero,-4(fp)
  8085bc:	00009806 	br	808820 <OSQPend+0x308>
  8085c0:	00802074 	movhi	r2,129
  8085c4:	10897f04 	addi	r2,r2,9724
  8085c8:	10800003 	ldbu	r2,0(r2)
  8085cc:	10803fcc 	andi	r2,r2,255
  8085d0:	1005003a 	cmpeq	r2,r2,zero
  8085d4:	1000051e 	bne	r2,zero,8085ec <OSQPend+0xd4>
  8085d8:	e0fffd17 	ldw	r3,-12(fp)
  8085dc:	00800344 	movi	r2,13
  8085e0:	18800005 	stb	r2,0(r3)
  8085e4:	e03fff15 	stw	zero,-4(fp)
  8085e8:	00008d06 	br	808820 <OSQPend+0x308>
  8085ec:	0005303a 	rdctl	r2,status
  8085f0:	e0bff715 	stw	r2,-36(fp)
  8085f4:	e0fff717 	ldw	r3,-36(fp)
  8085f8:	00bfff84 	movi	r2,-2
  8085fc:	1884703a 	and	r2,r3,r2
  808600:	1001703a 	wrctl	status,r2
  808604:	e0bff717 	ldw	r2,-36(fp)
  808608:	e0bff815 	stw	r2,-32(fp)
  80860c:	e0bffb17 	ldw	r2,-20(fp)
  808610:	10800117 	ldw	r2,4(r2)
  808614:	e0bff915 	stw	r2,-28(fp)
  808618:	e0bff917 	ldw	r2,-28(fp)
  80861c:	1080058b 	ldhu	r2,22(r2)
  808620:	10bfffcc 	andi	r2,r2,65535
  808624:	1005003a 	cmpeq	r2,r2,zero
  808628:	10001f1e 	bne	r2,zero,8086a8 <OSQPend+0x190>
  80862c:	e0bff917 	ldw	r2,-28(fp)
  808630:	10c00417 	ldw	r3,16(r2)
  808634:	18800017 	ldw	r2,0(r3)
  808638:	e0bffa15 	stw	r2,-24(fp)
  80863c:	18c00104 	addi	r3,r3,4
  808640:	e0bff917 	ldw	r2,-28(fp)
  808644:	10c00415 	stw	r3,16(r2)
  808648:	e0bff917 	ldw	r2,-28(fp)
  80864c:	1080058b 	ldhu	r2,22(r2)
  808650:	10bfffc4 	addi	r2,r2,-1
  808654:	1007883a 	mov	r3,r2
  808658:	e0bff917 	ldw	r2,-28(fp)
  80865c:	10c0058d 	sth	r3,22(r2)
  808660:	e0bff917 	ldw	r2,-28(fp)
  808664:	10c00417 	ldw	r3,16(r2)
  808668:	e0bff917 	ldw	r2,-28(fp)
  80866c:	10800217 	ldw	r2,8(r2)
  808670:	1880041e 	bne	r3,r2,808684 <OSQPend+0x16c>
  808674:	e0bff917 	ldw	r2,-28(fp)
  808678:	10c00117 	ldw	r3,4(r2)
  80867c:	e0bff917 	ldw	r2,-28(fp)
  808680:	10c00415 	stw	r3,16(r2)
  808684:	e0bff817 	ldw	r2,-32(fp)
  808688:	e0bff615 	stw	r2,-40(fp)
  80868c:	e0bff617 	ldw	r2,-40(fp)
  808690:	1001703a 	wrctl	status,r2
  808694:	e0bffd17 	ldw	r2,-12(fp)
  808698:	10000005 	stb	zero,0(r2)
  80869c:	e0bffa17 	ldw	r2,-24(fp)
  8086a0:	e0bfff15 	stw	r2,-4(fp)
  8086a4:	00005e06 	br	808820 <OSQPend+0x308>
  8086a8:	00802074 	movhi	r2,129
  8086ac:	10898e04 	addi	r2,r2,9784
  8086b0:	10c00017 	ldw	r3,0(r2)
  8086b4:	00802074 	movhi	r2,129
  8086b8:	10898e04 	addi	r2,r2,9784
  8086bc:	10800017 	ldw	r2,0(r2)
  8086c0:	10800c03 	ldbu	r2,48(r2)
  8086c4:	10800114 	ori	r2,r2,4
  8086c8:	18800c05 	stb	r2,48(r3)
  8086cc:	00802074 	movhi	r2,129
  8086d0:	10898e04 	addi	r2,r2,9784
  8086d4:	10800017 	ldw	r2,0(r2)
  8086d8:	10000c45 	stb	zero,49(r2)
  8086dc:	00802074 	movhi	r2,129
  8086e0:	10898e04 	addi	r2,r2,9784
  8086e4:	10c00017 	ldw	r3,0(r2)
  8086e8:	e0bffc0b 	ldhu	r2,-16(fp)
  8086ec:	18800b8d 	sth	r2,46(r3)
  8086f0:	e13ffb17 	ldw	r4,-20(fp)
  8086f4:	0804b840 	call	804b84 <OS_EventTaskWait>
  8086f8:	e0bff817 	ldw	r2,-32(fp)
  8086fc:	e0bff515 	stw	r2,-44(fp)
  808700:	e0bff517 	ldw	r2,-44(fp)
  808704:	1001703a 	wrctl	status,r2
  808708:	08054300 	call	805430 <OS_Sched>
  80870c:	0005303a 	rdctl	r2,status
  808710:	e0bff415 	stw	r2,-48(fp)
  808714:	e0fff417 	ldw	r3,-48(fp)
  808718:	00bfff84 	movi	r2,-2
  80871c:	1884703a 	and	r2,r3,r2
  808720:	1001703a 	wrctl	status,r2
  808724:	e0bff417 	ldw	r2,-48(fp)
  808728:	e0bff815 	stw	r2,-32(fp)
  80872c:	00802074 	movhi	r2,129
  808730:	10898e04 	addi	r2,r2,9784
  808734:	10800017 	ldw	r2,0(r2)
  808738:	10800c43 	ldbu	r2,49(r2)
  80873c:	10803fcc 	andi	r2,r2,255
  808740:	e0bffe15 	stw	r2,-8(fp)
  808744:	e0fffe17 	ldw	r3,-8(fp)
  808748:	1805003a 	cmpeq	r2,r3,zero
  80874c:	1000041e 	bne	r2,zero,808760 <OSQPend+0x248>
  808750:	e0fffe17 	ldw	r3,-8(fp)
  808754:	188000a0 	cmpeqi	r2,r3,2
  808758:	1000091e 	bne	r2,zero,808780 <OSQPend+0x268>
  80875c:	00000d06 	br	808794 <OSQPend+0x27c>
  808760:	00802074 	movhi	r2,129
  808764:	10898e04 	addi	r2,r2,9784
  808768:	10800017 	ldw	r2,0(r2)
  80876c:	10800917 	ldw	r2,36(r2)
  808770:	e0bffa15 	stw	r2,-24(fp)
  808774:	e0bffd17 	ldw	r2,-12(fp)
  808778:	10000005 	stb	zero,0(r2)
  80877c:	00000e06 	br	8087b8 <OSQPend+0x2a0>
  808780:	e03ffa15 	stw	zero,-24(fp)
  808784:	e0fffd17 	ldw	r3,-12(fp)
  808788:	00800384 	movi	r2,14
  80878c:	18800005 	stb	r2,0(r3)
  808790:	00000906 	br	8087b8 <OSQPend+0x2a0>
  808794:	00802074 	movhi	r2,129
  808798:	10898e04 	addi	r2,r2,9784
  80879c:	11000017 	ldw	r4,0(r2)
  8087a0:	e17ffb17 	ldw	r5,-20(fp)
  8087a4:	0804de80 	call	804de8 <OS_EventTaskRemove>
  8087a8:	e03ffa15 	stw	zero,-24(fp)
  8087ac:	e0fffd17 	ldw	r3,-12(fp)
  8087b0:	00800284 	movi	r2,10
  8087b4:	18800005 	stb	r2,0(r3)
  8087b8:	00802074 	movhi	r2,129
  8087bc:	10898e04 	addi	r2,r2,9784
  8087c0:	10800017 	ldw	r2,0(r2)
  8087c4:	10000c05 	stb	zero,48(r2)
  8087c8:	00802074 	movhi	r2,129
  8087cc:	10898e04 	addi	r2,r2,9784
  8087d0:	10800017 	ldw	r2,0(r2)
  8087d4:	10000c45 	stb	zero,49(r2)
  8087d8:	00802074 	movhi	r2,129
  8087dc:	10898e04 	addi	r2,r2,9784
  8087e0:	10800017 	ldw	r2,0(r2)
  8087e4:	10000715 	stw	zero,28(r2)
  8087e8:	00802074 	movhi	r2,129
  8087ec:	10898e04 	addi	r2,r2,9784
  8087f0:	10800017 	ldw	r2,0(r2)
  8087f4:	10000815 	stw	zero,32(r2)
  8087f8:	00802074 	movhi	r2,129
  8087fc:	10898e04 	addi	r2,r2,9784
  808800:	10800017 	ldw	r2,0(r2)
  808804:	10000915 	stw	zero,36(r2)
  808808:	e0bff817 	ldw	r2,-32(fp)
  80880c:	e0bff315 	stw	r2,-52(fp)
  808810:	e0bff317 	ldw	r2,-52(fp)
  808814:	1001703a 	wrctl	status,r2
  808818:	e0bffa17 	ldw	r2,-24(fp)
  80881c:	e0bfff15 	stw	r2,-4(fp)
  808820:	e0bfff17 	ldw	r2,-4(fp)
  808824:	e037883a 	mov	sp,fp
  808828:	dfc00117 	ldw	ra,4(sp)
  80882c:	df000017 	ldw	fp,0(sp)
  808830:	dec00204 	addi	sp,sp,8
  808834:	f800283a 	ret

00808838 <OSQPendAbort>:
  808838:	defff504 	addi	sp,sp,-44
  80883c:	dfc00a15 	stw	ra,40(sp)
  808840:	df000915 	stw	fp,36(sp)
  808844:	df000904 	addi	fp,sp,36
  808848:	e13ffc15 	stw	r4,-16(fp)
  80884c:	e1bffe15 	stw	r6,-8(fp)
  808850:	e17ffd05 	stb	r5,-12(fp)
  808854:	e03ffa15 	stw	zero,-24(fp)
  808858:	e0bffe17 	ldw	r2,-8(fp)
  80885c:	1004c03a 	cmpne	r2,r2,zero
  808860:	1000021e 	bne	r2,zero,80886c <OSQPendAbort+0x34>
  808864:	e03fff15 	stw	zero,-4(fp)
  808868:	00004c06 	br	80899c <OSQPendAbort+0x164>
  80886c:	e0bffc17 	ldw	r2,-16(fp)
  808870:	1004c03a 	cmpne	r2,r2,zero
  808874:	1000051e 	bne	r2,zero,80888c <OSQPendAbort+0x54>
  808878:	e0fffe17 	ldw	r3,-8(fp)
  80887c:	00800104 	movi	r2,4
  808880:	18800005 	stb	r2,0(r3)
  808884:	e03fff15 	stw	zero,-4(fp)
  808888:	00004406 	br	80899c <OSQPendAbort+0x164>
  80888c:	e0bffc17 	ldw	r2,-16(fp)
  808890:	10800003 	ldbu	r2,0(r2)
  808894:	10803fcc 	andi	r2,r2,255
  808898:	108000a0 	cmpeqi	r2,r2,2
  80889c:	1000051e 	bne	r2,zero,8088b4 <OSQPendAbort+0x7c>
  8088a0:	e0fffe17 	ldw	r3,-8(fp)
  8088a4:	00800044 	movi	r2,1
  8088a8:	18800005 	stb	r2,0(r3)
  8088ac:	e03fff15 	stw	zero,-4(fp)
  8088b0:	00003a06 	br	80899c <OSQPendAbort+0x164>
  8088b4:	0005303a 	rdctl	r2,status
  8088b8:	e0bff915 	stw	r2,-28(fp)
  8088bc:	e0fff917 	ldw	r3,-28(fp)
  8088c0:	00bfff84 	movi	r2,-2
  8088c4:	1884703a 	and	r2,r3,r2
  8088c8:	1001703a 	wrctl	status,r2
  8088cc:	e0bff917 	ldw	r2,-28(fp)
  8088d0:	e0bffa15 	stw	r2,-24(fp)
  8088d4:	e0bffc17 	ldw	r2,-16(fp)
  8088d8:	10800283 	ldbu	r2,10(r2)
  8088dc:	10803fcc 	andi	r2,r2,255
  8088e0:	1005003a 	cmpeq	r2,r2,zero
  8088e4:	1000261e 	bne	r2,zero,808980 <OSQPendAbort+0x148>
  8088e8:	e03ffb05 	stb	zero,-20(fp)
  8088ec:	e0bffd03 	ldbu	r2,-12(fp)
  8088f0:	10800060 	cmpeqi	r2,r2,1
  8088f4:	1000091e 	bne	r2,zero,80891c <OSQPendAbort+0xe4>
  8088f8:	00000e06 	br	808934 <OSQPendAbort+0xfc>
  8088fc:	e13ffc17 	ldw	r4,-16(fp)
  808900:	000b883a 	mov	r5,zero
  808904:	01800104 	movi	r6,4
  808908:	01c00084 	movi	r7,2
  80890c:	08049f00 	call	8049f0 <OS_EventTaskRdy>
  808910:	e0bffb03 	ldbu	r2,-20(fp)
  808914:	10800044 	addi	r2,r2,1
  808918:	e0bffb05 	stb	r2,-20(fp)
  80891c:	e0bffc17 	ldw	r2,-16(fp)
  808920:	10800283 	ldbu	r2,10(r2)
  808924:	10803fcc 	andi	r2,r2,255
  808928:	1004c03a 	cmpne	r2,r2,zero
  80892c:	103ff31e 	bne	r2,zero,8088fc <OSQPendAbort+0xc4>
  808930:	00000806 	br	808954 <OSQPendAbort+0x11c>
  808934:	e13ffc17 	ldw	r4,-16(fp)
  808938:	000b883a 	mov	r5,zero
  80893c:	01800104 	movi	r6,4
  808940:	01c00084 	movi	r7,2
  808944:	08049f00 	call	8049f0 <OS_EventTaskRdy>
  808948:	e0bffb03 	ldbu	r2,-20(fp)
  80894c:	10800044 	addi	r2,r2,1
  808950:	e0bffb05 	stb	r2,-20(fp)
  808954:	e0bffa17 	ldw	r2,-24(fp)
  808958:	e0bff815 	stw	r2,-32(fp)
  80895c:	e0bff817 	ldw	r2,-32(fp)
  808960:	1001703a 	wrctl	status,r2
  808964:	08054300 	call	805430 <OS_Sched>
  808968:	e0fffe17 	ldw	r3,-8(fp)
  80896c:	00800384 	movi	r2,14
  808970:	18800005 	stb	r2,0(r3)
  808974:	e0bffb03 	ldbu	r2,-20(fp)
  808978:	e0bfff15 	stw	r2,-4(fp)
  80897c:	00000706 	br	80899c <OSQPendAbort+0x164>
  808980:	e0bffa17 	ldw	r2,-24(fp)
  808984:	e0bff715 	stw	r2,-36(fp)
  808988:	e0bff717 	ldw	r2,-36(fp)
  80898c:	1001703a 	wrctl	status,r2
  808990:	e0bffe17 	ldw	r2,-8(fp)
  808994:	10000005 	stb	zero,0(r2)
  808998:	e03fff15 	stw	zero,-4(fp)
  80899c:	e0bfff17 	ldw	r2,-4(fp)
  8089a0:	e037883a 	mov	sp,fp
  8089a4:	dfc00117 	ldw	ra,4(sp)
  8089a8:	df000017 	ldw	fp,0(sp)
  8089ac:	dec00204 	addi	sp,sp,8
  8089b0:	f800283a 	ret

008089b4 <OSQPost>:
  8089b4:	defff504 	addi	sp,sp,-44
  8089b8:	dfc00a15 	stw	ra,40(sp)
  8089bc:	df000915 	stw	fp,36(sp)
  8089c0:	df000904 	addi	fp,sp,36
  8089c4:	e13ffd15 	stw	r4,-12(fp)
  8089c8:	e17ffe15 	stw	r5,-8(fp)
  8089cc:	e03ffb15 	stw	zero,-20(fp)
  8089d0:	e0bffd17 	ldw	r2,-12(fp)
  8089d4:	1004c03a 	cmpne	r2,r2,zero
  8089d8:	1000031e 	bne	r2,zero,8089e8 <OSQPost+0x34>
  8089dc:	00800104 	movi	r2,4
  8089e0:	e0bfff15 	stw	r2,-4(fp)
  8089e4:	00004d06 	br	808b1c <OSQPost+0x168>
  8089e8:	e0bffd17 	ldw	r2,-12(fp)
  8089ec:	10800003 	ldbu	r2,0(r2)
  8089f0:	10803fcc 	andi	r2,r2,255
  8089f4:	108000a0 	cmpeqi	r2,r2,2
  8089f8:	1000031e 	bne	r2,zero,808a08 <OSQPost+0x54>
  8089fc:	00800044 	movi	r2,1
  808a00:	e0bfff15 	stw	r2,-4(fp)
  808a04:	00004506 	br	808b1c <OSQPost+0x168>
  808a08:	0005303a 	rdctl	r2,status
  808a0c:	e0bffa15 	stw	r2,-24(fp)
  808a10:	e0fffa17 	ldw	r3,-24(fp)
  808a14:	00bfff84 	movi	r2,-2
  808a18:	1884703a 	and	r2,r3,r2
  808a1c:	1001703a 	wrctl	status,r2
  808a20:	e0bffa17 	ldw	r2,-24(fp)
  808a24:	e0bffb15 	stw	r2,-20(fp)
  808a28:	e0bffd17 	ldw	r2,-12(fp)
  808a2c:	10800283 	ldbu	r2,10(r2)
  808a30:	10803fcc 	andi	r2,r2,255
  808a34:	1005003a 	cmpeq	r2,r2,zero
  808a38:	10000c1e 	bne	r2,zero,808a6c <OSQPost+0xb8>
  808a3c:	e13ffd17 	ldw	r4,-12(fp)
  808a40:	e17ffe17 	ldw	r5,-8(fp)
  808a44:	01800104 	movi	r6,4
  808a48:	000f883a 	mov	r7,zero
  808a4c:	08049f00 	call	8049f0 <OS_EventTaskRdy>
  808a50:	e0bffb17 	ldw	r2,-20(fp)
  808a54:	e0bff915 	stw	r2,-28(fp)
  808a58:	e0bff917 	ldw	r2,-28(fp)
  808a5c:	1001703a 	wrctl	status,r2
  808a60:	08054300 	call	805430 <OS_Sched>
  808a64:	e03fff15 	stw	zero,-4(fp)
  808a68:	00002c06 	br	808b1c <OSQPost+0x168>
  808a6c:	e0bffd17 	ldw	r2,-12(fp)
  808a70:	10800117 	ldw	r2,4(r2)
  808a74:	e0bffc15 	stw	r2,-16(fp)
  808a78:	e0bffc17 	ldw	r2,-16(fp)
  808a7c:	10c0058b 	ldhu	r3,22(r2)
  808a80:	e0bffc17 	ldw	r2,-16(fp)
  808a84:	1080050b 	ldhu	r2,20(r2)
  808a88:	18ffffcc 	andi	r3,r3,65535
  808a8c:	10bfffcc 	andi	r2,r2,65535
  808a90:	18800736 	bltu	r3,r2,808ab0 <OSQPost+0xfc>
  808a94:	e0bffb17 	ldw	r2,-20(fp)
  808a98:	e0bff815 	stw	r2,-32(fp)
  808a9c:	e0bff817 	ldw	r2,-32(fp)
  808aa0:	1001703a 	wrctl	status,r2
  808aa4:	00800784 	movi	r2,30
  808aa8:	e0bfff15 	stw	r2,-4(fp)
  808aac:	00001b06 	br	808b1c <OSQPost+0x168>
  808ab0:	e0bffc17 	ldw	r2,-16(fp)
  808ab4:	10c00317 	ldw	r3,12(r2)
  808ab8:	e0bffe17 	ldw	r2,-8(fp)
  808abc:	18800015 	stw	r2,0(r3)
  808ac0:	18c00104 	addi	r3,r3,4
  808ac4:	e0bffc17 	ldw	r2,-16(fp)
  808ac8:	10c00315 	stw	r3,12(r2)
  808acc:	e0bffc17 	ldw	r2,-16(fp)
  808ad0:	1080058b 	ldhu	r2,22(r2)
  808ad4:	10800044 	addi	r2,r2,1
  808ad8:	1007883a 	mov	r3,r2
  808adc:	e0bffc17 	ldw	r2,-16(fp)
  808ae0:	10c0058d 	sth	r3,22(r2)
  808ae4:	e0bffc17 	ldw	r2,-16(fp)
  808ae8:	10c00317 	ldw	r3,12(r2)
  808aec:	e0bffc17 	ldw	r2,-16(fp)
  808af0:	10800217 	ldw	r2,8(r2)
  808af4:	1880041e 	bne	r3,r2,808b08 <OSQPost+0x154>
  808af8:	e0bffc17 	ldw	r2,-16(fp)
  808afc:	10c00117 	ldw	r3,4(r2)
  808b00:	e0bffc17 	ldw	r2,-16(fp)
  808b04:	10c00315 	stw	r3,12(r2)
  808b08:	e0bffb17 	ldw	r2,-20(fp)
  808b0c:	e0bff715 	stw	r2,-36(fp)
  808b10:	e0bff717 	ldw	r2,-36(fp)
  808b14:	1001703a 	wrctl	status,r2
  808b18:	e03fff15 	stw	zero,-4(fp)
  808b1c:	e0bfff17 	ldw	r2,-4(fp)
  808b20:	e037883a 	mov	sp,fp
  808b24:	dfc00117 	ldw	ra,4(sp)
  808b28:	df000017 	ldw	fp,0(sp)
  808b2c:	dec00204 	addi	sp,sp,8
  808b30:	f800283a 	ret

00808b34 <OSQPostFront>:
  808b34:	defff504 	addi	sp,sp,-44
  808b38:	dfc00a15 	stw	ra,40(sp)
  808b3c:	df000915 	stw	fp,36(sp)
  808b40:	df000904 	addi	fp,sp,36
  808b44:	e13ffd15 	stw	r4,-12(fp)
  808b48:	e17ffe15 	stw	r5,-8(fp)
  808b4c:	e03ffb15 	stw	zero,-20(fp)
  808b50:	e0bffd17 	ldw	r2,-12(fp)
  808b54:	1004c03a 	cmpne	r2,r2,zero
  808b58:	1000031e 	bne	r2,zero,808b68 <OSQPostFront+0x34>
  808b5c:	00800104 	movi	r2,4
  808b60:	e0bfff15 	stw	r2,-4(fp)
  808b64:	00004f06 	br	808ca4 <OSQPostFront+0x170>
  808b68:	e0bffd17 	ldw	r2,-12(fp)
  808b6c:	10800003 	ldbu	r2,0(r2)
  808b70:	10803fcc 	andi	r2,r2,255
  808b74:	108000a0 	cmpeqi	r2,r2,2
  808b78:	1000031e 	bne	r2,zero,808b88 <OSQPostFront+0x54>
  808b7c:	00800044 	movi	r2,1
  808b80:	e0bfff15 	stw	r2,-4(fp)
  808b84:	00004706 	br	808ca4 <OSQPostFront+0x170>
  808b88:	0005303a 	rdctl	r2,status
  808b8c:	e0bffa15 	stw	r2,-24(fp)
  808b90:	e0fffa17 	ldw	r3,-24(fp)
  808b94:	00bfff84 	movi	r2,-2
  808b98:	1884703a 	and	r2,r3,r2
  808b9c:	1001703a 	wrctl	status,r2
  808ba0:	e0bffa17 	ldw	r2,-24(fp)
  808ba4:	e0bffb15 	stw	r2,-20(fp)
  808ba8:	e0bffd17 	ldw	r2,-12(fp)
  808bac:	10800283 	ldbu	r2,10(r2)
  808bb0:	10803fcc 	andi	r2,r2,255
  808bb4:	1005003a 	cmpeq	r2,r2,zero
  808bb8:	10000c1e 	bne	r2,zero,808bec <OSQPostFront+0xb8>
  808bbc:	e13ffd17 	ldw	r4,-12(fp)
  808bc0:	e17ffe17 	ldw	r5,-8(fp)
  808bc4:	01800104 	movi	r6,4
  808bc8:	000f883a 	mov	r7,zero
  808bcc:	08049f00 	call	8049f0 <OS_EventTaskRdy>
  808bd0:	e0bffb17 	ldw	r2,-20(fp)
  808bd4:	e0bff915 	stw	r2,-28(fp)
  808bd8:	e0bff917 	ldw	r2,-28(fp)
  808bdc:	1001703a 	wrctl	status,r2
  808be0:	08054300 	call	805430 <OS_Sched>
  808be4:	e03fff15 	stw	zero,-4(fp)
  808be8:	00002e06 	br	808ca4 <OSQPostFront+0x170>
  808bec:	e0bffd17 	ldw	r2,-12(fp)
  808bf0:	10800117 	ldw	r2,4(r2)
  808bf4:	e0bffc15 	stw	r2,-16(fp)
  808bf8:	e0bffc17 	ldw	r2,-16(fp)
  808bfc:	10c0058b 	ldhu	r3,22(r2)
  808c00:	e0bffc17 	ldw	r2,-16(fp)
  808c04:	1080050b 	ldhu	r2,20(r2)
  808c08:	18ffffcc 	andi	r3,r3,65535
  808c0c:	10bfffcc 	andi	r2,r2,65535
  808c10:	18800736 	bltu	r3,r2,808c30 <OSQPostFront+0xfc>
  808c14:	e0bffb17 	ldw	r2,-20(fp)
  808c18:	e0bff815 	stw	r2,-32(fp)
  808c1c:	e0bff817 	ldw	r2,-32(fp)
  808c20:	1001703a 	wrctl	status,r2
  808c24:	00800784 	movi	r2,30
  808c28:	e0bfff15 	stw	r2,-4(fp)
  808c2c:	00001d06 	br	808ca4 <OSQPostFront+0x170>
  808c30:	e0bffc17 	ldw	r2,-16(fp)
  808c34:	10c00417 	ldw	r3,16(r2)
  808c38:	e0bffc17 	ldw	r2,-16(fp)
  808c3c:	10800117 	ldw	r2,4(r2)
  808c40:	1880041e 	bne	r3,r2,808c54 <OSQPostFront+0x120>
  808c44:	e0bffc17 	ldw	r2,-16(fp)
  808c48:	10c00217 	ldw	r3,8(r2)
  808c4c:	e0bffc17 	ldw	r2,-16(fp)
  808c50:	10c00415 	stw	r3,16(r2)
  808c54:	e0bffc17 	ldw	r2,-16(fp)
  808c58:	10800417 	ldw	r2,16(r2)
  808c5c:	10ffff04 	addi	r3,r2,-4
  808c60:	e0bffc17 	ldw	r2,-16(fp)
  808c64:	10c00415 	stw	r3,16(r2)
  808c68:	e0bffc17 	ldw	r2,-16(fp)
  808c6c:	10c00417 	ldw	r3,16(r2)
  808c70:	e0bffe17 	ldw	r2,-8(fp)
  808c74:	18800015 	stw	r2,0(r3)
  808c78:	e0bffc17 	ldw	r2,-16(fp)
  808c7c:	1080058b 	ldhu	r2,22(r2)
  808c80:	10800044 	addi	r2,r2,1
  808c84:	1007883a 	mov	r3,r2
  808c88:	e0bffc17 	ldw	r2,-16(fp)
  808c8c:	10c0058d 	sth	r3,22(r2)
  808c90:	e0bffb17 	ldw	r2,-20(fp)
  808c94:	e0bff715 	stw	r2,-36(fp)
  808c98:	e0bff717 	ldw	r2,-36(fp)
  808c9c:	1001703a 	wrctl	status,r2
  808ca0:	e03fff15 	stw	zero,-4(fp)
  808ca4:	e0bfff17 	ldw	r2,-4(fp)
  808ca8:	e037883a 	mov	sp,fp
  808cac:	dfc00117 	ldw	ra,4(sp)
  808cb0:	df000017 	ldw	fp,0(sp)
  808cb4:	dec00204 	addi	sp,sp,8
  808cb8:	f800283a 	ret

00808cbc <OSQPostOpt>:
  808cbc:	defff404 	addi	sp,sp,-48
  808cc0:	dfc00b15 	stw	ra,44(sp)
  808cc4:	df000a15 	stw	fp,40(sp)
  808cc8:	df000a04 	addi	fp,sp,40
  808ccc:	e13ffc15 	stw	r4,-16(fp)
  808cd0:	e17ffd15 	stw	r5,-12(fp)
  808cd4:	e1bffe05 	stb	r6,-8(fp)
  808cd8:	e03ffa15 	stw	zero,-24(fp)
  808cdc:	e0bffc17 	ldw	r2,-16(fp)
  808ce0:	1004c03a 	cmpne	r2,r2,zero
  808ce4:	1000031e 	bne	r2,zero,808cf4 <OSQPostOpt+0x38>
  808ce8:	00800104 	movi	r2,4
  808cec:	e0bfff15 	stw	r2,-4(fp)
  808cf0:	00007906 	br	808ed8 <OSQPostOpt+0x21c>
  808cf4:	e0bffc17 	ldw	r2,-16(fp)
  808cf8:	10800003 	ldbu	r2,0(r2)
  808cfc:	10803fcc 	andi	r2,r2,255
  808d00:	108000a0 	cmpeqi	r2,r2,2
  808d04:	1000031e 	bne	r2,zero,808d14 <OSQPostOpt+0x58>
  808d08:	00800044 	movi	r2,1
  808d0c:	e0bfff15 	stw	r2,-4(fp)
  808d10:	00007106 	br	808ed8 <OSQPostOpt+0x21c>
  808d14:	0005303a 	rdctl	r2,status
  808d18:	e0bff915 	stw	r2,-28(fp)
  808d1c:	e0fff917 	ldw	r3,-28(fp)
  808d20:	00bfff84 	movi	r2,-2
  808d24:	1884703a 	and	r2,r3,r2
  808d28:	1001703a 	wrctl	status,r2
  808d2c:	e0bff917 	ldw	r2,-28(fp)
  808d30:	e0bffa15 	stw	r2,-24(fp)
  808d34:	e0bffc17 	ldw	r2,-16(fp)
  808d38:	10800283 	ldbu	r2,10(r2)
  808d3c:	10803fcc 	andi	r2,r2,255
  808d40:	1005003a 	cmpeq	r2,r2,zero
  808d44:	1000211e 	bne	r2,zero,808dcc <OSQPostOpt+0x110>
  808d48:	e0bffe03 	ldbu	r2,-8(fp)
  808d4c:	1080004c 	andi	r2,r2,1
  808d50:	10803fcc 	andi	r2,r2,255
  808d54:	1005003a 	cmpeq	r2,r2,zero
  808d58:	10000c1e 	bne	r2,zero,808d8c <OSQPostOpt+0xd0>
  808d5c:	00000506 	br	808d74 <OSQPostOpt+0xb8>
  808d60:	e13ffc17 	ldw	r4,-16(fp)
  808d64:	e17ffd17 	ldw	r5,-12(fp)
  808d68:	01800104 	movi	r6,4
  808d6c:	000f883a 	mov	r7,zero
  808d70:	08049f00 	call	8049f0 <OS_EventTaskRdy>
  808d74:	e0bffc17 	ldw	r2,-16(fp)
  808d78:	10800283 	ldbu	r2,10(r2)
  808d7c:	10803fcc 	andi	r2,r2,255
  808d80:	1004c03a 	cmpne	r2,r2,zero
  808d84:	103ff61e 	bne	r2,zero,808d60 <OSQPostOpt+0xa4>
  808d88:	00000506 	br	808da0 <OSQPostOpt+0xe4>
  808d8c:	e13ffc17 	ldw	r4,-16(fp)
  808d90:	e17ffd17 	ldw	r5,-12(fp)
  808d94:	01800104 	movi	r6,4
  808d98:	000f883a 	mov	r7,zero
  808d9c:	08049f00 	call	8049f0 <OS_EventTaskRdy>
  808da0:	e0bffa17 	ldw	r2,-24(fp)
  808da4:	e0bff815 	stw	r2,-32(fp)
  808da8:	e0bff817 	ldw	r2,-32(fp)
  808dac:	1001703a 	wrctl	status,r2
  808db0:	e0bffe03 	ldbu	r2,-8(fp)
  808db4:	1080010c 	andi	r2,r2,4
  808db8:	1004c03a 	cmpne	r2,r2,zero
  808dbc:	1000011e 	bne	r2,zero,808dc4 <OSQPostOpt+0x108>
  808dc0:	08054300 	call	805430 <OS_Sched>
  808dc4:	e03fff15 	stw	zero,-4(fp)
  808dc8:	00004306 	br	808ed8 <OSQPostOpt+0x21c>
  808dcc:	e0bffc17 	ldw	r2,-16(fp)
  808dd0:	10800117 	ldw	r2,4(r2)
  808dd4:	e0bffb15 	stw	r2,-20(fp)
  808dd8:	e0bffb17 	ldw	r2,-20(fp)
  808ddc:	10c0058b 	ldhu	r3,22(r2)
  808de0:	e0bffb17 	ldw	r2,-20(fp)
  808de4:	1080050b 	ldhu	r2,20(r2)
  808de8:	18ffffcc 	andi	r3,r3,65535
  808dec:	10bfffcc 	andi	r2,r2,65535
  808df0:	18800736 	bltu	r3,r2,808e10 <OSQPostOpt+0x154>
  808df4:	e0bffa17 	ldw	r2,-24(fp)
  808df8:	e0bff715 	stw	r2,-36(fp)
  808dfc:	e0bff717 	ldw	r2,-36(fp)
  808e00:	1001703a 	wrctl	status,r2
  808e04:	00800784 	movi	r2,30
  808e08:	e0bfff15 	stw	r2,-4(fp)
  808e0c:	00003206 	br	808ed8 <OSQPostOpt+0x21c>
  808e10:	e0bffe03 	ldbu	r2,-8(fp)
  808e14:	1080008c 	andi	r2,r2,2
  808e18:	1005003a 	cmpeq	r2,r2,zero
  808e1c:	1000131e 	bne	r2,zero,808e6c <OSQPostOpt+0x1b0>
  808e20:	e0bffb17 	ldw	r2,-20(fp)
  808e24:	10c00417 	ldw	r3,16(r2)
  808e28:	e0bffb17 	ldw	r2,-20(fp)
  808e2c:	10800117 	ldw	r2,4(r2)
  808e30:	1880041e 	bne	r3,r2,808e44 <OSQPostOpt+0x188>
  808e34:	e0bffb17 	ldw	r2,-20(fp)
  808e38:	10c00217 	ldw	r3,8(r2)
  808e3c:	e0bffb17 	ldw	r2,-20(fp)
  808e40:	10c00415 	stw	r3,16(r2)
  808e44:	e0bffb17 	ldw	r2,-20(fp)
  808e48:	10800417 	ldw	r2,16(r2)
  808e4c:	10ffff04 	addi	r3,r2,-4
  808e50:	e0bffb17 	ldw	r2,-20(fp)
  808e54:	10c00415 	stw	r3,16(r2)
  808e58:	e0bffb17 	ldw	r2,-20(fp)
  808e5c:	10c00417 	ldw	r3,16(r2)
  808e60:	e0bffd17 	ldw	r2,-12(fp)
  808e64:	18800015 	stw	r2,0(r3)
  808e68:	00001006 	br	808eac <OSQPostOpt+0x1f0>
  808e6c:	e0bffb17 	ldw	r2,-20(fp)
  808e70:	10c00317 	ldw	r3,12(r2)
  808e74:	e0bffd17 	ldw	r2,-12(fp)
  808e78:	18800015 	stw	r2,0(r3)
  808e7c:	18c00104 	addi	r3,r3,4
  808e80:	e0bffb17 	ldw	r2,-20(fp)
  808e84:	10c00315 	stw	r3,12(r2)
  808e88:	e0bffb17 	ldw	r2,-20(fp)
  808e8c:	10c00317 	ldw	r3,12(r2)
  808e90:	e0bffb17 	ldw	r2,-20(fp)
  808e94:	10800217 	ldw	r2,8(r2)
  808e98:	1880041e 	bne	r3,r2,808eac <OSQPostOpt+0x1f0>
  808e9c:	e0bffb17 	ldw	r2,-20(fp)
  808ea0:	10c00117 	ldw	r3,4(r2)
  808ea4:	e0bffb17 	ldw	r2,-20(fp)
  808ea8:	10c00315 	stw	r3,12(r2)
  808eac:	e0bffb17 	ldw	r2,-20(fp)
  808eb0:	1080058b 	ldhu	r2,22(r2)
  808eb4:	10800044 	addi	r2,r2,1
  808eb8:	1007883a 	mov	r3,r2
  808ebc:	e0bffb17 	ldw	r2,-20(fp)
  808ec0:	10c0058d 	sth	r3,22(r2)
  808ec4:	e0bffa17 	ldw	r2,-24(fp)
  808ec8:	e0bff615 	stw	r2,-40(fp)
  808ecc:	e0bff617 	ldw	r2,-40(fp)
  808ed0:	1001703a 	wrctl	status,r2
  808ed4:	e03fff15 	stw	zero,-4(fp)
  808ed8:	e0bfff17 	ldw	r2,-4(fp)
  808edc:	e037883a 	mov	sp,fp
  808ee0:	dfc00117 	ldw	ra,4(sp)
  808ee4:	df000017 	ldw	fp,0(sp)
  808ee8:	dec00204 	addi	sp,sp,8
  808eec:	f800283a 	ret

00808ef0 <OSQQuery>:
  808ef0:	defff504 	addi	sp,sp,-44
  808ef4:	df000a15 	stw	fp,40(sp)
  808ef8:	df000a04 	addi	fp,sp,40
  808efc:	e13ffd15 	stw	r4,-12(fp)
  808f00:	e17ffe15 	stw	r5,-8(fp)
  808f04:	e03ff815 	stw	zero,-32(fp)
  808f08:	e0bffd17 	ldw	r2,-12(fp)
  808f0c:	1004c03a 	cmpne	r2,r2,zero
  808f10:	1000031e 	bne	r2,zero,808f20 <OSQQuery+0x30>
  808f14:	00800104 	movi	r2,4
  808f18:	e0bfff15 	stw	r2,-4(fp)
  808f1c:	00004f06 	br	80905c <OSQQuery+0x16c>
  808f20:	e0bffe17 	ldw	r2,-8(fp)
  808f24:	1004c03a 	cmpne	r2,r2,zero
  808f28:	1000031e 	bne	r2,zero,808f38 <OSQQuery+0x48>
  808f2c:	00800244 	movi	r2,9
  808f30:	e0bfff15 	stw	r2,-4(fp)
  808f34:	00004906 	br	80905c <OSQQuery+0x16c>
  808f38:	e0bffd17 	ldw	r2,-12(fp)
  808f3c:	10800003 	ldbu	r2,0(r2)
  808f40:	10803fcc 	andi	r2,r2,255
  808f44:	108000a0 	cmpeqi	r2,r2,2
  808f48:	1000031e 	bne	r2,zero,808f58 <OSQQuery+0x68>
  808f4c:	00800044 	movi	r2,1
  808f50:	e0bfff15 	stw	r2,-4(fp)
  808f54:	00004106 	br	80905c <OSQQuery+0x16c>
  808f58:	0005303a 	rdctl	r2,status
  808f5c:	e0bff715 	stw	r2,-36(fp)
  808f60:	e0fff717 	ldw	r3,-36(fp)
  808f64:	00bfff84 	movi	r2,-2
  808f68:	1884703a 	and	r2,r3,r2
  808f6c:	1001703a 	wrctl	status,r2
  808f70:	e0bff717 	ldw	r2,-36(fp)
  808f74:	e0bff815 	stw	r2,-32(fp)
  808f78:	e0bffd17 	ldw	r2,-12(fp)
  808f7c:	10c00283 	ldbu	r3,10(r2)
  808f80:	e0bffe17 	ldw	r2,-8(fp)
  808f84:	10c002c5 	stb	r3,11(r2)
  808f88:	e0bffd17 	ldw	r2,-12(fp)
  808f8c:	108002c4 	addi	r2,r2,11
  808f90:	e0bffa15 	stw	r2,-24(fp)
  808f94:	e0bffe17 	ldw	r2,-8(fp)
  808f98:	10800204 	addi	r2,r2,8
  808f9c:	e0bff915 	stw	r2,-28(fp)
  808fa0:	e03ffb05 	stb	zero,-20(fp)
  808fa4:	00000d06 	br	808fdc <OSQQuery+0xec>
  808fa8:	e0bffa17 	ldw	r2,-24(fp)
  808fac:	10c00003 	ldbu	r3,0(r2)
  808fb0:	e0bff917 	ldw	r2,-28(fp)
  808fb4:	10c00005 	stb	r3,0(r2)
  808fb8:	e0bff917 	ldw	r2,-28(fp)
  808fbc:	10800044 	addi	r2,r2,1
  808fc0:	e0bff915 	stw	r2,-28(fp)
  808fc4:	e0bffa17 	ldw	r2,-24(fp)
  808fc8:	10800044 	addi	r2,r2,1
  808fcc:	e0bffa15 	stw	r2,-24(fp)
  808fd0:	e0bffb03 	ldbu	r2,-20(fp)
  808fd4:	10800044 	addi	r2,r2,1
  808fd8:	e0bffb05 	stb	r2,-20(fp)
  808fdc:	e0bffb03 	ldbu	r2,-20(fp)
  808fe0:	108000f0 	cmpltui	r2,r2,3
  808fe4:	103ff01e 	bne	r2,zero,808fa8 <OSQQuery+0xb8>
  808fe8:	e0bffd17 	ldw	r2,-12(fp)
  808fec:	10800117 	ldw	r2,4(r2)
  808ff0:	e0bffc15 	stw	r2,-16(fp)
  808ff4:	e0bffc17 	ldw	r2,-16(fp)
  808ff8:	1080058b 	ldhu	r2,22(r2)
  808ffc:	10bfffcc 	andi	r2,r2,65535
  809000:	1005003a 	cmpeq	r2,r2,zero
  809004:	1000061e 	bne	r2,zero,809020 <OSQQuery+0x130>
  809008:	e0bffc17 	ldw	r2,-16(fp)
  80900c:	10800417 	ldw	r2,16(r2)
  809010:	10c00017 	ldw	r3,0(r2)
  809014:	e0bffe17 	ldw	r2,-8(fp)
  809018:	10c00015 	stw	r3,0(r2)
  80901c:	00000206 	br	809028 <OSQQuery+0x138>
  809020:	e0bffe17 	ldw	r2,-8(fp)
  809024:	10000015 	stw	zero,0(r2)
  809028:	e0bffc17 	ldw	r2,-16(fp)
  80902c:	10c0058b 	ldhu	r3,22(r2)
  809030:	e0bffe17 	ldw	r2,-8(fp)
  809034:	10c0010d 	sth	r3,4(r2)
  809038:	e0bffc17 	ldw	r2,-16(fp)
  80903c:	10c0050b 	ldhu	r3,20(r2)
  809040:	e0bffe17 	ldw	r2,-8(fp)
  809044:	10c0018d 	sth	r3,6(r2)
  809048:	e0bff817 	ldw	r2,-32(fp)
  80904c:	e0bff615 	stw	r2,-40(fp)
  809050:	e0bff617 	ldw	r2,-40(fp)
  809054:	1001703a 	wrctl	status,r2
  809058:	e03fff15 	stw	zero,-4(fp)
  80905c:	e0bfff17 	ldw	r2,-4(fp)
  809060:	e037883a 	mov	sp,fp
  809064:	df000017 	ldw	fp,0(sp)
  809068:	dec00104 	addi	sp,sp,4
  80906c:	f800283a 	ret

00809070 <OS_QInit>:
  809070:	defffb04 	addi	sp,sp,-20
  809074:	dfc00415 	stw	ra,16(sp)
  809078:	df000315 	stw	fp,12(sp)
  80907c:	df000304 	addi	fp,sp,12
  809080:	01002074 	movhi	r4,129
  809084:	211f8804 	addi	r4,r4,32288
  809088:	01407804 	movi	r5,480
  80908c:	08053700 	call	805370 <OS_MemClr>
  809090:	00802074 	movhi	r2,129
  809094:	109f8804 	addi	r2,r2,32288
  809098:	e0bffe15 	stw	r2,-8(fp)
  80909c:	00802074 	movhi	r2,129
  8090a0:	109f8e04 	addi	r2,r2,32312
  8090a4:	e0bffd15 	stw	r2,-12(fp)
  8090a8:	e03fff0d 	sth	zero,-4(fp)
  8090ac:	00000c06 	br	8090e0 <OS_QInit+0x70>
  8090b0:	e0fffe17 	ldw	r3,-8(fp)
  8090b4:	e0bffd17 	ldw	r2,-12(fp)
  8090b8:	18800015 	stw	r2,0(r3)
  8090bc:	e0bffe17 	ldw	r2,-8(fp)
  8090c0:	10800604 	addi	r2,r2,24
  8090c4:	e0bffe15 	stw	r2,-8(fp)
  8090c8:	e0bffd17 	ldw	r2,-12(fp)
  8090cc:	10800604 	addi	r2,r2,24
  8090d0:	e0bffd15 	stw	r2,-12(fp)
  8090d4:	e0bfff0b 	ldhu	r2,-4(fp)
  8090d8:	10800044 	addi	r2,r2,1
  8090dc:	e0bfff0d 	sth	r2,-4(fp)
  8090e0:	e0bfff0b 	ldhu	r2,-4(fp)
  8090e4:	108004f0 	cmpltui	r2,r2,19
  8090e8:	103ff11e 	bne	r2,zero,8090b0 <OS_QInit+0x40>
  8090ec:	e0bffe17 	ldw	r2,-8(fp)
  8090f0:	10000015 	stw	zero,0(r2)
  8090f4:	00c02074 	movhi	r3,129
  8090f8:	18c98a04 	addi	r3,r3,9768
  8090fc:	00802074 	movhi	r2,129
  809100:	109f8804 	addi	r2,r2,32288
  809104:	18800015 	stw	r2,0(r3)
  809108:	e037883a 	mov	sp,fp
  80910c:	dfc00117 	ldw	ra,4(sp)
  809110:	df000017 	ldw	fp,0(sp)
  809114:	dec00204 	addi	sp,sp,8
  809118:	f800283a 	ret

0080911c <OSSemAccept>:
  80911c:	defff904 	addi	sp,sp,-28
  809120:	df000615 	stw	fp,24(sp)
  809124:	df000604 	addi	fp,sp,24
  809128:	e13ffe15 	stw	r4,-8(fp)
  80912c:	e03ffc15 	stw	zero,-16(fp)
  809130:	e0bffe17 	ldw	r2,-8(fp)
  809134:	1004c03a 	cmpne	r2,r2,zero
  809138:	1000021e 	bne	r2,zero,809144 <OSSemAccept+0x28>
  80913c:	e03fff15 	stw	zero,-4(fp)
  809140:	00002106 	br	8091c8 <OSSemAccept+0xac>
  809144:	e0bffe17 	ldw	r2,-8(fp)
  809148:	10800003 	ldbu	r2,0(r2)
  80914c:	10803fcc 	andi	r2,r2,255
  809150:	108000e0 	cmpeqi	r2,r2,3
  809154:	1000021e 	bne	r2,zero,809160 <OSSemAccept+0x44>
  809158:	e03fff15 	stw	zero,-4(fp)
  80915c:	00001a06 	br	8091c8 <OSSemAccept+0xac>
  809160:	0005303a 	rdctl	r2,status
  809164:	e0bffb15 	stw	r2,-20(fp)
  809168:	e0fffb17 	ldw	r3,-20(fp)
  80916c:	00bfff84 	movi	r2,-2
  809170:	1884703a 	and	r2,r3,r2
  809174:	1001703a 	wrctl	status,r2
  809178:	e0bffb17 	ldw	r2,-20(fp)
  80917c:	e0bffc15 	stw	r2,-16(fp)
  809180:	e0bffe17 	ldw	r2,-8(fp)
  809184:	1080020b 	ldhu	r2,8(r2)
  809188:	e0bffd0d 	sth	r2,-12(fp)
  80918c:	e0bffd0b 	ldhu	r2,-12(fp)
  809190:	1005003a 	cmpeq	r2,r2,zero
  809194:	1000061e 	bne	r2,zero,8091b0 <OSSemAccept+0x94>
  809198:	e0bffe17 	ldw	r2,-8(fp)
  80919c:	1080020b 	ldhu	r2,8(r2)
  8091a0:	10bfffc4 	addi	r2,r2,-1
  8091a4:	1007883a 	mov	r3,r2
  8091a8:	e0bffe17 	ldw	r2,-8(fp)
  8091ac:	10c0020d 	sth	r3,8(r2)
  8091b0:	e0bffc17 	ldw	r2,-16(fp)
  8091b4:	e0bffa15 	stw	r2,-24(fp)
  8091b8:	e0bffa17 	ldw	r2,-24(fp)
  8091bc:	1001703a 	wrctl	status,r2
  8091c0:	e0bffd0b 	ldhu	r2,-12(fp)
  8091c4:	e0bfff15 	stw	r2,-4(fp)
  8091c8:	e0bfff17 	ldw	r2,-4(fp)
  8091cc:	e037883a 	mov	sp,fp
  8091d0:	df000017 	ldw	fp,0(sp)
  8091d4:	dec00104 	addi	sp,sp,4
  8091d8:	f800283a 	ret

008091dc <OSSemCreate>:
  8091dc:	defff804 	addi	sp,sp,-32
  8091e0:	dfc00715 	stw	ra,28(sp)
  8091e4:	df000615 	stw	fp,24(sp)
  8091e8:	df000604 	addi	fp,sp,24
  8091ec:	e13ffe0d 	sth	r4,-8(fp)
  8091f0:	e03ffc15 	stw	zero,-16(fp)
  8091f4:	00802074 	movhi	r2,129
  8091f8:	10898d04 	addi	r2,r2,9780
  8091fc:	10800003 	ldbu	r2,0(r2)
  809200:	10803fcc 	andi	r2,r2,255
  809204:	1005003a 	cmpeq	r2,r2,zero
  809208:	1000021e 	bne	r2,zero,809214 <OSSemCreate+0x38>
  80920c:	e03fff15 	stw	zero,-4(fp)
  809210:	00003106 	br	8092d8 <OSSemCreate+0xfc>
  809214:	0005303a 	rdctl	r2,status
  809218:	e0bffb15 	stw	r2,-20(fp)
  80921c:	e0fffb17 	ldw	r3,-20(fp)
  809220:	00bfff84 	movi	r2,-2
  809224:	1884703a 	and	r2,r3,r2
  809228:	1001703a 	wrctl	status,r2
  80922c:	e0bffb17 	ldw	r2,-20(fp)
  809230:	e0bffc15 	stw	r2,-16(fp)
  809234:	00802074 	movhi	r2,129
  809238:	10898c04 	addi	r2,r2,9776
  80923c:	10800017 	ldw	r2,0(r2)
  809240:	e0bffd15 	stw	r2,-12(fp)
  809244:	00802074 	movhi	r2,129
  809248:	10898c04 	addi	r2,r2,9776
  80924c:	10800017 	ldw	r2,0(r2)
  809250:	1005003a 	cmpeq	r2,r2,zero
  809254:	1000081e 	bne	r2,zero,809278 <OSSemCreate+0x9c>
  809258:	00802074 	movhi	r2,129
  80925c:	10898c04 	addi	r2,r2,9776
  809260:	10800017 	ldw	r2,0(r2)
  809264:	10800117 	ldw	r2,4(r2)
  809268:	1007883a 	mov	r3,r2
  80926c:	00802074 	movhi	r2,129
  809270:	10898c04 	addi	r2,r2,9776
  809274:	10c00015 	stw	r3,0(r2)
  809278:	e0bffc17 	ldw	r2,-16(fp)
  80927c:	e0bffa15 	stw	r2,-24(fp)
  809280:	e0bffa17 	ldw	r2,-24(fp)
  809284:	1001703a 	wrctl	status,r2
  809288:	e0bffd17 	ldw	r2,-12(fp)
  80928c:	1005003a 	cmpeq	r2,r2,zero
  809290:	10000f1e 	bne	r2,zero,8092d0 <OSSemCreate+0xf4>
  809294:	e0fffd17 	ldw	r3,-12(fp)
  809298:	008000c4 	movi	r2,3
  80929c:	18800005 	stb	r2,0(r3)
  8092a0:	e0fffd17 	ldw	r3,-12(fp)
  8092a4:	e0bffe0b 	ldhu	r2,-8(fp)
  8092a8:	1880020d 	sth	r2,8(r3)
  8092ac:	e0bffd17 	ldw	r2,-12(fp)
  8092b0:	10000115 	stw	zero,4(r2)
  8092b4:	e0fffd17 	ldw	r3,-12(fp)
  8092b8:	00800fc4 	movi	r2,63
  8092bc:	18800385 	stb	r2,14(r3)
  8092c0:	e0bffd17 	ldw	r2,-12(fp)
  8092c4:	100003c5 	stb	zero,15(r2)
  8092c8:	e13ffd17 	ldw	r4,-12(fp)
  8092cc:	0804fa40 	call	804fa4 <OS_EventWaitListInit>
  8092d0:	e0bffd17 	ldw	r2,-12(fp)
  8092d4:	e0bfff15 	stw	r2,-4(fp)
  8092d8:	e0bfff17 	ldw	r2,-4(fp)
  8092dc:	e037883a 	mov	sp,fp
  8092e0:	dfc00117 	ldw	ra,4(sp)
  8092e4:	df000017 	ldw	fp,0(sp)
  8092e8:	dec00204 	addi	sp,sp,8
  8092ec:	f800283a 	ret

008092f0 <OSSemDel>:
  8092f0:	defff104 	addi	sp,sp,-60
  8092f4:	dfc00e15 	stw	ra,56(sp)
  8092f8:	df000d15 	stw	fp,52(sp)
  8092fc:	df000d04 	addi	fp,sp,52
  809300:	e13ffb15 	stw	r4,-20(fp)
  809304:	e1bffd15 	stw	r6,-12(fp)
  809308:	e17ffc05 	stb	r5,-16(fp)
  80930c:	e03ff815 	stw	zero,-32(fp)
  809310:	e0bffd17 	ldw	r2,-12(fp)
  809314:	1004c03a 	cmpne	r2,r2,zero
  809318:	1000031e 	bne	r2,zero,809328 <OSSemDel+0x38>
  80931c:	e0bffb17 	ldw	r2,-20(fp)
  809320:	e0bfff15 	stw	r2,-4(fp)
  809324:	00009406 	br	809578 <OSSemDel+0x288>
  809328:	e0bffb17 	ldw	r2,-20(fp)
  80932c:	1004c03a 	cmpne	r2,r2,zero
  809330:	1000061e 	bne	r2,zero,80934c <OSSemDel+0x5c>
  809334:	e0fffd17 	ldw	r3,-12(fp)
  809338:	00800104 	movi	r2,4
  80933c:	18800005 	stb	r2,0(r3)
  809340:	e0fffb17 	ldw	r3,-20(fp)
  809344:	e0ffff15 	stw	r3,-4(fp)
  809348:	00008b06 	br	809578 <OSSemDel+0x288>
  80934c:	e0bffb17 	ldw	r2,-20(fp)
  809350:	10800003 	ldbu	r2,0(r2)
  809354:	10803fcc 	andi	r2,r2,255
  809358:	108000e0 	cmpeqi	r2,r2,3
  80935c:	1000061e 	bne	r2,zero,809378 <OSSemDel+0x88>
  809360:	e0fffd17 	ldw	r3,-12(fp)
  809364:	00800044 	movi	r2,1
  809368:	18800005 	stb	r2,0(r3)
  80936c:	e0bffb17 	ldw	r2,-20(fp)
  809370:	e0bfff15 	stw	r2,-4(fp)
  809374:	00008006 	br	809578 <OSSemDel+0x288>
  809378:	00802074 	movhi	r2,129
  80937c:	10898d04 	addi	r2,r2,9780
  809380:	10800003 	ldbu	r2,0(r2)
  809384:	10803fcc 	andi	r2,r2,255
  809388:	1005003a 	cmpeq	r2,r2,zero
  80938c:	1000061e 	bne	r2,zero,8093a8 <OSSemDel+0xb8>
  809390:	e0fffd17 	ldw	r3,-12(fp)
  809394:	008003c4 	movi	r2,15
  809398:	18800005 	stb	r2,0(r3)
  80939c:	e0fffb17 	ldw	r3,-20(fp)
  8093a0:	e0ffff15 	stw	r3,-4(fp)
  8093a4:	00007406 	br	809578 <OSSemDel+0x288>
  8093a8:	0005303a 	rdctl	r2,status
  8093ac:	e0bff715 	stw	r2,-36(fp)
  8093b0:	e0fff717 	ldw	r3,-36(fp)
  8093b4:	00bfff84 	movi	r2,-2
  8093b8:	1884703a 	and	r2,r3,r2
  8093bc:	1001703a 	wrctl	status,r2
  8093c0:	e0bff717 	ldw	r2,-36(fp)
  8093c4:	e0bff815 	stw	r2,-32(fp)
  8093c8:	e0bffb17 	ldw	r2,-20(fp)
  8093cc:	10800283 	ldbu	r2,10(r2)
  8093d0:	10803fcc 	andi	r2,r2,255
  8093d4:	1005003a 	cmpeq	r2,r2,zero
  8093d8:	1000031e 	bne	r2,zero,8093e8 <OSSemDel+0xf8>
  8093dc:	00800044 	movi	r2,1
  8093e0:	e0bffa05 	stb	r2,-24(fp)
  8093e4:	00000106 	br	8093ec <OSSemDel+0xfc>
  8093e8:	e03ffa05 	stb	zero,-24(fp)
  8093ec:	e0bffc03 	ldbu	r2,-16(fp)
  8093f0:	e0bffe15 	stw	r2,-8(fp)
  8093f4:	e0fffe17 	ldw	r3,-8(fp)
  8093f8:	1805003a 	cmpeq	r2,r3,zero
  8093fc:	1000041e 	bne	r2,zero,809410 <OSSemDel+0x120>
  809400:	e0fffe17 	ldw	r3,-8(fp)
  809404:	18800060 	cmpeqi	r2,r3,1
  809408:	10002d1e 	bne	r2,zero,8094c0 <OSSemDel+0x1d0>
  80940c:	00004f06 	br	80954c <OSSemDel+0x25c>
  809410:	e0bffa03 	ldbu	r2,-24(fp)
  809414:	1004c03a 	cmpne	r2,r2,zero
  809418:	10001a1e 	bne	r2,zero,809484 <OSSemDel+0x194>
  80941c:	e0fffb17 	ldw	r3,-20(fp)
  809420:	00800fc4 	movi	r2,63
  809424:	18800385 	stb	r2,14(r3)
  809428:	e0bffb17 	ldw	r2,-20(fp)
  80942c:	100003c5 	stb	zero,15(r2)
  809430:	e0bffb17 	ldw	r2,-20(fp)
  809434:	10000005 	stb	zero,0(r2)
  809438:	00802074 	movhi	r2,129
  80943c:	10898c04 	addi	r2,r2,9776
  809440:	10c00017 	ldw	r3,0(r2)
  809444:	e0bffb17 	ldw	r2,-20(fp)
  809448:	10c00115 	stw	r3,4(r2)
  80944c:	e0bffb17 	ldw	r2,-20(fp)
  809450:	1000020d 	sth	zero,8(r2)
  809454:	00c02074 	movhi	r3,129
  809458:	18c98c04 	addi	r3,r3,9776
  80945c:	e0bffb17 	ldw	r2,-20(fp)
  809460:	18800015 	stw	r2,0(r3)
  809464:	e0bff817 	ldw	r2,-32(fp)
  809468:	e0bff615 	stw	r2,-40(fp)
  80946c:	e0bff617 	ldw	r2,-40(fp)
  809470:	1001703a 	wrctl	status,r2
  809474:	e0bffd17 	ldw	r2,-12(fp)
  809478:	10000005 	stb	zero,0(r2)
  80947c:	e03ff915 	stw	zero,-28(fp)
  809480:	00003b06 	br	809570 <OSSemDel+0x280>
  809484:	e0bff817 	ldw	r2,-32(fp)
  809488:	e0bff515 	stw	r2,-44(fp)
  80948c:	e0bff517 	ldw	r2,-44(fp)
  809490:	1001703a 	wrctl	status,r2
  809494:	e0fffd17 	ldw	r3,-12(fp)
  809498:	00801244 	movi	r2,73
  80949c:	18800005 	stb	r2,0(r3)
  8094a0:	e0bffb17 	ldw	r2,-20(fp)
  8094a4:	e0bff915 	stw	r2,-28(fp)
  8094a8:	00003106 	br	809570 <OSSemDel+0x280>
  8094ac:	e13ffb17 	ldw	r4,-20(fp)
  8094b0:	000b883a 	mov	r5,zero
  8094b4:	01800044 	movi	r6,1
  8094b8:	000f883a 	mov	r7,zero
  8094bc:	08049f00 	call	8049f0 <OS_EventTaskRdy>
  8094c0:	e0bffb17 	ldw	r2,-20(fp)
  8094c4:	10800283 	ldbu	r2,10(r2)
  8094c8:	10803fcc 	andi	r2,r2,255
  8094cc:	1004c03a 	cmpne	r2,r2,zero
  8094d0:	103ff61e 	bne	r2,zero,8094ac <OSSemDel+0x1bc>
  8094d4:	e0fffb17 	ldw	r3,-20(fp)
  8094d8:	00800fc4 	movi	r2,63
  8094dc:	18800385 	stb	r2,14(r3)
  8094e0:	e0bffb17 	ldw	r2,-20(fp)
  8094e4:	100003c5 	stb	zero,15(r2)
  8094e8:	e0bffb17 	ldw	r2,-20(fp)
  8094ec:	10000005 	stb	zero,0(r2)
  8094f0:	00802074 	movhi	r2,129
  8094f4:	10898c04 	addi	r2,r2,9776
  8094f8:	10c00017 	ldw	r3,0(r2)
  8094fc:	e0bffb17 	ldw	r2,-20(fp)
  809500:	10c00115 	stw	r3,4(r2)
  809504:	e0bffb17 	ldw	r2,-20(fp)
  809508:	1000020d 	sth	zero,8(r2)
  80950c:	00c02074 	movhi	r3,129
  809510:	18c98c04 	addi	r3,r3,9776
  809514:	e0bffb17 	ldw	r2,-20(fp)
  809518:	18800015 	stw	r2,0(r3)
  80951c:	e0bff817 	ldw	r2,-32(fp)
  809520:	e0bff415 	stw	r2,-48(fp)
  809524:	e0bff417 	ldw	r2,-48(fp)
  809528:	1001703a 	wrctl	status,r2
  80952c:	e0bffa03 	ldbu	r2,-24(fp)
  809530:	10800058 	cmpnei	r2,r2,1
  809534:	1000011e 	bne	r2,zero,80953c <OSSemDel+0x24c>
  809538:	08054300 	call	805430 <OS_Sched>
  80953c:	e0bffd17 	ldw	r2,-12(fp)
  809540:	10000005 	stb	zero,0(r2)
  809544:	e03ff915 	stw	zero,-28(fp)
  809548:	00000906 	br	809570 <OSSemDel+0x280>
  80954c:	e0bff817 	ldw	r2,-32(fp)
  809550:	e0bff315 	stw	r2,-52(fp)
  809554:	e0bff317 	ldw	r2,-52(fp)
  809558:	1001703a 	wrctl	status,r2
  80955c:	e0fffd17 	ldw	r3,-12(fp)
  809560:	008001c4 	movi	r2,7
  809564:	18800005 	stb	r2,0(r3)
  809568:	e0bffb17 	ldw	r2,-20(fp)
  80956c:	e0bff915 	stw	r2,-28(fp)
  809570:	e0bff917 	ldw	r2,-28(fp)
  809574:	e0bfff15 	stw	r2,-4(fp)
  809578:	e0bfff17 	ldw	r2,-4(fp)
  80957c:	e037883a 	mov	sp,fp
  809580:	dfc00117 	ldw	ra,4(sp)
  809584:	df000017 	ldw	fp,0(sp)
  809588:	dec00204 	addi	sp,sp,8
  80958c:	f800283a 	ret

00809590 <OSSemPend>:
  809590:	defff404 	addi	sp,sp,-48
  809594:	dfc00b15 	stw	ra,44(sp)
  809598:	df000a15 	stw	fp,40(sp)
  80959c:	df000a04 	addi	fp,sp,40
  8095a0:	e13ffc15 	stw	r4,-16(fp)
  8095a4:	e1bffe15 	stw	r6,-8(fp)
  8095a8:	e17ffd0d 	sth	r5,-12(fp)
  8095ac:	e03ffb15 	stw	zero,-20(fp)
  8095b0:	e0bffe17 	ldw	r2,-8(fp)
  8095b4:	1005003a 	cmpeq	r2,r2,zero
  8095b8:	10008f1e 	bne	r2,zero,8097f8 <OSSemPend+0x268>
  8095bc:	e0bffc17 	ldw	r2,-16(fp)
  8095c0:	1004c03a 	cmpne	r2,r2,zero
  8095c4:	1000041e 	bne	r2,zero,8095d8 <OSSemPend+0x48>
  8095c8:	e0fffe17 	ldw	r3,-8(fp)
  8095cc:	00800104 	movi	r2,4
  8095d0:	18800005 	stb	r2,0(r3)
  8095d4:	00008806 	br	8097f8 <OSSemPend+0x268>
  8095d8:	e0bffc17 	ldw	r2,-16(fp)
  8095dc:	10800003 	ldbu	r2,0(r2)
  8095e0:	10803fcc 	andi	r2,r2,255
  8095e4:	108000e0 	cmpeqi	r2,r2,3
  8095e8:	1000041e 	bne	r2,zero,8095fc <OSSemPend+0x6c>
  8095ec:	e0fffe17 	ldw	r3,-8(fp)
  8095f0:	00800044 	movi	r2,1
  8095f4:	18800005 	stb	r2,0(r3)
  8095f8:	00007f06 	br	8097f8 <OSSemPend+0x268>
  8095fc:	00802074 	movhi	r2,129
  809600:	10898d04 	addi	r2,r2,9780
  809604:	10800003 	ldbu	r2,0(r2)
  809608:	10803fcc 	andi	r2,r2,255
  80960c:	1005003a 	cmpeq	r2,r2,zero
  809610:	1000041e 	bne	r2,zero,809624 <OSSemPend+0x94>
  809614:	e0fffe17 	ldw	r3,-8(fp)
  809618:	00800084 	movi	r2,2
  80961c:	18800005 	stb	r2,0(r3)
  809620:	00007506 	br	8097f8 <OSSemPend+0x268>
  809624:	00802074 	movhi	r2,129
  809628:	10897f04 	addi	r2,r2,9724
  80962c:	10800003 	ldbu	r2,0(r2)
  809630:	10803fcc 	andi	r2,r2,255
  809634:	1005003a 	cmpeq	r2,r2,zero
  809638:	1000041e 	bne	r2,zero,80964c <OSSemPend+0xbc>
  80963c:	e0fffe17 	ldw	r3,-8(fp)
  809640:	00800344 	movi	r2,13
  809644:	18800005 	stb	r2,0(r3)
  809648:	00006b06 	br	8097f8 <OSSemPend+0x268>
  80964c:	0005303a 	rdctl	r2,status
  809650:	e0bffa15 	stw	r2,-24(fp)
  809654:	e0fffa17 	ldw	r3,-24(fp)
  809658:	00bfff84 	movi	r2,-2
  80965c:	1884703a 	and	r2,r3,r2
  809660:	1001703a 	wrctl	status,r2
  809664:	e0bffa17 	ldw	r2,-24(fp)
  809668:	e0bffb15 	stw	r2,-20(fp)
  80966c:	e0bffc17 	ldw	r2,-16(fp)
  809670:	1080020b 	ldhu	r2,8(r2)
  809674:	10bfffcc 	andi	r2,r2,65535
  809678:	1005003a 	cmpeq	r2,r2,zero
  80967c:	10000d1e 	bne	r2,zero,8096b4 <OSSemPend+0x124>
  809680:	e0bffc17 	ldw	r2,-16(fp)
  809684:	1080020b 	ldhu	r2,8(r2)
  809688:	10bfffc4 	addi	r2,r2,-1
  80968c:	1007883a 	mov	r3,r2
  809690:	e0bffc17 	ldw	r2,-16(fp)
  809694:	10c0020d 	sth	r3,8(r2)
  809698:	e0bffb17 	ldw	r2,-20(fp)
  80969c:	e0bff915 	stw	r2,-28(fp)
  8096a0:	e0bff917 	ldw	r2,-28(fp)
  8096a4:	1001703a 	wrctl	status,r2
  8096a8:	e0bffe17 	ldw	r2,-8(fp)
  8096ac:	10000005 	stb	zero,0(r2)
  8096b0:	00005106 	br	8097f8 <OSSemPend+0x268>
  8096b4:	00802074 	movhi	r2,129
  8096b8:	10898e04 	addi	r2,r2,9784
  8096bc:	10c00017 	ldw	r3,0(r2)
  8096c0:	00802074 	movhi	r2,129
  8096c4:	10898e04 	addi	r2,r2,9784
  8096c8:	10800017 	ldw	r2,0(r2)
  8096cc:	10800c03 	ldbu	r2,48(r2)
  8096d0:	10800054 	ori	r2,r2,1
  8096d4:	18800c05 	stb	r2,48(r3)
  8096d8:	00802074 	movhi	r2,129
  8096dc:	10898e04 	addi	r2,r2,9784
  8096e0:	10800017 	ldw	r2,0(r2)
  8096e4:	10000c45 	stb	zero,49(r2)
  8096e8:	00802074 	movhi	r2,129
  8096ec:	10898e04 	addi	r2,r2,9784
  8096f0:	10c00017 	ldw	r3,0(r2)
  8096f4:	e0bffd0b 	ldhu	r2,-12(fp)
  8096f8:	18800b8d 	sth	r2,46(r3)
  8096fc:	e13ffc17 	ldw	r4,-16(fp)
  809700:	0804b840 	call	804b84 <OS_EventTaskWait>
  809704:	e0bffb17 	ldw	r2,-20(fp)
  809708:	e0bff815 	stw	r2,-32(fp)
  80970c:	e0bff817 	ldw	r2,-32(fp)
  809710:	1001703a 	wrctl	status,r2
  809714:	08054300 	call	805430 <OS_Sched>
  809718:	0005303a 	rdctl	r2,status
  80971c:	e0bff715 	stw	r2,-36(fp)
  809720:	e0fff717 	ldw	r3,-36(fp)
  809724:	00bfff84 	movi	r2,-2
  809728:	1884703a 	and	r2,r3,r2
  80972c:	1001703a 	wrctl	status,r2
  809730:	e0bff717 	ldw	r2,-36(fp)
  809734:	e0bffb15 	stw	r2,-20(fp)
  809738:	00802074 	movhi	r2,129
  80973c:	10898e04 	addi	r2,r2,9784
  809740:	10800017 	ldw	r2,0(r2)
  809744:	10800c43 	ldbu	r2,49(r2)
  809748:	10803fcc 	andi	r2,r2,255
  80974c:	e0bfff15 	stw	r2,-4(fp)
  809750:	e0ffff17 	ldw	r3,-4(fp)
  809754:	1805003a 	cmpeq	r2,r3,zero
  809758:	1000041e 	bne	r2,zero,80976c <OSSemPend+0x1dc>
  80975c:	e0ffff17 	ldw	r3,-4(fp)
  809760:	188000a0 	cmpeqi	r2,r3,2
  809764:	1000041e 	bne	r2,zero,809778 <OSSemPend+0x1e8>
  809768:	00000706 	br	809788 <OSSemPend+0x1f8>
  80976c:	e0bffe17 	ldw	r2,-8(fp)
  809770:	10000005 	stb	zero,0(r2)
  809774:	00000c06 	br	8097a8 <OSSemPend+0x218>
  809778:	e0fffe17 	ldw	r3,-8(fp)
  80977c:	00800384 	movi	r2,14
  809780:	18800005 	stb	r2,0(r3)
  809784:	00000806 	br	8097a8 <OSSemPend+0x218>
  809788:	00802074 	movhi	r2,129
  80978c:	10898e04 	addi	r2,r2,9784
  809790:	11000017 	ldw	r4,0(r2)
  809794:	e17ffc17 	ldw	r5,-16(fp)
  809798:	0804de80 	call	804de8 <OS_EventTaskRemove>
  80979c:	e0fffe17 	ldw	r3,-8(fp)
  8097a0:	00800284 	movi	r2,10
  8097a4:	18800005 	stb	r2,0(r3)
  8097a8:	00802074 	movhi	r2,129
  8097ac:	10898e04 	addi	r2,r2,9784
  8097b0:	10800017 	ldw	r2,0(r2)
  8097b4:	10000c05 	stb	zero,48(r2)
  8097b8:	00802074 	movhi	r2,129
  8097bc:	10898e04 	addi	r2,r2,9784
  8097c0:	10800017 	ldw	r2,0(r2)
  8097c4:	10000c45 	stb	zero,49(r2)
  8097c8:	00802074 	movhi	r2,129
  8097cc:	10898e04 	addi	r2,r2,9784
  8097d0:	10800017 	ldw	r2,0(r2)
  8097d4:	10000715 	stw	zero,28(r2)
  8097d8:	00802074 	movhi	r2,129
  8097dc:	10898e04 	addi	r2,r2,9784
  8097e0:	10800017 	ldw	r2,0(r2)
  8097e4:	10000815 	stw	zero,32(r2)
  8097e8:	e0bffb17 	ldw	r2,-20(fp)
  8097ec:	e0bff615 	stw	r2,-40(fp)
  8097f0:	e0bff617 	ldw	r2,-40(fp)
  8097f4:	1001703a 	wrctl	status,r2
  8097f8:	e037883a 	mov	sp,fp
  8097fc:	dfc00117 	ldw	ra,4(sp)
  809800:	df000017 	ldw	fp,0(sp)
  809804:	dec00204 	addi	sp,sp,8
  809808:	f800283a 	ret

0080980c <OSSemPendAbort>:
  80980c:	defff504 	addi	sp,sp,-44
  809810:	dfc00a15 	stw	ra,40(sp)
  809814:	df000915 	stw	fp,36(sp)
  809818:	df000904 	addi	fp,sp,36
  80981c:	e13ffc15 	stw	r4,-16(fp)
  809820:	e1bffe15 	stw	r6,-8(fp)
  809824:	e17ffd05 	stb	r5,-12(fp)
  809828:	e03ffa15 	stw	zero,-24(fp)
  80982c:	e0bffe17 	ldw	r2,-8(fp)
  809830:	1004c03a 	cmpne	r2,r2,zero
  809834:	1000021e 	bne	r2,zero,809840 <OSSemPendAbort+0x34>
  809838:	e03fff15 	stw	zero,-4(fp)
  80983c:	00004c06 	br	809970 <OSSemPendAbort+0x164>
  809840:	e0bffc17 	ldw	r2,-16(fp)
  809844:	1004c03a 	cmpne	r2,r2,zero
  809848:	1000051e 	bne	r2,zero,809860 <OSSemPendAbort+0x54>
  80984c:	e0fffe17 	ldw	r3,-8(fp)
  809850:	00800104 	movi	r2,4
  809854:	18800005 	stb	r2,0(r3)
  809858:	e03fff15 	stw	zero,-4(fp)
  80985c:	00004406 	br	809970 <OSSemPendAbort+0x164>
  809860:	e0bffc17 	ldw	r2,-16(fp)
  809864:	10800003 	ldbu	r2,0(r2)
  809868:	10803fcc 	andi	r2,r2,255
  80986c:	108000e0 	cmpeqi	r2,r2,3
  809870:	1000051e 	bne	r2,zero,809888 <OSSemPendAbort+0x7c>
  809874:	e0fffe17 	ldw	r3,-8(fp)
  809878:	00800044 	movi	r2,1
  80987c:	18800005 	stb	r2,0(r3)
  809880:	e03fff15 	stw	zero,-4(fp)
  809884:	00003a06 	br	809970 <OSSemPendAbort+0x164>
  809888:	0005303a 	rdctl	r2,status
  80988c:	e0bff915 	stw	r2,-28(fp)
  809890:	e0fff917 	ldw	r3,-28(fp)
  809894:	00bfff84 	movi	r2,-2
  809898:	1884703a 	and	r2,r3,r2
  80989c:	1001703a 	wrctl	status,r2
  8098a0:	e0bff917 	ldw	r2,-28(fp)
  8098a4:	e0bffa15 	stw	r2,-24(fp)
  8098a8:	e0bffc17 	ldw	r2,-16(fp)
  8098ac:	10800283 	ldbu	r2,10(r2)
  8098b0:	10803fcc 	andi	r2,r2,255
  8098b4:	1005003a 	cmpeq	r2,r2,zero
  8098b8:	1000261e 	bne	r2,zero,809954 <OSSemPendAbort+0x148>
  8098bc:	e03ffb05 	stb	zero,-20(fp)
  8098c0:	e0bffd03 	ldbu	r2,-12(fp)
  8098c4:	10800060 	cmpeqi	r2,r2,1
  8098c8:	1000091e 	bne	r2,zero,8098f0 <OSSemPendAbort+0xe4>
  8098cc:	00000e06 	br	809908 <OSSemPendAbort+0xfc>
  8098d0:	e13ffc17 	ldw	r4,-16(fp)
  8098d4:	000b883a 	mov	r5,zero
  8098d8:	01800044 	movi	r6,1
  8098dc:	01c00084 	movi	r7,2
  8098e0:	08049f00 	call	8049f0 <OS_EventTaskRdy>
  8098e4:	e0bffb03 	ldbu	r2,-20(fp)
  8098e8:	10800044 	addi	r2,r2,1
  8098ec:	e0bffb05 	stb	r2,-20(fp)
  8098f0:	e0bffc17 	ldw	r2,-16(fp)
  8098f4:	10800283 	ldbu	r2,10(r2)
  8098f8:	10803fcc 	andi	r2,r2,255
  8098fc:	1004c03a 	cmpne	r2,r2,zero
  809900:	103ff31e 	bne	r2,zero,8098d0 <OSSemPendAbort+0xc4>
  809904:	00000806 	br	809928 <OSSemPendAbort+0x11c>
  809908:	e13ffc17 	ldw	r4,-16(fp)
  80990c:	000b883a 	mov	r5,zero
  809910:	01800044 	movi	r6,1
  809914:	01c00084 	movi	r7,2
  809918:	08049f00 	call	8049f0 <OS_EventTaskRdy>
  80991c:	e0bffb03 	ldbu	r2,-20(fp)
  809920:	10800044 	addi	r2,r2,1
  809924:	e0bffb05 	stb	r2,-20(fp)
  809928:	e0bffa17 	ldw	r2,-24(fp)
  80992c:	e0bff815 	stw	r2,-32(fp)
  809930:	e0bff817 	ldw	r2,-32(fp)
  809934:	1001703a 	wrctl	status,r2
  809938:	08054300 	call	805430 <OS_Sched>
  80993c:	e0fffe17 	ldw	r3,-8(fp)
  809940:	00800384 	movi	r2,14
  809944:	18800005 	stb	r2,0(r3)
  809948:	e0bffb03 	ldbu	r2,-20(fp)
  80994c:	e0bfff15 	stw	r2,-4(fp)
  809950:	00000706 	br	809970 <OSSemPendAbort+0x164>
  809954:	e0bffa17 	ldw	r2,-24(fp)
  809958:	e0bff715 	stw	r2,-36(fp)
  80995c:	e0bff717 	ldw	r2,-36(fp)
  809960:	1001703a 	wrctl	status,r2
  809964:	e0bffe17 	ldw	r2,-8(fp)
  809968:	10000005 	stb	zero,0(r2)
  80996c:	e03fff15 	stw	zero,-4(fp)
  809970:	e0bfff17 	ldw	r2,-4(fp)
  809974:	e037883a 	mov	sp,fp
  809978:	dfc00117 	ldw	ra,4(sp)
  80997c:	df000017 	ldw	fp,0(sp)
  809980:	dec00204 	addi	sp,sp,8
  809984:	f800283a 	ret

00809988 <OSSemPost>:
  809988:	defff704 	addi	sp,sp,-36
  80998c:	dfc00815 	stw	ra,32(sp)
  809990:	df000715 	stw	fp,28(sp)
  809994:	df000704 	addi	fp,sp,28
  809998:	e13ffe15 	stw	r4,-8(fp)
  80999c:	e03ffd15 	stw	zero,-12(fp)
  8099a0:	e0bffe17 	ldw	r2,-8(fp)
  8099a4:	1004c03a 	cmpne	r2,r2,zero
  8099a8:	1000031e 	bne	r2,zero,8099b8 <OSSemPost+0x30>
  8099ac:	00800104 	movi	r2,4
  8099b0:	e0bfff15 	stw	r2,-4(fp)
  8099b4:	00003806 	br	809a98 <OSSemPost+0x110>
  8099b8:	e0bffe17 	ldw	r2,-8(fp)
  8099bc:	10800003 	ldbu	r2,0(r2)
  8099c0:	10803fcc 	andi	r2,r2,255
  8099c4:	108000e0 	cmpeqi	r2,r2,3
  8099c8:	1000031e 	bne	r2,zero,8099d8 <OSSemPost+0x50>
  8099cc:	00800044 	movi	r2,1
  8099d0:	e0bfff15 	stw	r2,-4(fp)
  8099d4:	00003006 	br	809a98 <OSSemPost+0x110>
  8099d8:	0005303a 	rdctl	r2,status
  8099dc:	e0bffc15 	stw	r2,-16(fp)
  8099e0:	e0fffc17 	ldw	r3,-16(fp)
  8099e4:	00bfff84 	movi	r2,-2
  8099e8:	1884703a 	and	r2,r3,r2
  8099ec:	1001703a 	wrctl	status,r2
  8099f0:	e0bffc17 	ldw	r2,-16(fp)
  8099f4:	e0bffd15 	stw	r2,-12(fp)
  8099f8:	e0bffe17 	ldw	r2,-8(fp)
  8099fc:	10800283 	ldbu	r2,10(r2)
  809a00:	10803fcc 	andi	r2,r2,255
  809a04:	1005003a 	cmpeq	r2,r2,zero
  809a08:	10000c1e 	bne	r2,zero,809a3c <OSSemPost+0xb4>
  809a0c:	e13ffe17 	ldw	r4,-8(fp)
  809a10:	000b883a 	mov	r5,zero
  809a14:	01800044 	movi	r6,1
  809a18:	000f883a 	mov	r7,zero
  809a1c:	08049f00 	call	8049f0 <OS_EventTaskRdy>
  809a20:	e0bffd17 	ldw	r2,-12(fp)
  809a24:	e0bffb15 	stw	r2,-20(fp)
  809a28:	e0bffb17 	ldw	r2,-20(fp)
  809a2c:	1001703a 	wrctl	status,r2
  809a30:	08054300 	call	805430 <OS_Sched>
  809a34:	e03fff15 	stw	zero,-4(fp)
  809a38:	00001706 	br	809a98 <OSSemPost+0x110>
  809a3c:	e0bffe17 	ldw	r2,-8(fp)
  809a40:	1080020b 	ldhu	r2,8(r2)
  809a44:	10ffffcc 	andi	r3,r2,65535
  809a48:	00bfffd4 	movui	r2,65535
  809a4c:	18800c26 	beq	r3,r2,809a80 <OSSemPost+0xf8>
  809a50:	e0bffe17 	ldw	r2,-8(fp)
  809a54:	1080020b 	ldhu	r2,8(r2)
  809a58:	10800044 	addi	r2,r2,1
  809a5c:	1007883a 	mov	r3,r2
  809a60:	e0bffe17 	ldw	r2,-8(fp)
  809a64:	10c0020d 	sth	r3,8(r2)
  809a68:	e0bffd17 	ldw	r2,-12(fp)
  809a6c:	e0bffa15 	stw	r2,-24(fp)
  809a70:	e0bffa17 	ldw	r2,-24(fp)
  809a74:	1001703a 	wrctl	status,r2
  809a78:	e03fff15 	stw	zero,-4(fp)
  809a7c:	00000606 	br	809a98 <OSSemPost+0x110>
  809a80:	e0bffd17 	ldw	r2,-12(fp)
  809a84:	e0bff915 	stw	r2,-28(fp)
  809a88:	e0bff917 	ldw	r2,-28(fp)
  809a8c:	1001703a 	wrctl	status,r2
  809a90:	00800c84 	movi	r2,50
  809a94:	e0bfff15 	stw	r2,-4(fp)
  809a98:	e0bfff17 	ldw	r2,-4(fp)
  809a9c:	e037883a 	mov	sp,fp
  809aa0:	dfc00117 	ldw	ra,4(sp)
  809aa4:	df000017 	ldw	fp,0(sp)
  809aa8:	dec00204 	addi	sp,sp,8
  809aac:	f800283a 	ret

00809ab0 <OSSemQuery>:
  809ab0:	defff604 	addi	sp,sp,-40
  809ab4:	df000915 	stw	fp,36(sp)
  809ab8:	df000904 	addi	fp,sp,36
  809abc:	e13ffd15 	stw	r4,-12(fp)
  809ac0:	e17ffe15 	stw	r5,-8(fp)
  809ac4:	e03ff915 	stw	zero,-28(fp)
  809ac8:	e0bffd17 	ldw	r2,-12(fp)
  809acc:	1004c03a 	cmpne	r2,r2,zero
  809ad0:	1000031e 	bne	r2,zero,809ae0 <OSSemQuery+0x30>
  809ad4:	00800104 	movi	r2,4
  809ad8:	e0bfff15 	stw	r2,-4(fp)
  809adc:	00003b06 	br	809bcc <OSSemQuery+0x11c>
  809ae0:	e0bffe17 	ldw	r2,-8(fp)
  809ae4:	1004c03a 	cmpne	r2,r2,zero
  809ae8:	1000031e 	bne	r2,zero,809af8 <OSSemQuery+0x48>
  809aec:	00800244 	movi	r2,9
  809af0:	e0bfff15 	stw	r2,-4(fp)
  809af4:	00003506 	br	809bcc <OSSemQuery+0x11c>
  809af8:	e0bffd17 	ldw	r2,-12(fp)
  809afc:	10800003 	ldbu	r2,0(r2)
  809b00:	10803fcc 	andi	r2,r2,255
  809b04:	108000e0 	cmpeqi	r2,r2,3
  809b08:	1000031e 	bne	r2,zero,809b18 <OSSemQuery+0x68>
  809b0c:	00800044 	movi	r2,1
  809b10:	e0bfff15 	stw	r2,-4(fp)
  809b14:	00002d06 	br	809bcc <OSSemQuery+0x11c>
  809b18:	0005303a 	rdctl	r2,status
  809b1c:	e0bff815 	stw	r2,-32(fp)
  809b20:	e0fff817 	ldw	r3,-32(fp)
  809b24:	00bfff84 	movi	r2,-2
  809b28:	1884703a 	and	r2,r3,r2
  809b2c:	1001703a 	wrctl	status,r2
  809b30:	e0bff817 	ldw	r2,-32(fp)
  809b34:	e0bff915 	stw	r2,-28(fp)
  809b38:	e0bffd17 	ldw	r2,-12(fp)
  809b3c:	10c00283 	ldbu	r3,10(r2)
  809b40:	e0bffe17 	ldw	r2,-8(fp)
  809b44:	10c00145 	stb	r3,5(r2)
  809b48:	e0bffd17 	ldw	r2,-12(fp)
  809b4c:	108002c4 	addi	r2,r2,11
  809b50:	e0bffc15 	stw	r2,-16(fp)
  809b54:	e0bffe17 	ldw	r2,-8(fp)
  809b58:	10800084 	addi	r2,r2,2
  809b5c:	e0bffb15 	stw	r2,-20(fp)
  809b60:	e03ffa05 	stb	zero,-24(fp)
  809b64:	00000d06 	br	809b9c <OSSemQuery+0xec>
  809b68:	e0bffc17 	ldw	r2,-16(fp)
  809b6c:	10c00003 	ldbu	r3,0(r2)
  809b70:	e0bffb17 	ldw	r2,-20(fp)
  809b74:	10c00005 	stb	r3,0(r2)
  809b78:	e0bffb17 	ldw	r2,-20(fp)
  809b7c:	10800044 	addi	r2,r2,1
  809b80:	e0bffb15 	stw	r2,-20(fp)
  809b84:	e0bffc17 	ldw	r2,-16(fp)
  809b88:	10800044 	addi	r2,r2,1
  809b8c:	e0bffc15 	stw	r2,-16(fp)
  809b90:	e0bffa03 	ldbu	r2,-24(fp)
  809b94:	10800044 	addi	r2,r2,1
  809b98:	e0bffa05 	stb	r2,-24(fp)
  809b9c:	e0bffa03 	ldbu	r2,-24(fp)
  809ba0:	108000f0 	cmpltui	r2,r2,3
  809ba4:	103ff01e 	bne	r2,zero,809b68 <OSSemQuery+0xb8>
  809ba8:	e0bffd17 	ldw	r2,-12(fp)
  809bac:	10c0020b 	ldhu	r3,8(r2)
  809bb0:	e0bffe17 	ldw	r2,-8(fp)
  809bb4:	10c0000d 	sth	r3,0(r2)
  809bb8:	e0bff917 	ldw	r2,-28(fp)
  809bbc:	e0bff715 	stw	r2,-36(fp)
  809bc0:	e0bff717 	ldw	r2,-36(fp)
  809bc4:	1001703a 	wrctl	status,r2
  809bc8:	e03fff15 	stw	zero,-4(fp)
  809bcc:	e0bfff17 	ldw	r2,-4(fp)
  809bd0:	e037883a 	mov	sp,fp
  809bd4:	df000017 	ldw	fp,0(sp)
  809bd8:	dec00104 	addi	sp,sp,4
  809bdc:	f800283a 	ret

00809be0 <OSSemSet>:
  809be0:	defff904 	addi	sp,sp,-28
  809be4:	df000615 	stw	fp,24(sp)
  809be8:	df000604 	addi	fp,sp,24
  809bec:	e13ffd15 	stw	r4,-12(fp)
  809bf0:	e1bfff15 	stw	r6,-4(fp)
  809bf4:	e17ffe0d 	sth	r5,-8(fp)
  809bf8:	e03ffc15 	stw	zero,-16(fp)
  809bfc:	e0bfff17 	ldw	r2,-4(fp)
  809c00:	1005003a 	cmpeq	r2,r2,zero
  809c04:	1000331e 	bne	r2,zero,809cd4 <OSSemSet+0xf4>
  809c08:	e0bffd17 	ldw	r2,-12(fp)
  809c0c:	1004c03a 	cmpne	r2,r2,zero
  809c10:	1000041e 	bne	r2,zero,809c24 <OSSemSet+0x44>
  809c14:	e0ffff17 	ldw	r3,-4(fp)
  809c18:	00800104 	movi	r2,4
  809c1c:	18800005 	stb	r2,0(r3)
  809c20:	00002c06 	br	809cd4 <OSSemSet+0xf4>
  809c24:	e0bffd17 	ldw	r2,-12(fp)
  809c28:	10800003 	ldbu	r2,0(r2)
  809c2c:	10803fcc 	andi	r2,r2,255
  809c30:	108000e0 	cmpeqi	r2,r2,3
  809c34:	1000041e 	bne	r2,zero,809c48 <OSSemSet+0x68>
  809c38:	e0ffff17 	ldw	r3,-4(fp)
  809c3c:	00800044 	movi	r2,1
  809c40:	18800005 	stb	r2,0(r3)
  809c44:	00002306 	br	809cd4 <OSSemSet+0xf4>
  809c48:	0005303a 	rdctl	r2,status
  809c4c:	e0bffb15 	stw	r2,-20(fp)
  809c50:	e0fffb17 	ldw	r3,-20(fp)
  809c54:	00bfff84 	movi	r2,-2
  809c58:	1884703a 	and	r2,r3,r2
  809c5c:	1001703a 	wrctl	status,r2
  809c60:	e0bffb17 	ldw	r2,-20(fp)
  809c64:	e0bffc15 	stw	r2,-16(fp)
  809c68:	e0bfff17 	ldw	r2,-4(fp)
  809c6c:	10000005 	stb	zero,0(r2)
  809c70:	e0bffd17 	ldw	r2,-12(fp)
  809c74:	1080020b 	ldhu	r2,8(r2)
  809c78:	10bfffcc 	andi	r2,r2,65535
  809c7c:	1005003a 	cmpeq	r2,r2,zero
  809c80:	1000041e 	bne	r2,zero,809c94 <OSSemSet+0xb4>
  809c84:	e0fffd17 	ldw	r3,-12(fp)
  809c88:	e0bffe0b 	ldhu	r2,-8(fp)
  809c8c:	1880020d 	sth	r2,8(r3)
  809c90:	00000c06 	br	809cc4 <OSSemSet+0xe4>
  809c94:	e0bffd17 	ldw	r2,-12(fp)
  809c98:	10800283 	ldbu	r2,10(r2)
  809c9c:	10803fcc 	andi	r2,r2,255
  809ca0:	1004c03a 	cmpne	r2,r2,zero
  809ca4:	1000041e 	bne	r2,zero,809cb8 <OSSemSet+0xd8>
  809ca8:	e0fffd17 	ldw	r3,-12(fp)
  809cac:	e0bffe0b 	ldhu	r2,-8(fp)
  809cb0:	1880020d 	sth	r2,8(r3)
  809cb4:	00000306 	br	809cc4 <OSSemSet+0xe4>
  809cb8:	e0ffff17 	ldw	r3,-4(fp)
  809cbc:	00801244 	movi	r2,73
  809cc0:	18800005 	stb	r2,0(r3)
  809cc4:	e0bffc17 	ldw	r2,-16(fp)
  809cc8:	e0bffa15 	stw	r2,-24(fp)
  809ccc:	e0bffa17 	ldw	r2,-24(fp)
  809cd0:	1001703a 	wrctl	status,r2
  809cd4:	e037883a 	mov	sp,fp
  809cd8:	df000017 	ldw	fp,0(sp)
  809cdc:	dec00104 	addi	sp,sp,4
  809ce0:	f800283a 	ret

00809ce4 <OSTaskChangePrio>:
  809ce4:	defff004 	addi	sp,sp,-64
  809ce8:	dfc00f15 	stw	ra,60(sp)
  809cec:	df000e15 	stw	fp,56(sp)
  809cf0:	df000e04 	addi	fp,sp,56
  809cf4:	e13ffd05 	stb	r4,-12(fp)
  809cf8:	e17ffe05 	stb	r5,-8(fp)
  809cfc:	e03ff715 	stw	zero,-36(fp)
  809d00:	e0bffd03 	ldbu	r2,-12(fp)
  809d04:	10800530 	cmpltui	r2,r2,20
  809d08:	1000061e 	bne	r2,zero,809d24 <OSTaskChangePrio+0x40>
  809d0c:	e0bffd03 	ldbu	r2,-12(fp)
  809d10:	10803fe0 	cmpeqi	r2,r2,255
  809d14:	1000031e 	bne	r2,zero,809d24 <OSTaskChangePrio+0x40>
  809d18:	00800a84 	movi	r2,42
  809d1c:	e0bfff15 	stw	r2,-4(fp)
  809d20:	00014706 	br	80a240 <OSTaskChangePrio+0x55c>
  809d24:	e0bffe03 	ldbu	r2,-8(fp)
  809d28:	10800530 	cmpltui	r2,r2,20
  809d2c:	1000031e 	bne	r2,zero,809d3c <OSTaskChangePrio+0x58>
  809d30:	00800a84 	movi	r2,42
  809d34:	e0bfff15 	stw	r2,-4(fp)
  809d38:	00014106 	br	80a240 <OSTaskChangePrio+0x55c>
  809d3c:	0005303a 	rdctl	r2,status
  809d40:	e0bff615 	stw	r2,-40(fp)
  809d44:	e0fff617 	ldw	r3,-40(fp)
  809d48:	00bfff84 	movi	r2,-2
  809d4c:	1884703a 	and	r2,r3,r2
  809d50:	1001703a 	wrctl	status,r2
  809d54:	e0bff617 	ldw	r2,-40(fp)
  809d58:	e0bff715 	stw	r2,-36(fp)
  809d5c:	e0bffe03 	ldbu	r2,-8(fp)
  809d60:	00c020b4 	movhi	r3,130
  809d64:	18e61404 	addi	r3,r3,-26544
  809d68:	1085883a 	add	r2,r2,r2
  809d6c:	1085883a 	add	r2,r2,r2
  809d70:	10c5883a 	add	r2,r2,r3
  809d74:	10800017 	ldw	r2,0(r2)
  809d78:	1005003a 	cmpeq	r2,r2,zero
  809d7c:	1000071e 	bne	r2,zero,809d9c <OSTaskChangePrio+0xb8>
  809d80:	e0bff717 	ldw	r2,-36(fp)
  809d84:	e0bff515 	stw	r2,-44(fp)
  809d88:	e0bff517 	ldw	r2,-44(fp)
  809d8c:	1001703a 	wrctl	status,r2
  809d90:	00800a04 	movi	r2,40
  809d94:	e0bfff15 	stw	r2,-4(fp)
  809d98:	00012906 	br	80a240 <OSTaskChangePrio+0x55c>
  809d9c:	e0bffd03 	ldbu	r2,-12(fp)
  809da0:	10803fd8 	cmpnei	r2,r2,255
  809da4:	1000051e 	bne	r2,zero,809dbc <OSTaskChangePrio+0xd8>
  809da8:	00802074 	movhi	r2,129
  809dac:	10898e04 	addi	r2,r2,9784
  809db0:	10800017 	ldw	r2,0(r2)
  809db4:	10800c83 	ldbu	r2,50(r2)
  809db8:	e0bffd05 	stb	r2,-12(fp)
  809dbc:	e0bffd03 	ldbu	r2,-12(fp)
  809dc0:	00c020b4 	movhi	r3,130
  809dc4:	18e61404 	addi	r3,r3,-26544
  809dc8:	1085883a 	add	r2,r2,r2
  809dcc:	1085883a 	add	r2,r2,r2
  809dd0:	10c5883a 	add	r2,r2,r3
  809dd4:	10800017 	ldw	r2,0(r2)
  809dd8:	e0bffa15 	stw	r2,-24(fp)
  809ddc:	e0bffa17 	ldw	r2,-24(fp)
  809de0:	1004c03a 	cmpne	r2,r2,zero
  809de4:	1000071e 	bne	r2,zero,809e04 <OSTaskChangePrio+0x120>
  809de8:	e0bff717 	ldw	r2,-36(fp)
  809dec:	e0bff415 	stw	r2,-48(fp)
  809df0:	e0bff417 	ldw	r2,-48(fp)
  809df4:	1001703a 	wrctl	status,r2
  809df8:	00800a44 	movi	r2,41
  809dfc:	e0bfff15 	stw	r2,-4(fp)
  809e00:	00010f06 	br	80a240 <OSTaskChangePrio+0x55c>
  809e04:	e0bffa17 	ldw	r2,-24(fp)
  809e08:	10800058 	cmpnei	r2,r2,1
  809e0c:	1000071e 	bne	r2,zero,809e2c <OSTaskChangePrio+0x148>
  809e10:	e0bff717 	ldw	r2,-36(fp)
  809e14:	e0bff315 	stw	r2,-52(fp)
  809e18:	e0bff317 	ldw	r2,-52(fp)
  809e1c:	1001703a 	wrctl	status,r2
  809e20:	008010c4 	movi	r2,67
  809e24:	e0bfff15 	stw	r2,-4(fp)
  809e28:	00010506 	br	80a240 <OSTaskChangePrio+0x55c>
  809e2c:	e0bffe03 	ldbu	r2,-8(fp)
  809e30:	1004d0fa 	srli	r2,r2,3
  809e34:	e0bff985 	stb	r2,-26(fp)
  809e38:	e0bffe03 	ldbu	r2,-8(fp)
  809e3c:	108001cc 	andi	r2,r2,7
  809e40:	e0bff945 	stb	r2,-27(fp)
  809e44:	e0fff983 	ldbu	r3,-26(fp)
  809e48:	00800044 	movi	r2,1
  809e4c:	10c4983a 	sll	r2,r2,r3
  809e50:	e0bff8c5 	stb	r2,-29(fp)
  809e54:	e0fff943 	ldbu	r3,-27(fp)
  809e58:	00800044 	movi	r2,1
  809e5c:	10c4983a 	sll	r2,r2,r3
  809e60:	e0bff885 	stb	r2,-30(fp)
  809e64:	e0bffd03 	ldbu	r2,-12(fp)
  809e68:	00c020b4 	movhi	r3,130
  809e6c:	18e61404 	addi	r3,r3,-26544
  809e70:	1085883a 	add	r2,r2,r2
  809e74:	1085883a 	add	r2,r2,r2
  809e78:	10c5883a 	add	r2,r2,r3
  809e7c:	10000015 	stw	zero,0(r2)
  809e80:	e0bffe03 	ldbu	r2,-8(fp)
  809e84:	00c020b4 	movhi	r3,130
  809e88:	18e61404 	addi	r3,r3,-26544
  809e8c:	1085883a 	add	r2,r2,r2
  809e90:	1085883a 	add	r2,r2,r2
  809e94:	10c7883a 	add	r3,r2,r3
  809e98:	e0bffa17 	ldw	r2,-24(fp)
  809e9c:	18800015 	stw	r2,0(r3)
  809ea0:	e0bffa17 	ldw	r2,-24(fp)
  809ea4:	10800d03 	ldbu	r2,52(r2)
  809ea8:	e0bff905 	stb	r2,-28(fp)
  809eac:	e0bffa17 	ldw	r2,-24(fp)
  809eb0:	10800d83 	ldbu	r2,54(r2)
  809eb4:	e0bff845 	stb	r2,-31(fp)
  809eb8:	e0bffa17 	ldw	r2,-24(fp)
  809ebc:	10800d43 	ldbu	r2,53(r2)
  809ec0:	e0bff805 	stb	r2,-32(fp)
  809ec4:	e0fff903 	ldbu	r3,-28(fp)
  809ec8:	00802074 	movhi	r2,129
  809ecc:	10898b44 	addi	r2,r2,9773
  809ed0:	10c5883a 	add	r2,r2,r3
  809ed4:	10c00003 	ldbu	r3,0(r2)
  809ed8:	e0bff803 	ldbu	r2,-32(fp)
  809edc:	1884703a 	and	r2,r3,r2
  809ee0:	10803fcc 	andi	r2,r2,255
  809ee4:	1005003a 	cmpeq	r2,r2,zero
  809ee8:	1000381e 	bne	r2,zero,809fcc <OSTaskChangePrio+0x2e8>
  809eec:	e13ff903 	ldbu	r4,-28(fp)
  809ef0:	e0fff903 	ldbu	r3,-28(fp)
  809ef4:	00802074 	movhi	r2,129
  809ef8:	10898b44 	addi	r2,r2,9773
  809efc:	10c5883a 	add	r2,r2,r3
  809f00:	10800003 	ldbu	r2,0(r2)
  809f04:	1007883a 	mov	r3,r2
  809f08:	e0bff803 	ldbu	r2,-32(fp)
  809f0c:	0084303a 	nor	r2,zero,r2
  809f10:	1884703a 	and	r2,r3,r2
  809f14:	1007883a 	mov	r3,r2
  809f18:	00802074 	movhi	r2,129
  809f1c:	10898b44 	addi	r2,r2,9773
  809f20:	1105883a 	add	r2,r2,r4
  809f24:	10c00005 	stb	r3,0(r2)
  809f28:	e0fff903 	ldbu	r3,-28(fp)
  809f2c:	00802074 	movhi	r2,129
  809f30:	10898b44 	addi	r2,r2,9773
  809f34:	10c5883a 	add	r2,r2,r3
  809f38:	10800003 	ldbu	r2,0(r2)
  809f3c:	10803fcc 	andi	r2,r2,255
  809f40:	1004c03a 	cmpne	r2,r2,zero
  809f44:	10000b1e 	bne	r2,zero,809f74 <OSTaskChangePrio+0x290>
  809f48:	e0bff843 	ldbu	r2,-31(fp)
  809f4c:	0084303a 	nor	r2,zero,r2
  809f50:	1007883a 	mov	r3,r2
  809f54:	00802074 	movhi	r2,129
  809f58:	10898b04 	addi	r2,r2,9772
  809f5c:	10800003 	ldbu	r2,0(r2)
  809f60:	1884703a 	and	r2,r3,r2
  809f64:	1007883a 	mov	r3,r2
  809f68:	00802074 	movhi	r2,129
  809f6c:	10898b04 	addi	r2,r2,9772
  809f70:	10c00005 	stb	r3,0(r2)
  809f74:	00802074 	movhi	r2,129
  809f78:	10898b04 	addi	r2,r2,9772
  809f7c:	10c00003 	ldbu	r3,0(r2)
  809f80:	e0bff8c3 	ldbu	r2,-29(fp)
  809f84:	1884b03a 	or	r2,r3,r2
  809f88:	1007883a 	mov	r3,r2
  809f8c:	00802074 	movhi	r2,129
  809f90:	10898b04 	addi	r2,r2,9772
  809f94:	10c00005 	stb	r3,0(r2)
  809f98:	e13ff983 	ldbu	r4,-26(fp)
  809f9c:	e0fff983 	ldbu	r3,-26(fp)
  809fa0:	00802074 	movhi	r2,129
  809fa4:	10898b44 	addi	r2,r2,9773
  809fa8:	10c5883a 	add	r2,r2,r3
  809fac:	10c00003 	ldbu	r3,0(r2)
  809fb0:	e0bff883 	ldbu	r2,-30(fp)
  809fb4:	1884b03a 	or	r2,r3,r2
  809fb8:	1007883a 	mov	r3,r2
  809fbc:	00802074 	movhi	r2,129
  809fc0:	10898b44 	addi	r2,r2,9773
  809fc4:	1105883a 	add	r2,r2,r4
  809fc8:	10c00005 	stb	r3,0(r2)
  809fcc:	e0bffa17 	ldw	r2,-24(fp)
  809fd0:	10800717 	ldw	r2,28(r2)
  809fd4:	e0bffc15 	stw	r2,-16(fp)
  809fd8:	e0bffc17 	ldw	r2,-16(fp)
  809fdc:	1005003a 	cmpeq	r2,r2,zero
  809fe0:	1000341e 	bne	r2,zero,80a0b4 <OSTaskChangePrio+0x3d0>
  809fe4:	e13ff903 	ldbu	r4,-28(fp)
  809fe8:	e0fff903 	ldbu	r3,-28(fp)
  809fec:	e0bffc17 	ldw	r2,-16(fp)
  809ff0:	1885883a 	add	r2,r3,r2
  809ff4:	10800204 	addi	r2,r2,8
  809ff8:	108000c3 	ldbu	r2,3(r2)
  809ffc:	1007883a 	mov	r3,r2
  80a000:	e0bff803 	ldbu	r2,-32(fp)
  80a004:	0084303a 	nor	r2,zero,r2
  80a008:	1884703a 	and	r2,r3,r2
  80a00c:	1007883a 	mov	r3,r2
  80a010:	e0bffc17 	ldw	r2,-16(fp)
  80a014:	2085883a 	add	r2,r4,r2
  80a018:	10800204 	addi	r2,r2,8
  80a01c:	10c000c5 	stb	r3,3(r2)
  80a020:	e0fff903 	ldbu	r3,-28(fp)
  80a024:	e0bffc17 	ldw	r2,-16(fp)
  80a028:	1885883a 	add	r2,r3,r2
  80a02c:	10800204 	addi	r2,r2,8
  80a030:	108000c3 	ldbu	r2,3(r2)
  80a034:	10803fcc 	andi	r2,r2,255
  80a038:	1004c03a 	cmpne	r2,r2,zero
  80a03c:	1000091e 	bne	r2,zero,80a064 <OSTaskChangePrio+0x380>
  80a040:	e0bffc17 	ldw	r2,-16(fp)
  80a044:	10800283 	ldbu	r2,10(r2)
  80a048:	1007883a 	mov	r3,r2
  80a04c:	e0bff843 	ldbu	r2,-31(fp)
  80a050:	0084303a 	nor	r2,zero,r2
  80a054:	1884703a 	and	r2,r3,r2
  80a058:	1007883a 	mov	r3,r2
  80a05c:	e0bffc17 	ldw	r2,-16(fp)
  80a060:	10c00285 	stb	r3,10(r2)
  80a064:	e0bffc17 	ldw	r2,-16(fp)
  80a068:	10c00283 	ldbu	r3,10(r2)
  80a06c:	e0bff8c3 	ldbu	r2,-29(fp)
  80a070:	1884b03a 	or	r2,r3,r2
  80a074:	1007883a 	mov	r3,r2
  80a078:	e0bffc17 	ldw	r2,-16(fp)
  80a07c:	10c00285 	stb	r3,10(r2)
  80a080:	e13ff983 	ldbu	r4,-26(fp)
  80a084:	e0fff983 	ldbu	r3,-26(fp)
  80a088:	e0bffc17 	ldw	r2,-16(fp)
  80a08c:	1885883a 	add	r2,r3,r2
  80a090:	10800204 	addi	r2,r2,8
  80a094:	10c000c3 	ldbu	r3,3(r2)
  80a098:	e0bff883 	ldbu	r2,-30(fp)
  80a09c:	1884b03a 	or	r2,r3,r2
  80a0a0:	1007883a 	mov	r3,r2
  80a0a4:	e0bffc17 	ldw	r2,-16(fp)
  80a0a8:	2085883a 	add	r2,r4,r2
  80a0ac:	10800204 	addi	r2,r2,8
  80a0b0:	10c000c5 	stb	r3,3(r2)
  80a0b4:	e0bffa17 	ldw	r2,-24(fp)
  80a0b8:	10800817 	ldw	r2,32(r2)
  80a0bc:	1005003a 	cmpeq	r2,r2,zero
  80a0c0:	1000441e 	bne	r2,zero,80a1d4 <OSTaskChangePrio+0x4f0>
  80a0c4:	e0bffa17 	ldw	r2,-24(fp)
  80a0c8:	10800817 	ldw	r2,32(r2)
  80a0cc:	e0bffb15 	stw	r2,-20(fp)
  80a0d0:	e0bffb17 	ldw	r2,-20(fp)
  80a0d4:	10800017 	ldw	r2,0(r2)
  80a0d8:	e0bffc15 	stw	r2,-16(fp)
  80a0dc:	00003a06 	br	80a1c8 <OSTaskChangePrio+0x4e4>
  80a0e0:	e13ff903 	ldbu	r4,-28(fp)
  80a0e4:	e0fff903 	ldbu	r3,-28(fp)
  80a0e8:	e0bffc17 	ldw	r2,-16(fp)
  80a0ec:	1885883a 	add	r2,r3,r2
  80a0f0:	10800204 	addi	r2,r2,8
  80a0f4:	108000c3 	ldbu	r2,3(r2)
  80a0f8:	1007883a 	mov	r3,r2
  80a0fc:	e0bff803 	ldbu	r2,-32(fp)
  80a100:	0084303a 	nor	r2,zero,r2
  80a104:	1884703a 	and	r2,r3,r2
  80a108:	1007883a 	mov	r3,r2
  80a10c:	e0bffc17 	ldw	r2,-16(fp)
  80a110:	2085883a 	add	r2,r4,r2
  80a114:	10800204 	addi	r2,r2,8
  80a118:	10c000c5 	stb	r3,3(r2)
  80a11c:	e0fff903 	ldbu	r3,-28(fp)
  80a120:	e0bffc17 	ldw	r2,-16(fp)
  80a124:	1885883a 	add	r2,r3,r2
  80a128:	10800204 	addi	r2,r2,8
  80a12c:	108000c3 	ldbu	r2,3(r2)
  80a130:	10803fcc 	andi	r2,r2,255
  80a134:	1004c03a 	cmpne	r2,r2,zero
  80a138:	1000091e 	bne	r2,zero,80a160 <OSTaskChangePrio+0x47c>
  80a13c:	e0bffc17 	ldw	r2,-16(fp)
  80a140:	10800283 	ldbu	r2,10(r2)
  80a144:	1007883a 	mov	r3,r2
  80a148:	e0bff843 	ldbu	r2,-31(fp)
  80a14c:	0084303a 	nor	r2,zero,r2
  80a150:	1884703a 	and	r2,r3,r2
  80a154:	1007883a 	mov	r3,r2
  80a158:	e0bffc17 	ldw	r2,-16(fp)
  80a15c:	10c00285 	stb	r3,10(r2)
  80a160:	e0bffc17 	ldw	r2,-16(fp)
  80a164:	10c00283 	ldbu	r3,10(r2)
  80a168:	e0bff8c3 	ldbu	r2,-29(fp)
  80a16c:	1884b03a 	or	r2,r3,r2
  80a170:	1007883a 	mov	r3,r2
  80a174:	e0bffc17 	ldw	r2,-16(fp)
  80a178:	10c00285 	stb	r3,10(r2)
  80a17c:	e13ff983 	ldbu	r4,-26(fp)
  80a180:	e0fff983 	ldbu	r3,-26(fp)
  80a184:	e0bffc17 	ldw	r2,-16(fp)
  80a188:	1885883a 	add	r2,r3,r2
  80a18c:	10800204 	addi	r2,r2,8
  80a190:	10c000c3 	ldbu	r3,3(r2)
  80a194:	e0bff883 	ldbu	r2,-30(fp)
  80a198:	1884b03a 	or	r2,r3,r2
  80a19c:	1007883a 	mov	r3,r2
  80a1a0:	e0bffc17 	ldw	r2,-16(fp)
  80a1a4:	2085883a 	add	r2,r4,r2
  80a1a8:	10800204 	addi	r2,r2,8
  80a1ac:	10c000c5 	stb	r3,3(r2)
  80a1b0:	e0bffb17 	ldw	r2,-20(fp)
  80a1b4:	10800104 	addi	r2,r2,4
  80a1b8:	e0bffb15 	stw	r2,-20(fp)
  80a1bc:	e0bffb17 	ldw	r2,-20(fp)
  80a1c0:	10800017 	ldw	r2,0(r2)
  80a1c4:	e0bffc15 	stw	r2,-16(fp)
  80a1c8:	e0bffc17 	ldw	r2,-16(fp)
  80a1cc:	1004c03a 	cmpne	r2,r2,zero
  80a1d0:	103fc31e 	bne	r2,zero,80a0e0 <OSTaskChangePrio+0x3fc>
  80a1d4:	e0fffa17 	ldw	r3,-24(fp)
  80a1d8:	e0bffe03 	ldbu	r2,-8(fp)
  80a1dc:	18800c85 	stb	r2,50(r3)
  80a1e0:	e0fffa17 	ldw	r3,-24(fp)
  80a1e4:	e0bff983 	ldbu	r2,-26(fp)
  80a1e8:	18800d05 	stb	r2,52(r3)
  80a1ec:	e0fffa17 	ldw	r3,-24(fp)
  80a1f0:	e0bff943 	ldbu	r2,-27(fp)
  80a1f4:	18800cc5 	stb	r2,51(r3)
  80a1f8:	e0fffa17 	ldw	r3,-24(fp)
  80a1fc:	e0bff8c3 	ldbu	r2,-29(fp)
  80a200:	18800d85 	stb	r2,54(r3)
  80a204:	e0fffa17 	ldw	r3,-24(fp)
  80a208:	e0bff883 	ldbu	r2,-30(fp)
  80a20c:	18800d45 	stb	r2,53(r3)
  80a210:	e0bff717 	ldw	r2,-36(fp)
  80a214:	e0bff215 	stw	r2,-56(fp)
  80a218:	e0bff217 	ldw	r2,-56(fp)
  80a21c:	1001703a 	wrctl	status,r2
  80a220:	00802074 	movhi	r2,129
  80a224:	10897f44 	addi	r2,r2,9725
  80a228:	10800003 	ldbu	r2,0(r2)
  80a22c:	10803fcc 	andi	r2,r2,255
  80a230:	10800058 	cmpnei	r2,r2,1
  80a234:	1000011e 	bne	r2,zero,80a23c <OSTaskChangePrio+0x558>
  80a238:	08054300 	call	805430 <OS_Sched>
  80a23c:	e03fff15 	stw	zero,-4(fp)
  80a240:	e0bfff17 	ldw	r2,-4(fp)
  80a244:	e037883a 	mov	sp,fp
  80a248:	dfc00117 	ldw	ra,4(sp)
  80a24c:	df000017 	ldw	fp,0(sp)
  80a250:	dec00204 	addi	sp,sp,8
  80a254:	f800283a 	ret

0080a258 <OSTaskCreate>:
  80a258:	deffed04 	addi	sp,sp,-76
  80a25c:	dfc01215 	stw	ra,72(sp)
  80a260:	df001115 	stw	fp,68(sp)
  80a264:	df001104 	addi	fp,sp,68
  80a268:	e13ffb15 	stw	r4,-20(fp)
  80a26c:	e17ffc15 	stw	r5,-16(fp)
  80a270:	e1bffd15 	stw	r6,-12(fp)
  80a274:	e1fffe05 	stb	r7,-8(fp)
  80a278:	e03ff815 	stw	zero,-32(fp)
  80a27c:	e0bffe03 	ldbu	r2,-8(fp)
  80a280:	10800570 	cmpltui	r2,r2,21
  80a284:	1000031e 	bne	r2,zero,80a294 <OSTaskCreate+0x3c>
  80a288:	00800a84 	movi	r2,42
  80a28c:	e0bfff15 	stw	r2,-4(fp)
  80a290:	00006006 	br	80a414 <OSTaskCreate+0x1bc>
  80a294:	0005303a 	rdctl	r2,status
  80a298:	e0bff715 	stw	r2,-36(fp)
  80a29c:	e0fff717 	ldw	r3,-36(fp)
  80a2a0:	00bfff84 	movi	r2,-2
  80a2a4:	1884703a 	and	r2,r3,r2
  80a2a8:	1001703a 	wrctl	status,r2
  80a2ac:	e0bff717 	ldw	r2,-36(fp)
  80a2b0:	e0bff815 	stw	r2,-32(fp)
  80a2b4:	00802074 	movhi	r2,129
  80a2b8:	10898d04 	addi	r2,r2,9780
  80a2bc:	10800003 	ldbu	r2,0(r2)
  80a2c0:	10803fcc 	andi	r2,r2,255
  80a2c4:	1005003a 	cmpeq	r2,r2,zero
  80a2c8:	1000071e 	bne	r2,zero,80a2e8 <OSTaskCreate+0x90>
  80a2cc:	e0bff817 	ldw	r2,-32(fp)
  80a2d0:	e0bff615 	stw	r2,-40(fp)
  80a2d4:	e0bff617 	ldw	r2,-40(fp)
  80a2d8:	1001703a 	wrctl	status,r2
  80a2dc:	00800f04 	movi	r2,60
  80a2e0:	e0bfff15 	stw	r2,-4(fp)
  80a2e4:	00004b06 	br	80a414 <OSTaskCreate+0x1bc>
  80a2e8:	e0bffe03 	ldbu	r2,-8(fp)
  80a2ec:	00c020b4 	movhi	r3,130
  80a2f0:	18e61404 	addi	r3,r3,-26544
  80a2f4:	1085883a 	add	r2,r2,r2
  80a2f8:	1085883a 	add	r2,r2,r2
  80a2fc:	10c5883a 	add	r2,r2,r3
  80a300:	10800017 	ldw	r2,0(r2)
  80a304:	1004c03a 	cmpne	r2,r2,zero
  80a308:	10003c1e 	bne	r2,zero,80a3fc <OSTaskCreate+0x1a4>
  80a30c:	e0bffe03 	ldbu	r2,-8(fp)
  80a310:	00c020b4 	movhi	r3,130
  80a314:	18e61404 	addi	r3,r3,-26544
  80a318:	1085883a 	add	r2,r2,r2
  80a31c:	1085883a 	add	r2,r2,r2
  80a320:	10c7883a 	add	r3,r2,r3
  80a324:	00800044 	movi	r2,1
  80a328:	18800015 	stw	r2,0(r3)
  80a32c:	e0bff817 	ldw	r2,-32(fp)
  80a330:	e0bff515 	stw	r2,-44(fp)
  80a334:	e0bff517 	ldw	r2,-44(fp)
  80a338:	1001703a 	wrctl	status,r2
  80a33c:	e13ffb17 	ldw	r4,-20(fp)
  80a340:	e17ffc17 	ldw	r5,-16(fp)
  80a344:	e1bffd17 	ldw	r6,-12(fp)
  80a348:	000f883a 	mov	r7,zero
  80a34c:	080e0c80 	call	80e0c8 <OSTaskStkInit>
  80a350:	e0bffa15 	stw	r2,-24(fp)
  80a354:	e13ffe03 	ldbu	r4,-8(fp)
  80a358:	d8000015 	stw	zero,0(sp)
  80a35c:	d8000115 	stw	zero,4(sp)
  80a360:	d8000215 	stw	zero,8(sp)
  80a364:	e17ffa17 	ldw	r5,-24(fp)
  80a368:	000d883a 	mov	r6,zero
  80a36c:	000f883a 	mov	r7,zero
  80a370:	08058380 	call	805838 <OS_TCBInit>
  80a374:	e0bff905 	stb	r2,-28(fp)
  80a378:	e0bff903 	ldbu	r2,-28(fp)
  80a37c:	1004c03a 	cmpne	r2,r2,zero
  80a380:	1000081e 	bne	r2,zero,80a3a4 <OSTaskCreate+0x14c>
  80a384:	00802074 	movhi	r2,129
  80a388:	10897f44 	addi	r2,r2,9725
  80a38c:	10800003 	ldbu	r2,0(r2)
  80a390:	10803fcc 	andi	r2,r2,255
  80a394:	10800058 	cmpnei	r2,r2,1
  80a398:	1000151e 	bne	r2,zero,80a3f0 <OSTaskCreate+0x198>
  80a39c:	08054300 	call	805430 <OS_Sched>
  80a3a0:	00001306 	br	80a3f0 <OSTaskCreate+0x198>
  80a3a4:	0005303a 	rdctl	r2,status
  80a3a8:	e0bff415 	stw	r2,-48(fp)
  80a3ac:	e0fff417 	ldw	r3,-48(fp)
  80a3b0:	00bfff84 	movi	r2,-2
  80a3b4:	1884703a 	and	r2,r3,r2
  80a3b8:	1001703a 	wrctl	status,r2
  80a3bc:	e0bff417 	ldw	r2,-48(fp)
  80a3c0:	e0bff815 	stw	r2,-32(fp)
  80a3c4:	e0bffe03 	ldbu	r2,-8(fp)
  80a3c8:	00c020b4 	movhi	r3,130
  80a3cc:	18e61404 	addi	r3,r3,-26544
  80a3d0:	1085883a 	add	r2,r2,r2
  80a3d4:	1085883a 	add	r2,r2,r2
  80a3d8:	10c5883a 	add	r2,r2,r3
  80a3dc:	10000015 	stw	zero,0(r2)
  80a3e0:	e0bff817 	ldw	r2,-32(fp)
  80a3e4:	e0bff315 	stw	r2,-52(fp)
  80a3e8:	e0bff317 	ldw	r2,-52(fp)
  80a3ec:	1001703a 	wrctl	status,r2
  80a3f0:	e0bff903 	ldbu	r2,-28(fp)
  80a3f4:	e0bfff15 	stw	r2,-4(fp)
  80a3f8:	00000606 	br	80a414 <OSTaskCreate+0x1bc>
  80a3fc:	e0bff817 	ldw	r2,-32(fp)
  80a400:	e0bff215 	stw	r2,-56(fp)
  80a404:	e0bff217 	ldw	r2,-56(fp)
  80a408:	1001703a 	wrctl	status,r2
  80a40c:	00800a04 	movi	r2,40
  80a410:	e0bfff15 	stw	r2,-4(fp)
  80a414:	e0bfff17 	ldw	r2,-4(fp)
  80a418:	e037883a 	mov	sp,fp
  80a41c:	dfc00117 	ldw	ra,4(sp)
  80a420:	df000017 	ldw	fp,0(sp)
  80a424:	dec00204 	addi	sp,sp,8
  80a428:	f800283a 	ret

0080a42c <OSTaskCreateExt>:
  80a42c:	deffeb04 	addi	sp,sp,-84
  80a430:	dfc01415 	stw	ra,80(sp)
  80a434:	df001315 	stw	fp,76(sp)
  80a438:	df001304 	addi	fp,sp,76
  80a43c:	e13ff915 	stw	r4,-28(fp)
  80a440:	e17ffa15 	stw	r5,-24(fp)
  80a444:	e1bffb15 	stw	r6,-20(fp)
  80a448:	e0800217 	ldw	r2,8(fp)
  80a44c:	e0c00617 	ldw	r3,24(fp)
  80a450:	e1fffc05 	stb	r7,-16(fp)
  80a454:	e0bffd0d 	sth	r2,-12(fp)
  80a458:	e0fffe0d 	sth	r3,-8(fp)
  80a45c:	e03ff615 	stw	zero,-40(fp)
  80a460:	e0bffc03 	ldbu	r2,-16(fp)
  80a464:	10800570 	cmpltui	r2,r2,21
  80a468:	1000031e 	bne	r2,zero,80a478 <OSTaskCreateExt+0x4c>
  80a46c:	00800a84 	movi	r2,42
  80a470:	e0bfff15 	stw	r2,-4(fp)
  80a474:	00006706 	br	80a614 <OSTaskCreateExt+0x1e8>
  80a478:	0005303a 	rdctl	r2,status
  80a47c:	e0bff515 	stw	r2,-44(fp)
  80a480:	e0fff517 	ldw	r3,-44(fp)
  80a484:	00bfff84 	movi	r2,-2
  80a488:	1884703a 	and	r2,r3,r2
  80a48c:	1001703a 	wrctl	status,r2
  80a490:	e0bff517 	ldw	r2,-44(fp)
  80a494:	e0bff615 	stw	r2,-40(fp)
  80a498:	00802074 	movhi	r2,129
  80a49c:	10898d04 	addi	r2,r2,9780
  80a4a0:	10800003 	ldbu	r2,0(r2)
  80a4a4:	10803fcc 	andi	r2,r2,255
  80a4a8:	1005003a 	cmpeq	r2,r2,zero
  80a4ac:	1000071e 	bne	r2,zero,80a4cc <OSTaskCreateExt+0xa0>
  80a4b0:	e0bff617 	ldw	r2,-40(fp)
  80a4b4:	e0bff415 	stw	r2,-48(fp)
  80a4b8:	e0bff417 	ldw	r2,-48(fp)
  80a4bc:	1001703a 	wrctl	status,r2
  80a4c0:	00800f04 	movi	r2,60
  80a4c4:	e0bfff15 	stw	r2,-4(fp)
  80a4c8:	00005206 	br	80a614 <OSTaskCreateExt+0x1e8>
  80a4cc:	e0bffc03 	ldbu	r2,-16(fp)
  80a4d0:	00c020b4 	movhi	r3,130
  80a4d4:	18e61404 	addi	r3,r3,-26544
  80a4d8:	1085883a 	add	r2,r2,r2
  80a4dc:	1085883a 	add	r2,r2,r2
  80a4e0:	10c5883a 	add	r2,r2,r3
  80a4e4:	10800017 	ldw	r2,0(r2)
  80a4e8:	1004c03a 	cmpne	r2,r2,zero
  80a4ec:	1000431e 	bne	r2,zero,80a5fc <OSTaskCreateExt+0x1d0>
  80a4f0:	e0bffc03 	ldbu	r2,-16(fp)
  80a4f4:	00c020b4 	movhi	r3,130
  80a4f8:	18e61404 	addi	r3,r3,-26544
  80a4fc:	1085883a 	add	r2,r2,r2
  80a500:	1085883a 	add	r2,r2,r2
  80a504:	10c7883a 	add	r3,r2,r3
  80a508:	00800044 	movi	r2,1
  80a50c:	18800015 	stw	r2,0(r3)
  80a510:	e0bff617 	ldw	r2,-40(fp)
  80a514:	e0bff315 	stw	r2,-52(fp)
  80a518:	e0bff317 	ldw	r2,-52(fp)
  80a51c:	1001703a 	wrctl	status,r2
  80a520:	e1bffe0b 	ldhu	r6,-8(fp)
  80a524:	e1000317 	ldw	r4,12(fp)
  80a528:	e1400417 	ldw	r5,16(fp)
  80a52c:	080b6a80 	call	80b6a8 <OS_TaskStkClr>
  80a530:	e1fffe0b 	ldhu	r7,-8(fp)
  80a534:	e13ff917 	ldw	r4,-28(fp)
  80a538:	e17ffa17 	ldw	r5,-24(fp)
  80a53c:	e1bffb17 	ldw	r6,-20(fp)
  80a540:	080e0c80 	call	80e0c8 <OSTaskStkInit>
  80a544:	e0bff815 	stw	r2,-32(fp)
  80a548:	e13ffc03 	ldbu	r4,-16(fp)
  80a54c:	e1fffd0b 	ldhu	r7,-12(fp)
  80a550:	e0fffe0b 	ldhu	r3,-8(fp)
  80a554:	e0800417 	ldw	r2,16(fp)
  80a558:	d8800015 	stw	r2,0(sp)
  80a55c:	e0800517 	ldw	r2,20(fp)
  80a560:	d8800115 	stw	r2,4(sp)
  80a564:	d8c00215 	stw	r3,8(sp)
  80a568:	e17ff817 	ldw	r5,-32(fp)
  80a56c:	e1800317 	ldw	r6,12(fp)
  80a570:	08058380 	call	805838 <OS_TCBInit>
  80a574:	e0bff705 	stb	r2,-36(fp)
  80a578:	e0bff703 	ldbu	r2,-36(fp)
  80a57c:	1004c03a 	cmpne	r2,r2,zero
  80a580:	1000081e 	bne	r2,zero,80a5a4 <OSTaskCreateExt+0x178>
  80a584:	00802074 	movhi	r2,129
  80a588:	10897f44 	addi	r2,r2,9725
  80a58c:	10800003 	ldbu	r2,0(r2)
  80a590:	10803fcc 	andi	r2,r2,255
  80a594:	10800058 	cmpnei	r2,r2,1
  80a598:	1000151e 	bne	r2,zero,80a5f0 <OSTaskCreateExt+0x1c4>
  80a59c:	08054300 	call	805430 <OS_Sched>
  80a5a0:	00001306 	br	80a5f0 <OSTaskCreateExt+0x1c4>
  80a5a4:	0005303a 	rdctl	r2,status
  80a5a8:	e0bff215 	stw	r2,-56(fp)
  80a5ac:	e0fff217 	ldw	r3,-56(fp)
  80a5b0:	00bfff84 	movi	r2,-2
  80a5b4:	1884703a 	and	r2,r3,r2
  80a5b8:	1001703a 	wrctl	status,r2
  80a5bc:	e0bff217 	ldw	r2,-56(fp)
  80a5c0:	e0bff615 	stw	r2,-40(fp)
  80a5c4:	e0bffc03 	ldbu	r2,-16(fp)
  80a5c8:	00c020b4 	movhi	r3,130
  80a5cc:	18e61404 	addi	r3,r3,-26544
  80a5d0:	1085883a 	add	r2,r2,r2
  80a5d4:	1085883a 	add	r2,r2,r2
  80a5d8:	10c5883a 	add	r2,r2,r3
  80a5dc:	10000015 	stw	zero,0(r2)
  80a5e0:	e0bff617 	ldw	r2,-40(fp)
  80a5e4:	e0bff115 	stw	r2,-60(fp)
  80a5e8:	e0bff117 	ldw	r2,-60(fp)
  80a5ec:	1001703a 	wrctl	status,r2
  80a5f0:	e0bff703 	ldbu	r2,-36(fp)
  80a5f4:	e0bfff15 	stw	r2,-4(fp)
  80a5f8:	00000606 	br	80a614 <OSTaskCreateExt+0x1e8>
  80a5fc:	e0bff617 	ldw	r2,-40(fp)
  80a600:	e0bff015 	stw	r2,-64(fp)
  80a604:	e0bff017 	ldw	r2,-64(fp)
  80a608:	1001703a 	wrctl	status,r2
  80a60c:	00800a04 	movi	r2,40
  80a610:	e0bfff15 	stw	r2,-4(fp)
  80a614:	e0bfff17 	ldw	r2,-4(fp)
  80a618:	e037883a 	mov	sp,fp
  80a61c:	dfc00117 	ldw	ra,4(sp)
  80a620:	df000017 	ldw	fp,0(sp)
  80a624:	dec00204 	addi	sp,sp,8
  80a628:	f800283a 	ret

0080a62c <OSTaskDel>:
  80a62c:	defff304 	addi	sp,sp,-52
  80a630:	dfc00c15 	stw	ra,48(sp)
  80a634:	df000b15 	stw	fp,44(sp)
  80a638:	df000b04 	addi	fp,sp,44
  80a63c:	e13ffe05 	stb	r4,-8(fp)
  80a640:	e03ffb15 	stw	zero,-20(fp)
  80a644:	00802074 	movhi	r2,129
  80a648:	10898d04 	addi	r2,r2,9780
  80a64c:	10800003 	ldbu	r2,0(r2)
  80a650:	10803fcc 	andi	r2,r2,255
  80a654:	1005003a 	cmpeq	r2,r2,zero
  80a658:	1000031e 	bne	r2,zero,80a668 <OSTaskDel+0x3c>
  80a65c:	00801004 	movi	r2,64
  80a660:	e0bfff15 	stw	r2,-4(fp)
  80a664:	0000ee06 	br	80aa20 <OSTaskDel+0x3f4>
  80a668:	e0bffe03 	ldbu	r2,-8(fp)
  80a66c:	10800518 	cmpnei	r2,r2,20
  80a670:	1000031e 	bne	r2,zero,80a680 <OSTaskDel+0x54>
  80a674:	00800f84 	movi	r2,62
  80a678:	e0bfff15 	stw	r2,-4(fp)
  80a67c:	0000e806 	br	80aa20 <OSTaskDel+0x3f4>
  80a680:	e0bffe03 	ldbu	r2,-8(fp)
  80a684:	10800530 	cmpltui	r2,r2,20
  80a688:	1000061e 	bne	r2,zero,80a6a4 <OSTaskDel+0x78>
  80a68c:	e0bffe03 	ldbu	r2,-8(fp)
  80a690:	10803fe0 	cmpeqi	r2,r2,255
  80a694:	1000031e 	bne	r2,zero,80a6a4 <OSTaskDel+0x78>
  80a698:	00800a84 	movi	r2,42
  80a69c:	e0bfff15 	stw	r2,-4(fp)
  80a6a0:	0000df06 	br	80aa20 <OSTaskDel+0x3f4>
  80a6a4:	0005303a 	rdctl	r2,status
  80a6a8:	e0bffa15 	stw	r2,-24(fp)
  80a6ac:	e0fffa17 	ldw	r3,-24(fp)
  80a6b0:	00bfff84 	movi	r2,-2
  80a6b4:	1884703a 	and	r2,r3,r2
  80a6b8:	1001703a 	wrctl	status,r2
  80a6bc:	e0bffa17 	ldw	r2,-24(fp)
  80a6c0:	e0bffb15 	stw	r2,-20(fp)
  80a6c4:	e0bffe03 	ldbu	r2,-8(fp)
  80a6c8:	10803fd8 	cmpnei	r2,r2,255
  80a6cc:	1000051e 	bne	r2,zero,80a6e4 <OSTaskDel+0xb8>
  80a6d0:	00802074 	movhi	r2,129
  80a6d4:	10898e04 	addi	r2,r2,9784
  80a6d8:	10800017 	ldw	r2,0(r2)
  80a6dc:	10800c83 	ldbu	r2,50(r2)
  80a6e0:	e0bffe05 	stb	r2,-8(fp)
  80a6e4:	e0bffe03 	ldbu	r2,-8(fp)
  80a6e8:	00c020b4 	movhi	r3,130
  80a6ec:	18e61404 	addi	r3,r3,-26544
  80a6f0:	1085883a 	add	r2,r2,r2
  80a6f4:	1085883a 	add	r2,r2,r2
  80a6f8:	10c5883a 	add	r2,r2,r3
  80a6fc:	10800017 	ldw	r2,0(r2)
  80a700:	e0bffc15 	stw	r2,-16(fp)
  80a704:	e0bffc17 	ldw	r2,-16(fp)
  80a708:	1004c03a 	cmpne	r2,r2,zero
  80a70c:	1000071e 	bne	r2,zero,80a72c <OSTaskDel+0x100>
  80a710:	e0bffb17 	ldw	r2,-20(fp)
  80a714:	e0bff915 	stw	r2,-28(fp)
  80a718:	e0bff917 	ldw	r2,-28(fp)
  80a71c:	1001703a 	wrctl	status,r2
  80a720:	008010c4 	movi	r2,67
  80a724:	e0bfff15 	stw	r2,-4(fp)
  80a728:	0000bd06 	br	80aa20 <OSTaskDel+0x3f4>
  80a72c:	e0bffc17 	ldw	r2,-16(fp)
  80a730:	10800058 	cmpnei	r2,r2,1
  80a734:	1000071e 	bne	r2,zero,80a754 <OSTaskDel+0x128>
  80a738:	e0bffb17 	ldw	r2,-20(fp)
  80a73c:	e0bff815 	stw	r2,-32(fp)
  80a740:	e0bff817 	ldw	r2,-32(fp)
  80a744:	1001703a 	wrctl	status,r2
  80a748:	00800f44 	movi	r2,61
  80a74c:	e0bfff15 	stw	r2,-4(fp)
  80a750:	0000b306 	br	80aa20 <OSTaskDel+0x3f4>
  80a754:	e0bffc17 	ldw	r2,-16(fp)
  80a758:	10800d03 	ldbu	r2,52(r2)
  80a75c:	11003fcc 	andi	r4,r2,255
  80a760:	e0bffc17 	ldw	r2,-16(fp)
  80a764:	10800d03 	ldbu	r2,52(r2)
  80a768:	10c03fcc 	andi	r3,r2,255
  80a76c:	00802074 	movhi	r2,129
  80a770:	10898b44 	addi	r2,r2,9773
  80a774:	10c5883a 	add	r2,r2,r3
  80a778:	10800003 	ldbu	r2,0(r2)
  80a77c:	1007883a 	mov	r3,r2
  80a780:	e0bffc17 	ldw	r2,-16(fp)
  80a784:	10800d43 	ldbu	r2,53(r2)
  80a788:	0084303a 	nor	r2,zero,r2
  80a78c:	1884703a 	and	r2,r3,r2
  80a790:	1007883a 	mov	r3,r2
  80a794:	00802074 	movhi	r2,129
  80a798:	10898b44 	addi	r2,r2,9773
  80a79c:	1105883a 	add	r2,r2,r4
  80a7a0:	10c00005 	stb	r3,0(r2)
  80a7a4:	e0bffc17 	ldw	r2,-16(fp)
  80a7a8:	10800d03 	ldbu	r2,52(r2)
  80a7ac:	10c03fcc 	andi	r3,r2,255
  80a7b0:	00802074 	movhi	r2,129
  80a7b4:	10898b44 	addi	r2,r2,9773
  80a7b8:	10c5883a 	add	r2,r2,r3
  80a7bc:	10800003 	ldbu	r2,0(r2)
  80a7c0:	10803fcc 	andi	r2,r2,255
  80a7c4:	1004c03a 	cmpne	r2,r2,zero
  80a7c8:	10000c1e 	bne	r2,zero,80a7fc <OSTaskDel+0x1d0>
  80a7cc:	e0bffc17 	ldw	r2,-16(fp)
  80a7d0:	10800d83 	ldbu	r2,54(r2)
  80a7d4:	0084303a 	nor	r2,zero,r2
  80a7d8:	1007883a 	mov	r3,r2
  80a7dc:	00802074 	movhi	r2,129
  80a7e0:	10898b04 	addi	r2,r2,9772
  80a7e4:	10800003 	ldbu	r2,0(r2)
  80a7e8:	1884703a 	and	r2,r3,r2
  80a7ec:	1007883a 	mov	r3,r2
  80a7f0:	00802074 	movhi	r2,129
  80a7f4:	10898b04 	addi	r2,r2,9772
  80a7f8:	10c00005 	stb	r3,0(r2)
  80a7fc:	e0bffc17 	ldw	r2,-16(fp)
  80a800:	10800717 	ldw	r2,28(r2)
  80a804:	1005003a 	cmpeq	r2,r2,zero
  80a808:	1000041e 	bne	r2,zero,80a81c <OSTaskDel+0x1f0>
  80a80c:	e0bffc17 	ldw	r2,-16(fp)
  80a810:	11400717 	ldw	r5,28(r2)
  80a814:	e13ffc17 	ldw	r4,-16(fp)
  80a818:	0804de80 	call	804de8 <OS_EventTaskRemove>
  80a81c:	e0bffc17 	ldw	r2,-16(fp)
  80a820:	10800817 	ldw	r2,32(r2)
  80a824:	1005003a 	cmpeq	r2,r2,zero
  80a828:	1000041e 	bne	r2,zero,80a83c <OSTaskDel+0x210>
  80a82c:	e0bffc17 	ldw	r2,-16(fp)
  80a830:	11400817 	ldw	r5,32(r2)
  80a834:	e13ffc17 	ldw	r4,-16(fp)
  80a838:	0804ea00 	call	804ea0 <OS_EventTaskRemoveMulti>
  80a83c:	e0bffc17 	ldw	r2,-16(fp)
  80a840:	10800a17 	ldw	r2,40(r2)
  80a844:	e0bffd15 	stw	r2,-12(fp)
  80a848:	e0bffd17 	ldw	r2,-12(fp)
  80a84c:	1005003a 	cmpeq	r2,r2,zero
  80a850:	1000021e 	bne	r2,zero,80a85c <OSTaskDel+0x230>
  80a854:	e13ffd17 	ldw	r4,-12(fp)
  80a858:	08075340 	call	807534 <OS_FlagUnlink>
  80a85c:	e0bffc17 	ldw	r2,-16(fp)
  80a860:	10000b8d 	sth	zero,46(r2)
  80a864:	e0bffc17 	ldw	r2,-16(fp)
  80a868:	10000c05 	stb	zero,48(r2)
  80a86c:	e0bffc17 	ldw	r2,-16(fp)
  80a870:	10000c45 	stb	zero,49(r2)
  80a874:	00802074 	movhi	r2,129
  80a878:	10897f04 	addi	r2,r2,9724
  80a87c:	10800003 	ldbu	r2,0(r2)
  80a880:	10803fcc 	andi	r2,r2,255
  80a884:	10803fe0 	cmpeqi	r2,r2,255
  80a888:	1000081e 	bne	r2,zero,80a8ac <OSTaskDel+0x280>
  80a88c:	00802074 	movhi	r2,129
  80a890:	10897f04 	addi	r2,r2,9724
  80a894:	10800003 	ldbu	r2,0(r2)
  80a898:	10800044 	addi	r2,r2,1
  80a89c:	1007883a 	mov	r3,r2
  80a8a0:	00802074 	movhi	r2,129
  80a8a4:	10897f04 	addi	r2,r2,9724
  80a8a8:	10c00005 	stb	r3,0(r2)
  80a8ac:	e0bffb17 	ldw	r2,-20(fp)
  80a8b0:	e0bff715 	stw	r2,-36(fp)
  80a8b4:	e0bff717 	ldw	r2,-36(fp)
  80a8b8:	1001703a 	wrctl	status,r2
  80a8bc:	08049d40 	call	8049d4 <OS_Dummy>
  80a8c0:	0005303a 	rdctl	r2,status
  80a8c4:	e0bff615 	stw	r2,-40(fp)
  80a8c8:	e0fff617 	ldw	r3,-40(fp)
  80a8cc:	00bfff84 	movi	r2,-2
  80a8d0:	1884703a 	and	r2,r3,r2
  80a8d4:	1001703a 	wrctl	status,r2
  80a8d8:	e0bff617 	ldw	r2,-40(fp)
  80a8dc:	e0bffb15 	stw	r2,-20(fp)
  80a8e0:	00802074 	movhi	r2,129
  80a8e4:	10897f04 	addi	r2,r2,9724
  80a8e8:	10800003 	ldbu	r2,0(r2)
  80a8ec:	10803fcc 	andi	r2,r2,255
  80a8f0:	1005003a 	cmpeq	r2,r2,zero
  80a8f4:	1000081e 	bne	r2,zero,80a918 <OSTaskDel+0x2ec>
  80a8f8:	00802074 	movhi	r2,129
  80a8fc:	10897f04 	addi	r2,r2,9724
  80a900:	10800003 	ldbu	r2,0(r2)
  80a904:	10bfffc4 	addi	r2,r2,-1
  80a908:	1007883a 	mov	r3,r2
  80a90c:	00802074 	movhi	r2,129
  80a910:	10897f04 	addi	r2,r2,9724
  80a914:	10c00005 	stb	r3,0(r2)
  80a918:	e13ffc17 	ldw	r4,-16(fp)
  80a91c:	080e3f80 	call	80e3f8 <OSTaskDelHook>
  80a920:	00802074 	movhi	r2,129
  80a924:	10898744 	addi	r2,r2,9757
  80a928:	10800003 	ldbu	r2,0(r2)
  80a92c:	10bfffc4 	addi	r2,r2,-1
  80a930:	1007883a 	mov	r3,r2
  80a934:	00802074 	movhi	r2,129
  80a938:	10898744 	addi	r2,r2,9757
  80a93c:	10c00005 	stb	r3,0(r2)
  80a940:	e0bffe03 	ldbu	r2,-8(fp)
  80a944:	00c020b4 	movhi	r3,130
  80a948:	18e61404 	addi	r3,r3,-26544
  80a94c:	1085883a 	add	r2,r2,r2
  80a950:	1085883a 	add	r2,r2,r2
  80a954:	10c5883a 	add	r2,r2,r3
  80a958:	10000015 	stw	zero,0(r2)
  80a95c:	e0bffc17 	ldw	r2,-16(fp)
  80a960:	10800617 	ldw	r2,24(r2)
  80a964:	1004c03a 	cmpne	r2,r2,zero
  80a968:	1000091e 	bne	r2,zero,80a990 <OSTaskDel+0x364>
  80a96c:	e0bffc17 	ldw	r2,-16(fp)
  80a970:	10800517 	ldw	r2,20(r2)
  80a974:	10000615 	stw	zero,24(r2)
  80a978:	e0bffc17 	ldw	r2,-16(fp)
  80a97c:	10c00517 	ldw	r3,20(r2)
  80a980:	00802074 	movhi	r2,129
  80a984:	10898204 	addi	r2,r2,9736
  80a988:	10c00015 	stw	r3,0(r2)
  80a98c:	00000a06 	br	80a9b8 <OSTaskDel+0x38c>
  80a990:	e0bffc17 	ldw	r2,-16(fp)
  80a994:	10c00617 	ldw	r3,24(r2)
  80a998:	e0bffc17 	ldw	r2,-16(fp)
  80a99c:	10800517 	ldw	r2,20(r2)
  80a9a0:	18800515 	stw	r2,20(r3)
  80a9a4:	e0bffc17 	ldw	r2,-16(fp)
  80a9a8:	10c00517 	ldw	r3,20(r2)
  80a9ac:	e0bffc17 	ldw	r2,-16(fp)
  80a9b0:	10800617 	ldw	r2,24(r2)
  80a9b4:	18800615 	stw	r2,24(r3)
  80a9b8:	00802074 	movhi	r2,129
  80a9bc:	10898604 	addi	r2,r2,9752
  80a9c0:	10c00017 	ldw	r3,0(r2)
  80a9c4:	e0bffc17 	ldw	r2,-16(fp)
  80a9c8:	10c00515 	stw	r3,20(r2)
  80a9cc:	00c02074 	movhi	r3,129
  80a9d0:	18c98604 	addi	r3,r3,9752
  80a9d4:	e0bffc17 	ldw	r2,-16(fp)
  80a9d8:	18800015 	stw	r2,0(r3)
  80a9dc:	e0fffc17 	ldw	r3,-16(fp)
  80a9e0:	00800fc4 	movi	r2,63
  80a9e4:	18801305 	stb	r2,76(r3)
  80a9e8:	e0bffc17 	ldw	r2,-16(fp)
  80a9ec:	10001345 	stb	zero,77(r2)
  80a9f0:	e0bffb17 	ldw	r2,-20(fp)
  80a9f4:	e0bff515 	stw	r2,-44(fp)
  80a9f8:	e0bff517 	ldw	r2,-44(fp)
  80a9fc:	1001703a 	wrctl	status,r2
  80aa00:	00802074 	movhi	r2,129
  80aa04:	10897f44 	addi	r2,r2,9725
  80aa08:	10800003 	ldbu	r2,0(r2)
  80aa0c:	10803fcc 	andi	r2,r2,255
  80aa10:	10800058 	cmpnei	r2,r2,1
  80aa14:	1000011e 	bne	r2,zero,80aa1c <OSTaskDel+0x3f0>
  80aa18:	08054300 	call	805430 <OS_Sched>
  80aa1c:	e03fff15 	stw	zero,-4(fp)
  80aa20:	e0bfff17 	ldw	r2,-4(fp)
  80aa24:	e037883a 	mov	sp,fp
  80aa28:	dfc00117 	ldw	ra,4(sp)
  80aa2c:	df000017 	ldw	fp,0(sp)
  80aa30:	dec00204 	addi	sp,sp,8
  80aa34:	f800283a 	ret

0080aa38 <OSTaskDelReq>:
  80aa38:	defff404 	addi	sp,sp,-48
  80aa3c:	df000b15 	stw	fp,44(sp)
  80aa40:	df000b04 	addi	fp,sp,44
  80aa44:	e13ffe05 	stb	r4,-8(fp)
  80aa48:	e03ffb15 	stw	zero,-20(fp)
  80aa4c:	e0bffe03 	ldbu	r2,-8(fp)
  80aa50:	10800518 	cmpnei	r2,r2,20
  80aa54:	1000031e 	bne	r2,zero,80aa64 <OSTaskDelReq+0x2c>
  80aa58:	00800f84 	movi	r2,62
  80aa5c:	e0bfff15 	stw	r2,-4(fp)
  80aa60:	00004c06 	br	80ab94 <OSTaskDelReq+0x15c>
  80aa64:	e0bffe03 	ldbu	r2,-8(fp)
  80aa68:	10800530 	cmpltui	r2,r2,20
  80aa6c:	1000061e 	bne	r2,zero,80aa88 <OSTaskDelReq+0x50>
  80aa70:	e0bffe03 	ldbu	r2,-8(fp)
  80aa74:	10803fe0 	cmpeqi	r2,r2,255
  80aa78:	1000031e 	bne	r2,zero,80aa88 <OSTaskDelReq+0x50>
  80aa7c:	00800a84 	movi	r2,42
  80aa80:	e0bfff15 	stw	r2,-4(fp)
  80aa84:	00004306 	br	80ab94 <OSTaskDelReq+0x15c>
  80aa88:	e0bffe03 	ldbu	r2,-8(fp)
  80aa8c:	10803fd8 	cmpnei	r2,r2,255
  80aa90:	1000141e 	bne	r2,zero,80aae4 <OSTaskDelReq+0xac>
  80aa94:	0005303a 	rdctl	r2,status
  80aa98:	e0bffa15 	stw	r2,-24(fp)
  80aa9c:	e0fffa17 	ldw	r3,-24(fp)
  80aaa0:	00bfff84 	movi	r2,-2
  80aaa4:	1884703a 	and	r2,r3,r2
  80aaa8:	1001703a 	wrctl	status,r2
  80aaac:	e0bffa17 	ldw	r2,-24(fp)
  80aab0:	e0bffb15 	stw	r2,-20(fp)
  80aab4:	00802074 	movhi	r2,129
  80aab8:	10898e04 	addi	r2,r2,9784
  80aabc:	10800017 	ldw	r2,0(r2)
  80aac0:	10800dc3 	ldbu	r2,55(r2)
  80aac4:	e0bffd05 	stb	r2,-12(fp)
  80aac8:	e0bffb17 	ldw	r2,-20(fp)
  80aacc:	e0bff915 	stw	r2,-28(fp)
  80aad0:	e0bff917 	ldw	r2,-28(fp)
  80aad4:	1001703a 	wrctl	status,r2
  80aad8:	e0bffd03 	ldbu	r2,-12(fp)
  80aadc:	e0bfff15 	stw	r2,-4(fp)
  80aae0:	00002c06 	br	80ab94 <OSTaskDelReq+0x15c>
  80aae4:	0005303a 	rdctl	r2,status
  80aae8:	e0bff815 	stw	r2,-32(fp)
  80aaec:	e0fff817 	ldw	r3,-32(fp)
  80aaf0:	00bfff84 	movi	r2,-2
  80aaf4:	1884703a 	and	r2,r3,r2
  80aaf8:	1001703a 	wrctl	status,r2
  80aafc:	e0bff817 	ldw	r2,-32(fp)
  80ab00:	e0bffb15 	stw	r2,-20(fp)
  80ab04:	e0bffe03 	ldbu	r2,-8(fp)
  80ab08:	00c020b4 	movhi	r3,130
  80ab0c:	18e61404 	addi	r3,r3,-26544
  80ab10:	1085883a 	add	r2,r2,r2
  80ab14:	1085883a 	add	r2,r2,r2
  80ab18:	10c5883a 	add	r2,r2,r3
  80ab1c:	10800017 	ldw	r2,0(r2)
  80ab20:	e0bffc15 	stw	r2,-16(fp)
  80ab24:	e0bffc17 	ldw	r2,-16(fp)
  80ab28:	1004c03a 	cmpne	r2,r2,zero
  80ab2c:	1000071e 	bne	r2,zero,80ab4c <OSTaskDelReq+0x114>
  80ab30:	e0bffb17 	ldw	r2,-20(fp)
  80ab34:	e0bff715 	stw	r2,-36(fp)
  80ab38:	e0bff717 	ldw	r2,-36(fp)
  80ab3c:	1001703a 	wrctl	status,r2
  80ab40:	008010c4 	movi	r2,67
  80ab44:	e0bfff15 	stw	r2,-4(fp)
  80ab48:	00001206 	br	80ab94 <OSTaskDelReq+0x15c>
  80ab4c:	e0bffc17 	ldw	r2,-16(fp)
  80ab50:	10800058 	cmpnei	r2,r2,1
  80ab54:	1000071e 	bne	r2,zero,80ab74 <OSTaskDelReq+0x13c>
  80ab58:	e0bffb17 	ldw	r2,-20(fp)
  80ab5c:	e0bff615 	stw	r2,-40(fp)
  80ab60:	e0bff617 	ldw	r2,-40(fp)
  80ab64:	1001703a 	wrctl	status,r2
  80ab68:	00800f44 	movi	r2,61
  80ab6c:	e0bfff15 	stw	r2,-4(fp)
  80ab70:	00000806 	br	80ab94 <OSTaskDelReq+0x15c>
  80ab74:	e0fffc17 	ldw	r3,-16(fp)
  80ab78:	00800fc4 	movi	r2,63
  80ab7c:	18800dc5 	stb	r2,55(r3)
  80ab80:	e0bffb17 	ldw	r2,-20(fp)
  80ab84:	e0bff515 	stw	r2,-44(fp)
  80ab88:	e0bff517 	ldw	r2,-44(fp)
  80ab8c:	1001703a 	wrctl	status,r2
  80ab90:	e03fff15 	stw	zero,-4(fp)
  80ab94:	e0bfff17 	ldw	r2,-4(fp)
  80ab98:	e037883a 	mov	sp,fp
  80ab9c:	df000017 	ldw	fp,0(sp)
  80aba0:	dec00104 	addi	sp,sp,4
  80aba4:	f800283a 	ret

0080aba8 <OSTaskNameGet>:
  80aba8:	defff304 	addi	sp,sp,-52
  80abac:	dfc00c15 	stw	ra,48(sp)
  80abb0:	df000b15 	stw	fp,44(sp)
  80abb4:	df000b04 	addi	fp,sp,44
  80abb8:	e17ffd15 	stw	r5,-12(fp)
  80abbc:	e1bffe15 	stw	r6,-8(fp)
  80abc0:	e13ffc05 	stb	r4,-16(fp)
  80abc4:	e03ff915 	stw	zero,-28(fp)
  80abc8:	e0bffe17 	ldw	r2,-8(fp)
  80abcc:	1004c03a 	cmpne	r2,r2,zero
  80abd0:	1000021e 	bne	r2,zero,80abdc <OSTaskNameGet+0x34>
  80abd4:	e03fff15 	stw	zero,-4(fp)
  80abd8:	00005b06 	br	80ad48 <OSTaskNameGet+0x1a0>
  80abdc:	e0bffc03 	ldbu	r2,-16(fp)
  80abe0:	10800570 	cmpltui	r2,r2,21
  80abe4:	1000081e 	bne	r2,zero,80ac08 <OSTaskNameGet+0x60>
  80abe8:	e0bffc03 	ldbu	r2,-16(fp)
  80abec:	10803fe0 	cmpeqi	r2,r2,255
  80abf0:	1000051e 	bne	r2,zero,80ac08 <OSTaskNameGet+0x60>
  80abf4:	e0fffe17 	ldw	r3,-8(fp)
  80abf8:	00800a84 	movi	r2,42
  80abfc:	18800005 	stb	r2,0(r3)
  80ac00:	e03fff15 	stw	zero,-4(fp)
  80ac04:	00005006 	br	80ad48 <OSTaskNameGet+0x1a0>
  80ac08:	e0bffd17 	ldw	r2,-12(fp)
  80ac0c:	1004c03a 	cmpne	r2,r2,zero
  80ac10:	1000051e 	bne	r2,zero,80ac28 <OSTaskNameGet+0x80>
  80ac14:	e0fffe17 	ldw	r3,-8(fp)
  80ac18:	00800304 	movi	r2,12
  80ac1c:	18800005 	stb	r2,0(r3)
  80ac20:	e03fff15 	stw	zero,-4(fp)
  80ac24:	00004806 	br	80ad48 <OSTaskNameGet+0x1a0>
  80ac28:	00802074 	movhi	r2,129
  80ac2c:	10898d04 	addi	r2,r2,9780
  80ac30:	10800003 	ldbu	r2,0(r2)
  80ac34:	10803fcc 	andi	r2,r2,255
  80ac38:	1005003a 	cmpeq	r2,r2,zero
  80ac3c:	1000051e 	bne	r2,zero,80ac54 <OSTaskNameGet+0xac>
  80ac40:	e0fffe17 	ldw	r3,-8(fp)
  80ac44:	00800444 	movi	r2,17
  80ac48:	18800005 	stb	r2,0(r3)
  80ac4c:	e03fff15 	stw	zero,-4(fp)
  80ac50:	00003d06 	br	80ad48 <OSTaskNameGet+0x1a0>
  80ac54:	0005303a 	rdctl	r2,status
  80ac58:	e0bff815 	stw	r2,-32(fp)
  80ac5c:	e0fff817 	ldw	r3,-32(fp)
  80ac60:	00bfff84 	movi	r2,-2
  80ac64:	1884703a 	and	r2,r3,r2
  80ac68:	1001703a 	wrctl	status,r2
  80ac6c:	e0bff817 	ldw	r2,-32(fp)
  80ac70:	e0bff915 	stw	r2,-28(fp)
  80ac74:	e0bffc03 	ldbu	r2,-16(fp)
  80ac78:	10803fd8 	cmpnei	r2,r2,255
  80ac7c:	1000051e 	bne	r2,zero,80ac94 <OSTaskNameGet+0xec>
  80ac80:	00802074 	movhi	r2,129
  80ac84:	10898e04 	addi	r2,r2,9784
  80ac88:	10800017 	ldw	r2,0(r2)
  80ac8c:	10800c83 	ldbu	r2,50(r2)
  80ac90:	e0bffc05 	stb	r2,-16(fp)
  80ac94:	e0bffc03 	ldbu	r2,-16(fp)
  80ac98:	00c020b4 	movhi	r3,130
  80ac9c:	18e61404 	addi	r3,r3,-26544
  80aca0:	1085883a 	add	r2,r2,r2
  80aca4:	1085883a 	add	r2,r2,r2
  80aca8:	10c5883a 	add	r2,r2,r3
  80acac:	10800017 	ldw	r2,0(r2)
  80acb0:	e0bffb15 	stw	r2,-20(fp)
  80acb4:	e0bffb17 	ldw	r2,-20(fp)
  80acb8:	1004c03a 	cmpne	r2,r2,zero
  80acbc:	1000091e 	bne	r2,zero,80ace4 <OSTaskNameGet+0x13c>
  80acc0:	e0bff917 	ldw	r2,-28(fp)
  80acc4:	e0bff715 	stw	r2,-36(fp)
  80acc8:	e0bff717 	ldw	r2,-36(fp)
  80accc:	1001703a 	wrctl	status,r2
  80acd0:	e0fffe17 	ldw	r3,-8(fp)
  80acd4:	008010c4 	movi	r2,67
  80acd8:	18800005 	stb	r2,0(r3)
  80acdc:	e03fff15 	stw	zero,-4(fp)
  80ace0:	00001906 	br	80ad48 <OSTaskNameGet+0x1a0>
  80ace4:	e0bffb17 	ldw	r2,-20(fp)
  80ace8:	10800058 	cmpnei	r2,r2,1
  80acec:	1000091e 	bne	r2,zero,80ad14 <OSTaskNameGet+0x16c>
  80acf0:	e0bff917 	ldw	r2,-28(fp)
  80acf4:	e0bff615 	stw	r2,-40(fp)
  80acf8:	e0bff617 	ldw	r2,-40(fp)
  80acfc:	1001703a 	wrctl	status,r2
  80ad00:	e0fffe17 	ldw	r3,-8(fp)
  80ad04:	008010c4 	movi	r2,67
  80ad08:	18800005 	stb	r2,0(r3)
  80ad0c:	e03fff15 	stw	zero,-4(fp)
  80ad10:	00000d06 	br	80ad48 <OSTaskNameGet+0x1a0>
  80ad14:	e0bffb17 	ldw	r2,-20(fp)
  80ad18:	11401304 	addi	r5,r2,76
  80ad1c:	e13ffd17 	ldw	r4,-12(fp)
  80ad20:	08055740 	call	805574 <OS_StrCopy>
  80ad24:	e0bffa05 	stb	r2,-24(fp)
  80ad28:	e0bff917 	ldw	r2,-28(fp)
  80ad2c:	e0bff515 	stw	r2,-44(fp)
  80ad30:	e0bff517 	ldw	r2,-44(fp)
  80ad34:	1001703a 	wrctl	status,r2
  80ad38:	e0bffe17 	ldw	r2,-8(fp)
  80ad3c:	10000005 	stb	zero,0(r2)
  80ad40:	e0bffa03 	ldbu	r2,-24(fp)
  80ad44:	e0bfff15 	stw	r2,-4(fp)
  80ad48:	e0bfff17 	ldw	r2,-4(fp)
  80ad4c:	e037883a 	mov	sp,fp
  80ad50:	dfc00117 	ldw	ra,4(sp)
  80ad54:	df000017 	ldw	fp,0(sp)
  80ad58:	dec00204 	addi	sp,sp,8
  80ad5c:	f800283a 	ret

0080ad60 <OSTaskNameSet>:
  80ad60:	defff304 	addi	sp,sp,-52
  80ad64:	dfc00c15 	stw	ra,48(sp)
  80ad68:	df000b15 	stw	fp,44(sp)
  80ad6c:	df000b04 	addi	fp,sp,44
  80ad70:	e17ffe15 	stw	r5,-8(fp)
  80ad74:	e1bfff15 	stw	r6,-4(fp)
  80ad78:	e13ffd05 	stb	r4,-12(fp)
  80ad7c:	e03ffa15 	stw	zero,-24(fp)
  80ad80:	e0bfff17 	ldw	r2,-4(fp)
  80ad84:	1005003a 	cmpeq	r2,r2,zero
  80ad88:	1000611e 	bne	r2,zero,80af10 <OSTaskNameSet+0x1b0>
  80ad8c:	e0bffd03 	ldbu	r2,-12(fp)
  80ad90:	10800570 	cmpltui	r2,r2,21
  80ad94:	1000071e 	bne	r2,zero,80adb4 <OSTaskNameSet+0x54>
  80ad98:	e0bffd03 	ldbu	r2,-12(fp)
  80ad9c:	10803fe0 	cmpeqi	r2,r2,255
  80ada0:	1000041e 	bne	r2,zero,80adb4 <OSTaskNameSet+0x54>
  80ada4:	e0ffff17 	ldw	r3,-4(fp)
  80ada8:	00800a84 	movi	r2,42
  80adac:	18800005 	stb	r2,0(r3)
  80adb0:	00005706 	br	80af10 <OSTaskNameSet+0x1b0>
  80adb4:	e0bffe17 	ldw	r2,-8(fp)
  80adb8:	1004c03a 	cmpne	r2,r2,zero
  80adbc:	1000041e 	bne	r2,zero,80add0 <OSTaskNameSet+0x70>
  80adc0:	e0ffff17 	ldw	r3,-4(fp)
  80adc4:	00800304 	movi	r2,12
  80adc8:	18800005 	stb	r2,0(r3)
  80adcc:	00005006 	br	80af10 <OSTaskNameSet+0x1b0>
  80add0:	00802074 	movhi	r2,129
  80add4:	10898d04 	addi	r2,r2,9780
  80add8:	10800003 	ldbu	r2,0(r2)
  80addc:	10803fcc 	andi	r2,r2,255
  80ade0:	1005003a 	cmpeq	r2,r2,zero
  80ade4:	1000041e 	bne	r2,zero,80adf8 <OSTaskNameSet+0x98>
  80ade8:	e0ffff17 	ldw	r3,-4(fp)
  80adec:	00800484 	movi	r2,18
  80adf0:	18800005 	stb	r2,0(r3)
  80adf4:	00004606 	br	80af10 <OSTaskNameSet+0x1b0>
  80adf8:	0005303a 	rdctl	r2,status
  80adfc:	e0bff915 	stw	r2,-28(fp)
  80ae00:	e0fff917 	ldw	r3,-28(fp)
  80ae04:	00bfff84 	movi	r2,-2
  80ae08:	1884703a 	and	r2,r3,r2
  80ae0c:	1001703a 	wrctl	status,r2
  80ae10:	e0bff917 	ldw	r2,-28(fp)
  80ae14:	e0bffa15 	stw	r2,-24(fp)
  80ae18:	e0bffd03 	ldbu	r2,-12(fp)
  80ae1c:	10803fd8 	cmpnei	r2,r2,255
  80ae20:	1000051e 	bne	r2,zero,80ae38 <OSTaskNameSet+0xd8>
  80ae24:	00802074 	movhi	r2,129
  80ae28:	10898e04 	addi	r2,r2,9784
  80ae2c:	10800017 	ldw	r2,0(r2)
  80ae30:	10800c83 	ldbu	r2,50(r2)
  80ae34:	e0bffd05 	stb	r2,-12(fp)
  80ae38:	e0bffd03 	ldbu	r2,-12(fp)
  80ae3c:	00c020b4 	movhi	r3,130
  80ae40:	18e61404 	addi	r3,r3,-26544
  80ae44:	1085883a 	add	r2,r2,r2
  80ae48:	1085883a 	add	r2,r2,r2
  80ae4c:	10c5883a 	add	r2,r2,r3
  80ae50:	10800017 	ldw	r2,0(r2)
  80ae54:	e0bffb15 	stw	r2,-20(fp)
  80ae58:	e0bffb17 	ldw	r2,-20(fp)
  80ae5c:	1004c03a 	cmpne	r2,r2,zero
  80ae60:	1000081e 	bne	r2,zero,80ae84 <OSTaskNameSet+0x124>
  80ae64:	e0bffa17 	ldw	r2,-24(fp)
  80ae68:	e0bff815 	stw	r2,-32(fp)
  80ae6c:	e0bff817 	ldw	r2,-32(fp)
  80ae70:	1001703a 	wrctl	status,r2
  80ae74:	e0ffff17 	ldw	r3,-4(fp)
  80ae78:	008010c4 	movi	r2,67
  80ae7c:	18800005 	stb	r2,0(r3)
  80ae80:	00002306 	br	80af10 <OSTaskNameSet+0x1b0>
  80ae84:	e0bffb17 	ldw	r2,-20(fp)
  80ae88:	10800058 	cmpnei	r2,r2,1
  80ae8c:	1000081e 	bne	r2,zero,80aeb0 <OSTaskNameSet+0x150>
  80ae90:	e0bffa17 	ldw	r2,-24(fp)
  80ae94:	e0bff715 	stw	r2,-36(fp)
  80ae98:	e0bff717 	ldw	r2,-36(fp)
  80ae9c:	1001703a 	wrctl	status,r2
  80aea0:	e0ffff17 	ldw	r3,-4(fp)
  80aea4:	008010c4 	movi	r2,67
  80aea8:	18800005 	stb	r2,0(r3)
  80aeac:	00001806 	br	80af10 <OSTaskNameSet+0x1b0>
  80aeb0:	e13ffe17 	ldw	r4,-8(fp)
  80aeb4:	08055f40 	call	8055f4 <OS_StrLen>
  80aeb8:	e0bffc05 	stb	r2,-16(fp)
  80aebc:	e0bffc03 	ldbu	r2,-16(fp)
  80aec0:	10800830 	cmpltui	r2,r2,32
  80aec4:	1000081e 	bne	r2,zero,80aee8 <OSTaskNameSet+0x188>
  80aec8:	e0bffa17 	ldw	r2,-24(fp)
  80aecc:	e0bff615 	stw	r2,-40(fp)
  80aed0:	e0bff617 	ldw	r2,-40(fp)
  80aed4:	1001703a 	wrctl	status,r2
  80aed8:	e0ffff17 	ldw	r3,-4(fp)
  80aedc:	00801044 	movi	r2,65
  80aee0:	18800005 	stb	r2,0(r3)
  80aee4:	00000a06 	br	80af10 <OSTaskNameSet+0x1b0>
  80aee8:	e0bffb17 	ldw	r2,-20(fp)
  80aeec:	11001304 	addi	r4,r2,76
  80aef0:	e17ffe17 	ldw	r5,-8(fp)
  80aef4:	08055740 	call	805574 <OS_StrCopy>
  80aef8:	e0bffa17 	ldw	r2,-24(fp)
  80aefc:	e0bff515 	stw	r2,-44(fp)
  80af00:	e0bff517 	ldw	r2,-44(fp)
  80af04:	1001703a 	wrctl	status,r2
  80af08:	e0bfff17 	ldw	r2,-4(fp)
  80af0c:	10000005 	stb	zero,0(r2)
  80af10:	e037883a 	mov	sp,fp
  80af14:	dfc00117 	ldw	ra,4(sp)
  80af18:	df000017 	ldw	fp,0(sp)
  80af1c:	dec00204 	addi	sp,sp,8
  80af20:	f800283a 	ret

0080af24 <OSTaskResume>:
  80af24:	defff304 	addi	sp,sp,-52
  80af28:	dfc00c15 	stw	ra,48(sp)
  80af2c:	df000b15 	stw	fp,44(sp)
  80af30:	df000b04 	addi	fp,sp,44
  80af34:	e13ffe05 	stb	r4,-8(fp)
  80af38:	e03ffc15 	stw	zero,-16(fp)
  80af3c:	e0bffe03 	ldbu	r2,-8(fp)
  80af40:	10800530 	cmpltui	r2,r2,20
  80af44:	1000031e 	bne	r2,zero,80af54 <OSTaskResume+0x30>
  80af48:	00800a84 	movi	r2,42
  80af4c:	e0bfff15 	stw	r2,-4(fp)
  80af50:	00007406 	br	80b124 <OSTaskResume+0x200>
  80af54:	0005303a 	rdctl	r2,status
  80af58:	e0bffb15 	stw	r2,-20(fp)
  80af5c:	e0fffb17 	ldw	r3,-20(fp)
  80af60:	00bfff84 	movi	r2,-2
  80af64:	1884703a 	and	r2,r3,r2
  80af68:	1001703a 	wrctl	status,r2
  80af6c:	e0bffb17 	ldw	r2,-20(fp)
  80af70:	e0bffc15 	stw	r2,-16(fp)
  80af74:	e0bffe03 	ldbu	r2,-8(fp)
  80af78:	00c020b4 	movhi	r3,130
  80af7c:	18e61404 	addi	r3,r3,-26544
  80af80:	1085883a 	add	r2,r2,r2
  80af84:	1085883a 	add	r2,r2,r2
  80af88:	10c5883a 	add	r2,r2,r3
  80af8c:	10800017 	ldw	r2,0(r2)
  80af90:	e0bffd15 	stw	r2,-12(fp)
  80af94:	e0bffd17 	ldw	r2,-12(fp)
  80af98:	1004c03a 	cmpne	r2,r2,zero
  80af9c:	1000071e 	bne	r2,zero,80afbc <OSTaskResume+0x98>
  80afa0:	e0bffc17 	ldw	r2,-16(fp)
  80afa4:	e0bffa15 	stw	r2,-24(fp)
  80afa8:	e0bffa17 	ldw	r2,-24(fp)
  80afac:	1001703a 	wrctl	status,r2
  80afb0:	00801184 	movi	r2,70
  80afb4:	e0bfff15 	stw	r2,-4(fp)
  80afb8:	00005a06 	br	80b124 <OSTaskResume+0x200>
  80afbc:	e0bffd17 	ldw	r2,-12(fp)
  80afc0:	10800058 	cmpnei	r2,r2,1
  80afc4:	1000071e 	bne	r2,zero,80afe4 <OSTaskResume+0xc0>
  80afc8:	e0bffc17 	ldw	r2,-16(fp)
  80afcc:	e0bff915 	stw	r2,-28(fp)
  80afd0:	e0bff917 	ldw	r2,-28(fp)
  80afd4:	1001703a 	wrctl	status,r2
  80afd8:	008010c4 	movi	r2,67
  80afdc:	e0bfff15 	stw	r2,-4(fp)
  80afe0:	00005006 	br	80b124 <OSTaskResume+0x200>
  80afe4:	e0bffd17 	ldw	r2,-12(fp)
  80afe8:	10800c03 	ldbu	r2,48(r2)
  80afec:	10803fcc 	andi	r2,r2,255
  80aff0:	1080020c 	andi	r2,r2,8
  80aff4:	1005003a 	cmpeq	r2,r2,zero
  80aff8:	1000441e 	bne	r2,zero,80b10c <OSTaskResume+0x1e8>
  80affc:	e0bffd17 	ldw	r2,-12(fp)
  80b000:	10c00c03 	ldbu	r3,48(r2)
  80b004:	00bffdc4 	movi	r2,-9
  80b008:	1884703a 	and	r2,r3,r2
  80b00c:	1007883a 	mov	r3,r2
  80b010:	e0bffd17 	ldw	r2,-12(fp)
  80b014:	10c00c05 	stb	r3,48(r2)
  80b018:	e0bffd17 	ldw	r2,-12(fp)
  80b01c:	10800c03 	ldbu	r2,48(r2)
  80b020:	10803fcc 	andi	r2,r2,255
  80b024:	1004c03a 	cmpne	r2,r2,zero
  80b028:	1000321e 	bne	r2,zero,80b0f4 <OSTaskResume+0x1d0>
  80b02c:	e0bffd17 	ldw	r2,-12(fp)
  80b030:	10800b8b 	ldhu	r2,46(r2)
  80b034:	10bfffcc 	andi	r2,r2,65535
  80b038:	1004c03a 	cmpne	r2,r2,zero
  80b03c:	1000281e 	bne	r2,zero,80b0e0 <OSTaskResume+0x1bc>
  80b040:	e0bffd17 	ldw	r2,-12(fp)
  80b044:	10c00d83 	ldbu	r3,54(r2)
  80b048:	00802074 	movhi	r2,129
  80b04c:	10898b04 	addi	r2,r2,9772
  80b050:	10800003 	ldbu	r2,0(r2)
  80b054:	1884b03a 	or	r2,r3,r2
  80b058:	1007883a 	mov	r3,r2
  80b05c:	00802074 	movhi	r2,129
  80b060:	10898b04 	addi	r2,r2,9772
  80b064:	10c00005 	stb	r3,0(r2)
  80b068:	e0bffd17 	ldw	r2,-12(fp)
  80b06c:	10800d03 	ldbu	r2,52(r2)
  80b070:	11003fcc 	andi	r4,r2,255
  80b074:	e0bffd17 	ldw	r2,-12(fp)
  80b078:	10800d03 	ldbu	r2,52(r2)
  80b07c:	10c03fcc 	andi	r3,r2,255
  80b080:	00802074 	movhi	r2,129
  80b084:	10898b44 	addi	r2,r2,9773
  80b088:	10c5883a 	add	r2,r2,r3
  80b08c:	10c00003 	ldbu	r3,0(r2)
  80b090:	e0bffd17 	ldw	r2,-12(fp)
  80b094:	10800d43 	ldbu	r2,53(r2)
  80b098:	1884b03a 	or	r2,r3,r2
  80b09c:	1007883a 	mov	r3,r2
  80b0a0:	00802074 	movhi	r2,129
  80b0a4:	10898b44 	addi	r2,r2,9773
  80b0a8:	1105883a 	add	r2,r2,r4
  80b0ac:	10c00005 	stb	r3,0(r2)
  80b0b0:	e0bffc17 	ldw	r2,-16(fp)
  80b0b4:	e0bff815 	stw	r2,-32(fp)
  80b0b8:	e0bff817 	ldw	r2,-32(fp)
  80b0bc:	1001703a 	wrctl	status,r2
  80b0c0:	00802074 	movhi	r2,129
  80b0c4:	10897f44 	addi	r2,r2,9725
  80b0c8:	10800003 	ldbu	r2,0(r2)
  80b0cc:	10803fcc 	andi	r2,r2,255
  80b0d0:	10800058 	cmpnei	r2,r2,1
  80b0d4:	10000b1e 	bne	r2,zero,80b104 <OSTaskResume+0x1e0>
  80b0d8:	08054300 	call	805430 <OS_Sched>
  80b0dc:	00000906 	br	80b104 <OSTaskResume+0x1e0>
  80b0e0:	e0bffc17 	ldw	r2,-16(fp)
  80b0e4:	e0bff715 	stw	r2,-36(fp)
  80b0e8:	e0bff717 	ldw	r2,-36(fp)
  80b0ec:	1001703a 	wrctl	status,r2
  80b0f0:	00000406 	br	80b104 <OSTaskResume+0x1e0>
  80b0f4:	e0bffc17 	ldw	r2,-16(fp)
  80b0f8:	e0bff615 	stw	r2,-40(fp)
  80b0fc:	e0bff617 	ldw	r2,-40(fp)
  80b100:	1001703a 	wrctl	status,r2
  80b104:	e03fff15 	stw	zero,-4(fp)
  80b108:	00000606 	br	80b124 <OSTaskResume+0x200>
  80b10c:	e0bffc17 	ldw	r2,-16(fp)
  80b110:	e0bff515 	stw	r2,-44(fp)
  80b114:	e0bff517 	ldw	r2,-44(fp)
  80b118:	1001703a 	wrctl	status,r2
  80b11c:	00801104 	movi	r2,68
  80b120:	e0bfff15 	stw	r2,-4(fp)
  80b124:	e0bfff17 	ldw	r2,-4(fp)
  80b128:	e037883a 	mov	sp,fp
  80b12c:	dfc00117 	ldw	ra,4(sp)
  80b130:	df000017 	ldw	fp,0(sp)
  80b134:	dec00204 	addi	sp,sp,8
  80b138:	f800283a 	ret

0080b13c <OSTaskStkChk>:
  80b13c:	defff204 	addi	sp,sp,-56
  80b140:	df000d15 	stw	fp,52(sp)
  80b144:	df000d04 	addi	fp,sp,52
  80b148:	e17ffe15 	stw	r5,-8(fp)
  80b14c:	e13ffd05 	stb	r4,-12(fp)
  80b150:	e03ff815 	stw	zero,-32(fp)
  80b154:	e0bffd03 	ldbu	r2,-12(fp)
  80b158:	10800570 	cmpltui	r2,r2,21
  80b15c:	1000061e 	bne	r2,zero,80b178 <OSTaskStkChk+0x3c>
  80b160:	e0bffd03 	ldbu	r2,-12(fp)
  80b164:	10803fe0 	cmpeqi	r2,r2,255
  80b168:	1000031e 	bne	r2,zero,80b178 <OSTaskStkChk+0x3c>
  80b16c:	00800a84 	movi	r2,42
  80b170:	e0bfff15 	stw	r2,-4(fp)
  80b174:	00006b06 	br	80b324 <OSTaskStkChk+0x1e8>
  80b178:	e0bffe17 	ldw	r2,-8(fp)
  80b17c:	1004c03a 	cmpne	r2,r2,zero
  80b180:	1000031e 	bne	r2,zero,80b190 <OSTaskStkChk+0x54>
  80b184:	00800244 	movi	r2,9
  80b188:	e0bfff15 	stw	r2,-4(fp)
  80b18c:	00006506 	br	80b324 <OSTaskStkChk+0x1e8>
  80b190:	e0bffe17 	ldw	r2,-8(fp)
  80b194:	10000015 	stw	zero,0(r2)
  80b198:	e0bffe17 	ldw	r2,-8(fp)
  80b19c:	10000115 	stw	zero,4(r2)
  80b1a0:	0005303a 	rdctl	r2,status
  80b1a4:	e0bff715 	stw	r2,-36(fp)
  80b1a8:	e0fff717 	ldw	r3,-36(fp)
  80b1ac:	00bfff84 	movi	r2,-2
  80b1b0:	1884703a 	and	r2,r3,r2
  80b1b4:	1001703a 	wrctl	status,r2
  80b1b8:	e0bff717 	ldw	r2,-36(fp)
  80b1bc:	e0bff815 	stw	r2,-32(fp)
  80b1c0:	e0bffd03 	ldbu	r2,-12(fp)
  80b1c4:	10803fd8 	cmpnei	r2,r2,255
  80b1c8:	1000051e 	bne	r2,zero,80b1e0 <OSTaskStkChk+0xa4>
  80b1cc:	00802074 	movhi	r2,129
  80b1d0:	10898e04 	addi	r2,r2,9784
  80b1d4:	10800017 	ldw	r2,0(r2)
  80b1d8:	10800c83 	ldbu	r2,50(r2)
  80b1dc:	e0bffd05 	stb	r2,-12(fp)
  80b1e0:	e0bffd03 	ldbu	r2,-12(fp)
  80b1e4:	00c020b4 	movhi	r3,130
  80b1e8:	18e61404 	addi	r3,r3,-26544
  80b1ec:	1085883a 	add	r2,r2,r2
  80b1f0:	1085883a 	add	r2,r2,r2
  80b1f4:	10c5883a 	add	r2,r2,r3
  80b1f8:	10800017 	ldw	r2,0(r2)
  80b1fc:	e0bffc15 	stw	r2,-16(fp)
  80b200:	e0bffc17 	ldw	r2,-16(fp)
  80b204:	1004c03a 	cmpne	r2,r2,zero
  80b208:	1000071e 	bne	r2,zero,80b228 <OSTaskStkChk+0xec>
  80b20c:	e0bff817 	ldw	r2,-32(fp)
  80b210:	e0bff615 	stw	r2,-40(fp)
  80b214:	e0bff617 	ldw	r2,-40(fp)
  80b218:	1001703a 	wrctl	status,r2
  80b21c:	008010c4 	movi	r2,67
  80b220:	e0bfff15 	stw	r2,-4(fp)
  80b224:	00003f06 	br	80b324 <OSTaskStkChk+0x1e8>
  80b228:	e0bffc17 	ldw	r2,-16(fp)
  80b22c:	10800058 	cmpnei	r2,r2,1
  80b230:	1000071e 	bne	r2,zero,80b250 <OSTaskStkChk+0x114>
  80b234:	e0bff817 	ldw	r2,-32(fp)
  80b238:	e0bff515 	stw	r2,-44(fp)
  80b23c:	e0bff517 	ldw	r2,-44(fp)
  80b240:	1001703a 	wrctl	status,r2
  80b244:	008010c4 	movi	r2,67
  80b248:	e0bfff15 	stw	r2,-4(fp)
  80b24c:	00003506 	br	80b324 <OSTaskStkChk+0x1e8>
  80b250:	e0bffc17 	ldw	r2,-16(fp)
  80b254:	1080040b 	ldhu	r2,16(r2)
  80b258:	10bfffcc 	andi	r2,r2,65535
  80b25c:	1080004c 	andi	r2,r2,1
  80b260:	1004c03a 	cmpne	r2,r2,zero
  80b264:	1000071e 	bne	r2,zero,80b284 <OSTaskStkChk+0x148>
  80b268:	e0bff817 	ldw	r2,-32(fp)
  80b26c:	e0bff415 	stw	r2,-48(fp)
  80b270:	e0bff417 	ldw	r2,-48(fp)
  80b274:	1001703a 	wrctl	status,r2
  80b278:	00801144 	movi	r2,69
  80b27c:	e0bfff15 	stw	r2,-4(fp)
  80b280:	00002806 	br	80b324 <OSTaskStkChk+0x1e8>
  80b284:	e03ffa15 	stw	zero,-24(fp)
  80b288:	e0bffc17 	ldw	r2,-16(fp)
  80b28c:	10800317 	ldw	r2,12(r2)
  80b290:	e0bff915 	stw	r2,-28(fp)
  80b294:	e0bffc17 	ldw	r2,-16(fp)
  80b298:	10800217 	ldw	r2,8(r2)
  80b29c:	e0bffb15 	stw	r2,-20(fp)
  80b2a0:	e0bff817 	ldw	r2,-32(fp)
  80b2a4:	e0bff315 	stw	r2,-52(fp)
  80b2a8:	e0bff317 	ldw	r2,-52(fp)
  80b2ac:	1001703a 	wrctl	status,r2
  80b2b0:	00000306 	br	80b2c0 <OSTaskStkChk+0x184>
  80b2b4:	e0bffa17 	ldw	r2,-24(fp)
  80b2b8:	10800044 	addi	r2,r2,1
  80b2bc:	e0bffa15 	stw	r2,-24(fp)
  80b2c0:	e0bffb17 	ldw	r2,-20(fp)
  80b2c4:	10800017 	ldw	r2,0(r2)
  80b2c8:	1005003a 	cmpeq	r2,r2,zero
  80b2cc:	1007883a 	mov	r3,r2
  80b2d0:	e0bffb17 	ldw	r2,-20(fp)
  80b2d4:	10800104 	addi	r2,r2,4
  80b2d8:	e0bffb15 	stw	r2,-20(fp)
  80b2dc:	18803fcc 	andi	r2,r3,255
  80b2e0:	1004c03a 	cmpne	r2,r2,zero
  80b2e4:	103ff31e 	bne	r2,zero,80b2b4 <OSTaskStkChk+0x178>
  80b2e8:	e0bffa17 	ldw	r2,-24(fp)
  80b2ec:	1085883a 	add	r2,r2,r2
  80b2f0:	1085883a 	add	r2,r2,r2
  80b2f4:	1007883a 	mov	r3,r2
  80b2f8:	e0bffe17 	ldw	r2,-8(fp)
  80b2fc:	10c00015 	stw	r3,0(r2)
  80b300:	e0fff917 	ldw	r3,-28(fp)
  80b304:	e0bffa17 	ldw	r2,-24(fp)
  80b308:	1885c83a 	sub	r2,r3,r2
  80b30c:	1085883a 	add	r2,r2,r2
  80b310:	1085883a 	add	r2,r2,r2
  80b314:	1007883a 	mov	r3,r2
  80b318:	e0bffe17 	ldw	r2,-8(fp)
  80b31c:	10c00115 	stw	r3,4(r2)
  80b320:	e03fff15 	stw	zero,-4(fp)
  80b324:	e0bfff17 	ldw	r2,-4(fp)
  80b328:	e037883a 	mov	sp,fp
  80b32c:	df000017 	ldw	fp,0(sp)
  80b330:	dec00104 	addi	sp,sp,4
  80b334:	f800283a 	ret

0080b338 <OSTaskSuspend>:
  80b338:	defff404 	addi	sp,sp,-48
  80b33c:	dfc00b15 	stw	ra,44(sp)
  80b340:	df000a15 	stw	fp,40(sp)
  80b344:	df000a04 	addi	fp,sp,40
  80b348:	e13ffe05 	stb	r4,-8(fp)
  80b34c:	e03ffa15 	stw	zero,-24(fp)
  80b350:	e0bffe03 	ldbu	r2,-8(fp)
  80b354:	10800518 	cmpnei	r2,r2,20
  80b358:	1000031e 	bne	r2,zero,80b368 <OSTaskSuspend+0x30>
  80b35c:	008011c4 	movi	r2,71
  80b360:	e0bfff15 	stw	r2,-4(fp)
  80b364:	00007906 	br	80b54c <OSTaskSuspend+0x214>
  80b368:	e0bffe03 	ldbu	r2,-8(fp)
  80b36c:	10800530 	cmpltui	r2,r2,20
  80b370:	1000061e 	bne	r2,zero,80b38c <OSTaskSuspend+0x54>
  80b374:	e0bffe03 	ldbu	r2,-8(fp)
  80b378:	10803fe0 	cmpeqi	r2,r2,255
  80b37c:	1000031e 	bne	r2,zero,80b38c <OSTaskSuspend+0x54>
  80b380:	00800a84 	movi	r2,42
  80b384:	e0bfff15 	stw	r2,-4(fp)
  80b388:	00007006 	br	80b54c <OSTaskSuspend+0x214>
  80b38c:	0005303a 	rdctl	r2,status
  80b390:	e0bff915 	stw	r2,-28(fp)
  80b394:	e0fff917 	ldw	r3,-28(fp)
  80b398:	00bfff84 	movi	r2,-2
  80b39c:	1884703a 	and	r2,r3,r2
  80b3a0:	1001703a 	wrctl	status,r2
  80b3a4:	e0bff917 	ldw	r2,-28(fp)
  80b3a8:	e0bffa15 	stw	r2,-24(fp)
  80b3ac:	e0bffe03 	ldbu	r2,-8(fp)
  80b3b0:	10803fd8 	cmpnei	r2,r2,255
  80b3b4:	1000081e 	bne	r2,zero,80b3d8 <OSTaskSuspend+0xa0>
  80b3b8:	00802074 	movhi	r2,129
  80b3bc:	10898e04 	addi	r2,r2,9784
  80b3c0:	10800017 	ldw	r2,0(r2)
  80b3c4:	10800c83 	ldbu	r2,50(r2)
  80b3c8:	e0bffe05 	stb	r2,-8(fp)
  80b3cc:	00800044 	movi	r2,1
  80b3d0:	e0bffd05 	stb	r2,-12(fp)
  80b3d4:	00000b06 	br	80b404 <OSTaskSuspend+0xcc>
  80b3d8:	00802074 	movhi	r2,129
  80b3dc:	10898e04 	addi	r2,r2,9784
  80b3e0:	10800017 	ldw	r2,0(r2)
  80b3e4:	10800c83 	ldbu	r2,50(r2)
  80b3e8:	10c03fcc 	andi	r3,r2,255
  80b3ec:	e0bffe03 	ldbu	r2,-8(fp)
  80b3f0:	1880031e 	bne	r3,r2,80b400 <OSTaskSuspend+0xc8>
  80b3f4:	00800044 	movi	r2,1
  80b3f8:	e0bffd05 	stb	r2,-12(fp)
  80b3fc:	00000106 	br	80b404 <OSTaskSuspend+0xcc>
  80b400:	e03ffd05 	stb	zero,-12(fp)
  80b404:	e0bffe03 	ldbu	r2,-8(fp)
  80b408:	00c020b4 	movhi	r3,130
  80b40c:	18e61404 	addi	r3,r3,-26544
  80b410:	1085883a 	add	r2,r2,r2
  80b414:	1085883a 	add	r2,r2,r2
  80b418:	10c5883a 	add	r2,r2,r3
  80b41c:	10800017 	ldw	r2,0(r2)
  80b420:	e0bffc15 	stw	r2,-16(fp)
  80b424:	e0bffc17 	ldw	r2,-16(fp)
  80b428:	1004c03a 	cmpne	r2,r2,zero
  80b42c:	1000071e 	bne	r2,zero,80b44c <OSTaskSuspend+0x114>
  80b430:	e0bffa17 	ldw	r2,-24(fp)
  80b434:	e0bff815 	stw	r2,-32(fp)
  80b438:	e0bff817 	ldw	r2,-32(fp)
  80b43c:	1001703a 	wrctl	status,r2
  80b440:	00801204 	movi	r2,72
  80b444:	e0bfff15 	stw	r2,-4(fp)
  80b448:	00004006 	br	80b54c <OSTaskSuspend+0x214>
  80b44c:	e0bffc17 	ldw	r2,-16(fp)
  80b450:	10800058 	cmpnei	r2,r2,1
  80b454:	1000071e 	bne	r2,zero,80b474 <OSTaskSuspend+0x13c>
  80b458:	e0bffa17 	ldw	r2,-24(fp)
  80b45c:	e0bff715 	stw	r2,-36(fp)
  80b460:	e0bff717 	ldw	r2,-36(fp)
  80b464:	1001703a 	wrctl	status,r2
  80b468:	008010c4 	movi	r2,67
  80b46c:	e0bfff15 	stw	r2,-4(fp)
  80b470:	00003606 	br	80b54c <OSTaskSuspend+0x214>
  80b474:	e0bffc17 	ldw	r2,-16(fp)
  80b478:	10800d03 	ldbu	r2,52(r2)
  80b47c:	e0bffb05 	stb	r2,-20(fp)
  80b480:	e13ffb03 	ldbu	r4,-20(fp)
  80b484:	e0fffb03 	ldbu	r3,-20(fp)
  80b488:	00802074 	movhi	r2,129
  80b48c:	10898b44 	addi	r2,r2,9773
  80b490:	10c5883a 	add	r2,r2,r3
  80b494:	10800003 	ldbu	r2,0(r2)
  80b498:	1007883a 	mov	r3,r2
  80b49c:	e0bffc17 	ldw	r2,-16(fp)
  80b4a0:	10800d43 	ldbu	r2,53(r2)
  80b4a4:	0084303a 	nor	r2,zero,r2
  80b4a8:	1884703a 	and	r2,r3,r2
  80b4ac:	1007883a 	mov	r3,r2
  80b4b0:	00802074 	movhi	r2,129
  80b4b4:	10898b44 	addi	r2,r2,9773
  80b4b8:	1105883a 	add	r2,r2,r4
  80b4bc:	10c00005 	stb	r3,0(r2)
  80b4c0:	e0fffb03 	ldbu	r3,-20(fp)
  80b4c4:	00802074 	movhi	r2,129
  80b4c8:	10898b44 	addi	r2,r2,9773
  80b4cc:	10c5883a 	add	r2,r2,r3
  80b4d0:	10800003 	ldbu	r2,0(r2)
  80b4d4:	10803fcc 	andi	r2,r2,255
  80b4d8:	1004c03a 	cmpne	r2,r2,zero
  80b4dc:	10000c1e 	bne	r2,zero,80b510 <OSTaskSuspend+0x1d8>
  80b4e0:	e0bffc17 	ldw	r2,-16(fp)
  80b4e4:	10800d83 	ldbu	r2,54(r2)
  80b4e8:	0084303a 	nor	r2,zero,r2
  80b4ec:	1007883a 	mov	r3,r2
  80b4f0:	00802074 	movhi	r2,129
  80b4f4:	10898b04 	addi	r2,r2,9772
  80b4f8:	10800003 	ldbu	r2,0(r2)
  80b4fc:	1884703a 	and	r2,r3,r2
  80b500:	1007883a 	mov	r3,r2
  80b504:	00802074 	movhi	r2,129
  80b508:	10898b04 	addi	r2,r2,9772
  80b50c:	10c00005 	stb	r3,0(r2)
  80b510:	e0bffc17 	ldw	r2,-16(fp)
  80b514:	10800c03 	ldbu	r2,48(r2)
  80b518:	10800214 	ori	r2,r2,8
  80b51c:	1007883a 	mov	r3,r2
  80b520:	e0bffc17 	ldw	r2,-16(fp)
  80b524:	10c00c05 	stb	r3,48(r2)
  80b528:	e0bffa17 	ldw	r2,-24(fp)
  80b52c:	e0bff615 	stw	r2,-40(fp)
  80b530:	e0bff617 	ldw	r2,-40(fp)
  80b534:	1001703a 	wrctl	status,r2
  80b538:	e0bffd03 	ldbu	r2,-12(fp)
  80b53c:	10800058 	cmpnei	r2,r2,1
  80b540:	1000011e 	bne	r2,zero,80b548 <OSTaskSuspend+0x210>
  80b544:	08054300 	call	805430 <OS_Sched>
  80b548:	e03fff15 	stw	zero,-4(fp)
  80b54c:	e0bfff17 	ldw	r2,-4(fp)
  80b550:	e037883a 	mov	sp,fp
  80b554:	dfc00117 	ldw	ra,4(sp)
  80b558:	df000017 	ldw	fp,0(sp)
  80b55c:	dec00204 	addi	sp,sp,8
  80b560:	f800283a 	ret

0080b564 <OSTaskQuery>:
  80b564:	defff504 	addi	sp,sp,-44
  80b568:	dfc00a15 	stw	ra,40(sp)
  80b56c:	df000915 	stw	fp,36(sp)
  80b570:	df000904 	addi	fp,sp,36
  80b574:	e17ffe15 	stw	r5,-8(fp)
  80b578:	e13ffd05 	stb	r4,-12(fp)
  80b57c:	e03ffb15 	stw	zero,-20(fp)
  80b580:	e0bffd03 	ldbu	r2,-12(fp)
  80b584:	10800570 	cmpltui	r2,r2,21
  80b588:	1000061e 	bne	r2,zero,80b5a4 <OSTaskQuery+0x40>
  80b58c:	e0bffd03 	ldbu	r2,-12(fp)
  80b590:	10803fe0 	cmpeqi	r2,r2,255
  80b594:	1000031e 	bne	r2,zero,80b5a4 <OSTaskQuery+0x40>
  80b598:	00800a84 	movi	r2,42
  80b59c:	e0bfff15 	stw	r2,-4(fp)
  80b5a0:	00003b06 	br	80b690 <OSTaskQuery+0x12c>
  80b5a4:	e0bffe17 	ldw	r2,-8(fp)
  80b5a8:	1004c03a 	cmpne	r2,r2,zero
  80b5ac:	1000031e 	bne	r2,zero,80b5bc <OSTaskQuery+0x58>
  80b5b0:	00800244 	movi	r2,9
  80b5b4:	e0bfff15 	stw	r2,-4(fp)
  80b5b8:	00003506 	br	80b690 <OSTaskQuery+0x12c>
  80b5bc:	0005303a 	rdctl	r2,status
  80b5c0:	e0bffa15 	stw	r2,-24(fp)
  80b5c4:	e0fffa17 	ldw	r3,-24(fp)
  80b5c8:	00bfff84 	movi	r2,-2
  80b5cc:	1884703a 	and	r2,r3,r2
  80b5d0:	1001703a 	wrctl	status,r2
  80b5d4:	e0bffa17 	ldw	r2,-24(fp)
  80b5d8:	e0bffb15 	stw	r2,-20(fp)
  80b5dc:	e0bffd03 	ldbu	r2,-12(fp)
  80b5e0:	10803fd8 	cmpnei	r2,r2,255
  80b5e4:	1000051e 	bne	r2,zero,80b5fc <OSTaskQuery+0x98>
  80b5e8:	00802074 	movhi	r2,129
  80b5ec:	10898e04 	addi	r2,r2,9784
  80b5f0:	10800017 	ldw	r2,0(r2)
  80b5f4:	10800c83 	ldbu	r2,50(r2)
  80b5f8:	e0bffd05 	stb	r2,-12(fp)
  80b5fc:	e0bffd03 	ldbu	r2,-12(fp)
  80b600:	00c020b4 	movhi	r3,130
  80b604:	18e61404 	addi	r3,r3,-26544
  80b608:	1085883a 	add	r2,r2,r2
  80b60c:	1085883a 	add	r2,r2,r2
  80b610:	10c5883a 	add	r2,r2,r3
  80b614:	10800017 	ldw	r2,0(r2)
  80b618:	e0bffc15 	stw	r2,-16(fp)
  80b61c:	e0bffc17 	ldw	r2,-16(fp)
  80b620:	1004c03a 	cmpne	r2,r2,zero
  80b624:	1000071e 	bne	r2,zero,80b644 <OSTaskQuery+0xe0>
  80b628:	e0bffb17 	ldw	r2,-20(fp)
  80b62c:	e0bff915 	stw	r2,-28(fp)
  80b630:	e0bff917 	ldw	r2,-28(fp)
  80b634:	1001703a 	wrctl	status,r2
  80b638:	00800a44 	movi	r2,41
  80b63c:	e0bfff15 	stw	r2,-4(fp)
  80b640:	00001306 	br	80b690 <OSTaskQuery+0x12c>
  80b644:	e0bffc17 	ldw	r2,-16(fp)
  80b648:	10800058 	cmpnei	r2,r2,1
  80b64c:	1000071e 	bne	r2,zero,80b66c <OSTaskQuery+0x108>
  80b650:	e0bffb17 	ldw	r2,-20(fp)
  80b654:	e0bff815 	stw	r2,-32(fp)
  80b658:	e0bff817 	ldw	r2,-32(fp)
  80b65c:	1001703a 	wrctl	status,r2
  80b660:	008010c4 	movi	r2,67
  80b664:	e0bfff15 	stw	r2,-4(fp)
  80b668:	00000906 	br	80b690 <OSTaskQuery+0x12c>
  80b66c:	e13ffe17 	ldw	r4,-8(fp)
  80b670:	e17ffc17 	ldw	r5,-16(fp)
  80b674:	01801b04 	movi	r6,108
  80b678:	08053c40 	call	8053c4 <OS_MemCopy>
  80b67c:	e0bffb17 	ldw	r2,-20(fp)
  80b680:	e0bff715 	stw	r2,-36(fp)
  80b684:	e0bff717 	ldw	r2,-36(fp)
  80b688:	1001703a 	wrctl	status,r2
  80b68c:	e03fff15 	stw	zero,-4(fp)
  80b690:	e0bfff17 	ldw	r2,-4(fp)
  80b694:	e037883a 	mov	sp,fp
  80b698:	dfc00117 	ldw	ra,4(sp)
  80b69c:	df000017 	ldw	fp,0(sp)
  80b6a0:	dec00204 	addi	sp,sp,8
  80b6a4:	f800283a 	ret

0080b6a8 <OS_TaskStkClr>:
  80b6a8:	defffc04 	addi	sp,sp,-16
  80b6ac:	df000315 	stw	fp,12(sp)
  80b6b0:	df000304 	addi	fp,sp,12
  80b6b4:	e13ffd15 	stw	r4,-12(fp)
  80b6b8:	e17ffe15 	stw	r5,-8(fp)
  80b6bc:	e1bfff0d 	sth	r6,-4(fp)
  80b6c0:	e0bfff0b 	ldhu	r2,-4(fp)
  80b6c4:	1080004c 	andi	r2,r2,1
  80b6c8:	10803fcc 	andi	r2,r2,255
  80b6cc:	1005003a 	cmpeq	r2,r2,zero
  80b6d0:	1000101e 	bne	r2,zero,80b714 <OS_TaskStkClr+0x6c>
  80b6d4:	e0bfff0b 	ldhu	r2,-4(fp)
  80b6d8:	1080008c 	andi	r2,r2,2
  80b6dc:	1005003a 	cmpeq	r2,r2,zero
  80b6e0:	10000c1e 	bne	r2,zero,80b714 <OS_TaskStkClr+0x6c>
  80b6e4:	00000806 	br	80b708 <OS_TaskStkClr+0x60>
  80b6e8:	e0bffe17 	ldw	r2,-8(fp)
  80b6ec:	10bfffc4 	addi	r2,r2,-1
  80b6f0:	e0bffe15 	stw	r2,-8(fp)
  80b6f4:	e0bffd17 	ldw	r2,-12(fp)
  80b6f8:	10000015 	stw	zero,0(r2)
  80b6fc:	e0bffd17 	ldw	r2,-12(fp)
  80b700:	10800104 	addi	r2,r2,4
  80b704:	e0bffd15 	stw	r2,-12(fp)
  80b708:	e0bffe17 	ldw	r2,-8(fp)
  80b70c:	1004c03a 	cmpne	r2,r2,zero
  80b710:	103ff51e 	bne	r2,zero,80b6e8 <OS_TaskStkClr+0x40>
  80b714:	e037883a 	mov	sp,fp
  80b718:	df000017 	ldw	fp,0(sp)
  80b71c:	dec00104 	addi	sp,sp,4
  80b720:	f800283a 	ret

0080b724 <OSTimeDly>:
  80b724:	defff904 	addi	sp,sp,-28
  80b728:	dfc00615 	stw	ra,24(sp)
  80b72c:	df000515 	stw	fp,20(sp)
  80b730:	df000504 	addi	fp,sp,20
  80b734:	e13fff0d 	sth	r4,-4(fp)
  80b738:	e03ffd15 	stw	zero,-12(fp)
  80b73c:	00802074 	movhi	r2,129
  80b740:	10898d04 	addi	r2,r2,9780
  80b744:	10800003 	ldbu	r2,0(r2)
  80b748:	10803fcc 	andi	r2,r2,255
  80b74c:	1004c03a 	cmpne	r2,r2,zero
  80b750:	1000421e 	bne	r2,zero,80b85c <OSTimeDly+0x138>
  80b754:	e0bfff0b 	ldhu	r2,-4(fp)
  80b758:	1005003a 	cmpeq	r2,r2,zero
  80b75c:	10003f1e 	bne	r2,zero,80b85c <OSTimeDly+0x138>
  80b760:	0005303a 	rdctl	r2,status
  80b764:	e0bffc15 	stw	r2,-16(fp)
  80b768:	e0fffc17 	ldw	r3,-16(fp)
  80b76c:	00bfff84 	movi	r2,-2
  80b770:	1884703a 	and	r2,r3,r2
  80b774:	1001703a 	wrctl	status,r2
  80b778:	e0bffc17 	ldw	r2,-16(fp)
  80b77c:	e0bffd15 	stw	r2,-12(fp)
  80b780:	00802074 	movhi	r2,129
  80b784:	10898e04 	addi	r2,r2,9784
  80b788:	10800017 	ldw	r2,0(r2)
  80b78c:	10800d03 	ldbu	r2,52(r2)
  80b790:	e0bffe05 	stb	r2,-8(fp)
  80b794:	e13ffe03 	ldbu	r4,-8(fp)
  80b798:	e0fffe03 	ldbu	r3,-8(fp)
  80b79c:	00802074 	movhi	r2,129
  80b7a0:	10898b44 	addi	r2,r2,9773
  80b7a4:	10c5883a 	add	r2,r2,r3
  80b7a8:	10800003 	ldbu	r2,0(r2)
  80b7ac:	1007883a 	mov	r3,r2
  80b7b0:	00802074 	movhi	r2,129
  80b7b4:	10898e04 	addi	r2,r2,9784
  80b7b8:	10800017 	ldw	r2,0(r2)
  80b7bc:	10800d43 	ldbu	r2,53(r2)
  80b7c0:	0084303a 	nor	r2,zero,r2
  80b7c4:	1884703a 	and	r2,r3,r2
  80b7c8:	1007883a 	mov	r3,r2
  80b7cc:	00802074 	movhi	r2,129
  80b7d0:	10898b44 	addi	r2,r2,9773
  80b7d4:	1105883a 	add	r2,r2,r4
  80b7d8:	10c00005 	stb	r3,0(r2)
  80b7dc:	e0fffe03 	ldbu	r3,-8(fp)
  80b7e0:	00802074 	movhi	r2,129
  80b7e4:	10898b44 	addi	r2,r2,9773
  80b7e8:	10c5883a 	add	r2,r2,r3
  80b7ec:	10800003 	ldbu	r2,0(r2)
  80b7f0:	10803fcc 	andi	r2,r2,255
  80b7f4:	1004c03a 	cmpne	r2,r2,zero
  80b7f8:	10000e1e 	bne	r2,zero,80b834 <OSTimeDly+0x110>
  80b7fc:	00802074 	movhi	r2,129
  80b800:	10898e04 	addi	r2,r2,9784
  80b804:	10800017 	ldw	r2,0(r2)
  80b808:	10800d83 	ldbu	r2,54(r2)
  80b80c:	0084303a 	nor	r2,zero,r2
  80b810:	1007883a 	mov	r3,r2
  80b814:	00802074 	movhi	r2,129
  80b818:	10898b04 	addi	r2,r2,9772
  80b81c:	10800003 	ldbu	r2,0(r2)
  80b820:	1884703a 	and	r2,r3,r2
  80b824:	1007883a 	mov	r3,r2
  80b828:	00802074 	movhi	r2,129
  80b82c:	10898b04 	addi	r2,r2,9772
  80b830:	10c00005 	stb	r3,0(r2)
  80b834:	00802074 	movhi	r2,129
  80b838:	10898e04 	addi	r2,r2,9784
  80b83c:	10c00017 	ldw	r3,0(r2)
  80b840:	e0bfff0b 	ldhu	r2,-4(fp)
  80b844:	18800b8d 	sth	r2,46(r3)
  80b848:	e0bffd17 	ldw	r2,-12(fp)
  80b84c:	e0bffb15 	stw	r2,-20(fp)
  80b850:	e0bffb17 	ldw	r2,-20(fp)
  80b854:	1001703a 	wrctl	status,r2
  80b858:	08054300 	call	805430 <OS_Sched>
  80b85c:	e037883a 	mov	sp,fp
  80b860:	dfc00117 	ldw	ra,4(sp)
  80b864:	df000017 	ldw	fp,0(sp)
  80b868:	dec00204 	addi	sp,sp,8
  80b86c:	f800283a 	ret

0080b870 <OSTimeDlyHMSM>:
  80b870:	defff604 	addi	sp,sp,-40
  80b874:	dfc00915 	stw	ra,36(sp)
  80b878:	df000815 	stw	fp,32(sp)
  80b87c:	dc000715 	stw	r16,28(sp)
  80b880:	df000704 	addi	fp,sp,28
  80b884:	e13ffb05 	stb	r4,-20(fp)
  80b888:	e17ffc05 	stb	r5,-16(fp)
  80b88c:	e1bffd05 	stb	r6,-12(fp)
  80b890:	e1fffe0d 	sth	r7,-8(fp)
  80b894:	00802074 	movhi	r2,129
  80b898:	10898d04 	addi	r2,r2,9780
  80b89c:	10800003 	ldbu	r2,0(r2)
  80b8a0:	10803fcc 	andi	r2,r2,255
  80b8a4:	1005003a 	cmpeq	r2,r2,zero
  80b8a8:	1000031e 	bne	r2,zero,80b8b8 <OSTimeDlyHMSM+0x48>
  80b8ac:	00801544 	movi	r2,85
  80b8b0:	e0bfff15 	stw	r2,-4(fp)
  80b8b4:	00004406 	br	80b9c8 <OSTimeDlyHMSM+0x158>
  80b8b8:	e0bffb03 	ldbu	r2,-20(fp)
  80b8bc:	1004c03a 	cmpne	r2,r2,zero
  80b8c0:	10000c1e 	bne	r2,zero,80b8f4 <OSTimeDlyHMSM+0x84>
  80b8c4:	e0bffc03 	ldbu	r2,-16(fp)
  80b8c8:	1004c03a 	cmpne	r2,r2,zero
  80b8cc:	1000091e 	bne	r2,zero,80b8f4 <OSTimeDlyHMSM+0x84>
  80b8d0:	e0bffd03 	ldbu	r2,-12(fp)
  80b8d4:	1004c03a 	cmpne	r2,r2,zero
  80b8d8:	1000061e 	bne	r2,zero,80b8f4 <OSTimeDlyHMSM+0x84>
  80b8dc:	e0bffe0b 	ldhu	r2,-8(fp)
  80b8e0:	1004c03a 	cmpne	r2,r2,zero
  80b8e4:	1000031e 	bne	r2,zero,80b8f4 <OSTimeDlyHMSM+0x84>
  80b8e8:	00801504 	movi	r2,84
  80b8ec:	e0bfff15 	stw	r2,-4(fp)
  80b8f0:	00003506 	br	80b9c8 <OSTimeDlyHMSM+0x158>
  80b8f4:	e0bffc03 	ldbu	r2,-16(fp)
  80b8f8:	10800f30 	cmpltui	r2,r2,60
  80b8fc:	1000031e 	bne	r2,zero,80b90c <OSTimeDlyHMSM+0x9c>
  80b900:	00801444 	movi	r2,81
  80b904:	e0bfff15 	stw	r2,-4(fp)
  80b908:	00002f06 	br	80b9c8 <OSTimeDlyHMSM+0x158>
  80b90c:	e0bffd03 	ldbu	r2,-12(fp)
  80b910:	10800f30 	cmpltui	r2,r2,60
  80b914:	1000031e 	bne	r2,zero,80b924 <OSTimeDlyHMSM+0xb4>
  80b918:	00801484 	movi	r2,82
  80b91c:	e0bfff15 	stw	r2,-4(fp)
  80b920:	00002906 	br	80b9c8 <OSTimeDlyHMSM+0x158>
  80b924:	e0bffe0b 	ldhu	r2,-8(fp)
  80b928:	1080fa30 	cmpltui	r2,r2,1000
  80b92c:	1000031e 	bne	r2,zero,80b93c <OSTimeDlyHMSM+0xcc>
  80b930:	008014c4 	movi	r2,83
  80b934:	e0bfff15 	stw	r2,-4(fp)
  80b938:	00002306 	br	80b9c8 <OSTimeDlyHMSM+0x158>
  80b93c:	e0bffb03 	ldbu	r2,-20(fp)
  80b940:	10c38424 	muli	r3,r2,3600
  80b944:	e0bffc03 	ldbu	r2,-16(fp)
  80b948:	10800f24 	muli	r2,r2,60
  80b94c:	1887883a 	add	r3,r3,r2
  80b950:	e0bffd03 	ldbu	r2,-12(fp)
  80b954:	1885883a 	add	r2,r3,r2
  80b958:	1400fa24 	muli	r16,r2,1000
  80b95c:	e0bffe0b 	ldhu	r2,-8(fp)
  80b960:	1100fa24 	muli	r4,r2,1000
  80b964:	0140fa04 	movi	r5,1000
  80b968:	080ec680 	call	80ec68 <__udivsi3>
  80b96c:	8085883a 	add	r2,r16,r2
  80b970:	e0bffa15 	stw	r2,-24(fp)
  80b974:	e0bffa17 	ldw	r2,-24(fp)
  80b978:	1004d43a 	srli	r2,r2,16
  80b97c:	e0bff90d 	sth	r2,-28(fp)
  80b980:	e0bffa17 	ldw	r2,-24(fp)
  80b984:	10bfffcc 	andi	r2,r2,65535
  80b988:	e0bffa15 	stw	r2,-24(fp)
  80b98c:	e0bffa17 	ldw	r2,-24(fp)
  80b990:	113fffcc 	andi	r4,r2,65535
  80b994:	080b7240 	call	80b724 <OSTimeDly>
  80b998:	00000706 	br	80b9b8 <OSTimeDlyHMSM+0x148>
  80b99c:	01200014 	movui	r4,32768
  80b9a0:	080b7240 	call	80b724 <OSTimeDly>
  80b9a4:	01200014 	movui	r4,32768
  80b9a8:	080b7240 	call	80b724 <OSTimeDly>
  80b9ac:	e0bff90b 	ldhu	r2,-28(fp)
  80b9b0:	10bfffc4 	addi	r2,r2,-1
  80b9b4:	e0bff90d 	sth	r2,-28(fp)
  80b9b8:	e0bff90b 	ldhu	r2,-28(fp)
  80b9bc:	1004c03a 	cmpne	r2,r2,zero
  80b9c0:	103ff61e 	bne	r2,zero,80b99c <OSTimeDlyHMSM+0x12c>
  80b9c4:	e03fff15 	stw	zero,-4(fp)
  80b9c8:	e0bfff17 	ldw	r2,-4(fp)
  80b9cc:	e037883a 	mov	sp,fp
  80b9d0:	dfc00217 	ldw	ra,8(sp)
  80b9d4:	df000117 	ldw	fp,4(sp)
  80b9d8:	dc000017 	ldw	r16,0(sp)
  80b9dc:	dec00304 	addi	sp,sp,12
  80b9e0:	f800283a 	ret

0080b9e4 <OSTimeDlyResume>:
  80b9e4:	defff404 	addi	sp,sp,-48
  80b9e8:	dfc00b15 	stw	ra,44(sp)
  80b9ec:	df000a15 	stw	fp,40(sp)
  80b9f0:	df000a04 	addi	fp,sp,40
  80b9f4:	e13ffe05 	stb	r4,-8(fp)
  80b9f8:	e03ffc15 	stw	zero,-16(fp)
  80b9fc:	e0bffe03 	ldbu	r2,-8(fp)
  80ba00:	10800530 	cmpltui	r2,r2,20
  80ba04:	1000031e 	bne	r2,zero,80ba14 <OSTimeDlyResume+0x30>
  80ba08:	00800a84 	movi	r2,42
  80ba0c:	e0bfff15 	stw	r2,-4(fp)
  80ba10:	00007206 	br	80bbdc <OSTimeDlyResume+0x1f8>
  80ba14:	0005303a 	rdctl	r2,status
  80ba18:	e0bffb15 	stw	r2,-20(fp)
  80ba1c:	e0fffb17 	ldw	r3,-20(fp)
  80ba20:	00bfff84 	movi	r2,-2
  80ba24:	1884703a 	and	r2,r3,r2
  80ba28:	1001703a 	wrctl	status,r2
  80ba2c:	e0bffb17 	ldw	r2,-20(fp)
  80ba30:	e0bffc15 	stw	r2,-16(fp)
  80ba34:	e0bffe03 	ldbu	r2,-8(fp)
  80ba38:	00c020b4 	movhi	r3,130
  80ba3c:	18e61404 	addi	r3,r3,-26544
  80ba40:	1085883a 	add	r2,r2,r2
  80ba44:	1085883a 	add	r2,r2,r2
  80ba48:	10c5883a 	add	r2,r2,r3
  80ba4c:	10800017 	ldw	r2,0(r2)
  80ba50:	e0bffd15 	stw	r2,-12(fp)
  80ba54:	e0bffd17 	ldw	r2,-12(fp)
  80ba58:	1004c03a 	cmpne	r2,r2,zero
  80ba5c:	1000071e 	bne	r2,zero,80ba7c <OSTimeDlyResume+0x98>
  80ba60:	e0bffc17 	ldw	r2,-16(fp)
  80ba64:	e0bffa15 	stw	r2,-24(fp)
  80ba68:	e0bffa17 	ldw	r2,-24(fp)
  80ba6c:	1001703a 	wrctl	status,r2
  80ba70:	008010c4 	movi	r2,67
  80ba74:	e0bfff15 	stw	r2,-4(fp)
  80ba78:	00005806 	br	80bbdc <OSTimeDlyResume+0x1f8>
  80ba7c:	e0bffd17 	ldw	r2,-12(fp)
  80ba80:	10800058 	cmpnei	r2,r2,1
  80ba84:	1000071e 	bne	r2,zero,80baa4 <OSTimeDlyResume+0xc0>
  80ba88:	e0bffc17 	ldw	r2,-16(fp)
  80ba8c:	e0bff915 	stw	r2,-28(fp)
  80ba90:	e0bff917 	ldw	r2,-28(fp)
  80ba94:	1001703a 	wrctl	status,r2
  80ba98:	008010c4 	movi	r2,67
  80ba9c:	e0bfff15 	stw	r2,-4(fp)
  80baa0:	00004e06 	br	80bbdc <OSTimeDlyResume+0x1f8>
  80baa4:	e0bffd17 	ldw	r2,-12(fp)
  80baa8:	10800b8b 	ldhu	r2,46(r2)
  80baac:	10bfffcc 	andi	r2,r2,65535
  80bab0:	1004c03a 	cmpne	r2,r2,zero
  80bab4:	1000071e 	bne	r2,zero,80bad4 <OSTimeDlyResume+0xf0>
  80bab8:	e0bffc17 	ldw	r2,-16(fp)
  80babc:	e0bff815 	stw	r2,-32(fp)
  80bac0:	e0bff817 	ldw	r2,-32(fp)
  80bac4:	1001703a 	wrctl	status,r2
  80bac8:	00801404 	movi	r2,80
  80bacc:	e0bfff15 	stw	r2,-4(fp)
  80bad0:	00004206 	br	80bbdc <OSTimeDlyResume+0x1f8>
  80bad4:	e0bffd17 	ldw	r2,-12(fp)
  80bad8:	10000b8d 	sth	zero,46(r2)
  80badc:	e0bffd17 	ldw	r2,-12(fp)
  80bae0:	10800c03 	ldbu	r2,48(r2)
  80bae4:	10803fcc 	andi	r2,r2,255
  80bae8:	10800dcc 	andi	r2,r2,55
  80baec:	1005003a 	cmpeq	r2,r2,zero
  80baf0:	10000b1e 	bne	r2,zero,80bb20 <OSTimeDlyResume+0x13c>
  80baf4:	e0bffd17 	ldw	r2,-12(fp)
  80baf8:	10c00c03 	ldbu	r3,48(r2)
  80bafc:	00bff204 	movi	r2,-56
  80bb00:	1884703a 	and	r2,r3,r2
  80bb04:	1007883a 	mov	r3,r2
  80bb08:	e0bffd17 	ldw	r2,-12(fp)
  80bb0c:	10c00c05 	stb	r3,48(r2)
  80bb10:	e0fffd17 	ldw	r3,-12(fp)
  80bb14:	00800044 	movi	r2,1
  80bb18:	18800c45 	stb	r2,49(r3)
  80bb1c:	00000206 	br	80bb28 <OSTimeDlyResume+0x144>
  80bb20:	e0bffd17 	ldw	r2,-12(fp)
  80bb24:	10000c45 	stb	zero,49(r2)
  80bb28:	e0bffd17 	ldw	r2,-12(fp)
  80bb2c:	10800c03 	ldbu	r2,48(r2)
  80bb30:	10803fcc 	andi	r2,r2,255
  80bb34:	1080020c 	andi	r2,r2,8
  80bb38:	1004c03a 	cmpne	r2,r2,zero
  80bb3c:	1000221e 	bne	r2,zero,80bbc8 <OSTimeDlyResume+0x1e4>
  80bb40:	e0bffd17 	ldw	r2,-12(fp)
  80bb44:	10c00d83 	ldbu	r3,54(r2)
  80bb48:	00802074 	movhi	r2,129
  80bb4c:	10898b04 	addi	r2,r2,9772
  80bb50:	10800003 	ldbu	r2,0(r2)
  80bb54:	1884b03a 	or	r2,r3,r2
  80bb58:	1007883a 	mov	r3,r2
  80bb5c:	00802074 	movhi	r2,129
  80bb60:	10898b04 	addi	r2,r2,9772
  80bb64:	10c00005 	stb	r3,0(r2)
  80bb68:	e0bffd17 	ldw	r2,-12(fp)
  80bb6c:	10800d03 	ldbu	r2,52(r2)
  80bb70:	11003fcc 	andi	r4,r2,255
  80bb74:	e0bffd17 	ldw	r2,-12(fp)
  80bb78:	10800d03 	ldbu	r2,52(r2)
  80bb7c:	10c03fcc 	andi	r3,r2,255
  80bb80:	00802074 	movhi	r2,129
  80bb84:	10898b44 	addi	r2,r2,9773
  80bb88:	10c5883a 	add	r2,r2,r3
  80bb8c:	10c00003 	ldbu	r3,0(r2)
  80bb90:	e0bffd17 	ldw	r2,-12(fp)
  80bb94:	10800d43 	ldbu	r2,53(r2)
  80bb98:	1884b03a 	or	r2,r3,r2
  80bb9c:	1007883a 	mov	r3,r2
  80bba0:	00802074 	movhi	r2,129
  80bba4:	10898b44 	addi	r2,r2,9773
  80bba8:	1105883a 	add	r2,r2,r4
  80bbac:	10c00005 	stb	r3,0(r2)
  80bbb0:	e0bffc17 	ldw	r2,-16(fp)
  80bbb4:	e0bff715 	stw	r2,-36(fp)
  80bbb8:	e0bff717 	ldw	r2,-36(fp)
  80bbbc:	1001703a 	wrctl	status,r2
  80bbc0:	08054300 	call	805430 <OS_Sched>
  80bbc4:	00000406 	br	80bbd8 <OSTimeDlyResume+0x1f4>
  80bbc8:	e0bffc17 	ldw	r2,-16(fp)
  80bbcc:	e0bff615 	stw	r2,-40(fp)
  80bbd0:	e0bff617 	ldw	r2,-40(fp)
  80bbd4:	1001703a 	wrctl	status,r2
  80bbd8:	e03fff15 	stw	zero,-4(fp)
  80bbdc:	e0bfff17 	ldw	r2,-4(fp)
  80bbe0:	e037883a 	mov	sp,fp
  80bbe4:	dfc00117 	ldw	ra,4(sp)
  80bbe8:	df000017 	ldw	fp,0(sp)
  80bbec:	dec00204 	addi	sp,sp,8
  80bbf0:	f800283a 	ret

0080bbf4 <OSTimeGet>:
  80bbf4:	defffb04 	addi	sp,sp,-20
  80bbf8:	df000415 	stw	fp,16(sp)
  80bbfc:	df000404 	addi	fp,sp,16
  80bc00:	e03ffe15 	stw	zero,-8(fp)
  80bc04:	0005303a 	rdctl	r2,status
  80bc08:	e0bffd15 	stw	r2,-12(fp)
  80bc0c:	e0fffd17 	ldw	r3,-12(fp)
  80bc10:	00bfff84 	movi	r2,-2
  80bc14:	1884703a 	and	r2,r3,r2
  80bc18:	1001703a 	wrctl	status,r2
  80bc1c:	e0bffd17 	ldw	r2,-12(fp)
  80bc20:	e0bffe15 	stw	r2,-8(fp)
  80bc24:	00802074 	movhi	r2,129
  80bc28:	10898f04 	addi	r2,r2,9788
  80bc2c:	10800017 	ldw	r2,0(r2)
  80bc30:	e0bfff15 	stw	r2,-4(fp)
  80bc34:	e0bffe17 	ldw	r2,-8(fp)
  80bc38:	e0bffc15 	stw	r2,-16(fp)
  80bc3c:	e0bffc17 	ldw	r2,-16(fp)
  80bc40:	1001703a 	wrctl	status,r2
  80bc44:	e0bfff17 	ldw	r2,-4(fp)
  80bc48:	e037883a 	mov	sp,fp
  80bc4c:	df000017 	ldw	fp,0(sp)
  80bc50:	dec00104 	addi	sp,sp,4
  80bc54:	f800283a 	ret

0080bc58 <OSTimeSet>:
  80bc58:	defffb04 	addi	sp,sp,-20
  80bc5c:	df000415 	stw	fp,16(sp)
  80bc60:	df000404 	addi	fp,sp,16
  80bc64:	e13fff15 	stw	r4,-4(fp)
  80bc68:	e03ffe15 	stw	zero,-8(fp)
  80bc6c:	0005303a 	rdctl	r2,status
  80bc70:	e0bffd15 	stw	r2,-12(fp)
  80bc74:	e0fffd17 	ldw	r3,-12(fp)
  80bc78:	00bfff84 	movi	r2,-2
  80bc7c:	1884703a 	and	r2,r3,r2
  80bc80:	1001703a 	wrctl	status,r2
  80bc84:	e0bffd17 	ldw	r2,-12(fp)
  80bc88:	e0bffe15 	stw	r2,-8(fp)
  80bc8c:	00c02074 	movhi	r3,129
  80bc90:	18c98f04 	addi	r3,r3,9788
  80bc94:	e0bfff17 	ldw	r2,-4(fp)
  80bc98:	18800015 	stw	r2,0(r3)
  80bc9c:	e0bffe17 	ldw	r2,-8(fp)
  80bca0:	e0bffc15 	stw	r2,-16(fp)
  80bca4:	e0bffc17 	ldw	r2,-16(fp)
  80bca8:	1001703a 	wrctl	status,r2
  80bcac:	e037883a 	mov	sp,fp
  80bcb0:	df000017 	ldw	fp,0(sp)
  80bcb4:	dec00104 	addi	sp,sp,4
  80bcb8:	f800283a 	ret

0080bcbc <alt_irq_init>:
  80bcbc:	defffd04 	addi	sp,sp,-12
  80bcc0:	dfc00215 	stw	ra,8(sp)
  80bcc4:	df000115 	stw	fp,4(sp)
  80bcc8:	df000104 	addi	fp,sp,4
  80bccc:	e13fff15 	stw	r4,-4(fp)
  80bcd0:	080dfd80 	call	80dfd8 <altera_nios2_qsys_irq_init>
  80bcd4:	00800044 	movi	r2,1
  80bcd8:	1001703a 	wrctl	status,r2
  80bcdc:	e037883a 	mov	sp,fp
  80bce0:	dfc00117 	ldw	ra,4(sp)
  80bce4:	df000017 	ldw	fp,0(sp)
  80bce8:	dec00204 	addi	sp,sp,8
  80bcec:	f800283a 	ret

0080bcf0 <alt_sys_init>:
  80bcf0:	defffd04 	addi	sp,sp,-12
  80bcf4:	dfc00215 	stw	ra,8(sp)
  80bcf8:	df000115 	stw	fp,4(sp)
  80bcfc:	df000104 	addi	fp,sp,4
  80bd00:	01004474 	movhi	r4,273
  80bd04:	21250004 	addi	r4,r4,-27648
  80bd08:	000b883a 	mov	r5,zero
  80bd0c:	000d883a 	mov	r6,zero
  80bd10:	01c0fa04 	movi	r7,1000
  80bd14:	080cd6c0 	call	80cd6c <alt_avalon_timer_sc_init>
  80bd18:	01002074 	movhi	r4,129
  80bd1c:	213e2b04 	addi	r4,r4,-1876
  80bd20:	000b883a 	mov	r5,zero
  80bd24:	01800044 	movi	r6,1
  80bd28:	080c0e80 	call	80c0e8 <altera_avalon_jtag_uart_init>
  80bd2c:	01002074 	movhi	r4,129
  80bd30:	213e2104 	addi	r4,r4,-1916
  80bd34:	080bf680 	call	80bf68 <alt_dev_reg>
  80bd38:	01002074 	movhi	r4,129
  80bd3c:	21023c04 	addi	r4,r4,2288
  80bd40:	080ceac0 	call	80ceac <alt_up_character_lcd_init>
  80bd44:	01002074 	movhi	r4,129
  80bd48:	21023c04 	addi	r4,r4,2288
  80bd4c:	080bf680 	call	80bf68 <alt_dev_reg>
  80bd50:	00802074 	movhi	r2,129
  80bd54:	10824704 	addi	r2,r2,2332
  80bd58:	10800a17 	ldw	r2,40(r2)
  80bd5c:	10800017 	ldw	r2,0(r2)
  80bd60:	1007883a 	mov	r3,r2
  80bd64:	00802074 	movhi	r2,129
  80bd68:	10824704 	addi	r2,r2,2332
  80bd6c:	10c00b15 	stw	r3,44(r2)
  80bd70:	00802074 	movhi	r2,129
  80bd74:	10824704 	addi	r2,r2,2332
  80bd78:	10800a17 	ldw	r2,40(r2)
  80bd7c:	10800104 	addi	r2,r2,4
  80bd80:	10800017 	ldw	r2,0(r2)
  80bd84:	1007883a 	mov	r3,r2
  80bd88:	00802074 	movhi	r2,129
  80bd8c:	10824704 	addi	r2,r2,2332
  80bd90:	10c00c15 	stw	r3,48(r2)
  80bd94:	00802074 	movhi	r2,129
  80bd98:	10824704 	addi	r2,r2,2332
  80bd9c:	10800a17 	ldw	r2,40(r2)
  80bda0:	10800204 	addi	r2,r2,8
  80bda4:	10800017 	ldw	r2,0(r2)
  80bda8:	10ffffcc 	andi	r3,r2,65535
  80bdac:	00802074 	movhi	r2,129
  80bdb0:	10824704 	addi	r2,r2,2332
  80bdb4:	10c00f15 	stw	r3,60(r2)
  80bdb8:	00802074 	movhi	r2,129
  80bdbc:	10824704 	addi	r2,r2,2332
  80bdc0:	10800a17 	ldw	r2,40(r2)
  80bdc4:	10800204 	addi	r2,r2,8
  80bdc8:	10800017 	ldw	r2,0(r2)
  80bdcc:	1005d43a 	srai	r2,r2,16
  80bdd0:	10ffffcc 	andi	r3,r2,65535
  80bdd4:	00802074 	movhi	r2,129
  80bdd8:	10824704 	addi	r2,r2,2332
  80bddc:	10c01015 	stw	r3,64(r2)
  80bde0:	00802074 	movhi	r2,129
  80bde4:	10824704 	addi	r2,r2,2332
  80bde8:	10800a17 	ldw	r2,40(r2)
  80bdec:	10800304 	addi	r2,r2,12
  80bdf0:	10800017 	ldw	r2,0(r2)
  80bdf4:	1005d07a 	srai	r2,r2,1
  80bdf8:	10c0004c 	andi	r3,r2,1
  80bdfc:	00802074 	movhi	r2,129
  80be00:	10824704 	addi	r2,r2,2332
  80be04:	10c00d15 	stw	r3,52(r2)
  80be08:	00802074 	movhi	r2,129
  80be0c:	10824704 	addi	r2,r2,2332
  80be10:	10800a17 	ldw	r2,40(r2)
  80be14:	10800304 	addi	r2,r2,12
  80be18:	10800017 	ldw	r2,0(r2)
  80be1c:	1005d13a 	srai	r2,r2,4
  80be20:	10c003cc 	andi	r3,r2,15
  80be24:	00802074 	movhi	r2,129
  80be28:	10824704 	addi	r2,r2,2332
  80be2c:	10c00e15 	stw	r3,56(r2)
  80be30:	00802074 	movhi	r2,129
  80be34:	10824704 	addi	r2,r2,2332
  80be38:	10800a17 	ldw	r2,40(r2)
  80be3c:	10800304 	addi	r2,r2,12
  80be40:	10800017 	ldw	r2,0(r2)
  80be44:	1005d43a 	srai	r2,r2,16
  80be48:	1007883a 	mov	r3,r2
  80be4c:	00bfffc4 	movi	r2,-1
  80be50:	1884703a 	and	r2,r3,r2
  80be54:	e0bfff45 	stb	r2,-3(fp)
  80be58:	00802074 	movhi	r2,129
  80be5c:	10824704 	addi	r2,r2,2332
  80be60:	10800a17 	ldw	r2,40(r2)
  80be64:	10800304 	addi	r2,r2,12
  80be68:	10800017 	ldw	r2,0(r2)
  80be6c:	1005d63a 	srai	r2,r2,24
  80be70:	1007883a 	mov	r3,r2
  80be74:	00bfffc4 	movi	r2,-1
  80be78:	1884703a 	and	r2,r3,r2
  80be7c:	e0bfff05 	stb	r2,-4(fp)
  80be80:	00802074 	movhi	r2,129
  80be84:	10824704 	addi	r2,r2,2332
  80be88:	10800e17 	ldw	r2,56(r2)
  80be8c:	10800058 	cmpnei	r2,r2,1
  80be90:	1000041e 	bne	r2,zero,80bea4 <alt_sys_init+0x1b4>
  80be94:	00802074 	movhi	r2,129
  80be98:	10824704 	addi	r2,r2,2332
  80be9c:	10001115 	stw	zero,68(r2)
  80bea0:	00000e06 	br	80bedc <alt_sys_init+0x1ec>
  80bea4:	00802074 	movhi	r2,129
  80bea8:	10824704 	addi	r2,r2,2332
  80beac:	10800e17 	ldw	r2,56(r2)
  80beb0:	10800098 	cmpnei	r2,r2,2
  80beb4:	1000051e 	bne	r2,zero,80becc <alt_sys_init+0x1dc>
  80beb8:	00c02074 	movhi	r3,129
  80bebc:	18c24704 	addi	r3,r3,2332
  80bec0:	00800044 	movi	r2,1
  80bec4:	18801115 	stw	r2,68(r3)
  80bec8:	00000406 	br	80bedc <alt_sys_init+0x1ec>
  80becc:	00c02074 	movhi	r3,129
  80bed0:	18c24704 	addi	r3,r3,2332
  80bed4:	00800084 	movi	r2,2
  80bed8:	18801115 	stw	r2,68(r3)
  80bedc:	e0ffff43 	ldbu	r3,-3(fp)
  80bee0:	00800804 	movi	r2,32
  80bee4:	10c7c83a 	sub	r3,r2,r3
  80bee8:	00bfffc4 	movi	r2,-1
  80beec:	10c6d83a 	srl	r3,r2,r3
  80bef0:	00802074 	movhi	r2,129
  80bef4:	10824704 	addi	r2,r2,2332
  80bef8:	10c01215 	stw	r3,72(r2)
  80befc:	e0ffff43 	ldbu	r3,-3(fp)
  80bf00:	00802074 	movhi	r2,129
  80bf04:	10824704 	addi	r2,r2,2332
  80bf08:	10801117 	ldw	r2,68(r2)
  80bf0c:	1887883a 	add	r3,r3,r2
  80bf10:	00802074 	movhi	r2,129
  80bf14:	10824704 	addi	r2,r2,2332
  80bf18:	10c01315 	stw	r3,76(r2)
  80bf1c:	e0ffff03 	ldbu	r3,-4(fp)
  80bf20:	00800804 	movi	r2,32
  80bf24:	10c7c83a 	sub	r3,r2,r3
  80bf28:	00bfffc4 	movi	r2,-1
  80bf2c:	10c6d83a 	srl	r3,r2,r3
  80bf30:	00802074 	movhi	r2,129
  80bf34:	10824704 	addi	r2,r2,2332
  80bf38:	10c01415 	stw	r3,80(r2)
  80bf3c:	01002074 	movhi	r4,129
  80bf40:	21024704 	addi	r4,r4,2332
  80bf44:	080bf680 	call	80bf68 <alt_dev_reg>
  80bf48:	01002074 	movhi	r4,129
  80bf4c:	21025c04 	addi	r4,r4,2416
  80bf50:	080bf680 	call	80bf68 <alt_dev_reg>
  80bf54:	e037883a 	mov	sp,fp
  80bf58:	dfc00117 	ldw	ra,4(sp)
  80bf5c:	df000017 	ldw	fp,0(sp)
  80bf60:	dec00204 	addi	sp,sp,8
  80bf64:	f800283a 	ret

0080bf68 <alt_dev_reg>:
  80bf68:	defffd04 	addi	sp,sp,-12
  80bf6c:	dfc00215 	stw	ra,8(sp)
  80bf70:	df000115 	stw	fp,4(sp)
  80bf74:	df000104 	addi	fp,sp,4
  80bf78:	e13fff15 	stw	r4,-4(fp)
  80bf7c:	e13fff17 	ldw	r4,-4(fp)
  80bf80:	01402074 	movhi	r5,129
  80bf84:	29426d04 	addi	r5,r5,2484
  80bf88:	080d4c40 	call	80d4c4 <alt_dev_llist_insert>
  80bf8c:	e037883a 	mov	sp,fp
  80bf90:	dfc00117 	ldw	ra,4(sp)
  80bf94:	df000017 	ldw	fp,0(sp)
  80bf98:	dec00204 	addi	sp,sp,8
  80bf9c:	f800283a 	ret

0080bfa0 <altera_avalon_jtag_uart_read_fd>:
  80bfa0:	defffa04 	addi	sp,sp,-24
  80bfa4:	dfc00515 	stw	ra,20(sp)
  80bfa8:	df000415 	stw	fp,16(sp)
  80bfac:	df000404 	addi	fp,sp,16
  80bfb0:	e13ffd15 	stw	r4,-12(fp)
  80bfb4:	e17ffe15 	stw	r5,-8(fp)
  80bfb8:	e1bfff15 	stw	r6,-4(fp)
  80bfbc:	e0bffd17 	ldw	r2,-12(fp)
  80bfc0:	10800017 	ldw	r2,0(r2)
  80bfc4:	e0bffc15 	stw	r2,-16(fp)
  80bfc8:	e0bffc17 	ldw	r2,-16(fp)
  80bfcc:	11000a04 	addi	r4,r2,40
  80bfd0:	e0bffd17 	ldw	r2,-12(fp)
  80bfd4:	11c00217 	ldw	r7,8(r2)
  80bfd8:	e17ffe17 	ldw	r5,-8(fp)
  80bfdc:	e1bfff17 	ldw	r6,-4(fp)
  80bfe0:	080c7600 	call	80c760 <altera_avalon_jtag_uart_read>
  80bfe4:	e037883a 	mov	sp,fp
  80bfe8:	dfc00117 	ldw	ra,4(sp)
  80bfec:	df000017 	ldw	fp,0(sp)
  80bff0:	dec00204 	addi	sp,sp,8
  80bff4:	f800283a 	ret

0080bff8 <altera_avalon_jtag_uart_write_fd>:
  80bff8:	defffa04 	addi	sp,sp,-24
  80bffc:	dfc00515 	stw	ra,20(sp)
  80c000:	df000415 	stw	fp,16(sp)
  80c004:	df000404 	addi	fp,sp,16
  80c008:	e13ffd15 	stw	r4,-12(fp)
  80c00c:	e17ffe15 	stw	r5,-8(fp)
  80c010:	e1bfff15 	stw	r6,-4(fp)
  80c014:	e0bffd17 	ldw	r2,-12(fp)
  80c018:	10800017 	ldw	r2,0(r2)
  80c01c:	e0bffc15 	stw	r2,-16(fp)
  80c020:	e0bffc17 	ldw	r2,-16(fp)
  80c024:	11000a04 	addi	r4,r2,40
  80c028:	e0bffd17 	ldw	r2,-12(fp)
  80c02c:	11c00217 	ldw	r7,8(r2)
  80c030:	e17ffe17 	ldw	r5,-8(fp)
  80c034:	e1bfff17 	ldw	r6,-4(fp)
  80c038:	080ca200 	call	80ca20 <altera_avalon_jtag_uart_write>
  80c03c:	e037883a 	mov	sp,fp
  80c040:	dfc00117 	ldw	ra,4(sp)
  80c044:	df000017 	ldw	fp,0(sp)
  80c048:	dec00204 	addi	sp,sp,8
  80c04c:	f800283a 	ret

0080c050 <altera_avalon_jtag_uart_close_fd>:
  80c050:	defffc04 	addi	sp,sp,-16
  80c054:	dfc00315 	stw	ra,12(sp)
  80c058:	df000215 	stw	fp,8(sp)
  80c05c:	df000204 	addi	fp,sp,8
  80c060:	e13fff15 	stw	r4,-4(fp)
  80c064:	e0bfff17 	ldw	r2,-4(fp)
  80c068:	10800017 	ldw	r2,0(r2)
  80c06c:	e0bffe15 	stw	r2,-8(fp)
  80c070:	e0bffe17 	ldw	r2,-8(fp)
  80c074:	11000a04 	addi	r4,r2,40
  80c078:	e0bfff17 	ldw	r2,-4(fp)
  80c07c:	11400217 	ldw	r5,8(r2)
  80c080:	080c5f80 	call	80c5f8 <altera_avalon_jtag_uart_close>
  80c084:	e037883a 	mov	sp,fp
  80c088:	dfc00117 	ldw	ra,4(sp)
  80c08c:	df000017 	ldw	fp,0(sp)
  80c090:	dec00204 	addi	sp,sp,8
  80c094:	f800283a 	ret

0080c098 <altera_avalon_jtag_uart_ioctl_fd>:
  80c098:	defffa04 	addi	sp,sp,-24
  80c09c:	dfc00515 	stw	ra,20(sp)
  80c0a0:	df000415 	stw	fp,16(sp)
  80c0a4:	df000404 	addi	fp,sp,16
  80c0a8:	e13ffd15 	stw	r4,-12(fp)
  80c0ac:	e17ffe15 	stw	r5,-8(fp)
  80c0b0:	e1bfff15 	stw	r6,-4(fp)
  80c0b4:	e0bffd17 	ldw	r2,-12(fp)
  80c0b8:	10800017 	ldw	r2,0(r2)
  80c0bc:	e0bffc15 	stw	r2,-16(fp)
  80c0c0:	e0bffc17 	ldw	r2,-16(fp)
  80c0c4:	11000a04 	addi	r4,r2,40
  80c0c8:	e17ffe17 	ldw	r5,-8(fp)
  80c0cc:	e1bfff17 	ldw	r6,-4(fp)
  80c0d0:	080c66c0 	call	80c66c <altera_avalon_jtag_uart_ioctl>
  80c0d4:	e037883a 	mov	sp,fp
  80c0d8:	dfc00117 	ldw	ra,4(sp)
  80c0dc:	df000017 	ldw	fp,0(sp)
  80c0e0:	dec00204 	addi	sp,sp,8
  80c0e4:	f800283a 	ret

0080c0e8 <altera_avalon_jtag_uart_init>:
  80c0e8:	defff404 	addi	sp,sp,-48
  80c0ec:	dfc00b15 	stw	ra,44(sp)
  80c0f0:	df000a15 	stw	fp,40(sp)
  80c0f4:	df000a04 	addi	fp,sp,40
  80c0f8:	e13ffd15 	stw	r4,-12(fp)
  80c0fc:	e17ffe15 	stw	r5,-8(fp)
  80c100:	e1bfff15 	stw	r6,-4(fp)
  80c104:	e0bffd17 	ldw	r2,-12(fp)
  80c108:	10800c04 	addi	r2,r2,48
  80c10c:	e0bffb15 	stw	r2,-20(fp)
  80c110:	e03ffc0d 	sth	zero,-16(fp)
  80c114:	e13ffc0b 	ldhu	r4,-16(fp)
  80c118:	e17ffc84 	addi	r5,fp,-14
  80c11c:	0805fd80 	call	805fd8 <OSFlagCreate>
  80c120:	1007883a 	mov	r3,r2
  80c124:	e0bffb17 	ldw	r2,-20(fp)
  80c128:	10c00015 	stw	r3,0(r2)
  80c12c:	e0bffd17 	ldw	r2,-12(fp)
  80c130:	10800a04 	addi	r2,r2,40
  80c134:	e0bff915 	stw	r2,-28(fp)
  80c138:	00800044 	movi	r2,1
  80c13c:	e0bffa0d 	sth	r2,-24(fp)
  80c140:	e13ffa0b 	ldhu	r4,-24(fp)
  80c144:	08091dc0 	call	8091dc <OSSemCreate>
  80c148:	1007883a 	mov	r3,r2
  80c14c:	e0bff917 	ldw	r2,-28(fp)
  80c150:	10c00015 	stw	r3,0(r2)
  80c154:	e0bffd17 	ldw	r2,-12(fp)
  80c158:	10800b04 	addi	r2,r2,44
  80c15c:	e0bff715 	stw	r2,-36(fp)
  80c160:	00800044 	movi	r2,1
  80c164:	e0bff80d 	sth	r2,-32(fp)
  80c168:	e13ff80b 	ldhu	r4,-32(fp)
  80c16c:	08091dc0 	call	8091dc <OSSemCreate>
  80c170:	1007883a 	mov	r3,r2
  80c174:	e0bff717 	ldw	r2,-36(fp)
  80c178:	10c00015 	stw	r3,0(r2)
  80c17c:	e0fffd17 	ldw	r3,-12(fp)
  80c180:	00800044 	movi	r2,1
  80c184:	18800815 	stw	r2,32(r3)
  80c188:	e0bffd17 	ldw	r2,-12(fp)
  80c18c:	10800017 	ldw	r2,0(r2)
  80c190:	11000104 	addi	r4,r2,4
  80c194:	e0bffd17 	ldw	r2,-12(fp)
  80c198:	10800817 	ldw	r2,32(r2)
  80c19c:	1007883a 	mov	r3,r2
  80c1a0:	2005883a 	mov	r2,r4
  80c1a4:	10c00035 	stwio	r3,0(r2)
  80c1a8:	e13ffe17 	ldw	r4,-8(fp)
  80c1ac:	e17fff17 	ldw	r5,-4(fp)
  80c1b0:	d8000015 	stw	zero,0(sp)
  80c1b4:	01802074 	movhi	r6,129
  80c1b8:	31b08804 	addi	r6,r6,-15840
  80c1bc:	e1fffd17 	ldw	r7,-12(fp)
  80c1c0:	080d7640 	call	80d764 <alt_ic_isr_register>
  80c1c4:	e0bffd17 	ldw	r2,-12(fp)
  80c1c8:	10000915 	stw	zero,36(r2)
  80c1cc:	e0bffd17 	ldw	r2,-12(fp)
  80c1d0:	11000204 	addi	r4,r2,8
  80c1d4:	00802074 	movhi	r2,129
  80c1d8:	10899404 	addi	r2,r2,9808
  80c1dc:	10800017 	ldw	r2,0(r2)
  80c1e0:	100b883a 	mov	r5,r2
  80c1e4:	01802074 	movhi	r6,129
  80c1e8:	31b13904 	addi	r6,r6,-15132
  80c1ec:	e1fffd17 	ldw	r7,-12(fp)
  80c1f0:	080d32c0 	call	80d32c <alt_alarm_start>
  80c1f4:	1004403a 	cmpge	r2,r2,zero
  80c1f8:	1000041e 	bne	r2,zero,80c20c <altera_avalon_jtag_uart_init+0x124>
  80c1fc:	e0fffd17 	ldw	r3,-12(fp)
  80c200:	00a00034 	movhi	r2,32768
  80c204:	10bfffc4 	addi	r2,r2,-1
  80c208:	18800115 	stw	r2,4(r3)
  80c20c:	e037883a 	mov	sp,fp
  80c210:	dfc00117 	ldw	ra,4(sp)
  80c214:	df000017 	ldw	fp,0(sp)
  80c218:	dec00204 	addi	sp,sp,8
  80c21c:	f800283a 	ret

0080c220 <altera_avalon_jtag_uart_irq>:
  80c220:	defff204 	addi	sp,sp,-56
  80c224:	dfc00d15 	stw	ra,52(sp)
  80c228:	df000c15 	stw	fp,48(sp)
  80c22c:	df000c04 	addi	fp,sp,48
  80c230:	e13fff15 	stw	r4,-4(fp)
  80c234:	e0bfff17 	ldw	r2,-4(fp)
  80c238:	e0bffd15 	stw	r2,-12(fp)
  80c23c:	e0bffd17 	ldw	r2,-12(fp)
  80c240:	10800017 	ldw	r2,0(r2)
  80c244:	e0bffc15 	stw	r2,-16(fp)
  80c248:	00000006 	br	80c24c <altera_avalon_jtag_uart_irq+0x2c>
  80c24c:	e0bffc17 	ldw	r2,-16(fp)
  80c250:	10800104 	addi	r2,r2,4
  80c254:	10800037 	ldwio	r2,0(r2)
  80c258:	e0bffb15 	stw	r2,-20(fp)
  80c25c:	e0bffb17 	ldw	r2,-20(fp)
  80c260:	1080c00c 	andi	r2,r2,768
  80c264:	1005003a 	cmpeq	r2,r2,zero
  80c268:	1000991e 	bne	r2,zero,80c4d0 <altera_avalon_jtag_uart_irq+0x2b0>
  80c26c:	e0bffb17 	ldw	r2,-20(fp)
  80c270:	1080400c 	andi	r2,r2,256
  80c274:	1005003a 	cmpeq	r2,r2,zero
  80c278:	1000481e 	bne	r2,zero,80c39c <altera_avalon_jtag_uart_irq+0x17c>
  80c27c:	00800074 	movhi	r2,1
  80c280:	e0bffa15 	stw	r2,-24(fp)
  80c284:	00000006 	br	80c288 <altera_avalon_jtag_uart_irq+0x68>
  80c288:	e0bffd17 	ldw	r2,-12(fp)
  80c28c:	10800d17 	ldw	r2,52(r2)
  80c290:	10800044 	addi	r2,r2,1
  80c294:	1081ffcc 	andi	r2,r2,2047
  80c298:	e0bff915 	stw	r2,-28(fp)
  80c29c:	e0bffd17 	ldw	r2,-12(fp)
  80c2a0:	10c00e17 	ldw	r3,56(r2)
  80c2a4:	e0bff917 	ldw	r2,-28(fp)
  80c2a8:	18802826 	beq	r3,r2,80c34c <altera_avalon_jtag_uart_irq+0x12c>
  80c2ac:	e0bffc17 	ldw	r2,-16(fp)
  80c2b0:	10800037 	ldwio	r2,0(r2)
  80c2b4:	e0bffa15 	stw	r2,-24(fp)
  80c2b8:	e0bffa17 	ldw	r2,-24(fp)
  80c2bc:	10a0000c 	andi	r2,r2,32768
  80c2c0:	1005003a 	cmpeq	r2,r2,zero
  80c2c4:	1000211e 	bne	r2,zero,80c34c <altera_avalon_jtag_uart_irq+0x12c>
  80c2c8:	e0bffd17 	ldw	r2,-12(fp)
  80c2cc:	10c00d17 	ldw	r3,52(r2)
  80c2d0:	e0bffa17 	ldw	r2,-24(fp)
  80c2d4:	1009883a 	mov	r4,r2
  80c2d8:	e0bffd17 	ldw	r2,-12(fp)
  80c2dc:	1885883a 	add	r2,r3,r2
  80c2e0:	10801104 	addi	r2,r2,68
  80c2e4:	11000005 	stb	r4,0(r2)
  80c2e8:	e0bffd17 	ldw	r2,-12(fp)
  80c2ec:	10800d17 	ldw	r2,52(r2)
  80c2f0:	10800044 	addi	r2,r2,1
  80c2f4:	10c1ffcc 	andi	r3,r2,2047
  80c2f8:	e0bffd17 	ldw	r2,-12(fp)
  80c2fc:	10c00d15 	stw	r3,52(r2)
  80c300:	e0bffd17 	ldw	r2,-12(fp)
  80c304:	10800c17 	ldw	r2,48(r2)
  80c308:	e0bff615 	stw	r2,-40(fp)
  80c30c:	00800044 	movi	r2,1
  80c310:	e0bff70d 	sth	r2,-36(fp)
  80c314:	00800044 	movi	r2,1
  80c318:	e0bff785 	stb	r2,-34(fp)
  80c31c:	00802074 	movhi	r2,129
  80c320:	10897f44 	addi	r2,r2,9725
  80c324:	10800003 	ldbu	r2,0(r2)
  80c328:	10803fcc 	andi	r2,r2,255
  80c32c:	1005003a 	cmpeq	r2,r2,zero
  80c330:	103fd51e 	bne	r2,zero,80c288 <altera_avalon_jtag_uart_irq+0x68>
  80c334:	e17ff70b 	ldhu	r5,-36(fp)
  80c338:	e1bff783 	ldbu	r6,-34(fp)
  80c33c:	e1fffe04 	addi	r7,fp,-8
  80c340:	e13ff617 	ldw	r4,-40(fp)
  80c344:	0806d000 	call	806d00 <OSFlagPost>
  80c348:	003fcf06 	br	80c288 <altera_avalon_jtag_uart_irq+0x68>
  80c34c:	e0bffa17 	ldw	r2,-24(fp)
  80c350:	10bfffec 	andhi	r2,r2,65535
  80c354:	1005003a 	cmpeq	r2,r2,zero
  80c358:	1000101e 	bne	r2,zero,80c39c <altera_avalon_jtag_uart_irq+0x17c>
  80c35c:	e0bffd17 	ldw	r2,-12(fp)
  80c360:	10c00817 	ldw	r3,32(r2)
  80c364:	00bfff84 	movi	r2,-2
  80c368:	1886703a 	and	r3,r3,r2
  80c36c:	e0bffd17 	ldw	r2,-12(fp)
  80c370:	10c00815 	stw	r3,32(r2)
  80c374:	e0bffc17 	ldw	r2,-16(fp)
  80c378:	11000104 	addi	r4,r2,4
  80c37c:	e0bffd17 	ldw	r2,-12(fp)
  80c380:	10800817 	ldw	r2,32(r2)
  80c384:	1007883a 	mov	r3,r2
  80c388:	2005883a 	mov	r2,r4
  80c38c:	10c00035 	stwio	r3,0(r2)
  80c390:	e0bffc17 	ldw	r2,-16(fp)
  80c394:	10800104 	addi	r2,r2,4
  80c398:	10800037 	ldwio	r2,0(r2)
  80c39c:	e0bffb17 	ldw	r2,-20(fp)
  80c3a0:	1080800c 	andi	r2,r2,512
  80c3a4:	1005003a 	cmpeq	r2,r2,zero
  80c3a8:	103fa81e 	bne	r2,zero,80c24c <altera_avalon_jtag_uart_irq+0x2c>
  80c3ac:	e0bffb17 	ldw	r2,-20(fp)
  80c3b0:	10bfffec 	andhi	r2,r2,65535
  80c3b4:	1004d43a 	srli	r2,r2,16
  80c3b8:	e0bff815 	stw	r2,-32(fp)
  80c3bc:	00002706 	br	80c45c <altera_avalon_jtag_uart_irq+0x23c>
  80c3c0:	e13ffc17 	ldw	r4,-16(fp)
  80c3c4:	e0bffd17 	ldw	r2,-12(fp)
  80c3c8:	10c01017 	ldw	r3,64(r2)
  80c3cc:	e0bffd17 	ldw	r2,-12(fp)
  80c3d0:	1885883a 	add	r2,r3,r2
  80c3d4:	10821104 	addi	r2,r2,2116
  80c3d8:	10800003 	ldbu	r2,0(r2)
  80c3dc:	10c03fcc 	andi	r3,r2,255
  80c3e0:	18c0201c 	xori	r3,r3,128
  80c3e4:	18ffe004 	addi	r3,r3,-128
  80c3e8:	2005883a 	mov	r2,r4
  80c3ec:	10c00035 	stwio	r3,0(r2)
  80c3f0:	e0bffd17 	ldw	r2,-12(fp)
  80c3f4:	10801017 	ldw	r2,64(r2)
  80c3f8:	10800044 	addi	r2,r2,1
  80c3fc:	10c1ffcc 	andi	r3,r2,2047
  80c400:	e0bffd17 	ldw	r2,-12(fp)
  80c404:	10c01015 	stw	r3,64(r2)
  80c408:	e0bffd17 	ldw	r2,-12(fp)
  80c40c:	10800c17 	ldw	r2,48(r2)
  80c410:	e0bff415 	stw	r2,-48(fp)
  80c414:	00800084 	movi	r2,2
  80c418:	e0bff50d 	sth	r2,-44(fp)
  80c41c:	00800044 	movi	r2,1
  80c420:	e0bff585 	stb	r2,-42(fp)
  80c424:	00802074 	movhi	r2,129
  80c428:	10897f44 	addi	r2,r2,9725
  80c42c:	10800003 	ldbu	r2,0(r2)
  80c430:	10803fcc 	andi	r2,r2,255
  80c434:	1005003a 	cmpeq	r2,r2,zero
  80c438:	1000051e 	bne	r2,zero,80c450 <altera_avalon_jtag_uart_irq+0x230>
  80c43c:	e17ff50b 	ldhu	r5,-44(fp)
  80c440:	e1bff583 	ldbu	r6,-42(fp)
  80c444:	e1fffe44 	addi	r7,fp,-7
  80c448:	e13ff417 	ldw	r4,-48(fp)
  80c44c:	0806d000 	call	806d00 <OSFlagPost>
  80c450:	e0bff817 	ldw	r2,-32(fp)
  80c454:	10bfffc4 	addi	r2,r2,-1
  80c458:	e0bff815 	stw	r2,-32(fp)
  80c45c:	e0bff817 	ldw	r2,-32(fp)
  80c460:	1005003a 	cmpeq	r2,r2,zero
  80c464:	1000051e 	bne	r2,zero,80c47c <altera_avalon_jtag_uart_irq+0x25c>
  80c468:	e0bffd17 	ldw	r2,-12(fp)
  80c46c:	10c01017 	ldw	r3,64(r2)
  80c470:	e0bffd17 	ldw	r2,-12(fp)
  80c474:	10800f17 	ldw	r2,60(r2)
  80c478:	18bfd11e 	bne	r3,r2,80c3c0 <altera_avalon_jtag_uart_irq+0x1a0>
  80c47c:	e0bff817 	ldw	r2,-32(fp)
  80c480:	1005003a 	cmpeq	r2,r2,zero
  80c484:	103f711e 	bne	r2,zero,80c24c <altera_avalon_jtag_uart_irq+0x2c>
  80c488:	e0bffd17 	ldw	r2,-12(fp)
  80c48c:	10c00817 	ldw	r3,32(r2)
  80c490:	00bfff44 	movi	r2,-3
  80c494:	1886703a 	and	r3,r3,r2
  80c498:	e0bffd17 	ldw	r2,-12(fp)
  80c49c:	10c00815 	stw	r3,32(r2)
  80c4a0:	e0bffd17 	ldw	r2,-12(fp)
  80c4a4:	10800017 	ldw	r2,0(r2)
  80c4a8:	11000104 	addi	r4,r2,4
  80c4ac:	e0bffd17 	ldw	r2,-12(fp)
  80c4b0:	10800817 	ldw	r2,32(r2)
  80c4b4:	1007883a 	mov	r3,r2
  80c4b8:	2005883a 	mov	r2,r4
  80c4bc:	10c00035 	stwio	r3,0(r2)
  80c4c0:	e0bffc17 	ldw	r2,-16(fp)
  80c4c4:	10800104 	addi	r2,r2,4
  80c4c8:	10800037 	ldwio	r2,0(r2)
  80c4cc:	003f5f06 	br	80c24c <altera_avalon_jtag_uart_irq+0x2c>
  80c4d0:	e037883a 	mov	sp,fp
  80c4d4:	dfc00117 	ldw	ra,4(sp)
  80c4d8:	df000017 	ldw	fp,0(sp)
  80c4dc:	dec00204 	addi	sp,sp,8
  80c4e0:	f800283a 	ret

0080c4e4 <altera_avalon_jtag_uart_timeout>:
  80c4e4:	defff804 	addi	sp,sp,-32
  80c4e8:	dfc00715 	stw	ra,28(sp)
  80c4ec:	df000615 	stw	fp,24(sp)
  80c4f0:	df000604 	addi	fp,sp,24
  80c4f4:	e13fff15 	stw	r4,-4(fp)
  80c4f8:	e0bfff17 	ldw	r2,-4(fp)
  80c4fc:	e0bffd15 	stw	r2,-12(fp)
  80c500:	e0bffd17 	ldw	r2,-12(fp)
  80c504:	10800017 	ldw	r2,0(r2)
  80c508:	10800104 	addi	r2,r2,4
  80c50c:	10800037 	ldwio	r2,0(r2)
  80c510:	e0bffc15 	stw	r2,-16(fp)
  80c514:	e0bffc17 	ldw	r2,-16(fp)
  80c518:	1081000c 	andi	r2,r2,1024
  80c51c:	1005003a 	cmpeq	r2,r2,zero
  80c520:	10000c1e 	bne	r2,zero,80c554 <altera_avalon_jtag_uart_timeout+0x70>
  80c524:	e0bffd17 	ldw	r2,-12(fp)
  80c528:	10800017 	ldw	r2,0(r2)
  80c52c:	11000104 	addi	r4,r2,4
  80c530:	e0bffd17 	ldw	r2,-12(fp)
  80c534:	10800817 	ldw	r2,32(r2)
  80c538:	10810014 	ori	r2,r2,1024
  80c53c:	1007883a 	mov	r3,r2
  80c540:	2005883a 	mov	r2,r4
  80c544:	10c00035 	stwio	r3,0(r2)
  80c548:	e0bffd17 	ldw	r2,-12(fp)
  80c54c:	10000915 	stw	zero,36(r2)
  80c550:	00002106 	br	80c5d8 <altera_avalon_jtag_uart_timeout+0xf4>
  80c554:	e0bffd17 	ldw	r2,-12(fp)
  80c558:	10c00917 	ldw	r3,36(r2)
  80c55c:	00a00034 	movhi	r2,32768
  80c560:	10bfff04 	addi	r2,r2,-4
  80c564:	10c01c36 	bltu	r2,r3,80c5d8 <altera_avalon_jtag_uart_timeout+0xf4>
  80c568:	e0bffd17 	ldw	r2,-12(fp)
  80c56c:	10800917 	ldw	r2,36(r2)
  80c570:	10c00044 	addi	r3,r2,1
  80c574:	e0bffd17 	ldw	r2,-12(fp)
  80c578:	10c00915 	stw	r3,36(r2)
  80c57c:	e0bffd17 	ldw	r2,-12(fp)
  80c580:	10c00917 	ldw	r3,36(r2)
  80c584:	e0bffd17 	ldw	r2,-12(fp)
  80c588:	10800117 	ldw	r2,4(r2)
  80c58c:	18801236 	bltu	r3,r2,80c5d8 <altera_avalon_jtag_uart_timeout+0xf4>
  80c590:	e0bffd17 	ldw	r2,-12(fp)
  80c594:	10800c17 	ldw	r2,48(r2)
  80c598:	e0bffa15 	stw	r2,-24(fp)
  80c59c:	00800104 	movi	r2,4
  80c5a0:	e0bffb0d 	sth	r2,-20(fp)
  80c5a4:	00800044 	movi	r2,1
  80c5a8:	e0bffb85 	stb	r2,-18(fp)
  80c5ac:	00802074 	movhi	r2,129
  80c5b0:	10897f44 	addi	r2,r2,9725
  80c5b4:	10800003 	ldbu	r2,0(r2)
  80c5b8:	10803fcc 	andi	r2,r2,255
  80c5bc:	1005003a 	cmpeq	r2,r2,zero
  80c5c0:	1000051e 	bne	r2,zero,80c5d8 <altera_avalon_jtag_uart_timeout+0xf4>
  80c5c4:	e17ffb0b 	ldhu	r5,-20(fp)
  80c5c8:	e1bffb83 	ldbu	r6,-18(fp)
  80c5cc:	e1fffe04 	addi	r7,fp,-8
  80c5d0:	e13ffa17 	ldw	r4,-24(fp)
  80c5d4:	0806d000 	call	806d00 <OSFlagPost>
  80c5d8:	00802074 	movhi	r2,129
  80c5dc:	10899404 	addi	r2,r2,9808
  80c5e0:	10800017 	ldw	r2,0(r2)
  80c5e4:	e037883a 	mov	sp,fp
  80c5e8:	dfc00117 	ldw	ra,4(sp)
  80c5ec:	df000017 	ldw	fp,0(sp)
  80c5f0:	dec00204 	addi	sp,sp,8
  80c5f4:	f800283a 	ret

0080c5f8 <altera_avalon_jtag_uart_close>:
  80c5f8:	defffc04 	addi	sp,sp,-16
  80c5fc:	df000315 	stw	fp,12(sp)
  80c600:	df000304 	addi	fp,sp,12
  80c604:	e13ffd15 	stw	r4,-12(fp)
  80c608:	e17ffe15 	stw	r5,-8(fp)
  80c60c:	00000706 	br	80c62c <altera_avalon_jtag_uart_close+0x34>
  80c610:	e0bffe17 	ldw	r2,-8(fp)
  80c614:	1090000c 	andi	r2,r2,16384
  80c618:	1005003a 	cmpeq	r2,r2,zero
  80c61c:	1000031e 	bne	r2,zero,80c62c <altera_avalon_jtag_uart_close+0x34>
  80c620:	00bffd44 	movi	r2,-11
  80c624:	e0bfff15 	stw	r2,-4(fp)
  80c628:	00000b06 	br	80c658 <altera_avalon_jtag_uart_close+0x60>
  80c62c:	e0bffd17 	ldw	r2,-12(fp)
  80c630:	10c01017 	ldw	r3,64(r2)
  80c634:	e0bffd17 	ldw	r2,-12(fp)
  80c638:	10800f17 	ldw	r2,60(r2)
  80c63c:	18800526 	beq	r3,r2,80c654 <altera_avalon_jtag_uart_close+0x5c>
  80c640:	e0bffd17 	ldw	r2,-12(fp)
  80c644:	10c00917 	ldw	r3,36(r2)
  80c648:	e0bffd17 	ldw	r2,-12(fp)
  80c64c:	10800117 	ldw	r2,4(r2)
  80c650:	18bfef36 	bltu	r3,r2,80c610 <altera_avalon_jtag_uart_close+0x18>
  80c654:	e03fff15 	stw	zero,-4(fp)
  80c658:	e0bfff17 	ldw	r2,-4(fp)
  80c65c:	e037883a 	mov	sp,fp
  80c660:	df000017 	ldw	fp,0(sp)
  80c664:	dec00104 	addi	sp,sp,4
  80c668:	f800283a 	ret

0080c66c <altera_avalon_jtag_uart_ioctl>:
  80c66c:	defff804 	addi	sp,sp,-32
  80c670:	df000715 	stw	fp,28(sp)
  80c674:	df000704 	addi	fp,sp,28
  80c678:	e13ffb15 	stw	r4,-20(fp)
  80c67c:	e17ffc15 	stw	r5,-16(fp)
  80c680:	e1bffd15 	stw	r6,-12(fp)
  80c684:	00bff9c4 	movi	r2,-25
  80c688:	e0bffa15 	stw	r2,-24(fp)
  80c68c:	e0bffc17 	ldw	r2,-16(fp)
  80c690:	e0bfff15 	stw	r2,-4(fp)
  80c694:	e0ffff17 	ldw	r3,-4(fp)
  80c698:	189a8060 	cmpeqi	r2,r3,27137
  80c69c:	1000041e 	bne	r2,zero,80c6b0 <altera_avalon_jtag_uart_ioctl+0x44>
  80c6a0:	e0ffff17 	ldw	r3,-4(fp)
  80c6a4:	189a80a0 	cmpeqi	r2,r3,27138
  80c6a8:	10001b1e 	bne	r2,zero,80c718 <altera_avalon_jtag_uart_ioctl+0xac>
  80c6ac:	00002706 	br	80c74c <altera_avalon_jtag_uart_ioctl+0xe0>
  80c6b0:	e0bffb17 	ldw	r2,-20(fp)
  80c6b4:	10c00117 	ldw	r3,4(r2)
  80c6b8:	00a00034 	movhi	r2,32768
  80c6bc:	10bfffc4 	addi	r2,r2,-1
  80c6c0:	18802226 	beq	r3,r2,80c74c <altera_avalon_jtag_uart_ioctl+0xe0>
  80c6c4:	e0bffd17 	ldw	r2,-12(fp)
  80c6c8:	10800017 	ldw	r2,0(r2)
  80c6cc:	e0bff915 	stw	r2,-28(fp)
  80c6d0:	e0bff917 	ldw	r2,-28(fp)
  80c6d4:	10800090 	cmplti	r2,r2,2
  80c6d8:	1000071e 	bne	r2,zero,80c6f8 <altera_avalon_jtag_uart_ioctl+0x8c>
  80c6dc:	e0fff917 	ldw	r3,-28(fp)
  80c6e0:	00a00034 	movhi	r2,32768
  80c6e4:	10bfffc4 	addi	r2,r2,-1
  80c6e8:	18800326 	beq	r3,r2,80c6f8 <altera_avalon_jtag_uart_ioctl+0x8c>
  80c6ec:	e0bff917 	ldw	r2,-28(fp)
  80c6f0:	e0bffe15 	stw	r2,-8(fp)
  80c6f4:	00000306 	br	80c704 <altera_avalon_jtag_uart_ioctl+0x98>
  80c6f8:	00e00034 	movhi	r3,32768
  80c6fc:	18ffff84 	addi	r3,r3,-2
  80c700:	e0fffe15 	stw	r3,-8(fp)
  80c704:	e0bffb17 	ldw	r2,-20(fp)
  80c708:	e0fffe17 	ldw	r3,-8(fp)
  80c70c:	10c00115 	stw	r3,4(r2)
  80c710:	e03ffa15 	stw	zero,-24(fp)
  80c714:	00000d06 	br	80c74c <altera_avalon_jtag_uart_ioctl+0xe0>
  80c718:	e0bffb17 	ldw	r2,-20(fp)
  80c71c:	10c00117 	ldw	r3,4(r2)
  80c720:	00a00034 	movhi	r2,32768
  80c724:	10bfffc4 	addi	r2,r2,-1
  80c728:	18800826 	beq	r3,r2,80c74c <altera_avalon_jtag_uart_ioctl+0xe0>
  80c72c:	e13ffd17 	ldw	r4,-12(fp)
  80c730:	e0bffb17 	ldw	r2,-20(fp)
  80c734:	10c00917 	ldw	r3,36(r2)
  80c738:	e0bffb17 	ldw	r2,-20(fp)
  80c73c:	10800117 	ldw	r2,4(r2)
  80c740:	1885803a 	cmpltu	r2,r3,r2
  80c744:	20800015 	stw	r2,0(r4)
  80c748:	e03ffa15 	stw	zero,-24(fp)
  80c74c:	e0bffa17 	ldw	r2,-24(fp)
  80c750:	e037883a 	mov	sp,fp
  80c754:	df000017 	ldw	fp,0(sp)
  80c758:	dec00104 	addi	sp,sp,4
  80c75c:	f800283a 	ret

0080c760 <altera_avalon_jtag_uart_read>:
  80c760:	deffeb04 	addi	sp,sp,-84
  80c764:	dfc01415 	stw	ra,80(sp)
  80c768:	df001315 	stw	fp,76(sp)
  80c76c:	df001304 	addi	fp,sp,76
  80c770:	e13ffb15 	stw	r4,-20(fp)
  80c774:	e17ffc15 	stw	r5,-16(fp)
  80c778:	e1bffd15 	stw	r6,-12(fp)
  80c77c:	e1fffe15 	stw	r7,-8(fp)
  80c780:	e0bffc17 	ldw	r2,-16(fp)
  80c784:	e0bff915 	stw	r2,-28(fp)
  80c788:	e0bffb17 	ldw	r2,-20(fp)
  80c78c:	10800a17 	ldw	r2,40(r2)
  80c790:	e0bff315 	stw	r2,-52(fp)
  80c794:	e03ff40d 	sth	zero,-48(fp)
  80c798:	e17ff40b 	ldhu	r5,-48(fp)
  80c79c:	e1bffa44 	addi	r6,fp,-23
  80c7a0:	e13ff317 	ldw	r4,-52(fp)
  80c7a4:	08095900 	call	809590 <OSSemPend>
  80c7a8:	00006406 	br	80c93c <altera_avalon_jtag_uart_read+0x1dc>
  80c7ac:	e0bffb17 	ldw	r2,-20(fp)
  80c7b0:	10800d17 	ldw	r2,52(r2)
  80c7b4:	e0bff615 	stw	r2,-40(fp)
  80c7b8:	e0bffb17 	ldw	r2,-20(fp)
  80c7bc:	10800e17 	ldw	r2,56(r2)
  80c7c0:	e0bff515 	stw	r2,-44(fp)
  80c7c4:	e0fff617 	ldw	r3,-40(fp)
  80c7c8:	e0bff517 	ldw	r2,-44(fp)
  80c7cc:	18800536 	bltu	r3,r2,80c7e4 <altera_avalon_jtag_uart_read+0x84>
  80c7d0:	e0bff617 	ldw	r2,-40(fp)
  80c7d4:	e0fff517 	ldw	r3,-44(fp)
  80c7d8:	10c5c83a 	sub	r2,r2,r3
  80c7dc:	e0bff715 	stw	r2,-36(fp)
  80c7e0:	00000406 	br	80c7f4 <altera_avalon_jtag_uart_read+0x94>
  80c7e4:	00820004 	movi	r2,2048
  80c7e8:	e0fff517 	ldw	r3,-44(fp)
  80c7ec:	10c5c83a 	sub	r2,r2,r3
  80c7f0:	e0bff715 	stw	r2,-36(fp)
  80c7f4:	e0bff717 	ldw	r2,-36(fp)
  80c7f8:	1005003a 	cmpeq	r2,r2,zero
  80c7fc:	10001f1e 	bne	r2,zero,80c87c <altera_avalon_jtag_uart_read+0x11c>
  80c800:	e0fffd17 	ldw	r3,-12(fp)
  80c804:	e0bff717 	ldw	r2,-36(fp)
  80c808:	1880022e 	bgeu	r3,r2,80c814 <altera_avalon_jtag_uart_read+0xb4>
  80c80c:	e0bffd17 	ldw	r2,-12(fp)
  80c810:	e0bff715 	stw	r2,-36(fp)
  80c814:	e0bffb17 	ldw	r2,-20(fp)
  80c818:	10c01104 	addi	r3,r2,68
  80c81c:	e0bff517 	ldw	r2,-44(fp)
  80c820:	1887883a 	add	r3,r3,r2
  80c824:	e0bff917 	ldw	r2,-28(fp)
  80c828:	1009883a 	mov	r4,r2
  80c82c:	180b883a 	mov	r5,r3
  80c830:	e1bff717 	ldw	r6,-36(fp)
  80c834:	08010ec0 	call	8010ec <memcpy>
  80c838:	e0fff717 	ldw	r3,-36(fp)
  80c83c:	e0bff917 	ldw	r2,-28(fp)
  80c840:	10c5883a 	add	r2,r2,r3
  80c844:	e0bff915 	stw	r2,-28(fp)
  80c848:	e0fffd17 	ldw	r3,-12(fp)
  80c84c:	e0bff717 	ldw	r2,-36(fp)
  80c850:	1885c83a 	sub	r2,r3,r2
  80c854:	e0bffd15 	stw	r2,-12(fp)
  80c858:	e0fff517 	ldw	r3,-44(fp)
  80c85c:	e0bff717 	ldw	r2,-36(fp)
  80c860:	1885883a 	add	r2,r3,r2
  80c864:	10c1ffcc 	andi	r3,r2,2047
  80c868:	e0bffb17 	ldw	r2,-20(fp)
  80c86c:	10c00e15 	stw	r3,56(r2)
  80c870:	e0bffd17 	ldw	r2,-12(fp)
  80c874:	10800048 	cmpgei	r2,r2,1
  80c878:	103fcc1e 	bne	r2,zero,80c7ac <altera_avalon_jtag_uart_read+0x4c>
  80c87c:	e0fff917 	ldw	r3,-28(fp)
  80c880:	e0bffc17 	ldw	r2,-16(fp)
  80c884:	1880301e 	bne	r3,r2,80c948 <altera_avalon_jtag_uart_read+0x1e8>
  80c888:	e0bffe17 	ldw	r2,-8(fp)
  80c88c:	1090000c 	andi	r2,r2,16384
  80c890:	1004c03a 	cmpne	r2,r2,zero
  80c894:	10002c1e 	bne	r2,zero,80c948 <altera_avalon_jtag_uart_read+0x1e8>
  80c898:	00802074 	movhi	r2,129
  80c89c:	10897f44 	addi	r2,r2,9725
  80c8a0:	10800003 	ldbu	r2,0(r2)
  80c8a4:	10803fcc 	andi	r2,r2,255
  80c8a8:	10800058 	cmpnei	r2,r2,1
  80c8ac:	1000161e 	bne	r2,zero,80c908 <altera_avalon_jtag_uart_read+0x1a8>
  80c8b0:	e0bffb17 	ldw	r2,-20(fp)
  80c8b4:	10800c17 	ldw	r2,48(r2)
  80c8b8:	e0bff015 	stw	r2,-64(fp)
  80c8bc:	00800144 	movi	r2,5
  80c8c0:	e0bff10d 	sth	r2,-60(fp)
  80c8c4:	00bfe0c4 	movi	r2,-125
  80c8c8:	e0bff185 	stb	r2,-58(fp)
  80c8cc:	e03ff20d 	sth	zero,-56(fp)
  80c8d0:	00802074 	movhi	r2,129
  80c8d4:	10897f44 	addi	r2,r2,9725
  80c8d8:	10800003 	ldbu	r2,0(r2)
  80c8dc:	10803fcc 	andi	r2,r2,255
  80c8e0:	1005003a 	cmpeq	r2,r2,zero
  80c8e4:	1000111e 	bne	r2,zero,80c92c <altera_avalon_jtag_uart_read+0x1cc>
  80c8e8:	e17ff10b 	ldhu	r5,-60(fp)
  80c8ec:	e1bff183 	ldbu	r6,-58(fp)
  80c8f0:	e1fff20b 	ldhu	r7,-56(fp)
  80c8f4:	e0bffa04 	addi	r2,fp,-24
  80c8f8:	d8800015 	stw	r2,0(sp)
  80c8fc:	e13ff017 	ldw	r4,-64(fp)
  80c900:	08066540 	call	806654 <OSFlagPend>
  80c904:	00000906 	br	80c92c <altera_avalon_jtag_uart_read+0x1cc>
  80c908:	e0bffb17 	ldw	r2,-20(fp)
  80c90c:	10c00d17 	ldw	r3,52(r2)
  80c910:	e0bff617 	ldw	r2,-40(fp)
  80c914:	1880051e 	bne	r3,r2,80c92c <altera_avalon_jtag_uart_read+0x1cc>
  80c918:	e0bffb17 	ldw	r2,-20(fp)
  80c91c:	10c00917 	ldw	r3,36(r2)
  80c920:	e0bffb17 	ldw	r2,-20(fp)
  80c924:	10800117 	ldw	r2,4(r2)
  80c928:	18bff736 	bltu	r3,r2,80c908 <altera_avalon_jtag_uart_read+0x1a8>
  80c92c:	e0bffb17 	ldw	r2,-20(fp)
  80c930:	10c00d17 	ldw	r3,52(r2)
  80c934:	e0bff617 	ldw	r2,-40(fp)
  80c938:	18800326 	beq	r3,r2,80c948 <altera_avalon_jtag_uart_read+0x1e8>
  80c93c:	e0bffd17 	ldw	r2,-12(fp)
  80c940:	10800048 	cmpgei	r2,r2,1
  80c944:	103f991e 	bne	r2,zero,80c7ac <altera_avalon_jtag_uart_read+0x4c>
  80c948:	e0bffb17 	ldw	r2,-20(fp)
  80c94c:	11000a17 	ldw	r4,40(r2)
  80c950:	08099880 	call	809988 <OSSemPost>
  80c954:	e0fff917 	ldw	r3,-28(fp)
  80c958:	e0bffc17 	ldw	r2,-16(fp)
  80c95c:	18801926 	beq	r3,r2,80c9c4 <altera_avalon_jtag_uart_read+0x264>
  80c960:	0005303a 	rdctl	r2,status
  80c964:	e0bfef15 	stw	r2,-68(fp)
  80c968:	e0ffef17 	ldw	r3,-68(fp)
  80c96c:	00bfff84 	movi	r2,-2
  80c970:	1884703a 	and	r2,r3,r2
  80c974:	1001703a 	wrctl	status,r2
  80c978:	e0bfef17 	ldw	r2,-68(fp)
  80c97c:	e0bff815 	stw	r2,-32(fp)
  80c980:	e0bffb17 	ldw	r2,-20(fp)
  80c984:	10800817 	ldw	r2,32(r2)
  80c988:	10c00054 	ori	r3,r2,1
  80c98c:	e0bffb17 	ldw	r2,-20(fp)
  80c990:	10c00815 	stw	r3,32(r2)
  80c994:	e0bffb17 	ldw	r2,-20(fp)
  80c998:	10800017 	ldw	r2,0(r2)
  80c99c:	11000104 	addi	r4,r2,4
  80c9a0:	e0bffb17 	ldw	r2,-20(fp)
  80c9a4:	10800817 	ldw	r2,32(r2)
  80c9a8:	1007883a 	mov	r3,r2
  80c9ac:	2005883a 	mov	r2,r4
  80c9b0:	10c00035 	stwio	r3,0(r2)
  80c9b4:	e0bff817 	ldw	r2,-32(fp)
  80c9b8:	e0bfee15 	stw	r2,-72(fp)
  80c9bc:	e0bfee17 	ldw	r2,-72(fp)
  80c9c0:	1001703a 	wrctl	status,r2
  80c9c4:	e0fff917 	ldw	r3,-28(fp)
  80c9c8:	e0bffc17 	ldw	r2,-16(fp)
  80c9cc:	18800526 	beq	r3,r2,80c9e4 <altera_avalon_jtag_uart_read+0x284>
  80c9d0:	e0fff917 	ldw	r3,-28(fp)
  80c9d4:	e0bffc17 	ldw	r2,-16(fp)
  80c9d8:	1887c83a 	sub	r3,r3,r2
  80c9dc:	e0ffff15 	stw	r3,-4(fp)
  80c9e0:	00000906 	br	80ca08 <altera_avalon_jtag_uart_read+0x2a8>
  80c9e4:	e0bffe17 	ldw	r2,-8(fp)
  80c9e8:	1090000c 	andi	r2,r2,16384
  80c9ec:	1005003a 	cmpeq	r2,r2,zero
  80c9f0:	1000031e 	bne	r2,zero,80ca00 <altera_avalon_jtag_uart_read+0x2a0>
  80c9f4:	00bffd44 	movi	r2,-11
  80c9f8:	e0bfff15 	stw	r2,-4(fp)
  80c9fc:	00000206 	br	80ca08 <altera_avalon_jtag_uart_read+0x2a8>
  80ca00:	00bffec4 	movi	r2,-5
  80ca04:	e0bfff15 	stw	r2,-4(fp)
  80ca08:	e0bfff17 	ldw	r2,-4(fp)
  80ca0c:	e037883a 	mov	sp,fp
  80ca10:	dfc00117 	ldw	ra,4(sp)
  80ca14:	df000017 	ldw	fp,0(sp)
  80ca18:	dec00204 	addi	sp,sp,8
  80ca1c:	f800283a 	ret

0080ca20 <altera_avalon_jtag_uart_write>:
  80ca20:	deffeb04 	addi	sp,sp,-84
  80ca24:	dfc01415 	stw	ra,80(sp)
  80ca28:	df001315 	stw	fp,76(sp)
  80ca2c:	df001304 	addi	fp,sp,76
  80ca30:	e13ffb15 	stw	r4,-20(fp)
  80ca34:	e17ffc15 	stw	r5,-16(fp)
  80ca38:	e1bffd15 	stw	r6,-12(fp)
  80ca3c:	e1fffe15 	stw	r7,-8(fp)
  80ca40:	e03ff815 	stw	zero,-32(fp)
  80ca44:	e0bffc17 	ldw	r2,-16(fp)
  80ca48:	e0bff515 	stw	r2,-44(fp)
  80ca4c:	e0bffb17 	ldw	r2,-20(fp)
  80ca50:	10800b17 	ldw	r2,44(r2)
  80ca54:	e0bff315 	stw	r2,-52(fp)
  80ca58:	e03ff40d 	sth	zero,-48(fp)
  80ca5c:	e17ff40b 	ldhu	r5,-48(fp)
  80ca60:	e1bffa04 	addi	r6,fp,-24
  80ca64:	e13ff317 	ldw	r4,-52(fp)
  80ca68:	08095900 	call	809590 <OSSemPend>
  80ca6c:	00003a06 	br	80cb58 <altera_avalon_jtag_uart_write+0x138>
  80ca70:	e0bffb17 	ldw	r2,-20(fp)
  80ca74:	10800f17 	ldw	r2,60(r2)
  80ca78:	e0bff915 	stw	r2,-28(fp)
  80ca7c:	e0bffb17 	ldw	r2,-20(fp)
  80ca80:	10801017 	ldw	r2,64(r2)
  80ca84:	e0bff815 	stw	r2,-32(fp)
  80ca88:	e0fff917 	ldw	r3,-28(fp)
  80ca8c:	e0bff817 	ldw	r2,-32(fp)
  80ca90:	1880062e 	bgeu	r3,r2,80caac <altera_avalon_jtag_uart_write+0x8c>
  80ca94:	e0fff817 	ldw	r3,-32(fp)
  80ca98:	e0bff917 	ldw	r2,-28(fp)
  80ca9c:	1885c83a 	sub	r2,r3,r2
  80caa0:	10bfffc4 	addi	r2,r2,-1
  80caa4:	e0bff715 	stw	r2,-36(fp)
  80caa8:	00000c06 	br	80cadc <altera_avalon_jtag_uart_write+0xbc>
  80caac:	e0bff817 	ldw	r2,-32(fp)
  80cab0:	1005003a 	cmpeq	r2,r2,zero
  80cab4:	1000051e 	bne	r2,zero,80cacc <altera_avalon_jtag_uart_write+0xac>
  80cab8:	00820004 	movi	r2,2048
  80cabc:	e0fff917 	ldw	r3,-28(fp)
  80cac0:	10c5c83a 	sub	r2,r2,r3
  80cac4:	e0bff715 	stw	r2,-36(fp)
  80cac8:	00000406 	br	80cadc <altera_avalon_jtag_uart_write+0xbc>
  80cacc:	0081ffc4 	movi	r2,2047
  80cad0:	e0fff917 	ldw	r3,-28(fp)
  80cad4:	10c5c83a 	sub	r2,r2,r3
  80cad8:	e0bff715 	stw	r2,-36(fp)
  80cadc:	e0bff717 	ldw	r2,-36(fp)
  80cae0:	1005003a 	cmpeq	r2,r2,zero
  80cae4:	10001f1e 	bne	r2,zero,80cb64 <altera_avalon_jtag_uart_write+0x144>
  80cae8:	e0fffd17 	ldw	r3,-12(fp)
  80caec:	e0bff717 	ldw	r2,-36(fp)
  80caf0:	1880022e 	bgeu	r3,r2,80cafc <altera_avalon_jtag_uart_write+0xdc>
  80caf4:	e0bffd17 	ldw	r2,-12(fp)
  80caf8:	e0bff715 	stw	r2,-36(fp)
  80cafc:	e0bffb17 	ldw	r2,-20(fp)
  80cb00:	10c21104 	addi	r3,r2,2116
  80cb04:	e0bff917 	ldw	r2,-28(fp)
  80cb08:	1885883a 	add	r2,r3,r2
  80cb0c:	e0fffc17 	ldw	r3,-16(fp)
  80cb10:	1009883a 	mov	r4,r2
  80cb14:	180b883a 	mov	r5,r3
  80cb18:	e1bff717 	ldw	r6,-36(fp)
  80cb1c:	08010ec0 	call	8010ec <memcpy>
  80cb20:	e0fff717 	ldw	r3,-36(fp)
  80cb24:	e0bffc17 	ldw	r2,-16(fp)
  80cb28:	10c5883a 	add	r2,r2,r3
  80cb2c:	e0bffc15 	stw	r2,-16(fp)
  80cb30:	e0fffd17 	ldw	r3,-12(fp)
  80cb34:	e0bff717 	ldw	r2,-36(fp)
  80cb38:	1885c83a 	sub	r2,r3,r2
  80cb3c:	e0bffd15 	stw	r2,-12(fp)
  80cb40:	e0fff917 	ldw	r3,-28(fp)
  80cb44:	e0bff717 	ldw	r2,-36(fp)
  80cb48:	1885883a 	add	r2,r3,r2
  80cb4c:	10c1ffcc 	andi	r3,r2,2047
  80cb50:	e0bffb17 	ldw	r2,-20(fp)
  80cb54:	10c00f15 	stw	r3,60(r2)
  80cb58:	e0bffd17 	ldw	r2,-12(fp)
  80cb5c:	10800048 	cmpgei	r2,r2,1
  80cb60:	103fc31e 	bne	r2,zero,80ca70 <altera_avalon_jtag_uart_write+0x50>
  80cb64:	0005303a 	rdctl	r2,status
  80cb68:	e0bff215 	stw	r2,-56(fp)
  80cb6c:	e0fff217 	ldw	r3,-56(fp)
  80cb70:	00bfff84 	movi	r2,-2
  80cb74:	1884703a 	and	r2,r3,r2
  80cb78:	1001703a 	wrctl	status,r2
  80cb7c:	e0bff217 	ldw	r2,-56(fp)
  80cb80:	e0bff615 	stw	r2,-40(fp)
  80cb84:	e0bffb17 	ldw	r2,-20(fp)
  80cb88:	10800817 	ldw	r2,32(r2)
  80cb8c:	10c00094 	ori	r3,r2,2
  80cb90:	e0bffb17 	ldw	r2,-20(fp)
  80cb94:	10c00815 	stw	r3,32(r2)
  80cb98:	e0bffb17 	ldw	r2,-20(fp)
  80cb9c:	10800017 	ldw	r2,0(r2)
  80cba0:	11000104 	addi	r4,r2,4
  80cba4:	e0bffb17 	ldw	r2,-20(fp)
  80cba8:	10800817 	ldw	r2,32(r2)
  80cbac:	1007883a 	mov	r3,r2
  80cbb0:	2005883a 	mov	r2,r4
  80cbb4:	10c00035 	stwio	r3,0(r2)
  80cbb8:	e0bff617 	ldw	r2,-40(fp)
  80cbbc:	e0bff115 	stw	r2,-60(fp)
  80cbc0:	e0bff117 	ldw	r2,-60(fp)
  80cbc4:	1001703a 	wrctl	status,r2
  80cbc8:	e0bffd17 	ldw	r2,-12(fp)
  80cbcc:	10800050 	cmplti	r2,r2,1
  80cbd0:	10002d1e 	bne	r2,zero,80cc88 <altera_avalon_jtag_uart_write+0x268>
  80cbd4:	e0bffe17 	ldw	r2,-8(fp)
  80cbd8:	1090000c 	andi	r2,r2,16384
  80cbdc:	1004c03a 	cmpne	r2,r2,zero
  80cbe0:	10002c1e 	bne	r2,zero,80cc94 <altera_avalon_jtag_uart_write+0x274>
  80cbe4:	00802074 	movhi	r2,129
  80cbe8:	10897f44 	addi	r2,r2,9725
  80cbec:	10800003 	ldbu	r2,0(r2)
  80cbf0:	10803fcc 	andi	r2,r2,255
  80cbf4:	10800058 	cmpnei	r2,r2,1
  80cbf8:	1000161e 	bne	r2,zero,80cc54 <altera_avalon_jtag_uart_write+0x234>
  80cbfc:	e0bffb17 	ldw	r2,-20(fp)
  80cc00:	10800c17 	ldw	r2,48(r2)
  80cc04:	e0bfee15 	stw	r2,-72(fp)
  80cc08:	00800184 	movi	r2,6
  80cc0c:	e0bfef0d 	sth	r2,-68(fp)
  80cc10:	00bfe0c4 	movi	r2,-125
  80cc14:	e0bfef85 	stb	r2,-66(fp)
  80cc18:	e03ff00d 	sth	zero,-64(fp)
  80cc1c:	00802074 	movhi	r2,129
  80cc20:	10897f44 	addi	r2,r2,9725
  80cc24:	10800003 	ldbu	r2,0(r2)
  80cc28:	10803fcc 	andi	r2,r2,255
  80cc2c:	1005003a 	cmpeq	r2,r2,zero
  80cc30:	1000111e 	bne	r2,zero,80cc78 <altera_avalon_jtag_uart_write+0x258>
  80cc34:	e17fef0b 	ldhu	r5,-68(fp)
  80cc38:	e1bfef83 	ldbu	r6,-66(fp)
  80cc3c:	e1fff00b 	ldhu	r7,-64(fp)
  80cc40:	e0bffa44 	addi	r2,fp,-23
  80cc44:	d8800015 	stw	r2,0(sp)
  80cc48:	e13fee17 	ldw	r4,-72(fp)
  80cc4c:	08066540 	call	806654 <OSFlagPend>
  80cc50:	00000906 	br	80cc78 <altera_avalon_jtag_uart_write+0x258>
  80cc54:	e0bffb17 	ldw	r2,-20(fp)
  80cc58:	10c01017 	ldw	r3,64(r2)
  80cc5c:	e0bff817 	ldw	r2,-32(fp)
  80cc60:	1880051e 	bne	r3,r2,80cc78 <altera_avalon_jtag_uart_write+0x258>
  80cc64:	e0bffb17 	ldw	r2,-20(fp)
  80cc68:	10c00917 	ldw	r3,36(r2)
  80cc6c:	e0bffb17 	ldw	r2,-20(fp)
  80cc70:	10800117 	ldw	r2,4(r2)
  80cc74:	18bff736 	bltu	r3,r2,80cc54 <altera_avalon_jtag_uart_write+0x234>
  80cc78:	e0bffb17 	ldw	r2,-20(fp)
  80cc7c:	10c01017 	ldw	r3,64(r2)
  80cc80:	e0bff817 	ldw	r2,-32(fp)
  80cc84:	18800326 	beq	r3,r2,80cc94 <altera_avalon_jtag_uart_write+0x274>
  80cc88:	e0bffd17 	ldw	r2,-12(fp)
  80cc8c:	10800048 	cmpgei	r2,r2,1
  80cc90:	103fb11e 	bne	r2,zero,80cb58 <altera_avalon_jtag_uart_write+0x138>
  80cc94:	e0bffb17 	ldw	r2,-20(fp)
  80cc98:	11000b17 	ldw	r4,44(r2)
  80cc9c:	08099880 	call	809988 <OSSemPost>
  80cca0:	e0fffc17 	ldw	r3,-16(fp)
  80cca4:	e0bff517 	ldw	r2,-44(fp)
  80cca8:	18800526 	beq	r3,r2,80ccc0 <altera_avalon_jtag_uart_write+0x2a0>
  80ccac:	e0fffc17 	ldw	r3,-16(fp)
  80ccb0:	e0bff517 	ldw	r2,-44(fp)
  80ccb4:	1887c83a 	sub	r3,r3,r2
  80ccb8:	e0ffff15 	stw	r3,-4(fp)
  80ccbc:	00000906 	br	80cce4 <altera_avalon_jtag_uart_write+0x2c4>
  80ccc0:	e0bffe17 	ldw	r2,-8(fp)
  80ccc4:	1090000c 	andi	r2,r2,16384
  80ccc8:	1005003a 	cmpeq	r2,r2,zero
  80cccc:	1000031e 	bne	r2,zero,80ccdc <altera_avalon_jtag_uart_write+0x2bc>
  80ccd0:	00bffd44 	movi	r2,-11
  80ccd4:	e0bfff15 	stw	r2,-4(fp)
  80ccd8:	00000206 	br	80cce4 <altera_avalon_jtag_uart_write+0x2c4>
  80ccdc:	00bffec4 	movi	r2,-5
  80cce0:	e0bfff15 	stw	r2,-4(fp)
  80cce4:	e0bfff17 	ldw	r2,-4(fp)
  80cce8:	e037883a 	mov	sp,fp
  80ccec:	dfc00117 	ldw	ra,4(sp)
  80ccf0:	df000017 	ldw	fp,0(sp)
  80ccf4:	dec00204 	addi	sp,sp,8
  80ccf8:	f800283a 	ret

0080ccfc <alt_avalon_timer_sc_irq>:
  80ccfc:	defffa04 	addi	sp,sp,-24
  80cd00:	dfc00515 	stw	ra,20(sp)
  80cd04:	df000415 	stw	fp,16(sp)
  80cd08:	df000404 	addi	fp,sp,16
  80cd0c:	e13fff15 	stw	r4,-4(fp)
  80cd10:	e0bfff17 	ldw	r2,-4(fp)
  80cd14:	10000035 	stwio	zero,0(r2)
  80cd18:	e0bfff17 	ldw	r2,-4(fp)
  80cd1c:	10800104 	addi	r2,r2,4
  80cd20:	10800037 	ldwio	r2,0(r2)
  80cd24:	0005303a 	rdctl	r2,status
  80cd28:	e0bffd15 	stw	r2,-12(fp)
  80cd2c:	e0fffd17 	ldw	r3,-12(fp)
  80cd30:	00bfff84 	movi	r2,-2
  80cd34:	1884703a 	and	r2,r3,r2
  80cd38:	1001703a 	wrctl	status,r2
  80cd3c:	e0bffd17 	ldw	r2,-12(fp)
  80cd40:	e0bffe15 	stw	r2,-8(fp)
  80cd44:	080dec80 	call	80dec8 <alt_tick>
  80cd48:	e0bffe17 	ldw	r2,-8(fp)
  80cd4c:	e0bffc15 	stw	r2,-16(fp)
  80cd50:	e0bffc17 	ldw	r2,-16(fp)
  80cd54:	1001703a 	wrctl	status,r2
  80cd58:	e037883a 	mov	sp,fp
  80cd5c:	dfc00117 	ldw	ra,4(sp)
  80cd60:	df000017 	ldw	fp,0(sp)
  80cd64:	dec00204 	addi	sp,sp,8
  80cd68:	f800283a 	ret

0080cd6c <alt_avalon_timer_sc_init>:
  80cd6c:	defff804 	addi	sp,sp,-32
  80cd70:	dfc00715 	stw	ra,28(sp)
  80cd74:	df000615 	stw	fp,24(sp)
  80cd78:	df000604 	addi	fp,sp,24
  80cd7c:	e13ffc15 	stw	r4,-16(fp)
  80cd80:	e17ffd15 	stw	r5,-12(fp)
  80cd84:	e1bffe15 	stw	r6,-8(fp)
  80cd88:	e1ffff15 	stw	r7,-4(fp)
  80cd8c:	e0bfff17 	ldw	r2,-4(fp)
  80cd90:	e0bffb15 	stw	r2,-20(fp)
  80cd94:	00802074 	movhi	r2,129
  80cd98:	10899404 	addi	r2,r2,9808
  80cd9c:	10800017 	ldw	r2,0(r2)
  80cda0:	1004c03a 	cmpne	r2,r2,zero
  80cda4:	1000041e 	bne	r2,zero,80cdb8 <alt_avalon_timer_sc_init+0x4c>
  80cda8:	00c02074 	movhi	r3,129
  80cdac:	18c99404 	addi	r3,r3,9808
  80cdb0:	e0bffb17 	ldw	r2,-20(fp)
  80cdb4:	18800015 	stw	r2,0(r3)
  80cdb8:	e0bffc17 	ldw	r2,-16(fp)
  80cdbc:	10800104 	addi	r2,r2,4
  80cdc0:	1007883a 	mov	r3,r2
  80cdc4:	008001c4 	movi	r2,7
  80cdc8:	18800035 	stwio	r2,0(r3)
  80cdcc:	d8000015 	stw	zero,0(sp)
  80cdd0:	e13ffd17 	ldw	r4,-12(fp)
  80cdd4:	e17ffe17 	ldw	r5,-8(fp)
  80cdd8:	01802074 	movhi	r6,129
  80cddc:	31b33f04 	addi	r6,r6,-13060
  80cde0:	e1fffc17 	ldw	r7,-16(fp)
  80cde4:	080d7640 	call	80d764 <alt_ic_isr_register>
  80cde8:	e037883a 	mov	sp,fp
  80cdec:	dfc00117 	ldw	ra,4(sp)
  80cdf0:	df000017 	ldw	fp,0(sp)
  80cdf4:	dec00204 	addi	sp,sp,8
  80cdf8:	f800283a 	ret

0080cdfc <get_DDRAM_addr>:
  80cdfc:	defffc04 	addi	sp,sp,-16
  80ce00:	df000315 	stw	fp,12(sp)
  80ce04:	df000304 	addi	fp,sp,12
  80ce08:	e13ffe15 	stw	r4,-8(fp)
  80ce0c:	e17fff15 	stw	r5,-4(fp)
  80ce10:	e03ffd05 	stb	zero,-12(fp)
  80ce14:	e0bfff17 	ldw	r2,-4(fp)
  80ce18:	1004c03a 	cmpne	r2,r2,zero
  80ce1c:	1000061e 	bne	r2,zero,80ce38 <get_DDRAM_addr+0x3c>
  80ce20:	e0bffe17 	ldw	r2,-8(fp)
  80ce24:	1007883a 	mov	r3,r2
  80ce28:	e0bffd03 	ldbu	r2,-12(fp)
  80ce2c:	10c4b03a 	or	r2,r2,r3
  80ce30:	e0bffd05 	stb	r2,-12(fp)
  80ce34:	00000806 	br	80ce58 <get_DDRAM_addr+0x5c>
  80ce38:	e0bffe17 	ldw	r2,-8(fp)
  80ce3c:	1007883a 	mov	r3,r2
  80ce40:	e0bffd03 	ldbu	r2,-12(fp)
  80ce44:	10c4b03a 	or	r2,r2,r3
  80ce48:	e0bffd05 	stb	r2,-12(fp)
  80ce4c:	e0bffd03 	ldbu	r2,-12(fp)
  80ce50:	10801014 	ori	r2,r2,64
  80ce54:	e0bffd05 	stb	r2,-12(fp)
  80ce58:	e0fffd03 	ldbu	r3,-12(fp)
  80ce5c:	00bfe004 	movi	r2,-128
  80ce60:	1884b03a 	or	r2,r3,r2
  80ce64:	10803fcc 	andi	r2,r2,255
  80ce68:	e037883a 	mov	sp,fp
  80ce6c:	df000017 	ldw	fp,0(sp)
  80ce70:	dec00104 	addi	sp,sp,4
  80ce74:	f800283a 	ret

0080ce78 <alt_up_character_lcd_send_cmd>:
  80ce78:	defffd04 	addi	sp,sp,-12
  80ce7c:	df000215 	stw	fp,8(sp)
  80ce80:	df000204 	addi	fp,sp,8
  80ce84:	e13ffe15 	stw	r4,-8(fp)
  80ce88:	e17fff05 	stb	r5,-4(fp)
  80ce8c:	e0bffe17 	ldw	r2,-8(fp)
  80ce90:	10800a17 	ldw	r2,40(r2)
  80ce94:	e0ffff03 	ldbu	r3,-4(fp)
  80ce98:	10c00025 	stbio	r3,0(r2)
  80ce9c:	e037883a 	mov	sp,fp
  80cea0:	df000017 	ldw	fp,0(sp)
  80cea4:	dec00104 	addi	sp,sp,4
  80cea8:	f800283a 	ret

0080ceac <alt_up_character_lcd_init>:
  80ceac:	defffe04 	addi	sp,sp,-8
  80ceb0:	df000115 	stw	fp,4(sp)
  80ceb4:	df000104 	addi	fp,sp,4
  80ceb8:	e13fff15 	stw	r4,-4(fp)
  80cebc:	e0bfff17 	ldw	r2,-4(fp)
  80cec0:	10800a17 	ldw	r2,40(r2)
  80cec4:	1007883a 	mov	r3,r2
  80cec8:	00800044 	movi	r2,1
  80cecc:	18800025 	stbio	r2,0(r3)
  80ced0:	e037883a 	mov	sp,fp
  80ced4:	df000017 	ldw	fp,0(sp)
  80ced8:	dec00104 	addi	sp,sp,4
  80cedc:	f800283a 	ret

0080cee0 <alt_up_character_lcd_open_dev>:
  80cee0:	defffc04 	addi	sp,sp,-16
  80cee4:	dfc00315 	stw	ra,12(sp)
  80cee8:	df000215 	stw	fp,8(sp)
  80ceec:	df000204 	addi	fp,sp,8
  80cef0:	e13fff15 	stw	r4,-4(fp)
  80cef4:	e13fff17 	ldw	r4,-4(fp)
  80cef8:	01402074 	movhi	r5,129
  80cefc:	29426d04 	addi	r5,r5,2484
  80cf00:	080d6a00 	call	80d6a0 <alt_find_dev>
  80cf04:	e0bffe15 	stw	r2,-8(fp)
  80cf08:	e0bffe17 	ldw	r2,-8(fp)
  80cf0c:	e037883a 	mov	sp,fp
  80cf10:	dfc00117 	ldw	ra,4(sp)
  80cf14:	df000017 	ldw	fp,0(sp)
  80cf18:	dec00204 	addi	sp,sp,8
  80cf1c:	f800283a 	ret

0080cf20 <alt_up_character_lcd_write>:
  80cf20:	defffb04 	addi	sp,sp,-20
  80cf24:	df000415 	stw	fp,16(sp)
  80cf28:	df000404 	addi	fp,sp,16
  80cf2c:	e13ffd15 	stw	r4,-12(fp)
  80cf30:	e17ffe15 	stw	r5,-8(fp)
  80cf34:	e1bfff15 	stw	r6,-4(fp)
  80cf38:	e03ffc15 	stw	zero,-16(fp)
  80cf3c:	00000f06 	br	80cf7c <alt_up_character_lcd_write+0x5c>
  80cf40:	e0bffd17 	ldw	r2,-12(fp)
  80cf44:	10800a17 	ldw	r2,40(r2)
  80cf48:	11000044 	addi	r4,r2,1
  80cf4c:	e0fffc17 	ldw	r3,-16(fp)
  80cf50:	e0bffe17 	ldw	r2,-8(fp)
  80cf54:	1885883a 	add	r2,r3,r2
  80cf58:	10800003 	ldbu	r2,0(r2)
  80cf5c:	10c03fcc 	andi	r3,r2,255
  80cf60:	18c0201c 	xori	r3,r3,128
  80cf64:	18ffe004 	addi	r3,r3,-128
  80cf68:	2005883a 	mov	r2,r4
  80cf6c:	10c00025 	stbio	r3,0(r2)
  80cf70:	e0bffc17 	ldw	r2,-16(fp)
  80cf74:	10800044 	addi	r2,r2,1
  80cf78:	e0bffc15 	stw	r2,-16(fp)
  80cf7c:	e0fffc17 	ldw	r3,-16(fp)
  80cf80:	e0bfff17 	ldw	r2,-4(fp)
  80cf84:	18bfee36 	bltu	r3,r2,80cf40 <alt_up_character_lcd_write+0x20>
  80cf88:	e037883a 	mov	sp,fp
  80cf8c:	df000017 	ldw	fp,0(sp)
  80cf90:	dec00104 	addi	sp,sp,4
  80cf94:	f800283a 	ret

0080cf98 <alt_up_character_lcd_string>:
  80cf98:	defffd04 	addi	sp,sp,-12
  80cf9c:	df000215 	stw	fp,8(sp)
  80cfa0:	df000204 	addi	fp,sp,8
  80cfa4:	e13ffe15 	stw	r4,-8(fp)
  80cfa8:	e17fff15 	stw	r5,-4(fp)
  80cfac:	00000d06 	br	80cfe4 <alt_up_character_lcd_string+0x4c>
  80cfb0:	e0bffe17 	ldw	r2,-8(fp)
  80cfb4:	10800a17 	ldw	r2,40(r2)
  80cfb8:	11000044 	addi	r4,r2,1
  80cfbc:	e0bfff17 	ldw	r2,-4(fp)
  80cfc0:	10800003 	ldbu	r2,0(r2)
  80cfc4:	10c03fcc 	andi	r3,r2,255
  80cfc8:	18c0201c 	xori	r3,r3,128
  80cfcc:	18ffe004 	addi	r3,r3,-128
  80cfd0:	2005883a 	mov	r2,r4
  80cfd4:	10c00025 	stbio	r3,0(r2)
  80cfd8:	e0bfff17 	ldw	r2,-4(fp)
  80cfdc:	10800044 	addi	r2,r2,1
  80cfe0:	e0bfff15 	stw	r2,-4(fp)
  80cfe4:	e0bfff17 	ldw	r2,-4(fp)
  80cfe8:	10800003 	ldbu	r2,0(r2)
  80cfec:	10803fcc 	andi	r2,r2,255
  80cff0:	1080201c 	xori	r2,r2,128
  80cff4:	10bfe004 	addi	r2,r2,-128
  80cff8:	1004c03a 	cmpne	r2,r2,zero
  80cffc:	103fec1e 	bne	r2,zero,80cfb0 <alt_up_character_lcd_string+0x18>
  80d000:	e037883a 	mov	sp,fp
  80d004:	df000017 	ldw	fp,0(sp)
  80d008:	dec00104 	addi	sp,sp,4
  80d00c:	f800283a 	ret

0080d010 <alt_up_character_lcd_write_fd>:
  80d010:	defffb04 	addi	sp,sp,-20
  80d014:	dfc00415 	stw	ra,16(sp)
  80d018:	df000315 	stw	fp,12(sp)
  80d01c:	df000304 	addi	fp,sp,12
  80d020:	e13ffd15 	stw	r4,-12(fp)
  80d024:	e17ffe15 	stw	r5,-8(fp)
  80d028:	e1bfff15 	stw	r6,-4(fp)
  80d02c:	e0bffd17 	ldw	r2,-12(fp)
  80d030:	10800017 	ldw	r2,0(r2)
  80d034:	1009883a 	mov	r4,r2
  80d038:	e1bfff17 	ldw	r6,-4(fp)
  80d03c:	e17ffe17 	ldw	r5,-8(fp)
  80d040:	080cf200 	call	80cf20 <alt_up_character_lcd_write>
  80d044:	0005883a 	mov	r2,zero
  80d048:	e037883a 	mov	sp,fp
  80d04c:	dfc00117 	ldw	ra,4(sp)
  80d050:	df000017 	ldw	fp,0(sp)
  80d054:	dec00204 	addi	sp,sp,8
  80d058:	f800283a 	ret

0080d05c <alt_up_character_lcd_set_cursor_pos>:
  80d05c:	defff904 	addi	sp,sp,-28
  80d060:	dfc00615 	stw	ra,24(sp)
  80d064:	df000515 	stw	fp,20(sp)
  80d068:	df000504 	addi	fp,sp,20
  80d06c:	e13ffc15 	stw	r4,-16(fp)
  80d070:	e17ffd15 	stw	r5,-12(fp)
  80d074:	e1bffe15 	stw	r6,-8(fp)
  80d078:	e0bffd17 	ldw	r2,-12(fp)
  80d07c:	10800a28 	cmpgeui	r2,r2,40
  80d080:	1000031e 	bne	r2,zero,80d090 <alt_up_character_lcd_set_cursor_pos+0x34>
  80d084:	e0bffe17 	ldw	r2,-8(fp)
  80d088:	108000b0 	cmpltui	r2,r2,2
  80d08c:	1000031e 	bne	r2,zero,80d09c <alt_up_character_lcd_set_cursor_pos+0x40>
  80d090:	00bfffc4 	movi	r2,-1
  80d094:	e0bfff15 	stw	r2,-4(fp)
  80d098:	00000806 	br	80d0bc <alt_up_character_lcd_set_cursor_pos+0x60>
  80d09c:	e13ffd17 	ldw	r4,-12(fp)
  80d0a0:	e17ffe17 	ldw	r5,-8(fp)
  80d0a4:	080cdfc0 	call	80cdfc <get_DDRAM_addr>
  80d0a8:	e0bffb05 	stb	r2,-20(fp)
  80d0ac:	e17ffb03 	ldbu	r5,-20(fp)
  80d0b0:	e13ffc17 	ldw	r4,-16(fp)
  80d0b4:	080ce780 	call	80ce78 <alt_up_character_lcd_send_cmd>
  80d0b8:	e03fff15 	stw	zero,-4(fp)
  80d0bc:	e0bfff17 	ldw	r2,-4(fp)
  80d0c0:	e037883a 	mov	sp,fp
  80d0c4:	dfc00117 	ldw	ra,4(sp)
  80d0c8:	df000017 	ldw	fp,0(sp)
  80d0cc:	dec00204 	addi	sp,sp,8
  80d0d0:	f800283a 	ret

0080d0d4 <alt_up_character_lcd_shift_cursor>:
  80d0d4:	defff904 	addi	sp,sp,-28
  80d0d8:	dfc00615 	stw	ra,24(sp)
  80d0dc:	df000515 	stw	fp,20(sp)
  80d0e0:	df000504 	addi	fp,sp,20
  80d0e4:	e13ffc15 	stw	r4,-16(fp)
  80d0e8:	e17ffd15 	stw	r5,-12(fp)
  80d0ec:	e0bffd17 	ldw	r2,-12(fp)
  80d0f0:	1005003a 	cmpeq	r2,r2,zero
  80d0f4:	10001e1e 	bne	r2,zero,80d170 <alt_up_character_lcd_shift_cursor+0x9c>
  80d0f8:	e0bffd17 	ldw	r2,-12(fp)
  80d0fc:	10800050 	cmplti	r2,r2,1
  80d100:	1000031e 	bne	r2,zero,80d110 <alt_up_character_lcd_shift_cursor+0x3c>
  80d104:	00800504 	movi	r2,20
  80d108:	e0bfff05 	stb	r2,-4(fp)
  80d10c:	00000206 	br	80d118 <alt_up_character_lcd_shift_cursor+0x44>
  80d110:	00c00404 	movi	r3,16
  80d114:	e0ffff05 	stb	r3,-4(fp)
  80d118:	e0bfff03 	ldbu	r2,-4(fp)
  80d11c:	e0bffb45 	stb	r2,-19(fp)
  80d120:	e0fffd17 	ldw	r3,-12(fp)
  80d124:	e0fffe15 	stw	r3,-8(fp)
  80d128:	e0fffe17 	ldw	r3,-8(fp)
  80d12c:	1804403a 	cmpge	r2,r3,zero
  80d130:	1000031e 	bne	r2,zero,80d140 <alt_up_character_lcd_shift_cursor+0x6c>
  80d134:	e0bffe17 	ldw	r2,-8(fp)
  80d138:	0085c83a 	sub	r2,zero,r2
  80d13c:	e0bffe15 	stw	r2,-8(fp)
  80d140:	e0fffe17 	ldw	r3,-8(fp)
  80d144:	e0fffb05 	stb	r3,-20(fp)
  80d148:	00000306 	br	80d158 <alt_up_character_lcd_shift_cursor+0x84>
  80d14c:	e17ffb43 	ldbu	r5,-19(fp)
  80d150:	e13ffc17 	ldw	r4,-16(fp)
  80d154:	080ce780 	call	80ce78 <alt_up_character_lcd_send_cmd>
  80d158:	e0bffb03 	ldbu	r2,-20(fp)
  80d15c:	10bfffc4 	addi	r2,r2,-1
  80d160:	e0bffb05 	stb	r2,-20(fp)
  80d164:	e0bffb03 	ldbu	r2,-20(fp)
  80d168:	10803fd8 	cmpnei	r2,r2,255
  80d16c:	103ff71e 	bne	r2,zero,80d14c <alt_up_character_lcd_shift_cursor+0x78>
  80d170:	e037883a 	mov	sp,fp
  80d174:	dfc00117 	ldw	ra,4(sp)
  80d178:	df000017 	ldw	fp,0(sp)
  80d17c:	dec00204 	addi	sp,sp,8
  80d180:	f800283a 	ret

0080d184 <alt_up_character_lcd_shift_display>:
  80d184:	defff904 	addi	sp,sp,-28
  80d188:	dfc00615 	stw	ra,24(sp)
  80d18c:	df000515 	stw	fp,20(sp)
  80d190:	df000504 	addi	fp,sp,20
  80d194:	e13ffc15 	stw	r4,-16(fp)
  80d198:	e17ffd15 	stw	r5,-12(fp)
  80d19c:	e0bffd17 	ldw	r2,-12(fp)
  80d1a0:	1005003a 	cmpeq	r2,r2,zero
  80d1a4:	10001e1e 	bne	r2,zero,80d220 <alt_up_character_lcd_shift_display+0x9c>
  80d1a8:	e0bffd17 	ldw	r2,-12(fp)
  80d1ac:	10800050 	cmplti	r2,r2,1
  80d1b0:	1000031e 	bne	r2,zero,80d1c0 <alt_up_character_lcd_shift_display+0x3c>
  80d1b4:	00800704 	movi	r2,28
  80d1b8:	e0bfff05 	stb	r2,-4(fp)
  80d1bc:	00000206 	br	80d1c8 <alt_up_character_lcd_shift_display+0x44>
  80d1c0:	00c00604 	movi	r3,24
  80d1c4:	e0ffff05 	stb	r3,-4(fp)
  80d1c8:	e0bfff03 	ldbu	r2,-4(fp)
  80d1cc:	e0bffb45 	stb	r2,-19(fp)
  80d1d0:	e0fffd17 	ldw	r3,-12(fp)
  80d1d4:	e0fffe15 	stw	r3,-8(fp)
  80d1d8:	e0fffe17 	ldw	r3,-8(fp)
  80d1dc:	1804403a 	cmpge	r2,r3,zero
  80d1e0:	1000031e 	bne	r2,zero,80d1f0 <alt_up_character_lcd_shift_display+0x6c>
  80d1e4:	e0bffe17 	ldw	r2,-8(fp)
  80d1e8:	0085c83a 	sub	r2,zero,r2
  80d1ec:	e0bffe15 	stw	r2,-8(fp)
  80d1f0:	e0fffe17 	ldw	r3,-8(fp)
  80d1f4:	e0fffb05 	stb	r3,-20(fp)
  80d1f8:	00000306 	br	80d208 <alt_up_character_lcd_shift_display+0x84>
  80d1fc:	e17ffb43 	ldbu	r5,-19(fp)
  80d200:	e13ffc17 	ldw	r4,-16(fp)
  80d204:	080ce780 	call	80ce78 <alt_up_character_lcd_send_cmd>
  80d208:	e0bffb03 	ldbu	r2,-20(fp)
  80d20c:	10bfffc4 	addi	r2,r2,-1
  80d210:	e0bffb05 	stb	r2,-20(fp)
  80d214:	e0bffb03 	ldbu	r2,-20(fp)
  80d218:	10803fd8 	cmpnei	r2,r2,255
  80d21c:	103ff71e 	bne	r2,zero,80d1fc <alt_up_character_lcd_shift_display+0x78>
  80d220:	e037883a 	mov	sp,fp
  80d224:	dfc00117 	ldw	ra,4(sp)
  80d228:	df000017 	ldw	fp,0(sp)
  80d22c:	dec00204 	addi	sp,sp,8
  80d230:	f800283a 	ret

0080d234 <alt_up_character_lcd_erase_pos>:
  80d234:	defff904 	addi	sp,sp,-28
  80d238:	dfc00615 	stw	ra,24(sp)
  80d23c:	df000515 	stw	fp,20(sp)
  80d240:	df000504 	addi	fp,sp,20
  80d244:	e13ffc15 	stw	r4,-16(fp)
  80d248:	e17ffd15 	stw	r5,-12(fp)
  80d24c:	e1bffe15 	stw	r6,-8(fp)
  80d250:	e0bffd17 	ldw	r2,-12(fp)
  80d254:	10800a28 	cmpgeui	r2,r2,40
  80d258:	1000031e 	bne	r2,zero,80d268 <alt_up_character_lcd_erase_pos+0x34>
  80d25c:	e0bffe17 	ldw	r2,-8(fp)
  80d260:	108000b0 	cmpltui	r2,r2,2
  80d264:	1000031e 	bne	r2,zero,80d274 <alt_up_character_lcd_erase_pos+0x40>
  80d268:	00bfffc4 	movi	r2,-1
  80d26c:	e0bfff15 	stw	r2,-4(fp)
  80d270:	00000e06 	br	80d2ac <alt_up_character_lcd_erase_pos+0x78>
  80d274:	e13ffd17 	ldw	r4,-12(fp)
  80d278:	e17ffe17 	ldw	r5,-8(fp)
  80d27c:	080cdfc0 	call	80cdfc <get_DDRAM_addr>
  80d280:	e0bffb05 	stb	r2,-20(fp)
  80d284:	e17ffb03 	ldbu	r5,-20(fp)
  80d288:	e13ffc17 	ldw	r4,-16(fp)
  80d28c:	080ce780 	call	80ce78 <alt_up_character_lcd_send_cmd>
  80d290:	e0bffc17 	ldw	r2,-16(fp)
  80d294:	10800a17 	ldw	r2,40(r2)
  80d298:	10800044 	addi	r2,r2,1
  80d29c:	1007883a 	mov	r3,r2
  80d2a0:	00800084 	movi	r2,2
  80d2a4:	18800025 	stbio	r2,0(r3)
  80d2a8:	e03fff15 	stw	zero,-4(fp)
  80d2ac:	e0bfff17 	ldw	r2,-4(fp)
  80d2b0:	e037883a 	mov	sp,fp
  80d2b4:	dfc00117 	ldw	ra,4(sp)
  80d2b8:	df000017 	ldw	fp,0(sp)
  80d2bc:	dec00204 	addi	sp,sp,8
  80d2c0:	f800283a 	ret

0080d2c4 <alt_up_character_lcd_cursor_off>:
  80d2c4:	defffd04 	addi	sp,sp,-12
  80d2c8:	dfc00215 	stw	ra,8(sp)
  80d2cc:	df000115 	stw	fp,4(sp)
  80d2d0:	df000104 	addi	fp,sp,4
  80d2d4:	e13fff15 	stw	r4,-4(fp)
  80d2d8:	e13fff17 	ldw	r4,-4(fp)
  80d2dc:	01400304 	movi	r5,12
  80d2e0:	080ce780 	call	80ce78 <alt_up_character_lcd_send_cmd>
  80d2e4:	e037883a 	mov	sp,fp
  80d2e8:	dfc00117 	ldw	ra,4(sp)
  80d2ec:	df000017 	ldw	fp,0(sp)
  80d2f0:	dec00204 	addi	sp,sp,8
  80d2f4:	f800283a 	ret

0080d2f8 <alt_up_character_lcd_cursor_blink_on>:
  80d2f8:	defffd04 	addi	sp,sp,-12
  80d2fc:	dfc00215 	stw	ra,8(sp)
  80d300:	df000115 	stw	fp,4(sp)
  80d304:	df000104 	addi	fp,sp,4
  80d308:	e13fff15 	stw	r4,-4(fp)
  80d30c:	e13fff17 	ldw	r4,-4(fp)
  80d310:	014003c4 	movi	r5,15
  80d314:	080ce780 	call	80ce78 <alt_up_character_lcd_send_cmd>
  80d318:	e037883a 	mov	sp,fp
  80d31c:	dfc00117 	ldw	ra,4(sp)
  80d320:	df000017 	ldw	fp,0(sp)
  80d324:	dec00204 	addi	sp,sp,8
  80d328:	f800283a 	ret

0080d32c <alt_alarm_start>:
 */ 

int alt_alarm_start (alt_alarm* alarm, alt_u32 nticks,
                     alt_u32 (*callback) (void* context),
                     void* context)
{
  80d32c:	defff404 	addi	sp,sp,-48
  80d330:	df000b15 	stw	fp,44(sp)
  80d334:	df000b04 	addi	fp,sp,44
  80d338:	e13ffb15 	stw	r4,-20(fp)
  80d33c:	e17ffc15 	stw	r5,-16(fp)
  80d340:	e1bffd15 	stw	r6,-12(fp)
  80d344:	e1fffe15 	stw	r7,-8(fp)
  alt_irq_context irq_context;
  alt_u32 current_nticks = 0;
  80d348:	e03ff915 	stw	zero,-28(fp)
 * Obtain the system clock rate in ticks/s. 
 */

static ALT_INLINE alt_u32 ALT_ALWAYS_INLINE alt_ticks_per_second (void)
{
  return _alt_tick_rate;
  80d34c:	00802074 	movhi	r2,129
  80d350:	10899404 	addi	r2,r2,9808
  80d354:	10800017 	ldw	r2,0(r2)
  
  if (alt_ticks_per_second ())
  80d358:	1005003a 	cmpeq	r2,r2,zero
  80d35c:	1000411e 	bne	r2,zero,80d464 <alt_alarm_start+0x138>
  {
    if (alarm)
  80d360:	e0bffb17 	ldw	r2,-20(fp)
  80d364:	1005003a 	cmpeq	r2,r2,zero
  80d368:	10003b1e 	bne	r2,zero,80d458 <alt_alarm_start+0x12c>
    {
      alarm->callback = callback;
  80d36c:	e0fffb17 	ldw	r3,-20(fp)
  80d370:	e0bffd17 	ldw	r2,-12(fp)
  80d374:	18800315 	stw	r2,12(r3)
      alarm->context  = context;
  80d378:	e0fffb17 	ldw	r3,-20(fp)
  80d37c:	e0bffe17 	ldw	r2,-8(fp)
  80d380:	18800515 	stw	r2,20(r3)
static ALT_INLINE alt_irq_context ALT_ALWAYS_INLINE 
       alt_irq_disable_all (void)
{
  alt_irq_context context;

  NIOS2_READ_STATUS (context);
  80d384:	0005303a 	rdctl	r2,status
  80d388:	e0bff815 	stw	r2,-32(fp)

  NIOS2_WRITE_STATUS (context & ~NIOS2_STATUS_PIE_MSK);
  80d38c:	e0fff817 	ldw	r3,-32(fp)
  80d390:	00bfff84 	movi	r2,-2
  80d394:	1884703a 	and	r2,r3,r2
  80d398:	1001703a 	wrctl	status,r2
  
  return context;
  80d39c:	e0bff817 	ldw	r2,-32(fp)
 
      irq_context = alt_irq_disable_all ();
  80d3a0:	e0bffa15 	stw	r2,-24(fp)
 * alt_nticks() returns the elapsed number of system clock ticks since reset.
 */

static ALT_INLINE alt_u32 ALT_ALWAYS_INLINE alt_nticks (void)
{
  return _alt_nticks;
  80d3a4:	00802074 	movhi	r2,129
  80d3a8:	10899504 	addi	r2,r2,9812
  80d3ac:	10800017 	ldw	r2,0(r2)
      
      current_nticks = alt_nticks();
  80d3b0:	e0bff915 	stw	r2,-28(fp)
      
      alarm->time = nticks + current_nticks + 1; 
  80d3b4:	e0fffc17 	ldw	r3,-16(fp)
  80d3b8:	e0bff917 	ldw	r2,-28(fp)
  80d3bc:	1885883a 	add	r2,r3,r2
  80d3c0:	10c00044 	addi	r3,r2,1
  80d3c4:	e0bffb17 	ldw	r2,-20(fp)
  80d3c8:	10c00215 	stw	r3,8(r2)
      /* 
       * If the desired alarm time causes a roll-over, set the rollover
       * flag. This will prevent the subsequent tick event from causing
       * an alarm too early.
       */
      if(alarm->time < current_nticks)
  80d3cc:	e0bffb17 	ldw	r2,-20(fp)
  80d3d0:	10c00217 	ldw	r3,8(r2)
  80d3d4:	e0bff917 	ldw	r2,-28(fp)
  80d3d8:	1880042e 	bgeu	r3,r2,80d3ec <alt_alarm_start+0xc0>
      {
        alarm->rollover = 1;
  80d3dc:	e0fffb17 	ldw	r3,-20(fp)
  80d3e0:	00800044 	movi	r2,1
  80d3e4:	18800405 	stb	r2,16(r3)
  80d3e8:	00000206 	br	80d3f4 <alt_alarm_start+0xc8>
      }
      else
      {
        alarm->rollover = 0;
  80d3ec:	e0bffb17 	ldw	r2,-20(fp)
  80d3f0:	10000405 	stb	zero,16(r2)
      }
    
      alt_llist_insert (&alt_alarm_list, &alarm->llist);
  80d3f4:	e0fffb17 	ldw	r3,-20(fp)
  80d3f8:	00802074 	movhi	r2,129
  80d3fc:	10829204 	addi	r2,r2,2632
  80d400:	e0bff615 	stw	r2,-40(fp)
  80d404:	e0fff715 	stw	r3,-36(fp)
 */

static ALT_INLINE void ALT_ALWAYS_INLINE alt_llist_insert(alt_llist* list, 
                alt_llist* entry)
{
  entry->previous = list;
  80d408:	e0fff717 	ldw	r3,-36(fp)
  80d40c:	e0bff617 	ldw	r2,-40(fp)
  80d410:	18800115 	stw	r2,4(r3)
  entry->next     = list->next;
  80d414:	e0bff617 	ldw	r2,-40(fp)
  80d418:	10c00017 	ldw	r3,0(r2)
  80d41c:	e0bff717 	ldw	r2,-36(fp)
  80d420:	10c00015 	stw	r3,0(r2)

  list->next->previous = entry;
  80d424:	e0bff617 	ldw	r2,-40(fp)
  80d428:	10c00017 	ldw	r3,0(r2)
  80d42c:	e0bff717 	ldw	r2,-36(fp)
  80d430:	18800115 	stw	r2,4(r3)
  list->next           = entry;
  80d434:	e0fff617 	ldw	r3,-40(fp)
  80d438:	e0bff717 	ldw	r2,-36(fp)
  80d43c:	18800015 	stw	r2,0(r3)
  80d440:	e0bffa17 	ldw	r2,-24(fp)
  80d444:	e0bff515 	stw	r2,-44(fp)
  status &= ~NIOS2_STATUS_PIE_MSK;
  status |= (context & NIOS2_STATUS_PIE_MSK);
  
  NIOS2_WRITE_STATUS (status);
#else
  NIOS2_WRITE_STATUS (context);
  80d448:	e0bff517 	ldw	r2,-44(fp)
  80d44c:	1001703a 	wrctl	status,r2
      alt_irq_enable_all (irq_context);

      return 0;
  80d450:	e03fff15 	stw	zero,-4(fp)
  80d454:	00000506 	br	80d46c <alt_alarm_start+0x140>
    }
    else
    {
      return -EINVAL;
  80d458:	00bffa84 	movi	r2,-22
  80d45c:	e0bfff15 	stw	r2,-4(fp)
  80d460:	00000206 	br	80d46c <alt_alarm_start+0x140>
    }
  }
  else
  {
    return -ENOTSUP;
  80d464:	00bfde84 	movi	r2,-134
  80d468:	e0bfff15 	stw	r2,-4(fp)
  80d46c:	e0bfff17 	ldw	r2,-4(fp)
  }
}
  80d470:	e037883a 	mov	sp,fp
  80d474:	df000017 	ldw	fp,0(sp)
  80d478:	dec00104 	addi	sp,sp,4
  80d47c:	f800283a 	ret

0080d480 <alt_dcache_flush_all>:
/*
 * alt_dcache_flush_all() is called to flush the entire data cache.
 */

void alt_dcache_flush_all (void)
{
  80d480:	defffe04 	addi	sp,sp,-8
  80d484:	df000115 	stw	fp,4(sp)
  80d488:	df000104 	addi	fp,sp,4
#if NIOS2_DCACHE_SIZE > 0
  char* i;
  
  for (i = (char*) 0; i < (char*) NIOS2_DCACHE_SIZE; i+= NIOS2_DCACHE_LINE_SIZE)
  80d48c:	e03fff15 	stw	zero,-4(fp)
  80d490:	00000506 	br	80d4a8 <alt_dcache_flush_all+0x28>
  { 
    __asm__ volatile ("flushd (%0)" :: "r" (i));
  80d494:	e0bfff17 	ldw	r2,-4(fp)
  80d498:	1000003b 	flushd	0(r2)
void alt_dcache_flush_all (void)
{
#if NIOS2_DCACHE_SIZE > 0
  char* i;
  
  for (i = (char*) 0; i < (char*) NIOS2_DCACHE_SIZE; i+= NIOS2_DCACHE_LINE_SIZE)
  80d49c:	e0bfff17 	ldw	r2,-4(fp)
  80d4a0:	10800804 	addi	r2,r2,32
  80d4a4:	e0bfff15 	stw	r2,-4(fp)
  80d4a8:	e0bfff17 	ldw	r2,-4(fp)
  80d4ac:	10880030 	cmpltui	r2,r2,8192
  80d4b0:	103ff81e 	bne	r2,zero,80d494 <alt_dcache_flush_all+0x14>
  { 
    __asm__ volatile ("flushd (%0)" :: "r" (i));
  }
#endif /* NIOS2_DCACHE_SIZE > 0 */
}
  80d4b4:	e037883a 	mov	sp,fp
  80d4b8:	df000017 	ldw	fp,0(sp)
  80d4bc:	dec00104 	addi	sp,sp,4
  80d4c0:	f800283a 	ret

0080d4c4 <alt_dev_llist_insert>:
  80d4c4:	defff904 	addi	sp,sp,-28
  80d4c8:	dfc00615 	stw	ra,24(sp)
  80d4cc:	df000515 	stw	fp,20(sp)
  80d4d0:	df000504 	addi	fp,sp,20
  80d4d4:	e13ffd15 	stw	r4,-12(fp)
  80d4d8:	e17ffe15 	stw	r5,-8(fp)
  80d4dc:	e0bffd17 	ldw	r2,-12(fp)
  80d4e0:	1005003a 	cmpeq	r2,r2,zero
  80d4e4:	1000041e 	bne	r2,zero,80d4f8 <alt_dev_llist_insert+0x34>
  80d4e8:	e0bffd17 	ldw	r2,-12(fp)
  80d4ec:	10800217 	ldw	r2,8(r2)
  80d4f0:	1004c03a 	cmpne	r2,r2,zero
  80d4f4:	1000071e 	bne	r2,zero,80d514 <alt_dev_llist_insert+0x50>
  80d4f8:	080d5780 	call	80d578 <alt_get_errno>
  80d4fc:	1007883a 	mov	r3,r2
  80d500:	00800584 	movi	r2,22
  80d504:	18800015 	stw	r2,0(r3)
  80d508:	00bffa84 	movi	r2,-22
  80d50c:	e0bfff15 	stw	r2,-4(fp)
  80d510:	00001306 	br	80d560 <alt_dev_llist_insert+0x9c>
  80d514:	e0fffd17 	ldw	r3,-12(fp)
  80d518:	e0bffe17 	ldw	r2,-8(fp)
  80d51c:	e0bffb15 	stw	r2,-20(fp)
  80d520:	e0fffc15 	stw	r3,-16(fp)
  80d524:	e0fffc17 	ldw	r3,-16(fp)
  80d528:	e0bffb17 	ldw	r2,-20(fp)
  80d52c:	18800115 	stw	r2,4(r3)
  80d530:	e0bffb17 	ldw	r2,-20(fp)
  80d534:	10c00017 	ldw	r3,0(r2)
  80d538:	e0bffc17 	ldw	r2,-16(fp)
  80d53c:	10c00015 	stw	r3,0(r2)
  80d540:	e0bffb17 	ldw	r2,-20(fp)
  80d544:	10c00017 	ldw	r3,0(r2)
  80d548:	e0bffc17 	ldw	r2,-16(fp)
  80d54c:	18800115 	stw	r2,4(r3)
  80d550:	e0fffb17 	ldw	r3,-20(fp)
  80d554:	e0bffc17 	ldw	r2,-16(fp)
  80d558:	18800015 	stw	r2,0(r3)
  80d55c:	e03fff15 	stw	zero,-4(fp)
  80d560:	e0bfff17 	ldw	r2,-4(fp)
  80d564:	e037883a 	mov	sp,fp
  80d568:	dfc00117 	ldw	ra,4(sp)
  80d56c:	df000017 	ldw	fp,0(sp)
  80d570:	dec00204 	addi	sp,sp,8
  80d574:	f800283a 	ret

0080d578 <alt_get_errno>:
  80d578:	defffd04 	addi	sp,sp,-12
  80d57c:	dfc00215 	stw	ra,8(sp)
  80d580:	df000115 	stw	fp,4(sp)
  80d584:	df000104 	addi	fp,sp,4
  80d588:	00802074 	movhi	r2,129
  80d58c:	10827004 	addi	r2,r2,2496
  80d590:	10800017 	ldw	r2,0(r2)
  80d594:	1005003a 	cmpeq	r2,r2,zero
  80d598:	1000061e 	bne	r2,zero,80d5b4 <alt_get_errno+0x3c>
  80d59c:	00802074 	movhi	r2,129
  80d5a0:	10827004 	addi	r2,r2,2496
  80d5a4:	10800017 	ldw	r2,0(r2)
  80d5a8:	103ee83a 	callr	r2
  80d5ac:	e0bfff15 	stw	r2,-4(fp)
  80d5b0:	00000306 	br	80d5c0 <alt_get_errno+0x48>
  80d5b4:	00802074 	movhi	r2,129
  80d5b8:	10897604 	addi	r2,r2,9688
  80d5bc:	e0bfff15 	stw	r2,-4(fp)
  80d5c0:	e0bfff17 	ldw	r2,-4(fp)
  80d5c4:	e037883a 	mov	sp,fp
  80d5c8:	dfc00117 	ldw	ra,4(sp)
  80d5cc:	df000017 	ldw	fp,0(sp)
  80d5d0:	dec00204 	addi	sp,sp,8
  80d5d4:	f800283a 	ret

0080d5d8 <_do_ctors>:
  80d5d8:	defffd04 	addi	sp,sp,-12
  80d5dc:	dfc00215 	stw	ra,8(sp)
  80d5e0:	df000115 	stw	fp,4(sp)
  80d5e4:	df000104 	addi	fp,sp,4
  80d5e8:	00bfff04 	movi	r2,-4
  80d5ec:	00c02074 	movhi	r3,129
  80d5f0:	18fb3a04 	addi	r3,r3,-4888
  80d5f4:	1885883a 	add	r2,r3,r2
  80d5f8:	e0bfff15 	stw	r2,-4(fp)
  80d5fc:	00000606 	br	80d618 <_do_ctors+0x40>
  80d600:	e0bfff17 	ldw	r2,-4(fp)
  80d604:	10800017 	ldw	r2,0(r2)
  80d608:	103ee83a 	callr	r2
  80d60c:	e0bfff17 	ldw	r2,-4(fp)
  80d610:	10bfff04 	addi	r2,r2,-4
  80d614:	e0bfff15 	stw	r2,-4(fp)
  80d618:	e0ffff17 	ldw	r3,-4(fp)
  80d61c:	00802074 	movhi	r2,129
  80d620:	10bb3904 	addi	r2,r2,-4892
  80d624:	18bff62e 	bgeu	r3,r2,80d600 <_do_ctors+0x28>
  80d628:	e037883a 	mov	sp,fp
  80d62c:	dfc00117 	ldw	ra,4(sp)
  80d630:	df000017 	ldw	fp,0(sp)
  80d634:	dec00204 	addi	sp,sp,8
  80d638:	f800283a 	ret

0080d63c <_do_dtors>:
  80d63c:	defffd04 	addi	sp,sp,-12
  80d640:	dfc00215 	stw	ra,8(sp)
  80d644:	df000115 	stw	fp,4(sp)
  80d648:	df000104 	addi	fp,sp,4
  80d64c:	00bfff04 	movi	r2,-4
  80d650:	00c02074 	movhi	r3,129
  80d654:	18fb3a04 	addi	r3,r3,-4888
  80d658:	1885883a 	add	r2,r3,r2
  80d65c:	e0bfff15 	stw	r2,-4(fp)
  80d660:	00000606 	br	80d67c <_do_dtors+0x40>
  80d664:	e0bfff17 	ldw	r2,-4(fp)
  80d668:	10800017 	ldw	r2,0(r2)
  80d66c:	103ee83a 	callr	r2
  80d670:	e0bfff17 	ldw	r2,-4(fp)
  80d674:	10bfff04 	addi	r2,r2,-4
  80d678:	e0bfff15 	stw	r2,-4(fp)
  80d67c:	e0ffff17 	ldw	r3,-4(fp)
  80d680:	00802074 	movhi	r2,129
  80d684:	10bb3a04 	addi	r2,r2,-4888
  80d688:	18bff62e 	bgeu	r3,r2,80d664 <_do_dtors+0x28>
  80d68c:	e037883a 	mov	sp,fp
  80d690:	dfc00117 	ldw	ra,4(sp)
  80d694:	df000017 	ldw	fp,0(sp)
  80d698:	dec00204 	addi	sp,sp,8
  80d69c:	f800283a 	ret

0080d6a0 <alt_find_dev>:
 * "name" must be an exact match for the devices registered name for a match to
 * be found.
 */
 
alt_dev* alt_find_dev(const char* name, alt_llist* llist)
{
  80d6a0:	defff904 	addi	sp,sp,-28
  80d6a4:	dfc00615 	stw	ra,24(sp)
  80d6a8:	df000515 	stw	fp,20(sp)
  80d6ac:	df000504 	addi	fp,sp,20
  80d6b0:	e13ffd15 	stw	r4,-12(fp)
  80d6b4:	e17ffe15 	stw	r5,-8(fp)
  alt_dev* next = (alt_dev*) llist->next;
  80d6b8:	e0bffe17 	ldw	r2,-8(fp)
  80d6bc:	10800017 	ldw	r2,0(r2)
  80d6c0:	e0bffc15 	stw	r2,-16(fp)
  alt_32 len;

  len  = strlen(name) + 1;
  80d6c4:	e13ffd17 	ldw	r4,-12(fp)
  80d6c8:	08003b80 	call	8003b8 <strlen>
  80d6cc:	10800044 	addi	r2,r2,1
  80d6d0:	e0bffb15 	stw	r2,-20(fp)
  /*
   * Check each list entry in turn, until a match is found, or we reach the
   * end of the list (i.e. next winds up pointing back to the list head).
   */ 

  while (next != (alt_dev*) llist)
  80d6d4:	00000d06 	br	80d70c <alt_find_dev+0x6c>
    /* 
     * memcmp() is used here rather than strcmp() in order to reduce the size
     * of the executable.
     */

    if (!memcmp (next->name, name, len))
  80d6d8:	e0bffc17 	ldw	r2,-16(fp)
  80d6dc:	11000217 	ldw	r4,8(r2)
  80d6e0:	e1bffb17 	ldw	r6,-20(fp)
  80d6e4:	e17ffd17 	ldw	r5,-12(fp)
  80d6e8:	080e7d00 	call	80e7d0 <memcmp>
  80d6ec:	1004c03a 	cmpne	r2,r2,zero
  80d6f0:	1000031e 	bne	r2,zero,80d700 <alt_find_dev+0x60>
    {
      /* match found */

      return next;
  80d6f4:	e0bffc17 	ldw	r2,-16(fp)
  80d6f8:	e0bfff15 	stw	r2,-4(fp)
  80d6fc:	00000706 	br	80d71c <alt_find_dev+0x7c>
    }
    next = (alt_dev*) next->llist.next;
  80d700:	e0bffc17 	ldw	r2,-16(fp)
  80d704:	10800017 	ldw	r2,0(r2)
  80d708:	e0bffc15 	stw	r2,-16(fp)
  /*
   * Check each list entry in turn, until a match is found, or we reach the
   * end of the list (i.e. next winds up pointing back to the list head).
   */ 

  while (next != (alt_dev*) llist)
  80d70c:	e0fffe17 	ldw	r3,-8(fp)
  80d710:	e0bffc17 	ldw	r2,-16(fp)
  80d714:	10fff01e 	bne	r2,r3,80d6d8 <alt_find_dev+0x38>
    next = (alt_dev*) next->llist.next;
  }
  
  /* No match found */
  
  return NULL;
  80d718:	e03fff15 	stw	zero,-4(fp)
  80d71c:	e0bfff17 	ldw	r2,-4(fp)
}
  80d720:	e037883a 	mov	sp,fp
  80d724:	dfc00117 	ldw	ra,4(sp)
  80d728:	df000017 	ldw	fp,0(sp)
  80d72c:	dec00204 	addi	sp,sp,8
  80d730:	f800283a 	ret

0080d734 <alt_icache_flush_all>:
/*
 * alt_icache_flush_all() is called to flush the entire instruction cache.
 */

void alt_icache_flush_all (void)
{
  80d734:	defffe04 	addi	sp,sp,-8
  80d738:	dfc00115 	stw	ra,4(sp)
  80d73c:	df000015 	stw	fp,0(sp)
  80d740:	d839883a 	mov	fp,sp
#if NIOS2_ICACHE_SIZE > 0
  alt_icache_flush (0, NIOS2_ICACHE_SIZE);
  80d744:	0009883a 	mov	r4,zero
  80d748:	01480004 	movi	r5,8192
  80d74c:	080e6f40 	call	80e6f4 <alt_icache_flush>
#endif
}
  80d750:	e037883a 	mov	sp,fp
  80d754:	dfc00117 	ldw	ra,4(sp)
  80d758:	df000017 	ldw	fp,0(sp)
  80d75c:	dec00204 	addi	sp,sp,8
  80d760:	f800283a 	ret

0080d764 <alt_ic_isr_register>:
  * @param irq              IRQ number
  * @return                 0 if successful, else error (-1)
  */
int alt_ic_isr_register(alt_u32 ic_id, alt_u32 irq, alt_isr_func isr, 
  void *isr_context, void *flags)
{
  80d764:	defff904 	addi	sp,sp,-28
  80d768:	dfc00615 	stw	ra,24(sp)
  80d76c:	df000515 	stw	fp,20(sp)
  80d770:	df000504 	addi	fp,sp,20
  80d774:	e13ffc15 	stw	r4,-16(fp)
  80d778:	e17ffd15 	stw	r5,-12(fp)
  80d77c:	e1bffe15 	stw	r6,-8(fp)
  80d780:	e1ffff15 	stw	r7,-4(fp)
    return alt_iic_isr_register(ic_id, irq, isr, isr_context, flags);
  80d784:	e0800217 	ldw	r2,8(fp)
  80d788:	d8800015 	stw	r2,0(sp)
  80d78c:	e13ffc17 	ldw	r4,-16(fp)
  80d790:	e17ffd17 	ldw	r5,-12(fp)
  80d794:	e1bffe17 	ldw	r6,-8(fp)
  80d798:	e1ffff17 	ldw	r7,-4(fp)
  80d79c:	080d9380 	call	80d938 <alt_iic_isr_register>
}  
  80d7a0:	e037883a 	mov	sp,fp
  80d7a4:	dfc00117 	ldw	ra,4(sp)
  80d7a8:	df000017 	ldw	fp,0(sp)
  80d7ac:	dec00204 	addi	sp,sp,8
  80d7b0:	f800283a 	ret

0080d7b4 <alt_ic_irq_enable>:
  * @param ic_id            Ignored.
  * @param irq              IRQ number
  * @return                 0 if successful, else error (-1)
  */
int alt_ic_irq_enable (alt_u32 ic_id, alt_u32 irq)
{
  80d7b4:	defff904 	addi	sp,sp,-28
  80d7b8:	df000615 	stw	fp,24(sp)
  80d7bc:	df000604 	addi	fp,sp,24
  80d7c0:	e13ffe15 	stw	r4,-8(fp)
  80d7c4:	e17fff15 	stw	r5,-4(fp)
  80d7c8:	e0bfff17 	ldw	r2,-4(fp)
  80d7cc:	e0bffc15 	stw	r2,-16(fp)
static ALT_INLINE alt_irq_context ALT_ALWAYS_INLINE 
       alt_irq_disable_all (void)
{
  alt_irq_context context;

  NIOS2_READ_STATUS (context);
  80d7d0:	0005303a 	rdctl	r2,status
  80d7d4:	e0bffb15 	stw	r2,-20(fp)

  NIOS2_WRITE_STATUS (context & ~NIOS2_STATUS_PIE_MSK);
  80d7d8:	e0fffb17 	ldw	r3,-20(fp)
  80d7dc:	00bfff84 	movi	r2,-2
  80d7e0:	1884703a 	and	r2,r3,r2
  80d7e4:	1001703a 	wrctl	status,r2
  
  return context;
  80d7e8:	e0bffb17 	ldw	r2,-20(fp)
static ALT_INLINE int ALT_ALWAYS_INLINE alt_irq_enable (alt_u32 id)
{
  alt_irq_context  status;
  extern volatile alt_u32 alt_irq_active;

  status = alt_irq_disable_all ();
  80d7ec:	e0bffd15 	stw	r2,-12(fp)

  alt_irq_active |= (1 << id);
  80d7f0:	e0fffc17 	ldw	r3,-16(fp)
  80d7f4:	00800044 	movi	r2,1
  80d7f8:	10c4983a 	sll	r2,r2,r3
  80d7fc:	1007883a 	mov	r3,r2
  80d800:	00802074 	movhi	r2,129
  80d804:	10899304 	addi	r2,r2,9804
  80d808:	10800017 	ldw	r2,0(r2)
  80d80c:	1886b03a 	or	r3,r3,r2
  80d810:	00802074 	movhi	r2,129
  80d814:	10899304 	addi	r2,r2,9804
  80d818:	10c00015 	stw	r3,0(r2)
  NIOS2_WRITE_IENABLE (alt_irq_active);
  80d81c:	00802074 	movhi	r2,129
  80d820:	10899304 	addi	r2,r2,9804
  80d824:	10800017 	ldw	r2,0(r2)
  80d828:	100170fa 	wrctl	ienable,r2
  80d82c:	e0bffd17 	ldw	r2,-12(fp)
  80d830:	e0bffa15 	stw	r2,-24(fp)
  status &= ~NIOS2_STATUS_PIE_MSK;
  status |= (context & NIOS2_STATUS_PIE_MSK);
  
  NIOS2_WRITE_STATUS (status);
#else
  NIOS2_WRITE_STATUS (context);
  80d834:	e0bffa17 	ldw	r2,-24(fp)
  80d838:	1001703a 	wrctl	status,r2

  alt_irq_enable_all(status);

  return 0;
  80d83c:	0005883a 	mov	r2,zero
    return alt_irq_enable(irq);
}
  80d840:	e037883a 	mov	sp,fp
  80d844:	df000017 	ldw	fp,0(sp)
  80d848:	dec00104 	addi	sp,sp,4
  80d84c:	f800283a 	ret

0080d850 <alt_ic_irq_disable>:
  * @param ic_id            Ignored.
  * @param irq              IRQ number
  * @return                 0 if successful, else error (-1)
  */
int alt_ic_irq_disable(alt_u32 ic_id, alt_u32 irq)
{
  80d850:	defff904 	addi	sp,sp,-28
  80d854:	df000615 	stw	fp,24(sp)
  80d858:	df000604 	addi	fp,sp,24
  80d85c:	e13ffe15 	stw	r4,-8(fp)
  80d860:	e17fff15 	stw	r5,-4(fp)
  80d864:	e0bfff17 	ldw	r2,-4(fp)
  80d868:	e0bffc15 	stw	r2,-16(fp)
static ALT_INLINE alt_irq_context ALT_ALWAYS_INLINE 
       alt_irq_disable_all (void)
{
  alt_irq_context context;

  NIOS2_READ_STATUS (context);
  80d86c:	0005303a 	rdctl	r2,status
  80d870:	e0bffb15 	stw	r2,-20(fp)

  NIOS2_WRITE_STATUS (context & ~NIOS2_STATUS_PIE_MSK);
  80d874:	e0fffb17 	ldw	r3,-20(fp)
  80d878:	00bfff84 	movi	r2,-2
  80d87c:	1884703a 	and	r2,r3,r2
  80d880:	1001703a 	wrctl	status,r2
  
  return context;
  80d884:	e0bffb17 	ldw	r2,-20(fp)
static ALT_INLINE int ALT_ALWAYS_INLINE alt_irq_disable (alt_u32 id)
{
  alt_irq_context  status;
  extern volatile alt_u32 alt_irq_active;

  status = alt_irq_disable_all ();
  80d888:	e0bffd15 	stw	r2,-12(fp)

  alt_irq_active &= ~(1 << id);
  80d88c:	e0fffc17 	ldw	r3,-16(fp)
  80d890:	00800044 	movi	r2,1
  80d894:	10c4983a 	sll	r2,r2,r3
  80d898:	0084303a 	nor	r2,zero,r2
  80d89c:	1007883a 	mov	r3,r2
  80d8a0:	00802074 	movhi	r2,129
  80d8a4:	10899304 	addi	r2,r2,9804
  80d8a8:	10800017 	ldw	r2,0(r2)
  80d8ac:	1886703a 	and	r3,r3,r2
  80d8b0:	00802074 	movhi	r2,129
  80d8b4:	10899304 	addi	r2,r2,9804
  80d8b8:	10c00015 	stw	r3,0(r2)
  NIOS2_WRITE_IENABLE (alt_irq_active);
  80d8bc:	00802074 	movhi	r2,129
  80d8c0:	10899304 	addi	r2,r2,9804
  80d8c4:	10800017 	ldw	r2,0(r2)
  80d8c8:	100170fa 	wrctl	ienable,r2
  80d8cc:	e0bffd17 	ldw	r2,-12(fp)
  80d8d0:	e0bffa15 	stw	r2,-24(fp)
  status &= ~NIOS2_STATUS_PIE_MSK;
  status |= (context & NIOS2_STATUS_PIE_MSK);
  
  NIOS2_WRITE_STATUS (status);
#else
  NIOS2_WRITE_STATUS (context);
  80d8d4:	e0bffa17 	ldw	r2,-24(fp)
  80d8d8:	1001703a 	wrctl	status,r2

  alt_irq_enable_all(status);

  return 0;
  80d8dc:	0005883a 	mov	r2,zero
    return alt_irq_disable(irq);
}
  80d8e0:	e037883a 	mov	sp,fp
  80d8e4:	df000017 	ldw	fp,0(sp)
  80d8e8:	dec00104 	addi	sp,sp,4
  80d8ec:	f800283a 	ret

0080d8f0 <alt_ic_irq_enabled>:
  * @param irq              IRQ number
  * @return                 Zero if corresponding interrupt is disabled and
  *                         non-zero otherwise.
  */
alt_u32 alt_ic_irq_enabled(alt_u32 ic_id, alt_u32 irq)
{
  80d8f0:	defffc04 	addi	sp,sp,-16
  80d8f4:	df000315 	stw	fp,12(sp)
  80d8f8:	df000304 	addi	fp,sp,12
  80d8fc:	e13ffe15 	stw	r4,-8(fp)
  80d900:	e17fff15 	stw	r5,-4(fp)
    alt_u32 irq_enabled;

    NIOS2_READ_IENABLE(irq_enabled);
  80d904:	000530fa 	rdctl	r2,ienable
  80d908:	e0bffd15 	stw	r2,-12(fp)

    return (irq_enabled & (1 << irq)) ? 1: 0;
  80d90c:	e0ffff17 	ldw	r3,-4(fp)
  80d910:	00800044 	movi	r2,1
  80d914:	10c4983a 	sll	r2,r2,r3
  80d918:	1007883a 	mov	r3,r2
  80d91c:	e0bffd17 	ldw	r2,-12(fp)
  80d920:	1884703a 	and	r2,r3,r2
  80d924:	1004c03a 	cmpne	r2,r2,zero
}
  80d928:	e037883a 	mov	sp,fp
  80d92c:	df000017 	ldw	fp,0(sp)
  80d930:	dec00104 	addi	sp,sp,4
  80d934:	f800283a 	ret

0080d938 <alt_iic_isr_register>:
  * @param flags            
  * @return                 0 if successful, else error (-1)
  */
int alt_iic_isr_register(alt_u32 ic_id, alt_u32 irq, alt_isr_func isr, 
  void *isr_context, void *flags)
{
  80d938:	defff404 	addi	sp,sp,-48
  80d93c:	dfc00b15 	stw	ra,44(sp)
  80d940:	df000a15 	stw	fp,40(sp)
  80d944:	df000a04 	addi	fp,sp,40
  80d948:	e13ffb15 	stw	r4,-20(fp)
  80d94c:	e17ffc15 	stw	r5,-16(fp)
  80d950:	e1bffd15 	stw	r6,-12(fp)
  80d954:	e1fffe15 	stw	r7,-8(fp)
  int rc = -EINVAL;  
  80d958:	00bffa84 	movi	r2,-22
  80d95c:	e0bffa15 	stw	r2,-24(fp)
  int id = irq;             /* IRQ interpreted as the interrupt ID. */
  80d960:	e0bffc17 	ldw	r2,-16(fp)
  80d964:	e0bff915 	stw	r2,-28(fp)
  alt_irq_context status;

  if (id < ALT_NIRQ)
  80d968:	e0bff917 	ldw	r2,-28(fp)
  80d96c:	10800808 	cmpgei	r2,r2,32
  80d970:	1000291e 	bne	r2,zero,80da18 <alt_iic_isr_register+0xe0>
static ALT_INLINE alt_irq_context ALT_ALWAYS_INLINE 
       alt_irq_disable_all (void)
{
  alt_irq_context context;

  NIOS2_READ_STATUS (context);
  80d974:	0005303a 	rdctl	r2,status
  80d978:	e0bff715 	stw	r2,-36(fp)

  NIOS2_WRITE_STATUS (context & ~NIOS2_STATUS_PIE_MSK);
  80d97c:	e0fff717 	ldw	r3,-36(fp)
  80d980:	00bfff84 	movi	r2,-2
  80d984:	1884703a 	and	r2,r3,r2
  80d988:	1001703a 	wrctl	status,r2
  
  return context;
  80d98c:	e0bff717 	ldw	r2,-36(fp)
     * interrupts are disabled while the handler tables are updated to ensure
     * that an interrupt doesn't occur while the tables are in an inconsistant
     * state.
     */

    status = alt_irq_disable_all();
  80d990:	e0bff815 	stw	r2,-32(fp)

    alt_irq[id].handler = isr;
  80d994:	e0bff917 	ldw	r2,-28(fp)
  80d998:	00c020b4 	movhi	r3,130
  80d99c:	18e62904 	addi	r3,r3,-26460
  80d9a0:	100490fa 	slli	r2,r2,3
  80d9a4:	10c7883a 	add	r3,r2,r3
  80d9a8:	e0bffd17 	ldw	r2,-12(fp)
  80d9ac:	18800015 	stw	r2,0(r3)
    alt_irq[id].context = isr_context;
  80d9b0:	e0bff917 	ldw	r2,-28(fp)
  80d9b4:	00c020b4 	movhi	r3,130
  80d9b8:	18e62904 	addi	r3,r3,-26460
  80d9bc:	100490fa 	slli	r2,r2,3
  80d9c0:	10c5883a 	add	r2,r2,r3
  80d9c4:	10c00104 	addi	r3,r2,4
  80d9c8:	e0bffe17 	ldw	r2,-8(fp)
  80d9cc:	18800015 	stw	r2,0(r3)

    rc = (isr) ? alt_ic_irq_enable(ic_id, id) : alt_ic_irq_disable(ic_id, id);
  80d9d0:	e0bffd17 	ldw	r2,-12(fp)
  80d9d4:	1005003a 	cmpeq	r2,r2,zero
  80d9d8:	1000051e 	bne	r2,zero,80d9f0 <alt_iic_isr_register+0xb8>
  80d9dc:	e17ff917 	ldw	r5,-28(fp)
  80d9e0:	e13ffb17 	ldw	r4,-20(fp)
  80d9e4:	080d7b40 	call	80d7b4 <alt_ic_irq_enable>
  80d9e8:	e0bfff15 	stw	r2,-4(fp)
  80d9ec:	00000406 	br	80da00 <alt_iic_isr_register+0xc8>
  80d9f0:	e17ff917 	ldw	r5,-28(fp)
  80d9f4:	e13ffb17 	ldw	r4,-20(fp)
  80d9f8:	080d8500 	call	80d850 <alt_ic_irq_disable>
  80d9fc:	e0bfff15 	stw	r2,-4(fp)
  80da00:	e0bfff17 	ldw	r2,-4(fp)
  80da04:	e0bffa15 	stw	r2,-24(fp)
  80da08:	e0bff817 	ldw	r2,-32(fp)
  80da0c:	e0bff615 	stw	r2,-40(fp)
  status &= ~NIOS2_STATUS_PIE_MSK;
  status |= (context & NIOS2_STATUS_PIE_MSK);
  
  NIOS2_WRITE_STATUS (status);
#else
  NIOS2_WRITE_STATUS (context);
  80da10:	e0bff617 	ldw	r2,-40(fp)
  80da14:	1001703a 	wrctl	status,r2

    alt_irq_enable_all(status);
  }

  return rc; 
  80da18:	e0bffa17 	ldw	r2,-24(fp)
}
  80da1c:	e037883a 	mov	sp,fp
  80da20:	dfc00117 	ldw	ra,4(sp)
  80da24:	df000017 	ldw	fp,0(sp)
  80da28:	dec00204 	addi	sp,sp,8
  80da2c:	f800283a 	ret

0080da30 <alt_open_fd>:
 * If the device can not be succesfully opened, then the input file descriptor
 * remains unchanged.
 */

static void alt_open_fd(alt_fd* fd, const char* name, int flags, int mode)
{
  80da30:	defff904 	addi	sp,sp,-28
  80da34:	dfc00615 	stw	ra,24(sp)
  80da38:	df000515 	stw	fp,20(sp)
  80da3c:	df000504 	addi	fp,sp,20
  80da40:	e13ffc15 	stw	r4,-16(fp)
  80da44:	e17ffd15 	stw	r5,-12(fp)
  80da48:	e1bffe15 	stw	r6,-8(fp)
  80da4c:	e1ffff15 	stw	r7,-4(fp)
  int old;

  old = open (name, flags, mode);
  80da50:	e13ffd17 	ldw	r4,-12(fp)
  80da54:	e17ffe17 	ldw	r5,-8(fp)
  80da58:	e1bfff17 	ldw	r6,-4(fp)
  80da5c:	080dc480 	call	80dc48 <open>
  80da60:	e0bffb15 	stw	r2,-20(fp)

  if (old >= 0)
  80da64:	e0bffb17 	ldw	r2,-20(fp)
  80da68:	1004803a 	cmplt	r2,r2,zero
  80da6c:	10001c1e 	bne	r2,zero,80dae0 <alt_open_fd+0xb0>
  {
    fd->dev      = alt_fd_list[old].dev;
  80da70:	e0bffb17 	ldw	r2,-20(fp)
  80da74:	00c02074 	movhi	r3,129
  80da78:	18fdc104 	addi	r3,r3,-2300
  80da7c:	10800324 	muli	r2,r2,12
  80da80:	10c5883a 	add	r2,r2,r3
  80da84:	10c00017 	ldw	r3,0(r2)
  80da88:	e0bffc17 	ldw	r2,-16(fp)
  80da8c:	10c00015 	stw	r3,0(r2)
    fd->priv     = alt_fd_list[old].priv;
  80da90:	e0bffb17 	ldw	r2,-20(fp)
  80da94:	00c02074 	movhi	r3,129
  80da98:	18fdc104 	addi	r3,r3,-2300
  80da9c:	10800324 	muli	r2,r2,12
  80daa0:	10c5883a 	add	r2,r2,r3
  80daa4:	10800104 	addi	r2,r2,4
  80daa8:	10c00017 	ldw	r3,0(r2)
  80daac:	e0bffc17 	ldw	r2,-16(fp)
  80dab0:	10c00115 	stw	r3,4(r2)
    fd->fd_flags = alt_fd_list[old].fd_flags;
  80dab4:	e0bffb17 	ldw	r2,-20(fp)
  80dab8:	00c02074 	movhi	r3,129
  80dabc:	18fdc104 	addi	r3,r3,-2300
  80dac0:	10800324 	muli	r2,r2,12
  80dac4:	10c5883a 	add	r2,r2,r3
  80dac8:	10800204 	addi	r2,r2,8
  80dacc:	10c00017 	ldw	r3,0(r2)
  80dad0:	e0bffc17 	ldw	r2,-16(fp)
  80dad4:	10c00215 	stw	r3,8(r2)

    alt_release_fd (old);
  80dad8:	e13ffb17 	ldw	r4,-20(fp)
  80dadc:	08034740 	call	803474 <alt_release_fd>
  }
} 
  80dae0:	e037883a 	mov	sp,fp
  80dae4:	dfc00117 	ldw	ra,4(sp)
  80dae8:	df000017 	ldw	fp,0(sp)
  80daec:	dec00204 	addi	sp,sp,8
  80daf0:	f800283a 	ret

0080daf4 <alt_io_redirect>:
 */
 
void alt_io_redirect(const char* stdout_dev, 
                     const char* stdin_dev, 
                     const char* stderr_dev)
{
  80daf4:	defffb04 	addi	sp,sp,-20
  80daf8:	dfc00415 	stw	ra,16(sp)
  80dafc:	df000315 	stw	fp,12(sp)
  80db00:	df000304 	addi	fp,sp,12
  80db04:	e13ffd15 	stw	r4,-12(fp)
  80db08:	e17ffe15 	stw	r5,-8(fp)
  80db0c:	e1bfff15 	stw	r6,-4(fp)
  /* Redirect the channels */

  alt_open_fd (&alt_fd_list[STDOUT_FILENO], stdout_dev, O_WRONLY, 0777);
  80db10:	01002074 	movhi	r4,129
  80db14:	213dc404 	addi	r4,r4,-2288
  80db18:	e17ffd17 	ldw	r5,-12(fp)
  80db1c:	01800044 	movi	r6,1
  80db20:	01c07fc4 	movi	r7,511
  80db24:	080da300 	call	80da30 <alt_open_fd>
  alt_open_fd (&alt_fd_list[STDIN_FILENO], stdin_dev, O_RDONLY, 0777);
  80db28:	01002074 	movhi	r4,129
  80db2c:	213dc104 	addi	r4,r4,-2300
  80db30:	e17ffe17 	ldw	r5,-8(fp)
  80db34:	000d883a 	mov	r6,zero
  80db38:	01c07fc4 	movi	r7,511
  80db3c:	080da300 	call	80da30 <alt_open_fd>
  alt_open_fd (&alt_fd_list[STDERR_FILENO], stderr_dev, O_WRONLY, 0777);
  80db40:	01002074 	movhi	r4,129
  80db44:	213dc704 	addi	r4,r4,-2276
  80db48:	e17fff17 	ldw	r5,-4(fp)
  80db4c:	01800044 	movi	r6,1
  80db50:	01c07fc4 	movi	r7,511
  80db54:	080da300 	call	80da30 <alt_open_fd>
}  
  80db58:	e037883a 	mov	sp,fp
  80db5c:	dfc00117 	ldw	ra,4(sp)
  80db60:	df000017 	ldw	fp,0(sp)
  80db64:	dec00204 	addi	sp,sp,8
  80db68:	f800283a 	ret

0080db6c <alt_file_locked>:
 * performed for devices. Filesystems are required to handle the ioctl() call
 * themselves, and report the error from the filesystems open() function. 
 */ 

static int alt_file_locked (alt_fd* fd)
{
  80db6c:	defffc04 	addi	sp,sp,-16
  80db70:	df000315 	stw	fp,12(sp)
  80db74:	df000304 	addi	fp,sp,12
  80db78:	e13ffe15 	stw	r4,-8(fp)

  /*
   * Mark the file descriptor as belonging to a device.
   */

  fd->fd_flags |= ALT_FD_DEV;
  80db7c:	e0bffe17 	ldw	r2,-8(fp)
  80db80:	10800217 	ldw	r2,8(r2)
  80db84:	10d00034 	orhi	r3,r2,16384
  80db88:	e0bffe17 	ldw	r2,-8(fp)
  80db8c:	10c00215 	stw	r3,8(r2)
  /*
   * Loop through all current file descriptors searching for one that's locked
   * for exclusive access. If a match is found, generate an error.
   */

  for (i = 0; i <= alt_max_fd; i++)
  80db90:	e03ffd15 	stw	zero,-12(fp)
  80db94:	00002006 	br	80dc18 <alt_file_locked+0xac>
  {
    if ((alt_fd_list[i].dev == fd->dev) &&
  80db98:	e0bffd17 	ldw	r2,-12(fp)
  80db9c:	00c02074 	movhi	r3,129
  80dba0:	18fdc104 	addi	r3,r3,-2300
  80dba4:	10800324 	muli	r2,r2,12
  80dba8:	10c5883a 	add	r2,r2,r3
  80dbac:	10c00017 	ldw	r3,0(r2)
  80dbb0:	e0bffe17 	ldw	r2,-8(fp)
  80dbb4:	10800017 	ldw	r2,0(r2)
  80dbb8:	1880141e 	bne	r3,r2,80dc0c <alt_file_locked+0xa0>
  80dbbc:	e0bffd17 	ldw	r2,-12(fp)
  80dbc0:	00c02074 	movhi	r3,129
  80dbc4:	18fdc104 	addi	r3,r3,-2300
  80dbc8:	10800324 	muli	r2,r2,12
  80dbcc:	10c5883a 	add	r2,r2,r3
  80dbd0:	10800204 	addi	r2,r2,8
  80dbd4:	10800017 	ldw	r2,0(r2)
  80dbd8:	1004403a 	cmpge	r2,r2,zero
  80dbdc:	10000b1e 	bne	r2,zero,80dc0c <alt_file_locked+0xa0>
  80dbe0:	e0bffd17 	ldw	r2,-12(fp)
  80dbe4:	10800324 	muli	r2,r2,12
  80dbe8:	1007883a 	mov	r3,r2
  80dbec:	00802074 	movhi	r2,129
  80dbf0:	10bdc104 	addi	r2,r2,-2300
  80dbf4:	1887883a 	add	r3,r3,r2
  80dbf8:	e0bffe17 	ldw	r2,-8(fp)
  80dbfc:	18800326 	beq	r3,r2,80dc0c <alt_file_locked+0xa0>
        (alt_fd_list[i].fd_flags & ALT_FD_EXCL) &&
        (&alt_fd_list[i] != fd))
    {
      return -EACCES;
  80dc00:	00bffcc4 	movi	r2,-13
  80dc04:	e0bfff15 	stw	r2,-4(fp)
  80dc08:	00000a06 	br	80dc34 <alt_file_locked+0xc8>
  /*
   * Loop through all current file descriptors searching for one that's locked
   * for exclusive access. If a match is found, generate an error.
   */

  for (i = 0; i <= alt_max_fd; i++)
  80dc0c:	e0bffd17 	ldw	r2,-12(fp)
  80dc10:	10800044 	addi	r2,r2,1
  80dc14:	e0bffd15 	stw	r2,-12(fp)
  80dc18:	00802074 	movhi	r2,129
  80dc1c:	10826f04 	addi	r2,r2,2492
  80dc20:	10800017 	ldw	r2,0(r2)
  80dc24:	1007883a 	mov	r3,r2
  80dc28:	e0bffd17 	ldw	r2,-12(fp)
  80dc2c:	18bfda2e 	bgeu	r3,r2,80db98 <alt_file_locked+0x2c>
    }
  }
  
  /* The device is not locked */
 
  return 0;
  80dc30:	e03fff15 	stw	zero,-4(fp)
  80dc34:	e0bfff17 	ldw	r2,-4(fp)
}
  80dc38:	e037883a 	mov	sp,fp
  80dc3c:	df000017 	ldw	fp,0(sp)
  80dc40:	dec00104 	addi	sp,sp,4
  80dc44:	f800283a 	ret

0080dc48 <open>:
 *
 * ALT_OPEN is mapped onto the open() system call in alt_syscall.h
 */
 
int ALT_OPEN (const char* file, int flags, int mode)
{ 
  80dc48:	defff404 	addi	sp,sp,-48
  80dc4c:	dfc00b15 	stw	ra,44(sp)
  80dc50:	df000a15 	stw	fp,40(sp)
  80dc54:	df000a04 	addi	fp,sp,40
  80dc58:	e13ffb15 	stw	r4,-20(fp)
  80dc5c:	e17ffc15 	stw	r5,-16(fp)
  80dc60:	e1bffd15 	stw	r6,-12(fp)
  alt_dev* dev;
  alt_fd*  fd;
  int index  = -1;
  80dc64:	00bfffc4 	movi	r2,-1
  80dc68:	e0bff815 	stw	r2,-32(fp)
  int status = -ENODEV;
  80dc6c:	00bffb44 	movi	r2,-19
  80dc70:	e0bff715 	stw	r2,-36(fp)
  int isafs = 0;
  80dc74:	e03ff615 	stw	zero,-40(fp)
  /* 
   * Check the device list, to see if a device with a matching name is 
   * registered.
   */
  
  if (!(dev = alt_find_dev (file, &alt_dev_list)))
  80dc78:	e13ffb17 	ldw	r4,-20(fp)
  80dc7c:	01402074 	movhi	r5,129
  80dc80:	29426d04 	addi	r5,r5,2484
  80dc84:	080d6a00 	call	80d6a0 <alt_find_dev>
  80dc88:	e0bffa15 	stw	r2,-24(fp)
  80dc8c:	e0bffa17 	ldw	r2,-24(fp)
  80dc90:	1004c03a 	cmpne	r2,r2,zero
  80dc94:	1000051e 	bne	r2,zero,80dcac <open+0x64>
  {
    /* No matching device, so try the filesystem list */

    dev   = alt_find_file (file);
  80dc98:	e13ffb17 	ldw	r4,-20(fp)
  80dc9c:	080e4e00 	call	80e4e0 <alt_find_file>
  80dca0:	e0bffa15 	stw	r2,-24(fp)
    isafs = 1;
  80dca4:	00800044 	movi	r2,1
  80dca8:	e0bff615 	stw	r2,-40(fp)

  /* 
   * If a matching device or filesystem is found, allocate a file descriptor. 
   */

  if (dev)
  80dcac:	e0bffa17 	ldw	r2,-24(fp)
  80dcb0:	1005003a 	cmpeq	r2,r2,zero
  80dcb4:	1000301e 	bne	r2,zero,80dd78 <open+0x130>
  {
    if ((index = alt_get_fd (dev)) < 0)
  80dcb8:	e13ffa17 	ldw	r4,-24(fp)
  80dcbc:	080e6000 	call	80e600 <alt_get_fd>
  80dcc0:	e0bff815 	stw	r2,-32(fp)
  80dcc4:	e0bff817 	ldw	r2,-32(fp)
  80dcc8:	1004403a 	cmpge	r2,r2,zero
  80dccc:	1000031e 	bne	r2,zero,80dcdc <open+0x94>
    {
      status = index;
  80dcd0:	e0bff817 	ldw	r2,-32(fp)
  80dcd4:	e0bff715 	stw	r2,-36(fp)
  80dcd8:	00002906 	br	80dd80 <open+0x138>
    }
    else
    {
      fd = &alt_fd_list[index];
  80dcdc:	e0bff817 	ldw	r2,-32(fp)
  80dce0:	10800324 	muli	r2,r2,12
  80dce4:	1007883a 	mov	r3,r2
  80dce8:	00802074 	movhi	r2,129
  80dcec:	10bdc104 	addi	r2,r2,-2300
  80dcf0:	1885883a 	add	r2,r3,r2
  80dcf4:	e0bff915 	stw	r2,-28(fp)
      fd->fd_flags = (flags & ~ALT_FD_FLAGS_MASK);
  80dcf8:	e0fffc17 	ldw	r3,-16(fp)
  80dcfc:	00900034 	movhi	r2,16384
  80dd00:	10bfffc4 	addi	r2,r2,-1
  80dd04:	1886703a 	and	r3,r3,r2
  80dd08:	e0bff917 	ldw	r2,-28(fp)
  80dd0c:	10c00215 	stw	r3,8(r2)
      
      /* If this is a device, ensure it isn't already locked */

      if (isafs || ((status = alt_file_locked (fd)) >= 0))
  80dd10:	e0bff617 	ldw	r2,-40(fp)
  80dd14:	1004c03a 	cmpne	r2,r2,zero
  80dd18:	1000061e 	bne	r2,zero,80dd34 <open+0xec>
  80dd1c:	e13ff917 	ldw	r4,-28(fp)
  80dd20:	080db6c0 	call	80db6c <alt_file_locked>
  80dd24:	e0bff715 	stw	r2,-36(fp)
  80dd28:	e0bff717 	ldw	r2,-36(fp)
  80dd2c:	1004803a 	cmplt	r2,r2,zero
  80dd30:	1000131e 	bne	r2,zero,80dd80 <open+0x138>
        /* 
         * If the device or filesystem provides an open() callback function,
         * call it now to perform any device/filesystem specific operations.
         */
    
        status = (dev->open) ? dev->open(fd, file, flags, mode): 0;
  80dd34:	e0bffa17 	ldw	r2,-24(fp)
  80dd38:	10800317 	ldw	r2,12(r2)
  80dd3c:	1005003a 	cmpeq	r2,r2,zero
  80dd40:	1000091e 	bne	r2,zero,80dd68 <open+0x120>
  80dd44:	e0bffa17 	ldw	r2,-24(fp)
  80dd48:	10800317 	ldw	r2,12(r2)
  80dd4c:	e13ff917 	ldw	r4,-28(fp)
  80dd50:	e17ffb17 	ldw	r5,-20(fp)
  80dd54:	e1bffc17 	ldw	r6,-16(fp)
  80dd58:	e1fffd17 	ldw	r7,-12(fp)
  80dd5c:	103ee83a 	callr	r2
  80dd60:	e0bfff15 	stw	r2,-4(fp)
  80dd64:	00000106 	br	80dd6c <open+0x124>
  80dd68:	e03fff15 	stw	zero,-4(fp)
  80dd6c:	e0bfff17 	ldw	r2,-4(fp)
  80dd70:	e0bff715 	stw	r2,-36(fp)
  80dd74:	00000206 	br	80dd80 <open+0x138>
      }
    }
  }
  else
  {
    status = -ENODEV;
  80dd78:	00bffb44 	movi	r2,-19
  80dd7c:	e0bff715 	stw	r2,-36(fp)
  }

  /* Allocation failed, so clean up and return an error */ 

  if (status < 0)
  80dd80:	e0bff717 	ldw	r2,-36(fp)
  80dd84:	1004403a 	cmpge	r2,r2,zero
  80dd88:	1000091e 	bne	r2,zero,80ddb0 <open+0x168>
  {
    alt_release_fd (index);  
  80dd8c:	e13ff817 	ldw	r4,-32(fp)
  80dd90:	08034740 	call	803474 <alt_release_fd>
    ALT_ERRNO = -status;
  80dd94:	080ddd00 	call	80ddd0 <alt_get_errno>
  80dd98:	e0fff717 	ldw	r3,-36(fp)
  80dd9c:	00c7c83a 	sub	r3,zero,r3
  80dda0:	10c00015 	stw	r3,0(r2)
    return -1;
  80dda4:	00bfffc4 	movi	r2,-1
  80dda8:	e0bffe15 	stw	r2,-8(fp)
  80ddac:	00000206 	br	80ddb8 <open+0x170>
  }
  
  /* return the reference upon success */

  return index;
  80ddb0:	e0bff817 	ldw	r2,-32(fp)
  80ddb4:	e0bffe15 	stw	r2,-8(fp)
  80ddb8:	e0bffe17 	ldw	r2,-8(fp)
}
  80ddbc:	e037883a 	mov	sp,fp
  80ddc0:	dfc00117 	ldw	ra,4(sp)
  80ddc4:	df000017 	ldw	fp,0(sp)
  80ddc8:	dec00204 	addi	sp,sp,8
  80ddcc:	f800283a 	ret

0080ddd0 <alt_get_errno>:
#undef errno

extern int errno;

static ALT_INLINE int* alt_get_errno(void)
{
  80ddd0:	defffd04 	addi	sp,sp,-12
  80ddd4:	dfc00215 	stw	ra,8(sp)
  80ddd8:	df000115 	stw	fp,4(sp)
  80dddc:	df000104 	addi	fp,sp,4
  return ((alt_errno) ? alt_errno() : &errno);
  80dde0:	00802074 	movhi	r2,129
  80dde4:	10827004 	addi	r2,r2,2496
  80dde8:	10800017 	ldw	r2,0(r2)
  80ddec:	1005003a 	cmpeq	r2,r2,zero
  80ddf0:	1000061e 	bne	r2,zero,80de0c <alt_get_errno+0x3c>
  80ddf4:	00802074 	movhi	r2,129
  80ddf8:	10827004 	addi	r2,r2,2496
  80ddfc:	10800017 	ldw	r2,0(r2)
  80de00:	103ee83a 	callr	r2
  80de04:	e0bfff15 	stw	r2,-4(fp)
  80de08:	00000306 	br	80de18 <alt_get_errno+0x48>
  80de0c:	00802074 	movhi	r2,129
  80de10:	10897604 	addi	r2,r2,9688
  80de14:	e0bfff15 	stw	r2,-4(fp)
  80de18:	e0bfff17 	ldw	r2,-4(fp)
}
  80de1c:	e037883a 	mov	sp,fp
  80de20:	dfc00117 	ldw	ra,4(sp)
  80de24:	df000017 	ldw	fp,0(sp)
  80de28:	dec00204 	addi	sp,sp,8
  80de2c:	f800283a 	ret

0080de30 <alt_alarm_stop>:
  80de30:	defffa04 	addi	sp,sp,-24
  80de34:	df000515 	stw	fp,20(sp)
  80de38:	df000504 	addi	fp,sp,20
  80de3c:	e13fff15 	stw	r4,-4(fp)
  80de40:	0005303a 	rdctl	r2,status
  80de44:	e0bffd15 	stw	r2,-12(fp)
  80de48:	e0fffd17 	ldw	r3,-12(fp)
  80de4c:	00bfff84 	movi	r2,-2
  80de50:	1884703a 	and	r2,r3,r2
  80de54:	1001703a 	wrctl	status,r2
  80de58:	e0bffd17 	ldw	r2,-12(fp)
  80de5c:	e0bffe15 	stw	r2,-8(fp)
  80de60:	e0bfff17 	ldw	r2,-4(fp)
  80de64:	e0bffc15 	stw	r2,-16(fp)
  80de68:	e0bffc17 	ldw	r2,-16(fp)
  80de6c:	10c00017 	ldw	r3,0(r2)
  80de70:	e0bffc17 	ldw	r2,-16(fp)
  80de74:	10800117 	ldw	r2,4(r2)
  80de78:	18800115 	stw	r2,4(r3)
  80de7c:	e0bffc17 	ldw	r2,-16(fp)
  80de80:	10c00117 	ldw	r3,4(r2)
  80de84:	e0bffc17 	ldw	r2,-16(fp)
  80de88:	10800017 	ldw	r2,0(r2)
  80de8c:	18800015 	stw	r2,0(r3)
  80de90:	e0fffc17 	ldw	r3,-16(fp)
  80de94:	e0bffc17 	ldw	r2,-16(fp)
  80de98:	18800115 	stw	r2,4(r3)
  80de9c:	e0fffc17 	ldw	r3,-16(fp)
  80dea0:	e0bffc17 	ldw	r2,-16(fp)
  80dea4:	18800015 	stw	r2,0(r3)
  80dea8:	e0bffe17 	ldw	r2,-8(fp)
  80deac:	e0bffb15 	stw	r2,-20(fp)
  80deb0:	e0bffb17 	ldw	r2,-20(fp)
  80deb4:	1001703a 	wrctl	status,r2
  80deb8:	e037883a 	mov	sp,fp
  80debc:	df000017 	ldw	fp,0(sp)
  80dec0:	dec00104 	addi	sp,sp,4
  80dec4:	f800283a 	ret

0080dec8 <alt_tick>:
  80dec8:	defffb04 	addi	sp,sp,-20
  80decc:	dfc00415 	stw	ra,16(sp)
  80ded0:	df000315 	stw	fp,12(sp)
  80ded4:	df000304 	addi	fp,sp,12
  80ded8:	d0a02b17 	ldw	r2,-32596(gp)
  80dedc:	e0bffe15 	stw	r2,-8(fp)
  80dee0:	d0a72e17 	ldw	r2,-25416(gp)
  80dee4:	10800044 	addi	r2,r2,1
  80dee8:	d0a72e15 	stw	r2,-25416(gp)
  80deec:	00003106 	br	80dfb4 <alt_tick+0xec>
  80def0:	e0bffe17 	ldw	r2,-8(fp)
  80def4:	10800017 	ldw	r2,0(r2)
  80def8:	e0bfff15 	stw	r2,-4(fp)
  80defc:	e0bffe17 	ldw	r2,-8(fp)
  80df00:	10800403 	ldbu	r2,16(r2)
  80df04:	10803fcc 	andi	r2,r2,255
  80df08:	1005003a 	cmpeq	r2,r2,zero
  80df0c:	1000051e 	bne	r2,zero,80df24 <alt_tick+0x5c>
  80df10:	d0a72e17 	ldw	r2,-25416(gp)
  80df14:	1004c03a 	cmpne	r2,r2,zero
  80df18:	1000021e 	bne	r2,zero,80df24 <alt_tick+0x5c>
  80df1c:	e0bffe17 	ldw	r2,-8(fp)
  80df20:	10000405 	stb	zero,16(r2)
  80df24:	e0bffe17 	ldw	r2,-8(fp)
  80df28:	10c00217 	ldw	r3,8(r2)
  80df2c:	d0a72e17 	ldw	r2,-25416(gp)
  80df30:	10c01e36 	bltu	r2,r3,80dfac <alt_tick+0xe4>
  80df34:	e0bffe17 	ldw	r2,-8(fp)
  80df38:	10800403 	ldbu	r2,16(r2)
  80df3c:	10803fcc 	andi	r2,r2,255
  80df40:	1004c03a 	cmpne	r2,r2,zero
  80df44:	1000191e 	bne	r2,zero,80dfac <alt_tick+0xe4>
  80df48:	e0bffe17 	ldw	r2,-8(fp)
  80df4c:	10c00317 	ldw	r3,12(r2)
  80df50:	e0bffe17 	ldw	r2,-8(fp)
  80df54:	11000517 	ldw	r4,20(r2)
  80df58:	183ee83a 	callr	r3
  80df5c:	e0bffd15 	stw	r2,-12(fp)
  80df60:	e0bffd17 	ldw	r2,-12(fp)
  80df64:	1004c03a 	cmpne	r2,r2,zero
  80df68:	1000031e 	bne	r2,zero,80df78 <alt_tick+0xb0>
  80df6c:	e13ffe17 	ldw	r4,-8(fp)
  80df70:	080de300 	call	80de30 <alt_alarm_stop>
  80df74:	00000d06 	br	80dfac <alt_tick+0xe4>
  80df78:	e0bffe17 	ldw	r2,-8(fp)
  80df7c:	10c00217 	ldw	r3,8(r2)
  80df80:	e0bffd17 	ldw	r2,-12(fp)
  80df84:	1887883a 	add	r3,r3,r2
  80df88:	e0bffe17 	ldw	r2,-8(fp)
  80df8c:	10c00215 	stw	r3,8(r2)
  80df90:	e0bffe17 	ldw	r2,-8(fp)
  80df94:	10c00217 	ldw	r3,8(r2)
  80df98:	d0a72e17 	ldw	r2,-25416(gp)
  80df9c:	1880032e 	bgeu	r3,r2,80dfac <alt_tick+0xe4>
  80dfa0:	e0fffe17 	ldw	r3,-8(fp)
  80dfa4:	00800044 	movi	r2,1
  80dfa8:	18800405 	stb	r2,16(r3)
  80dfac:	e0bfff17 	ldw	r2,-4(fp)
  80dfb0:	e0bffe15 	stw	r2,-8(fp)
  80dfb4:	d0e02b04 	addi	r3,gp,-32596
  80dfb8:	e0bffe17 	ldw	r2,-8(fp)
  80dfbc:	10ffcc1e 	bne	r2,r3,80def0 <alt_tick+0x28>
  80dfc0:	08047740 	call	804774 <OSTimeTick>
  80dfc4:	e037883a 	mov	sp,fp
  80dfc8:	dfc00117 	ldw	ra,4(sp)
  80dfcc:	df000017 	ldw	fp,0(sp)
  80dfd0:	dec00204 	addi	sp,sp,8
  80dfd4:	f800283a 	ret

0080dfd8 <altera_nios2_qsys_irq_init>:
  80dfd8:	deffff04 	addi	sp,sp,-4
  80dfdc:	df000015 	stw	fp,0(sp)
  80dfe0:	d839883a 	mov	fp,sp
  80dfe4:	000170fa 	wrctl	ienable,zero
  80dfe8:	e037883a 	mov	sp,fp
  80dfec:	df000017 	ldw	fp,0(sp)
  80dff0:	dec00104 	addi	sp,sp,4
  80dff4:	f800283a 	ret

0080dff8 <OSCtxSw>:
  80dff8:	defff504 	addi	sp,sp,-44
  80dffc:	d0e00017 	ldw	r3,-32768(gp)
  80e000:	d1272717 	ldw	r4,-25444(gp)
  80e004:	dfc00015 	stw	ra,0(sp)
  80e008:	df000115 	stw	fp,4(sp)
  80e00c:	ddc00215 	stw	r23,8(sp)
  80e010:	dd800315 	stw	r22,12(sp)
  80e014:	dd400415 	stw	r21,16(sp)
  80e018:	dd000515 	stw	r20,20(sp)
  80e01c:	dcc00615 	stw	r19,24(sp)
  80e020:	dc800715 	stw	r18,28(sp)
  80e024:	dc400815 	stw	r17,32(sp)
  80e028:	dc000915 	stw	r16,36(sp)
  80e02c:	d8c00a15 	stw	r3,40(sp)
  80e030:	26c00015 	stw	sp,0(r4)
  80e034:	080e4180 	call	80e418 <OSTaskSwHook>
  80e038:	d1272217 	ldw	r4,-25464(gp)
  80e03c:	d1671a07 	ldb	r5,-25496(gp)
  80e040:	d1272715 	stw	r4,-25444(gp)
  80e044:	d1671a45 	stb	r5,-25495(gp)
  80e048:	26c00017 	ldw	sp,0(r4)
  80e04c:	d8c00a17 	ldw	r3,40(sp)
  80e050:	dfc00017 	ldw	ra,0(sp)
  80e054:	df000117 	ldw	fp,4(sp)
  80e058:	ddc00217 	ldw	r23,8(sp)
  80e05c:	dd800317 	ldw	r22,12(sp)
  80e060:	dd400417 	ldw	r21,16(sp)
  80e064:	dd000517 	ldw	r20,20(sp)
  80e068:	dcc00617 	ldw	r19,24(sp)
  80e06c:	dc800717 	ldw	r18,28(sp)
  80e070:	dc400817 	ldw	r17,32(sp)
  80e074:	dc000917 	ldw	r16,36(sp)
  80e078:	d0e00015 	stw	r3,-32768(gp)
  80e07c:	dec00b04 	addi	sp,sp,44
  80e080:	f800283a 	ret

0080e084 <OSStartHighRdy>:
  80e084:	0025303a 	rdctl	r18,status
  80e088:	047fff84 	movi	r17,-2
  80e08c:	9464703a 	and	r18,r18,r17
  80e090:	9001703a 	wrctl	status,r18
  80e094:	080e4180 	call	80e418 <OSTaskSwHook>
  80e098:	04800044 	movi	r18,1
  80e09c:	d4a71845 	stb	r18,-25503(gp)
  80e0a0:	003fe506 	br	80e038 <OSCtxSw+0x40>

0080e0a4 <OSStartTsk>:
  80e0a4:	06c00004 	movi	sp,0
  80e0a8:	0005303a 	rdctl	r2,status
  80e0ac:	10800054 	ori	r2,r2,1
  80e0b0:	1001703a 	wrctl	status,r2
  80e0b4:	d8800117 	ldw	r2,4(sp)
  80e0b8:	d9000017 	ldw	r4,0(sp)
  80e0bc:	dec00204 	addi	sp,sp,8
  80e0c0:	103ee83a 	callr	r2
  80e0c4:	0001883a 	nop

0080e0c8 <OSTaskStkInit>:
  80e0c8:	defff704 	addi	sp,sp,-36
  80e0cc:	dfc00815 	stw	ra,32(sp)
  80e0d0:	df000715 	stw	fp,28(sp)
  80e0d4:	df000704 	addi	fp,sp,28
  80e0d8:	e13ffc15 	stw	r4,-16(fp)
  80e0dc:	e17ffd15 	stw	r5,-12(fp)
  80e0e0:	e1bffe15 	stw	r6,-8(fp)
  80e0e4:	e1ffff0d 	sth	r7,-4(fp)
  80e0e8:	e0bffe17 	ldw	r2,-8(fp)
  80e0ec:	1007883a 	mov	r3,r2
  80e0f0:	00bfff04 	movi	r2,-4
  80e0f4:	1884703a 	and	r2,r3,r2
  80e0f8:	10bf0004 	addi	r2,r2,-1024
  80e0fc:	e0bff915 	stw	r2,-28(fp)
  80e100:	e0bff917 	ldw	r2,-28(fp)
  80e104:	10000015 	stw	zero,0(r2)
  80e108:	e0bff917 	ldw	r2,-28(fp)
  80e10c:	10c0bb04 	addi	r3,r2,748
  80e110:	e0bff917 	ldw	r2,-28(fp)
  80e114:	10c00115 	stw	r3,4(r2)
  80e118:	e0bff917 	ldw	r2,-28(fp)
  80e11c:	1080bb04 	addi	r2,r2,748
  80e120:	10c01704 	addi	r3,r2,92
  80e124:	e0bff917 	ldw	r2,-28(fp)
  80e128:	10c00215 	stw	r3,8(r2)
  80e12c:	e0bff917 	ldw	r2,-28(fp)
  80e130:	1080bb04 	addi	r2,r2,748
  80e134:	10c02e04 	addi	r3,r2,184
  80e138:	e0bff917 	ldw	r2,-28(fp)
  80e13c:	10c00315 	stw	r3,12(r2)
  80e140:	e0bff917 	ldw	r2,-28(fp)
  80e144:	10000415 	stw	zero,16(r2)
  80e148:	e0bff917 	ldw	r2,-28(fp)
  80e14c:	10800504 	addi	r2,r2,20
  80e150:	1009883a 	mov	r4,r2
  80e154:	01800644 	movi	r6,25
  80e158:	000b883a 	mov	r5,zero
  80e15c:	08026500 	call	802650 <memset>
  80e160:	e0bff917 	ldw	r2,-28(fp)
  80e164:	10000c15 	stw	zero,48(r2)
  80e168:	e0fff917 	ldw	r3,-28(fp)
  80e16c:	00802074 	movhi	r2,129
  80e170:	10bbb404 	addi	r2,r2,-4400
  80e174:	18800d15 	stw	r2,52(r3)
  80e178:	e0bff917 	ldw	r2,-28(fp)
  80e17c:	10000e15 	stw	zero,56(r2)
  80e180:	e0bff917 	ldw	r2,-28(fp)
  80e184:	10000f15 	stw	zero,60(r2)
  80e188:	e0bff917 	ldw	r2,-28(fp)
  80e18c:	10001015 	stw	zero,64(r2)
  80e190:	e0bff917 	ldw	r2,-28(fp)
  80e194:	10001115 	stw	zero,68(r2)
  80e198:	e0bff917 	ldw	r2,-28(fp)
  80e19c:	10001215 	stw	zero,72(r2)
  80e1a0:	e0bff917 	ldw	r2,-28(fp)
  80e1a4:	10001315 	stw	zero,76(r2)
  80e1a8:	e0bff917 	ldw	r2,-28(fp)
  80e1ac:	10001415 	stw	zero,80(r2)
  80e1b0:	e0bff917 	ldw	r2,-28(fp)
  80e1b4:	10001515 	stw	zero,84(r2)
  80e1b8:	e0bff917 	ldw	r2,-28(fp)
  80e1bc:	10001615 	stw	zero,88(r2)
  80e1c0:	e0bff917 	ldw	r2,-28(fp)
  80e1c4:	10001715 	stw	zero,92(r2)
  80e1c8:	e0bff917 	ldw	r2,-28(fp)
  80e1cc:	10001805 	stb	zero,96(r2)
  80e1d0:	e0bff917 	ldw	r2,-28(fp)
  80e1d4:	10801f04 	addi	r2,r2,124
  80e1d8:	10000015 	stw	zero,0(r2)
  80e1dc:	10000115 	stw	zero,4(r2)
  80e1e0:	10000215 	stw	zero,8(r2)
  80e1e4:	10000315 	stw	zero,12(r2)
  80e1e8:	10000415 	stw	zero,16(r2)
  80e1ec:	10000515 	stw	zero,20(r2)
  80e1f0:	10000615 	stw	zero,24(r2)
  80e1f4:	10000715 	stw	zero,28(r2)
  80e1f8:	10000815 	stw	zero,32(r2)
  80e1fc:	e0bff917 	ldw	r2,-28(fp)
  80e200:	10002815 	stw	zero,160(r2)
  80e204:	e0fff917 	ldw	r3,-28(fp)
  80e208:	00800044 	movi	r2,1
  80e20c:	18802915 	stw	r2,164(r3)
  80e210:	18002a15 	stw	zero,168(r3)
  80e214:	e0fff917 	ldw	r3,-28(fp)
  80e218:	008cc384 	movi	r2,13070
  80e21c:	18802b0d 	sth	r2,172(r3)
  80e220:	e0fff917 	ldw	r3,-28(fp)
  80e224:	00aaf344 	movi	r2,-21555
  80e228:	18802b8d 	sth	r2,174(r3)
  80e22c:	e0fff917 	ldw	r3,-28(fp)
  80e230:	00848d04 	movi	r2,4660
  80e234:	18802c0d 	sth	r2,176(r3)
  80e238:	e0fff917 	ldw	r3,-28(fp)
  80e23c:	00b99b44 	movi	r2,-6547
  80e240:	18802c8d 	sth	r2,178(r3)
  80e244:	e0fff917 	ldw	r3,-28(fp)
  80e248:	00b7bb04 	movi	r2,-8468
  80e24c:	18802d0d 	sth	r2,180(r3)
  80e250:	e0fff917 	ldw	r3,-28(fp)
  80e254:	00800144 	movi	r2,5
  80e258:	18802d8d 	sth	r2,182(r3)
  80e25c:	e0fff917 	ldw	r3,-28(fp)
  80e260:	008002c4 	movi	r2,11
  80e264:	18802e0d 	sth	r2,184(r3)
  80e268:	e0bff917 	ldw	r2,-28(fp)
  80e26c:	10002f15 	stw	zero,188(r2)
  80e270:	e0bff917 	ldw	r2,-28(fp)
  80e274:	10003015 	stw	zero,192(r2)
  80e278:	e0bff917 	ldw	r2,-28(fp)
  80e27c:	10003115 	stw	zero,196(r2)
  80e280:	e0bff917 	ldw	r2,-28(fp)
  80e284:	10003215 	stw	zero,200(r2)
  80e288:	e0bff917 	ldw	r2,-28(fp)
  80e28c:	10003315 	stw	zero,204(r2)
  80e290:	e0bff917 	ldw	r2,-28(fp)
  80e294:	10003415 	stw	zero,208(r2)
  80e298:	e0bff917 	ldw	r2,-28(fp)
  80e29c:	10003e15 	stw	zero,248(r2)
  80e2a0:	e0bff917 	ldw	r2,-28(fp)
  80e2a4:	10003f15 	stw	zero,252(r2)
  80e2a8:	e0bff917 	ldw	r2,-28(fp)
  80e2ac:	10004015 	stw	zero,256(r2)
  80e2b0:	e0bff917 	ldw	r2,-28(fp)
  80e2b4:	10004115 	stw	zero,260(r2)
  80e2b8:	e0bff917 	ldw	r2,-28(fp)
  80e2bc:	10004215 	stw	zero,264(r2)
  80e2c0:	e0bff917 	ldw	r2,-28(fp)
  80e2c4:	10004315 	stw	zero,268(r2)
  80e2c8:	e0bff917 	ldw	r2,-28(fp)
  80e2cc:	10004415 	stw	zero,272(r2)
  80e2d0:	e0bff917 	ldw	r2,-28(fp)
  80e2d4:	10004515 	stw	zero,276(r2)
  80e2d8:	e0bff917 	ldw	r2,-28(fp)
  80e2dc:	10004615 	stw	zero,280(r2)
  80e2e0:	e0bff917 	ldw	r2,-28(fp)
  80e2e4:	10004715 	stw	zero,284(r2)
  80e2e8:	e0bff917 	ldw	r2,-28(fp)
  80e2ec:	10003505 	stb	zero,212(r2)
  80e2f0:	e0bff917 	ldw	r2,-28(fp)
  80e2f4:	10003705 	stb	zero,220(r2)
  80e2f8:	e0bff917 	ldw	r2,-28(fp)
  80e2fc:	10003d15 	stw	zero,244(r2)
  80e300:	e0bff917 	ldw	r2,-28(fp)
  80e304:	10005215 	stw	zero,328(r2)
  80e308:	e0bff917 	ldw	r2,-28(fp)
  80e30c:	10005315 	stw	zero,332(r2)
  80e310:	e0bff917 	ldw	r2,-28(fp)
  80e314:	10005415 	stw	zero,336(r2)
  80e318:	e0bff917 	ldw	r2,-28(fp)
  80e31c:	10005515 	stw	zero,340(r2)
  80e320:	e0bff917 	ldw	r2,-28(fp)
  80e324:	1000b515 	stw	zero,724(r2)
  80e328:	e0bff917 	ldw	r2,-28(fp)
  80e32c:	10007515 	stw	zero,468(r2)
  80e330:	e0bff917 	ldw	r2,-28(fp)
  80e334:	1000b715 	stw	zero,732(r2)
  80e338:	e0bff917 	ldw	r2,-28(fp)
  80e33c:	1000b815 	stw	zero,736(r2)
  80e340:	e0bff917 	ldw	r2,-28(fp)
  80e344:	1000b915 	stw	zero,740(r2)
  80e348:	e0bff917 	ldw	r2,-28(fp)
  80e34c:	1000ba15 	stw	zero,744(r2)
  80e350:	e0bff917 	ldw	r2,-28(fp)
  80e354:	1080bb04 	addi	r2,r2,748
  80e358:	1009883a 	mov	r4,r2
  80e35c:	01804504 	movi	r6,276
  80e360:	000b883a 	mov	r5,zero
  80e364:	08026500 	call	802650 <memset>
  80e368:	e0bff917 	ldw	r2,-28(fp)
  80e36c:	e0bffb15 	stw	r2,-20(fp)
  80e370:	e0bffb17 	ldw	r2,-20(fp)
  80e374:	10bff304 	addi	r2,r2,-52
  80e378:	e0bffa15 	stw	r2,-24(fp)
  80e37c:	e0bffa17 	ldw	r2,-24(fp)
  80e380:	10c00c04 	addi	r3,r2,48
  80e384:	e0bffc17 	ldw	r2,-16(fp)
  80e388:	18800015 	stw	r2,0(r3)
  80e38c:	e0bffa17 	ldw	r2,-24(fp)
  80e390:	10c00b04 	addi	r3,r2,44
  80e394:	e0bffd17 	ldw	r2,-12(fp)
  80e398:	18800015 	stw	r2,0(r3)
  80e39c:	e0bffa17 	ldw	r2,-24(fp)
  80e3a0:	10c00a04 	addi	r3,r2,40
  80e3a4:	e0bff917 	ldw	r2,-28(fp)
  80e3a8:	18800015 	stw	r2,0(r3)
  80e3ac:	00802074 	movhi	r2,129
  80e3b0:	10b82904 	addi	r2,r2,-8028
  80e3b4:	10c00104 	addi	r3,r2,4
  80e3b8:	e0bffa17 	ldw	r2,-24(fp)
  80e3bc:	10c00015 	stw	r3,0(r2)
  80e3c0:	e0bffa17 	ldw	r2,-24(fp)
  80e3c4:	e037883a 	mov	sp,fp
  80e3c8:	dfc00117 	ldw	ra,4(sp)
  80e3cc:	df000017 	ldw	fp,0(sp)
  80e3d0:	dec00204 	addi	sp,sp,8
  80e3d4:	f800283a 	ret

0080e3d8 <OSTaskCreateHook>:
  80e3d8:	defffe04 	addi	sp,sp,-8
  80e3dc:	df000115 	stw	fp,4(sp)
  80e3e0:	df000104 	addi	fp,sp,4
  80e3e4:	e13fff15 	stw	r4,-4(fp)
  80e3e8:	e037883a 	mov	sp,fp
  80e3ec:	df000017 	ldw	fp,0(sp)
  80e3f0:	dec00104 	addi	sp,sp,4
  80e3f4:	f800283a 	ret

0080e3f8 <OSTaskDelHook>:
  80e3f8:	defffe04 	addi	sp,sp,-8
  80e3fc:	df000115 	stw	fp,4(sp)
  80e400:	df000104 	addi	fp,sp,4
  80e404:	e13fff15 	stw	r4,-4(fp)
  80e408:	e037883a 	mov	sp,fp
  80e40c:	df000017 	ldw	fp,0(sp)
  80e410:	dec00104 	addi	sp,sp,4
  80e414:	f800283a 	ret

0080e418 <OSTaskSwHook>:
  80e418:	deffff04 	addi	sp,sp,-4
  80e41c:	df000015 	stw	fp,0(sp)
  80e420:	d839883a 	mov	fp,sp
  80e424:	e037883a 	mov	sp,fp
  80e428:	df000017 	ldw	fp,0(sp)
  80e42c:	dec00104 	addi	sp,sp,4
  80e430:	f800283a 	ret

0080e434 <OSTaskStatHook>:
  80e434:	deffff04 	addi	sp,sp,-4
  80e438:	df000015 	stw	fp,0(sp)
  80e43c:	d839883a 	mov	fp,sp
  80e440:	e037883a 	mov	sp,fp
  80e444:	df000017 	ldw	fp,0(sp)
  80e448:	dec00104 	addi	sp,sp,4
  80e44c:	f800283a 	ret

0080e450 <OSTimeTickHook>:
  80e450:	deffff04 	addi	sp,sp,-4
  80e454:	df000015 	stw	fp,0(sp)
  80e458:	d839883a 	mov	fp,sp
  80e45c:	e037883a 	mov	sp,fp
  80e460:	df000017 	ldw	fp,0(sp)
  80e464:	dec00104 	addi	sp,sp,4
  80e468:	f800283a 	ret

0080e46c <OSInitHookBegin>:
  80e46c:	deffff04 	addi	sp,sp,-4
  80e470:	df000015 	stw	fp,0(sp)
  80e474:	d839883a 	mov	fp,sp
  80e478:	e037883a 	mov	sp,fp
  80e47c:	df000017 	ldw	fp,0(sp)
  80e480:	dec00104 	addi	sp,sp,4
  80e484:	f800283a 	ret

0080e488 <OSInitHookEnd>:
  80e488:	deffff04 	addi	sp,sp,-4
  80e48c:	df000015 	stw	fp,0(sp)
  80e490:	d839883a 	mov	fp,sp
  80e494:	e037883a 	mov	sp,fp
  80e498:	df000017 	ldw	fp,0(sp)
  80e49c:	dec00104 	addi	sp,sp,4
  80e4a0:	f800283a 	ret

0080e4a4 <OSTaskIdleHook>:
  80e4a4:	deffff04 	addi	sp,sp,-4
  80e4a8:	df000015 	stw	fp,0(sp)
  80e4ac:	d839883a 	mov	fp,sp
  80e4b0:	e037883a 	mov	sp,fp
  80e4b4:	df000017 	ldw	fp,0(sp)
  80e4b8:	dec00104 	addi	sp,sp,4
  80e4bc:	f800283a 	ret

0080e4c0 <OSTCBInitHook>:
  80e4c0:	defffe04 	addi	sp,sp,-8
  80e4c4:	df000115 	stw	fp,4(sp)
  80e4c8:	df000104 	addi	fp,sp,4
  80e4cc:	e13fff15 	stw	r4,-4(fp)
  80e4d0:	e037883a 	mov	sp,fp
  80e4d4:	df000017 	ldw	fp,0(sp)
  80e4d8:	dec00104 	addi	sp,sp,4
  80e4dc:	f800283a 	ret

0080e4e0 <alt_find_file>:
 * either '/' or '\0' is the prefix of the filename. For example the filename:
 * "/myfilesystem/junk.txt" would match: "/myfilesystem", but not: "/myfile". 
 */
 
alt_dev* alt_find_file (const char* name)
{
  80e4e0:	defffa04 	addi	sp,sp,-24
  80e4e4:	dfc00515 	stw	ra,20(sp)
  80e4e8:	df000415 	stw	fp,16(sp)
  80e4ec:	df000404 	addi	fp,sp,16
  80e4f0:	e13ffe15 	stw	r4,-8(fp)
  alt_dev* next = (alt_dev*) alt_fs_list.next;   
  80e4f4:	00802074 	movhi	r2,129
  80e4f8:	10826b04 	addi	r2,r2,2476
  80e4fc:	10800017 	ldw	r2,0(r2)
  80e500:	e0bffd15 	stw	r2,-12(fp)
  /*
   * Check each list entry in turn, until a match is found, or we reach the
   * end of the list (i.e. next winds up pointing back to the list head).
   */ 
 
  while (next != (alt_dev*) &alt_fs_list)
  80e504:	00003306 	br	80e5d4 <alt_find_file+0xf4>
  {
    len = strlen(next->name);
  80e508:	e0bffd17 	ldw	r2,-12(fp)
  80e50c:	11000217 	ldw	r4,8(r2)
  80e510:	08003b80 	call	8003b8 <strlen>
  80e514:	e0bffc15 	stw	r2,-16(fp)
    
    if (next->name[len-1] == '/')
  80e518:	e0bffd17 	ldw	r2,-12(fp)
  80e51c:	10c00217 	ldw	r3,8(r2)
  80e520:	e0bffc17 	ldw	r2,-16(fp)
  80e524:	1885883a 	add	r2,r3,r2
  80e528:	10bfffc4 	addi	r2,r2,-1
  80e52c:	10800003 	ldbu	r2,0(r2)
  80e530:	10803fcc 	andi	r2,r2,255
  80e534:	1080201c 	xori	r2,r2,128
  80e538:	10bfe004 	addi	r2,r2,-128
  80e53c:	10800bd8 	cmpnei	r2,r2,47
  80e540:	1000031e 	bne	r2,zero,80e550 <alt_find_file+0x70>
    {
      len -= 1;
  80e544:	e0bffc17 	ldw	r2,-16(fp)
  80e548:	10bfffc4 	addi	r2,r2,-1
  80e54c:	e0bffc15 	stw	r2,-16(fp)
    }

    if (((name[len] == '/') || (name[len] == '\0')) && 
  80e550:	e0bffc17 	ldw	r2,-16(fp)
  80e554:	1007883a 	mov	r3,r2
  80e558:	e0bffe17 	ldw	r2,-8(fp)
  80e55c:	1885883a 	add	r2,r3,r2
  80e560:	10800003 	ldbu	r2,0(r2)
  80e564:	10803fcc 	andi	r2,r2,255
  80e568:	1080201c 	xori	r2,r2,128
  80e56c:	10bfe004 	addi	r2,r2,-128
  80e570:	10800be0 	cmpeqi	r2,r2,47
  80e574:	10000a1e 	bne	r2,zero,80e5a0 <alt_find_file+0xc0>
  80e578:	e0bffc17 	ldw	r2,-16(fp)
  80e57c:	1007883a 	mov	r3,r2
  80e580:	e0bffe17 	ldw	r2,-8(fp)
  80e584:	1885883a 	add	r2,r3,r2
  80e588:	10800003 	ldbu	r2,0(r2)
  80e58c:	10803fcc 	andi	r2,r2,255
  80e590:	1080201c 	xori	r2,r2,128
  80e594:	10bfe004 	addi	r2,r2,-128
  80e598:	1004c03a 	cmpne	r2,r2,zero
  80e59c:	10000a1e 	bne	r2,zero,80e5c8 <alt_find_file+0xe8>
  80e5a0:	e0bffd17 	ldw	r2,-12(fp)
  80e5a4:	11000217 	ldw	r4,8(r2)
  80e5a8:	e1bffc17 	ldw	r6,-16(fp)
  80e5ac:	e17ffe17 	ldw	r5,-8(fp)
  80e5b0:	080e7d00 	call	80e7d0 <memcmp>
  80e5b4:	1004c03a 	cmpne	r2,r2,zero
  80e5b8:	1000031e 	bne	r2,zero,80e5c8 <alt_find_file+0xe8>
        !memcmp (next->name, name, len))
    {
      /* match found */

      return next;
  80e5bc:	e0bffd17 	ldw	r2,-12(fp)
  80e5c0:	e0bfff15 	stw	r2,-4(fp)
  80e5c4:	00000806 	br	80e5e8 <alt_find_file+0x108>
    }
    next = (alt_dev*) next->llist.next;
  80e5c8:	e0bffd17 	ldw	r2,-12(fp)
  80e5cc:	10800017 	ldw	r2,0(r2)
  80e5d0:	e0bffd15 	stw	r2,-12(fp)
  /*
   * Check each list entry in turn, until a match is found, or we reach the
   * end of the list (i.e. next winds up pointing back to the list head).
   */ 
 
  while (next != (alt_dev*) &alt_fs_list)
  80e5d4:	00c02074 	movhi	r3,129
  80e5d8:	18c26b04 	addi	r3,r3,2476
  80e5dc:	e0bffd17 	ldw	r2,-12(fp)
  80e5e0:	10ffc91e 	bne	r2,r3,80e508 <alt_find_file+0x28>
    next = (alt_dev*) next->llist.next;
  }
  
  /* No match found */
  
  return NULL;     
  80e5e4:	e03fff15 	stw	zero,-4(fp)
  80e5e8:	e0bfff17 	ldw	r2,-4(fp)
}
  80e5ec:	e037883a 	mov	sp,fp
  80e5f0:	dfc00117 	ldw	ra,4(sp)
  80e5f4:	df000017 	ldw	fp,0(sp)
  80e5f8:	dec00204 	addi	sp,sp,8
  80e5fc:	f800283a 	ret

0080e600 <alt_get_fd>:
 * the offset of the file descriptor within the file descriptor array). A
 * negative value indicates failure.
 */

int alt_get_fd (alt_dev* dev)
{
  80e600:	defff804 	addi	sp,sp,-32
  80e604:	dfc00715 	stw	ra,28(sp)
  80e608:	df000615 	stw	fp,24(sp)
  80e60c:	df000604 	addi	fp,sp,24
  80e610:	e13fff15 	stw	r4,-4(fp)
  alt_32 i;
  int rc = -EMFILE;
  80e614:	00bffa04 	movi	r2,-24
  80e618:	e0bffc15 	stw	r2,-16(fp)
  /* 
   * Take the alt_fd_list_lock semaphore in order to avoid races when 
   * accessing the file descriptor pool.
   */
  
  ALT_SEM_PEND(alt_fd_list_lock, 0);
  80e61c:	00802074 	movhi	r2,129
  80e620:	10897704 	addi	r2,r2,9692
  80e624:	10800017 	ldw	r2,0(r2)
  80e628:	e0bffa15 	stw	r2,-24(fp)
  80e62c:	e03ffb0d 	sth	zero,-20(fp)

static ALT_INLINE int ALT_ALWAYS_INLINE alt_sem_pend (OS_EVENT* sem, 
                  INT16U timeout)
{
  INT8U err;
  OSSemPend (sem, timeout, &err);
  80e630:	e17ffb0b 	ldhu	r5,-20(fp)
  80e634:	e1bffe04 	addi	r6,fp,-8
  80e638:	e13ffa17 	ldw	r4,-24(fp)
  80e63c:	08095900 	call	809590 <OSSemPend>
   * indicates the highest file descriptor ever allocated. This is used to
   * improve efficency when searching the file descriptor list, and 
   * therefore reduce contention on the alt_fd_list_lock semaphore. 
   */

  for (i = 0; i < ALT_MAX_FD; i++)
  80e640:	e03ffd15 	stw	zero,-12(fp)
  80e644:	00001e06 	br	80e6c0 <alt_get_fd+0xc0>
  {
    if (!alt_fd_list[i].dev)
  80e648:	e0bffd17 	ldw	r2,-12(fp)
  80e64c:	00c02074 	movhi	r3,129
  80e650:	18fdc104 	addi	r3,r3,-2300
  80e654:	10800324 	muli	r2,r2,12
  80e658:	10c5883a 	add	r2,r2,r3
  80e65c:	10800017 	ldw	r2,0(r2)
  80e660:	1004c03a 	cmpne	r2,r2,zero
  80e664:	1000131e 	bne	r2,zero,80e6b4 <alt_get_fd+0xb4>
    {
      alt_fd_list[i].dev = dev;
  80e668:	e0bffd17 	ldw	r2,-12(fp)
  80e66c:	00c02074 	movhi	r3,129
  80e670:	18fdc104 	addi	r3,r3,-2300
  80e674:	10800324 	muli	r2,r2,12
  80e678:	10c7883a 	add	r3,r2,r3
  80e67c:	e0bfff17 	ldw	r2,-4(fp)
  80e680:	18800015 	stw	r2,0(r3)
      if (i > alt_max_fd)
  80e684:	00802074 	movhi	r2,129
  80e688:	10826f04 	addi	r2,r2,2492
  80e68c:	10c00017 	ldw	r3,0(r2)
  80e690:	e0bffd17 	ldw	r2,-12(fp)
  80e694:	1880040e 	bge	r3,r2,80e6a8 <alt_get_fd+0xa8>
      {
        alt_max_fd = i;
  80e698:	00c02074 	movhi	r3,129
  80e69c:	18c26f04 	addi	r3,r3,2492
  80e6a0:	e0bffd17 	ldw	r2,-12(fp)
  80e6a4:	18800015 	stw	r2,0(r3)
      }
      rc = i;
  80e6a8:	e0bffd17 	ldw	r2,-12(fp)
  80e6ac:	e0bffc15 	stw	r2,-16(fp)
      goto alt_get_fd_exit;
  80e6b0:	00000606 	br	80e6cc <alt_get_fd+0xcc>
   * indicates the highest file descriptor ever allocated. This is used to
   * improve efficency when searching the file descriptor list, and 
   * therefore reduce contention on the alt_fd_list_lock semaphore. 
   */

  for (i = 0; i < ALT_MAX_FD; i++)
  80e6b4:	e0bffd17 	ldw	r2,-12(fp)
  80e6b8:	10800044 	addi	r2,r2,1
  80e6bc:	e0bffd15 	stw	r2,-12(fp)
  80e6c0:	e0bffd17 	ldw	r2,-12(fp)
  80e6c4:	10800810 	cmplti	r2,r2,32
  80e6c8:	103fdf1e 	bne	r2,zero,80e648 <alt_get_fd+0x48>
  /*
   * Release the alt_fd_list_lock semaphore now that we are done with the
   * file descriptor pool.
   */

  ALT_SEM_POST(alt_fd_list_lock);
  80e6cc:	00802074 	movhi	r2,129
  80e6d0:	10897704 	addi	r2,r2,9692
  80e6d4:	11000017 	ldw	r4,0(r2)
  80e6d8:	08099880 	call	809988 <OSSemPost>

  return rc;
  80e6dc:	e0bffc17 	ldw	r2,-16(fp)
}
  80e6e0:	e037883a 	mov	sp,fp
  80e6e4:	dfc00117 	ldw	ra,4(sp)
  80e6e8:	df000017 	ldw	fp,0(sp)
  80e6ec:	dec00204 	addi	sp,sp,8
  80e6f0:	f800283a 	ret

0080e6f4 <alt_icache_flush>:
 * alt_icache_flush() is called to flush the instruction cache for a memory
 * region of length "len" bytes, starting at address "start".
 */

void alt_icache_flush (void* start, alt_u32 len)
{
  80e6f4:	defffb04 	addi	sp,sp,-20
  80e6f8:	df000415 	stw	fp,16(sp)
  80e6fc:	df000404 	addi	fp,sp,16
  80e700:	e13ffe15 	stw	r4,-8(fp)
  80e704:	e17fff15 	stw	r5,-4(fp)

  /*
   * This is the most we would ever need to flush.
   */
 
  if (len > NIOS2_ICACHE_SIZE)
  80e708:	e0bfff17 	ldw	r2,-4(fp)
  80e70c:	10880070 	cmpltui	r2,r2,8193
  80e710:	1000021e 	bne	r2,zero,80e71c <alt_icache_flush+0x28>
  {
    len = NIOS2_ICACHE_SIZE;
  80e714:	00880004 	movi	r2,8192
  80e718:	e0bfff15 	stw	r2,-4(fp)
  }

  end = ((char*) start) + len;
  80e71c:	e0fffe17 	ldw	r3,-8(fp)
  80e720:	e0bfff17 	ldw	r2,-4(fp)
  80e724:	1885883a 	add	r2,r3,r2
  80e728:	e0bffc15 	stw	r2,-16(fp)

  for (i = start; i < end; i+= NIOS2_ICACHE_LINE_SIZE)
  80e72c:	e0bffe17 	ldw	r2,-8(fp)
  80e730:	e0bffd15 	stw	r2,-12(fp)
  80e734:	00000506 	br	80e74c <alt_icache_flush+0x58>
  { 
    __asm__ volatile ("flushi %0" :: "r" (i)); 
  80e738:	e0bffd17 	ldw	r2,-12(fp)
  80e73c:	1000603a 	flushi	r2
    len = NIOS2_ICACHE_SIZE;
  }

  end = ((char*) start) + len;

  for (i = start; i < end; i+= NIOS2_ICACHE_LINE_SIZE)
  80e740:	e0bffd17 	ldw	r2,-12(fp)
  80e744:	10800804 	addi	r2,r2,32
  80e748:	e0bffd15 	stw	r2,-12(fp)
  80e74c:	e0fffd17 	ldw	r3,-12(fp)
  80e750:	e0bffc17 	ldw	r2,-16(fp)
  80e754:	18bff836 	bltu	r3,r2,80e738 <alt_icache_flush+0x44>
   * For an unaligned flush request, we've got one more line left.
   * Note that this is dependent on NIOS2_ICACHE_LINE_SIZE to be a 
   * multiple of 2 (which it always is).
   */

  if (((alt_u32) start) & (NIOS2_ICACHE_LINE_SIZE - 1))
  80e758:	e0bffe17 	ldw	r2,-8(fp)
  80e75c:	108007cc 	andi	r2,r2,31
  80e760:	1005003a 	cmpeq	r2,r2,zero
  80e764:	1000021e 	bne	r2,zero,80e770 <alt_icache_flush+0x7c>
  {
    __asm__ volatile ("flushi %0" :: "r" (i));
  80e768:	e0bffd17 	ldw	r2,-12(fp)
  80e76c:	1000603a 	flushi	r2
  /* 
   * Having flushed the cache, flush any stale instructions in the 
   * pipeline 
   */

  __asm__ volatile ("flushp");
  80e770:	0000203a 	flushp

#endif /* NIOS2_ICACHE_SIZE > 0 */
}
  80e774:	e037883a 	mov	sp,fp
  80e778:	df000017 	ldw	fp,0(sp)
  80e77c:	dec00104 	addi	sp,sp,4
  80e780:	f800283a 	ret

0080e784 <atexit>:
  80e784:	200b883a 	mov	r5,r4
  80e788:	000d883a 	mov	r6,zero
  80e78c:	0009883a 	mov	r4,zero
  80e790:	000f883a 	mov	r7,zero
  80e794:	080e8441 	jmpi	80e844 <__register_exitproc>

0080e798 <exit>:
  80e798:	defffe04 	addi	sp,sp,-8
  80e79c:	000b883a 	mov	r5,zero
  80e7a0:	dc000015 	stw	r16,0(sp)
  80e7a4:	dfc00115 	stw	ra,4(sp)
  80e7a8:	2021883a 	mov	r16,r4
  80e7ac:	080e97c0 	call	80e97c <__call_exitprocs>
  80e7b0:	00802074 	movhi	r2,129
  80e7b4:	10826804 	addi	r2,r2,2464
  80e7b8:	11000017 	ldw	r4,0(r2)
  80e7bc:	20800f17 	ldw	r2,60(r4)
  80e7c0:	10000126 	beq	r2,zero,80e7c8 <exit+0x30>
  80e7c4:	103ee83a 	callr	r2
  80e7c8:	8009883a 	mov	r4,r16
  80e7cc:	080ecb80 	call	80ecb8 <_exit>

0080e7d0 <memcmp>:
  80e7d0:	00c000c4 	movi	r3,3
  80e7d4:	1980032e 	bgeu	r3,r6,80e7e4 <memcmp+0x14>
  80e7d8:	2144b03a 	or	r2,r4,r5
  80e7dc:	10c4703a 	and	r2,r2,r3
  80e7e0:	10000f26 	beq	r2,zero,80e820 <memcmp+0x50>
  80e7e4:	31ffffc4 	addi	r7,r6,-1
  80e7e8:	3000061e 	bne	r6,zero,80e804 <memcmp+0x34>
  80e7ec:	00000a06 	br	80e818 <memcmp+0x48>
  80e7f0:	39ffffc4 	addi	r7,r7,-1
  80e7f4:	00bfffc4 	movi	r2,-1
  80e7f8:	21000044 	addi	r4,r4,1
  80e7fc:	29400044 	addi	r5,r5,1
  80e800:	38800526 	beq	r7,r2,80e818 <memcmp+0x48>
  80e804:	20c00003 	ldbu	r3,0(r4)
  80e808:	28800003 	ldbu	r2,0(r5)
  80e80c:	18bff826 	beq	r3,r2,80e7f0 <memcmp+0x20>
  80e810:	1885c83a 	sub	r2,r3,r2
  80e814:	f800283a 	ret
  80e818:	0005883a 	mov	r2,zero
  80e81c:	f800283a 	ret
  80e820:	180f883a 	mov	r7,r3
  80e824:	20c00017 	ldw	r3,0(r4)
  80e828:	28800017 	ldw	r2,0(r5)
  80e82c:	18bfed1e 	bne	r3,r2,80e7e4 <memcmp+0x14>
  80e830:	31bfff04 	addi	r6,r6,-4
  80e834:	21000104 	addi	r4,r4,4
  80e838:	29400104 	addi	r5,r5,4
  80e83c:	39bff936 	bltu	r7,r6,80e824 <memcmp+0x54>
  80e840:	003fe806 	br	80e7e4 <memcmp+0x14>

0080e844 <__register_exitproc>:
  80e844:	defffa04 	addi	sp,sp,-24
  80e848:	00802074 	movhi	r2,129
  80e84c:	10826804 	addi	r2,r2,2464
  80e850:	dc000015 	stw	r16,0(sp)
  80e854:	14000017 	ldw	r16,0(r2)
  80e858:	dd000415 	stw	r20,16(sp)
  80e85c:	2829883a 	mov	r20,r5
  80e860:	81405217 	ldw	r5,328(r16)
  80e864:	dcc00315 	stw	r19,12(sp)
  80e868:	dc800215 	stw	r18,8(sp)
  80e86c:	dc400115 	stw	r17,4(sp)
  80e870:	dfc00515 	stw	ra,20(sp)
  80e874:	2023883a 	mov	r17,r4
  80e878:	3027883a 	mov	r19,r6
  80e87c:	3825883a 	mov	r18,r7
  80e880:	28002526 	beq	r5,zero,80e918 <__register_exitproc+0xd4>
  80e884:	29000117 	ldw	r4,4(r5)
  80e888:	008007c4 	movi	r2,31
  80e88c:	11002716 	blt	r2,r4,80e92c <__register_exitproc+0xe8>
  80e890:	8800101e 	bne	r17,zero,80e8d4 <__register_exitproc+0x90>
  80e894:	2105883a 	add	r2,r4,r4
  80e898:	1085883a 	add	r2,r2,r2
  80e89c:	20c00044 	addi	r3,r4,1
  80e8a0:	1145883a 	add	r2,r2,r5
  80e8a4:	0009883a 	mov	r4,zero
  80e8a8:	15000215 	stw	r20,8(r2)
  80e8ac:	28c00115 	stw	r3,4(r5)
  80e8b0:	2005883a 	mov	r2,r4
  80e8b4:	dfc00517 	ldw	ra,20(sp)
  80e8b8:	dd000417 	ldw	r20,16(sp)
  80e8bc:	dcc00317 	ldw	r19,12(sp)
  80e8c0:	dc800217 	ldw	r18,8(sp)
  80e8c4:	dc400117 	ldw	r17,4(sp)
  80e8c8:	dc000017 	ldw	r16,0(sp)
  80e8cc:	dec00604 	addi	sp,sp,24
  80e8d0:	f800283a 	ret
  80e8d4:	29802204 	addi	r6,r5,136
  80e8d8:	00800044 	movi	r2,1
  80e8dc:	110e983a 	sll	r7,r2,r4
  80e8e0:	30c04017 	ldw	r3,256(r6)
  80e8e4:	2105883a 	add	r2,r4,r4
  80e8e8:	1085883a 	add	r2,r2,r2
  80e8ec:	1185883a 	add	r2,r2,r6
  80e8f0:	19c6b03a 	or	r3,r3,r7
  80e8f4:	14802015 	stw	r18,128(r2)
  80e8f8:	14c00015 	stw	r19,0(r2)
  80e8fc:	00800084 	movi	r2,2
  80e900:	30c04015 	stw	r3,256(r6)
  80e904:	88bfe31e 	bne	r17,r2,80e894 <__register_exitproc+0x50>
  80e908:	30804117 	ldw	r2,260(r6)
  80e90c:	11c4b03a 	or	r2,r2,r7
  80e910:	30804115 	stw	r2,260(r6)
  80e914:	003fdf06 	br	80e894 <__register_exitproc+0x50>
  80e918:	008020b4 	movhi	r2,130
  80e91c:	10a66904 	addi	r2,r2,-26204
  80e920:	100b883a 	mov	r5,r2
  80e924:	80805215 	stw	r2,328(r16)
  80e928:	003fd606 	br	80e884 <__register_exitproc+0x40>
  80e92c:	00800034 	movhi	r2,0
  80e930:	10800004 	addi	r2,r2,0
  80e934:	1000021e 	bne	r2,zero,80e940 <__register_exitproc+0xfc>
  80e938:	013fffc4 	movi	r4,-1
  80e93c:	003fdc06 	br	80e8b0 <__register_exitproc+0x6c>
  80e940:	01006404 	movi	r4,400
  80e944:	103ee83a 	callr	r2
  80e948:	1007883a 	mov	r3,r2
  80e94c:	103ffa26 	beq	r2,zero,80e938 <__register_exitproc+0xf4>
  80e950:	80805217 	ldw	r2,328(r16)
  80e954:	180b883a 	mov	r5,r3
  80e958:	18000115 	stw	zero,4(r3)
  80e95c:	18800015 	stw	r2,0(r3)
  80e960:	80c05215 	stw	r3,328(r16)
  80e964:	18006215 	stw	zero,392(r3)
  80e968:	18006315 	stw	zero,396(r3)
  80e96c:	0009883a 	mov	r4,zero
  80e970:	883fc826 	beq	r17,zero,80e894 <__register_exitproc+0x50>
  80e974:	003fd706 	br	80e8d4 <__register_exitproc+0x90>

0080e978 <register_fini>:
  80e978:	f800283a 	ret

0080e97c <__call_exitprocs>:
  80e97c:	00802074 	movhi	r2,129
  80e980:	10826804 	addi	r2,r2,2464
  80e984:	10800017 	ldw	r2,0(r2)
  80e988:	defff304 	addi	sp,sp,-52
  80e98c:	df000b15 	stw	fp,44(sp)
  80e990:	d8800115 	stw	r2,4(sp)
  80e994:	00800034 	movhi	r2,0
  80e998:	10800004 	addi	r2,r2,0
  80e99c:	1005003a 	cmpeq	r2,r2,zero
  80e9a0:	d8800215 	stw	r2,8(sp)
  80e9a4:	d8800117 	ldw	r2,4(sp)
  80e9a8:	dd400815 	stw	r21,32(sp)
  80e9ac:	dd000715 	stw	r20,28(sp)
  80e9b0:	10805204 	addi	r2,r2,328
  80e9b4:	dfc00c15 	stw	ra,48(sp)
  80e9b8:	ddc00a15 	stw	r23,40(sp)
  80e9bc:	dd800915 	stw	r22,36(sp)
  80e9c0:	dcc00615 	stw	r19,24(sp)
  80e9c4:	dc800515 	stw	r18,20(sp)
  80e9c8:	dc400415 	stw	r17,16(sp)
  80e9cc:	dc000315 	stw	r16,12(sp)
  80e9d0:	282b883a 	mov	r21,r5
  80e9d4:	2039883a 	mov	fp,r4
  80e9d8:	d8800015 	stw	r2,0(sp)
  80e9dc:	2829003a 	cmpeq	r20,r5,zero
  80e9e0:	d8800117 	ldw	r2,4(sp)
  80e9e4:	14405217 	ldw	r17,328(r2)
  80e9e8:	88001026 	beq	r17,zero,80ea2c <__call_exitprocs+0xb0>
  80e9ec:	ddc00017 	ldw	r23,0(sp)
  80e9f0:	88800117 	ldw	r2,4(r17)
  80e9f4:	8c802204 	addi	r18,r17,136
  80e9f8:	143fffc4 	addi	r16,r2,-1
  80e9fc:	80000916 	blt	r16,zero,80ea24 <__call_exitprocs+0xa8>
  80ea00:	05bfffc4 	movi	r22,-1
  80ea04:	a000151e 	bne	r20,zero,80ea5c <__call_exitprocs+0xe0>
  80ea08:	8409883a 	add	r4,r16,r16
  80ea0c:	2105883a 	add	r2,r4,r4
  80ea10:	1485883a 	add	r2,r2,r18
  80ea14:	10c02017 	ldw	r3,128(r2)
  80ea18:	a8c01126 	beq	r21,r3,80ea60 <__call_exitprocs+0xe4>
  80ea1c:	843fffc4 	addi	r16,r16,-1
  80ea20:	85bff81e 	bne	r16,r22,80ea04 <__call_exitprocs+0x88>
  80ea24:	d8800217 	ldw	r2,8(sp)
  80ea28:	10003126 	beq	r2,zero,80eaf0 <__call_exitprocs+0x174>
  80ea2c:	dfc00c17 	ldw	ra,48(sp)
  80ea30:	df000b17 	ldw	fp,44(sp)
  80ea34:	ddc00a17 	ldw	r23,40(sp)
  80ea38:	dd800917 	ldw	r22,36(sp)
  80ea3c:	dd400817 	ldw	r21,32(sp)
  80ea40:	dd000717 	ldw	r20,28(sp)
  80ea44:	dcc00617 	ldw	r19,24(sp)
  80ea48:	dc800517 	ldw	r18,20(sp)
  80ea4c:	dc400417 	ldw	r17,16(sp)
  80ea50:	dc000317 	ldw	r16,12(sp)
  80ea54:	dec00d04 	addi	sp,sp,52
  80ea58:	f800283a 	ret
  80ea5c:	8409883a 	add	r4,r16,r16
  80ea60:	88c00117 	ldw	r3,4(r17)
  80ea64:	2105883a 	add	r2,r4,r4
  80ea68:	1445883a 	add	r2,r2,r17
  80ea6c:	18ffffc4 	addi	r3,r3,-1
  80ea70:	11800217 	ldw	r6,8(r2)
  80ea74:	1c001526 	beq	r3,r16,80eacc <__call_exitprocs+0x150>
  80ea78:	10000215 	stw	zero,8(r2)
  80ea7c:	303fe726 	beq	r6,zero,80ea1c <__call_exitprocs+0xa0>
  80ea80:	00c00044 	movi	r3,1
  80ea84:	1c06983a 	sll	r3,r3,r16
  80ea88:	90804017 	ldw	r2,256(r18)
  80ea8c:	8cc00117 	ldw	r19,4(r17)
  80ea90:	1884703a 	and	r2,r3,r2
  80ea94:	10001426 	beq	r2,zero,80eae8 <__call_exitprocs+0x16c>
  80ea98:	90804117 	ldw	r2,260(r18)
  80ea9c:	1884703a 	and	r2,r3,r2
  80eaa0:	10000c1e 	bne	r2,zero,80ead4 <__call_exitprocs+0x158>
  80eaa4:	2105883a 	add	r2,r4,r4
  80eaa8:	1485883a 	add	r2,r2,r18
  80eaac:	11400017 	ldw	r5,0(r2)
  80eab0:	e009883a 	mov	r4,fp
  80eab4:	303ee83a 	callr	r6
  80eab8:	88800117 	ldw	r2,4(r17)
  80eabc:	98bfc81e 	bne	r19,r2,80e9e0 <__call_exitprocs+0x64>
  80eac0:	b8800017 	ldw	r2,0(r23)
  80eac4:	147fd526 	beq	r2,r17,80ea1c <__call_exitprocs+0xa0>
  80eac8:	003fc506 	br	80e9e0 <__call_exitprocs+0x64>
  80eacc:	8c000115 	stw	r16,4(r17)
  80ead0:	003fea06 	br	80ea7c <__call_exitprocs+0x100>
  80ead4:	2105883a 	add	r2,r4,r4
  80ead8:	1485883a 	add	r2,r2,r18
  80eadc:	11000017 	ldw	r4,0(r2)
  80eae0:	303ee83a 	callr	r6
  80eae4:	003ff406 	br	80eab8 <__call_exitprocs+0x13c>
  80eae8:	303ee83a 	callr	r6
  80eaec:	003ff206 	br	80eab8 <__call_exitprocs+0x13c>
  80eaf0:	88800117 	ldw	r2,4(r17)
  80eaf4:	1000081e 	bne	r2,zero,80eb18 <__call_exitprocs+0x19c>
  80eaf8:	89000017 	ldw	r4,0(r17)
  80eafc:	20000726 	beq	r4,zero,80eb1c <__call_exitprocs+0x1a0>
  80eb00:	b9000015 	stw	r4,0(r23)
  80eb04:	8809883a 	mov	r4,r17
  80eb08:	00000000 	call	0 <OSTCBStkPtr_OFFSET>
  80eb0c:	bc400017 	ldw	r17,0(r23)
  80eb10:	883fb71e 	bne	r17,zero,80e9f0 <__call_exitprocs+0x74>
  80eb14:	003fc506 	br	80ea2c <__call_exitprocs+0xb0>
  80eb18:	89000017 	ldw	r4,0(r17)
  80eb1c:	882f883a 	mov	r23,r17
  80eb20:	2023883a 	mov	r17,r4
  80eb24:	883fb21e 	bne	r17,zero,80e9f0 <__call_exitprocs+0x74>
  80eb28:	003fc006 	br	80ea2c <__call_exitprocs+0xb0>

0080eb2c <udivmodsi4>:
  80eb2c:	29001b2e 	bgeu	r5,r4,80eb9c <udivmodsi4+0x70>
  80eb30:	28001a16 	blt	r5,zero,80eb9c <udivmodsi4+0x70>
  80eb34:	00800044 	movi	r2,1
  80eb38:	0007883a 	mov	r3,zero
  80eb3c:	01c007c4 	movi	r7,31
  80eb40:	00000306 	br	80eb50 <udivmodsi4+0x24>
  80eb44:	19c01326 	beq	r3,r7,80eb94 <udivmodsi4+0x68>
  80eb48:	18c00044 	addi	r3,r3,1
  80eb4c:	28000416 	blt	r5,zero,80eb60 <udivmodsi4+0x34>
  80eb50:	294b883a 	add	r5,r5,r5
  80eb54:	1085883a 	add	r2,r2,r2
  80eb58:	293ffa36 	bltu	r5,r4,80eb44 <udivmodsi4+0x18>
  80eb5c:	10000d26 	beq	r2,zero,80eb94 <udivmodsi4+0x68>
  80eb60:	0007883a 	mov	r3,zero
  80eb64:	21400236 	bltu	r4,r5,80eb70 <udivmodsi4+0x44>
  80eb68:	2149c83a 	sub	r4,r4,r5
  80eb6c:	1886b03a 	or	r3,r3,r2
  80eb70:	1004d07a 	srli	r2,r2,1
  80eb74:	280ad07a 	srli	r5,r5,1
  80eb78:	103ffa1e 	bne	r2,zero,80eb64 <udivmodsi4+0x38>
  80eb7c:	30000226 	beq	r6,zero,80eb88 <udivmodsi4+0x5c>
  80eb80:	2005883a 	mov	r2,r4
  80eb84:	f800283a 	ret
  80eb88:	1809883a 	mov	r4,r3
  80eb8c:	2005883a 	mov	r2,r4
  80eb90:	f800283a 	ret
  80eb94:	0007883a 	mov	r3,zero
  80eb98:	003ff806 	br	80eb7c <udivmodsi4+0x50>
  80eb9c:	00800044 	movi	r2,1
  80eba0:	0007883a 	mov	r3,zero
  80eba4:	003fef06 	br	80eb64 <udivmodsi4+0x38>

0080eba8 <__divsi3>:
  80eba8:	defffe04 	addi	sp,sp,-8
  80ebac:	dc000015 	stw	r16,0(sp)
  80ebb0:	dfc00115 	stw	ra,4(sp)
  80ebb4:	0021883a 	mov	r16,zero
  80ebb8:	20000c16 	blt	r4,zero,80ebec <__divsi3+0x44>
  80ebbc:	000d883a 	mov	r6,zero
  80ebc0:	28000e16 	blt	r5,zero,80ebfc <__divsi3+0x54>
  80ebc4:	080eb2c0 	call	80eb2c <udivmodsi4>
  80ebc8:	1007883a 	mov	r3,r2
  80ebcc:	8005003a 	cmpeq	r2,r16,zero
  80ebd0:	1000011e 	bne	r2,zero,80ebd8 <__divsi3+0x30>
  80ebd4:	00c7c83a 	sub	r3,zero,r3
  80ebd8:	1805883a 	mov	r2,r3
  80ebdc:	dfc00117 	ldw	ra,4(sp)
  80ebe0:	dc000017 	ldw	r16,0(sp)
  80ebe4:	dec00204 	addi	sp,sp,8
  80ebe8:	f800283a 	ret
  80ebec:	0109c83a 	sub	r4,zero,r4
  80ebf0:	04000044 	movi	r16,1
  80ebf4:	000d883a 	mov	r6,zero
  80ebf8:	283ff20e 	bge	r5,zero,80ebc4 <__divsi3+0x1c>
  80ebfc:	014bc83a 	sub	r5,zero,r5
  80ec00:	8021003a 	cmpeq	r16,r16,zero
  80ec04:	003fef06 	br	80ebc4 <__divsi3+0x1c>

0080ec08 <__modsi3>:
  80ec08:	deffff04 	addi	sp,sp,-4
  80ec0c:	dfc00015 	stw	ra,0(sp)
  80ec10:	01800044 	movi	r6,1
  80ec14:	2807883a 	mov	r3,r5
  80ec18:	20000416 	blt	r4,zero,80ec2c <__modsi3+0x24>
  80ec1c:	28000c16 	blt	r5,zero,80ec50 <__modsi3+0x48>
  80ec20:	dfc00017 	ldw	ra,0(sp)
  80ec24:	dec00104 	addi	sp,sp,4
  80ec28:	080eb2c1 	jmpi	80eb2c <udivmodsi4>
  80ec2c:	0109c83a 	sub	r4,zero,r4
  80ec30:	28000b16 	blt	r5,zero,80ec60 <__modsi3+0x58>
  80ec34:	180b883a 	mov	r5,r3
  80ec38:	01800044 	movi	r6,1
  80ec3c:	080eb2c0 	call	80eb2c <udivmodsi4>
  80ec40:	0085c83a 	sub	r2,zero,r2
  80ec44:	dfc00017 	ldw	ra,0(sp)
  80ec48:	dec00104 	addi	sp,sp,4
  80ec4c:	f800283a 	ret
  80ec50:	014bc83a 	sub	r5,zero,r5
  80ec54:	dfc00017 	ldw	ra,0(sp)
  80ec58:	dec00104 	addi	sp,sp,4
  80ec5c:	080eb2c1 	jmpi	80eb2c <udivmodsi4>
  80ec60:	0147c83a 	sub	r3,zero,r5
  80ec64:	003ff306 	br	80ec34 <__modsi3+0x2c>

0080ec68 <__udivsi3>:
  80ec68:	000d883a 	mov	r6,zero
  80ec6c:	080eb2c1 	jmpi	80eb2c <udivmodsi4>

0080ec70 <__umodsi3>:
  80ec70:	01800044 	movi	r6,1
  80ec74:	080eb2c1 	jmpi	80eb2c <udivmodsi4>

0080ec78 <alt_sim_halt>:

/*
 * Routine called on exit.
 */
static ALT_ALWAYS_INLINE void alt_sim_halt(int exit_code)
{
  80ec78:	defffd04 	addi	sp,sp,-12
  80ec7c:	df000215 	stw	fp,8(sp)
  80ec80:	df000204 	addi	fp,sp,8
  80ec84:	e13fff15 	stw	r4,-4(fp)
  int r2 = exit_code;
  80ec88:	e0bfff17 	ldw	r2,-4(fp)
  80ec8c:	e0bffe15 	stw	r2,-8(fp)
  __asm__ volatile ("\n0:\n\taddi %0,%0, -1\n\tbgt %0,zero,0b" : : "r" (ALT_CPU_FREQ/100) ); /* Delay for >30ms */

  __asm__ volatile ("break 2" : : "D02"(r2), "D03"(r3) ALT_GMON_DATA );

#else /* !DEBUG_STUB */
  if (r2) {
  80ec90:	e0bffe17 	ldw	r2,-8(fp)
  80ec94:	1005003a 	cmpeq	r2,r2,zero
  80ec98:	1000021e 	bne	r2,zero,80eca4 <alt_sim_halt+0x2c>
    ALT_SIM_FAIL();
  80ec9c:	002af070 	cmpltui	zero,zero,43969
  80eca0:	00000106 	br	80eca8 <alt_sim_halt+0x30>
  } else {
    ALT_SIM_PASS();
  80eca4:	002af0b0 	cmpltui	zero,zero,43970
  }
#endif /* DEBUG_STUB */
}
  80eca8:	e037883a 	mov	sp,fp
  80ecac:	df000017 	ldw	fp,0(sp)
  80ecb0:	dec00104 	addi	sp,sp,4
  80ecb4:	f800283a 	ret

0080ecb8 <_exit>:
 *
 * ALT_EXIT is mapped onto the _exit() system call in alt_syscall.h
 */

void ALT_EXIT (int exit_code)
{
  80ecb8:	defffd04 	addi	sp,sp,-12
  80ecbc:	dfc00215 	stw	ra,8(sp)
  80ecc0:	df000115 	stw	fp,4(sp)
  80ecc4:	df000104 	addi	fp,sp,4
  80ecc8:	e13fff15 	stw	r4,-4(fp)
  ALT_LOG_PRINT_BOOT("[alt_exit.c] Entering _exit() function.\r\n");
  ALT_LOG_PRINT_BOOT("[alt_exit.c] Exit code from main was %d.\r\n",exit_code);
  /* Stop all other threads */

  ALT_LOG_PRINT_BOOT("[alt_exit.c] Calling ALT_OS_STOP().\r\n");
  ALT_OS_STOP();
  80eccc:	00802074 	movhi	r2,129
  80ecd0:	10897f44 	addi	r2,r2,9725
  80ecd4:	10000005 	stb	zero,0(r2)

  /* Provide notification to the simulator that we've stopped */

  ALT_LOG_PRINT_BOOT("[alt_exit.c] Calling ALT_SIM_HALT().\r\n");
  ALT_SIM_HALT(exit_code);
  80ecd8:	e13fff17 	ldw	r4,-4(fp)
  80ecdc:	080ec780 	call	80ec78 <alt_sim_halt>

  /* spin forever, since there's no where to go back to */

  ALT_LOG_PRINT_BOOT("[alt_exit.c] Spinning forever.\r\n");
  while (1);
  80ece0:	003fff06 	br	80ece0 <_exit+0x28>
  80ece4:	0080e978 	rdprs	r2,zero,933
