Archive member included because of file (symbol)

/OPT/altera/12.1/nios2eds/bin/gnu/H-i686-pc-linux-gnu/bin/../lib/gcc/nios2-elf/4.1.2/../../../../nios2-elf/lib/libc.a(lib_a-puts.o)
                              obj/default/hello_ucosii.o (puts)
/OPT/altera/12.1/nios2eds/bin/gnu/H-i686-pc-linux-gnu/bin/../lib/gcc/nios2-elf/4.1.2/../../../../nios2-elf/lib/libc.a(lib_a-strlen.o)
                              /OPT/altera/12.1/nios2eds/bin/gnu/H-i686-pc-linux-gnu/bin/../lib/gcc/nios2-elf/4.1.2/../../../../nios2-elf/lib/libc.a(lib_a-puts.o) (strlen)
/OPT/altera/12.1/nios2eds/bin/gnu/H-i686-pc-linux-gnu/bin/../lib/gcc/nios2-elf/4.1.2/../../../../nios2-elf/lib/libc.a(lib_a-fvwrite.o)
                              /OPT/altera/12.1/nios2eds/bin/gnu/H-i686-pc-linux-gnu/bin/../lib/gcc/nios2-elf/4.1.2/../../../../nios2-elf/lib/libc.a(lib_a-puts.o) (__sfvwrite_r)
/OPT/altera/12.1/nios2eds/bin/gnu/H-i686-pc-linux-gnu/bin/../lib/gcc/nios2-elf/4.1.2/../../../../nios2-elf/lib/libc.a(lib_a-impure.o)
                              /OPT/altera/12.1/nios2eds/bin/gnu/H-i686-pc-linux-gnu/bin/../lib/gcc/nios2-elf/4.1.2/../../../../nios2-elf/lib/libc.a(lib_a-puts.o) (_impure_ptr)
/OPT/altera/12.1/nios2eds/bin/gnu/H-i686-pc-linux-gnu/bin/../lib/gcc/nios2-elf/4.1.2/../../../../nios2-elf/lib/libc.a(lib_a-mallocr.o)
                              /OPT/altera/12.1/nios2eds/bin/gnu/H-i686-pc-linux-gnu/bin/../lib/gcc/nios2-elf/4.1.2/../../../../nios2-elf/lib/libc.a(lib_a-fvwrite.o) (_malloc_r)
/OPT/altera/12.1/nios2eds/bin/gnu/H-i686-pc-linux-gnu/bin/../lib/gcc/nios2-elf/4.1.2/../../../../nios2-elf/lib/libc.a(lib_a-memchr.o)
                              /OPT/altera/12.1/nios2eds/bin/gnu/H-i686-pc-linux-gnu/bin/../lib/gcc/nios2-elf/4.1.2/../../../../nios2-elf/lib/libc.a(lib_a-fvwrite.o) (memchr)
/OPT/altera/12.1/nios2eds/bin/gnu/H-i686-pc-linux-gnu/bin/../lib/gcc/nios2-elf/4.1.2/../../../../nios2-elf/lib/libc.a(lib_a-memcpy.o)
                              /OPT/altera/12.1/nios2eds/bin/gnu/H-i686-pc-linux-gnu/bin/../lib/gcc/nios2-elf/4.1.2/../../../../nios2-elf/lib/libc.a(lib_a-fvwrite.o) (memcpy)
/OPT/altera/12.1/nios2eds/bin/gnu/H-i686-pc-linux-gnu/bin/../lib/gcc/nios2-elf/4.1.2/../../../../nios2-elf/lib/libc.a(lib_a-memmove.o)
                              /OPT/altera/12.1/nios2eds/bin/gnu/H-i686-pc-linux-gnu/bin/../lib/gcc/nios2-elf/4.1.2/../../../../nios2-elf/lib/libc.a(lib_a-fvwrite.o) (memmove)
/OPT/altera/12.1/nios2eds/bin/gnu/H-i686-pc-linux-gnu/bin/../lib/gcc/nios2-elf/4.1.2/../../../../nios2-elf/lib/libc.a(lib_a-reallocr.o)
                              /OPT/altera/12.1/nios2eds/bin/gnu/H-i686-pc-linux-gnu/bin/../lib/gcc/nios2-elf/4.1.2/../../../../nios2-elf/lib/libc.a(lib_a-fvwrite.o) (_realloc_r)
/OPT/altera/12.1/nios2eds/bin/gnu/H-i686-pc-linux-gnu/bin/../lib/gcc/nios2-elf/4.1.2/../../../../nios2-elf/lib/libc.a(lib_a-sbrkr.o)
                              /OPT/altera/12.1/nios2eds/bin/gnu/H-i686-pc-linux-gnu/bin/../lib/gcc/nios2-elf/4.1.2/../../../../nios2-elf/lib/libc.a(lib_a-mallocr.o) (_sbrk_r)
/OPT/altera/12.1/nios2eds/bin/gnu/H-i686-pc-linux-gnu/bin/../lib/gcc/nios2-elf/4.1.2/../../../../nios2-elf/lib/libc.a(lib_a-wsetup.o)
                              /OPT/altera/12.1/nios2eds/bin/gnu/H-i686-pc-linux-gnu/bin/../lib/gcc/nios2-elf/4.1.2/../../../../nios2-elf/lib/libc.a(lib_a-fvwrite.o) (__swsetup_r)
/OPT/altera/12.1/nios2eds/bin/gnu/H-i686-pc-linux-gnu/bin/../lib/gcc/nios2-elf/4.1.2/../../../../nios2-elf/lib/libc.a(lib_a-fflush.o)
                              /OPT/altera/12.1/nios2eds/bin/gnu/H-i686-pc-linux-gnu/bin/../lib/gcc/nios2-elf/4.1.2/../../../../nios2-elf/lib/libc.a(lib_a-fvwrite.o) (_fflush_r)
/OPT/altera/12.1/nios2eds/bin/gnu/H-i686-pc-linux-gnu/bin/../lib/gcc/nios2-elf/4.1.2/../../../../nios2-elf/lib/libc.a(lib_a-findfp.o)
                              /OPT/altera/12.1/nios2eds/bin/gnu/H-i686-pc-linux-gnu/bin/../lib/gcc/nios2-elf/4.1.2/../../../../nios2-elf/lib/libc.a(lib_a-wsetup.o) (__sinit)
/OPT/altera/12.1/nios2eds/bin/gnu/H-i686-pc-linux-gnu/bin/../lib/gcc/nios2-elf/4.1.2/../../../../nios2-elf/lib/libc.a(lib_a-freer.o)
                              /OPT/altera/12.1/nios2eds/bin/gnu/H-i686-pc-linux-gnu/bin/../lib/gcc/nios2-elf/4.1.2/../../../../nios2-elf/lib/libc.a(lib_a-fvwrite.o) (_free_r)
/OPT/altera/12.1/nios2eds/bin/gnu/H-i686-pc-linux-gnu/bin/../lib/gcc/nios2-elf/4.1.2/../../../../nios2-elf/lib/libc.a(lib_a-fwalk.o)
                              /OPT/altera/12.1/nios2eds/bin/gnu/H-i686-pc-linux-gnu/bin/../lib/gcc/nios2-elf/4.1.2/../../../../nios2-elf/lib/libc.a(lib_a-fflush.o) (_fwalk_reent)
/OPT/altera/12.1/nios2eds/bin/gnu/H-i686-pc-linux-gnu/bin/../lib/gcc/nios2-elf/4.1.2/../../../../nios2-elf/lib/libc.a(lib_a-int_errno.o)
                              /OPT/altera/12.1/nios2eds/bin/gnu/H-i686-pc-linux-gnu/bin/../lib/gcc/nios2-elf/4.1.2/../../../../nios2-elf/lib/libc.a(lib_a-sbrkr.o) (errno)
/OPT/altera/12.1/nios2eds/bin/gnu/H-i686-pc-linux-gnu/bin/../lib/gcc/nios2-elf/4.1.2/../../../../nios2-elf/lib/libc.a(lib_a-makebuf.o)
                              /OPT/altera/12.1/nios2eds/bin/gnu/H-i686-pc-linux-gnu/bin/../lib/gcc/nios2-elf/4.1.2/../../../../nios2-elf/lib/libc.a(lib_a-wsetup.o) (__smakebuf_r)
/OPT/altera/12.1/nios2eds/bin/gnu/H-i686-pc-linux-gnu/bin/../lib/gcc/nios2-elf/4.1.2/../../../../nios2-elf/lib/libc.a(lib_a-memset.o)
                              /OPT/altera/12.1/nios2eds/bin/gnu/H-i686-pc-linux-gnu/bin/../lib/gcc/nios2-elf/4.1.2/../../../../nios2-elf/lib/libc.a(lib_a-findfp.o) (memset)
/OPT/altera/12.1/nios2eds/bin/gnu/H-i686-pc-linux-gnu/bin/../lib/gcc/nios2-elf/4.1.2/../../../../nios2-elf/lib/libc.a(lib_a-stdio.o)
                              /OPT/altera/12.1/nios2eds/bin/gnu/H-i686-pc-linux-gnu/bin/../lib/gcc/nios2-elf/4.1.2/../../../../nios2-elf/lib/libc.a(lib_a-findfp.o) (__sclose)
/OPT/altera/12.1/nios2eds/bin/gnu/H-i686-pc-linux-gnu/bin/../lib/gcc/nios2-elf/4.1.2/../../../../nios2-elf/lib/libc.a(lib_a-writer.o)
                              /OPT/altera/12.1/nios2eds/bin/gnu/H-i686-pc-linux-gnu/bin/../lib/gcc/nios2-elf/4.1.2/../../../../nios2-elf/lib/libc.a(lib_a-stdio.o) (_write_r)
/OPT/altera/12.1/nios2eds/bin/gnu/H-i686-pc-linux-gnu/bin/../lib/gcc/nios2-elf/4.1.2/../../../../nios2-elf/lib/libc.a(lib_a-closer.o)
                              /OPT/altera/12.1/nios2eds/bin/gnu/H-i686-pc-linux-gnu/bin/../lib/gcc/nios2-elf/4.1.2/../../../../nios2-elf/lib/libc.a(lib_a-stdio.o) (_close_r)
/OPT/altera/12.1/nios2eds/bin/gnu/H-i686-pc-linux-gnu/bin/../lib/gcc/nios2-elf/4.1.2/../../../../nios2-elf/lib/libc.a(lib_a-fclose.o)
                              /OPT/altera/12.1/nios2eds/bin/gnu/H-i686-pc-linux-gnu/bin/../lib/gcc/nios2-elf/4.1.2/../../../../nios2-elf/lib/libc.a(lib_a-findfp.o) (fclose)
/OPT/altera/12.1/nios2eds/bin/gnu/H-i686-pc-linux-gnu/bin/../lib/gcc/nios2-elf/4.1.2/../../../../nios2-elf/lib/libc.a(lib_a-fstatr.o)
                              /OPT/altera/12.1/nios2eds/bin/gnu/H-i686-pc-linux-gnu/bin/../lib/gcc/nios2-elf/4.1.2/../../../../nios2-elf/lib/libc.a(lib_a-makebuf.o) (_fstat_r)
/OPT/altera/12.1/nios2eds/bin/gnu/H-i686-pc-linux-gnu/bin/../lib/gcc/nios2-elf/4.1.2/../../../../nios2-elf/lib/libc.a(lib_a-isattyr.o)
                              /OPT/altera/12.1/nios2eds/bin/gnu/H-i686-pc-linux-gnu/bin/../lib/gcc/nios2-elf/4.1.2/../../../../nios2-elf/lib/libc.a(lib_a-makebuf.o) (_isatty_r)
/OPT/altera/12.1/nios2eds/bin/gnu/H-i686-pc-linux-gnu/bin/../lib/gcc/nios2-elf/4.1.2/../../../../nios2-elf/lib/libc.a(lib_a-lseekr.o)
                              /OPT/altera/12.1/nios2eds/bin/gnu/H-i686-pc-linux-gnu/bin/../lib/gcc/nios2-elf/4.1.2/../../../../nios2-elf/lib/libc.a(lib_a-stdio.o) (_lseek_r)
/OPT/altera/12.1/nios2eds/bin/gnu/H-i686-pc-linux-gnu/bin/../lib/gcc/nios2-elf/4.1.2/../../../../nios2-elf/lib/libc.a(lib_a-readr.o)
                              /OPT/altera/12.1/nios2eds/bin/gnu/H-i686-pc-linux-gnu/bin/../lib/gcc/nios2-elf/4.1.2/../../../../nios2-elf/lib/libc.a(lib_a-stdio.o) (_read_r)
../Ether_bsp//libucosii_bsp.a(alt_close.o)
                              /OPT/altera/12.1/nios2eds/bin/gnu/H-i686-pc-linux-gnu/bin/../lib/gcc/nios2-elf/4.1.2/../../../../nios2-elf/lib/libc.a(lib_a-closer.o) (close)
../Ether_bsp//libucosii_bsp.a(alt_dev.o)
                              ../Ether_bsp//libucosii_bsp.a(alt_close.o) (alt_fd_list)
../Ether_bsp//libucosii_bsp.a(alt_errno.o)
                              ../Ether_bsp//libucosii_bsp.a(alt_close.o) (alt_errno)
../Ether_bsp//libucosii_bsp.a(alt_fstat.o)
                              /OPT/altera/12.1/nios2eds/bin/gnu/H-i686-pc-linux-gnu/bin/../lib/gcc/nios2-elf/4.1.2/../../../../nios2-elf/lib/libc.a(lib_a-fstatr.o) (fstat)
../Ether_bsp//libucosii_bsp.a(alt_isatty.o)
                              /OPT/altera/12.1/nios2eds/bin/gnu/H-i686-pc-linux-gnu/bin/../lib/gcc/nios2-elf/4.1.2/../../../../nios2-elf/lib/libc.a(lib_a-isattyr.o) (isatty)
../Ether_bsp//libucosii_bsp.a(alt_load.o)
                              ../Ether_bsp//obj/HAL/src/crt0.o (alt_load)
../Ether_bsp//libucosii_bsp.a(alt_lseek.o)
                              /OPT/altera/12.1/nios2eds/bin/gnu/H-i686-pc-linux-gnu/bin/../lib/gcc/nios2-elf/4.1.2/../../../../nios2-elf/lib/libc.a(lib_a-lseekr.o) (lseek)
../Ether_bsp//libucosii_bsp.a(alt_main.o)
                              ../Ether_bsp//obj/HAL/src/crt0.o (alt_main)
../Ether_bsp//libucosii_bsp.a(alt_read.o)
                              /OPT/altera/12.1/nios2eds/bin/gnu/H-i686-pc-linux-gnu/bin/../lib/gcc/nios2-elf/4.1.2/../../../../nios2-elf/lib/libc.a(lib_a-readr.o) (read)
../Ether_bsp//libucosii_bsp.a(alt_release_fd.o)
                              ../Ether_bsp//libucosii_bsp.a(alt_close.o) (alt_release_fd)
../Ether_bsp//libucosii_bsp.a(alt_sbrk.o)
                              /OPT/altera/12.1/nios2eds/bin/gnu/H-i686-pc-linux-gnu/bin/../lib/gcc/nios2-elf/4.1.2/../../../../nios2-elf/lib/libc.a(lib_a-sbrkr.o) (sbrk)
../Ether_bsp//libucosii_bsp.a(alt_write.o)
                              /OPT/altera/12.1/nios2eds/bin/gnu/H-i686-pc-linux-gnu/bin/../lib/gcc/nios2-elf/4.1.2/../../../../nios2-elf/lib/libc.a(lib_a-writer.o) (write)
../Ether_bsp//libucosii_bsp.a(alt_env_lock.o)
                              ../Ether_bsp//libucosii_bsp.a(alt_main.o) (alt_envsem)
../Ether_bsp//libucosii_bsp.a(alt_malloc_lock.o)
                              /OPT/altera/12.1/nios2eds/bin/gnu/H-i686-pc-linux-gnu/bin/../lib/gcc/nios2-elf/4.1.2/../../../../nios2-elf/lib/libc.a(lib_a-mallocr.o) (__malloc_lock)
../Ether_bsp//libucosii_bsp.a(os_core.o)
                              ../Ether_bsp//libucosii_bsp.a(alt_main.o) (OSInit)
../Ether_bsp//libucosii_bsp.a(os_dbg.o)
                              ../Ether_bsp//libucosii_bsp.a(os_core.o) (OSDebugInit)
../Ether_bsp//libucosii_bsp.a(os_flag.o)
                              ../Ether_bsp//libucosii_bsp.a(os_core.o) (OS_FlagInit)
../Ether_bsp//libucosii_bsp.a(os_mem.o)
                              ../Ether_bsp//libucosii_bsp.a(os_core.o) (OS_MemInit)
../Ether_bsp//libucosii_bsp.a(os_q.o)
                              ../Ether_bsp//libucosii_bsp.a(os_core.o) (OS_QInit)
../Ether_bsp//libucosii_bsp.a(os_sem.o)
                              ../Ether_bsp//libucosii_bsp.a(alt_main.o) (OSSemCreate)
../Ether_bsp//libucosii_bsp.a(os_task.o)
                              obj/default/hello_ucosii.o (OSTaskCreateExt)
../Ether_bsp//libucosii_bsp.a(os_time.o)
                              ../Ether_bsp//libucosii_bsp.a(os_core.o) (OSTimeDly)
../Ether_bsp//libucosii_bsp.a(alt_sys_init.o)
                              ../Ether_bsp//libucosii_bsp.a(alt_main.o) (alt_irq_init)
../Ether_bsp//libucosii_bsp.a(altera_avalon_jtag_uart_fd.o)
                              ../Ether_bsp//libucosii_bsp.a(alt_sys_init.o) (altera_avalon_jtag_uart_read_fd)
../Ether_bsp//libucosii_bsp.a(altera_avalon_jtag_uart_init.o)
                              ../Ether_bsp//libucosii_bsp.a(alt_sys_init.o) (altera_avalon_jtag_uart_init)
../Ether_bsp//libucosii_bsp.a(altera_avalon_jtag_uart_ioctl.o)
                              ../Ether_bsp//libucosii_bsp.a(altera_avalon_jtag_uart_fd.o) (altera_avalon_jtag_uart_ioctl)
../Ether_bsp//libucosii_bsp.a(altera_avalon_jtag_uart_read.o)
                              ../Ether_bsp//libucosii_bsp.a(altera_avalon_jtag_uart_fd.o) (altera_avalon_jtag_uart_read)
../Ether_bsp//libucosii_bsp.a(altera_avalon_jtag_uart_write.o)
                              ../Ether_bsp//libucosii_bsp.a(altera_avalon_jtag_uart_fd.o) (altera_avalon_jtag_uart_write)
../Ether_bsp//libucosii_bsp.a(altera_avalon_timer_sc.o)
                              ../Ether_bsp//libucosii_bsp.a(alt_sys_init.o) (alt_avalon_timer_sc_init)
../Ether_bsp//libucosii_bsp.a(altera_up_avalon_character_lcd.o)
                              ../Ether_bsp//libucosii_bsp.a(alt_sys_init.o) (alt_up_character_lcd_init)
../Ether_bsp//libucosii_bsp.a(alt_alarm_start.o)
                              ../Ether_bsp//libucosii_bsp.a(altera_avalon_jtag_uart_init.o) (alt_alarm_start)
../Ether_bsp//libucosii_bsp.a(alt_dcache_flush_all.o)
                              ../Ether_bsp//libucosii_bsp.a(alt_load.o) (alt_dcache_flush_all)
../Ether_bsp//libucosii_bsp.a(alt_dev_llist_insert.o)
                              ../Ether_bsp//libucosii_bsp.a(alt_sys_init.o) (alt_dev_llist_insert)
../Ether_bsp//libucosii_bsp.a(alt_do_ctors.o)
                              ../Ether_bsp//libucosii_bsp.a(alt_main.o) (_do_ctors)
../Ether_bsp//libucosii_bsp.a(alt_do_dtors.o)
                              ../Ether_bsp//libucosii_bsp.a(alt_main.o) (_do_dtors)
../Ether_bsp//libucosii_bsp.a(alt_find_dev.o)
                              ../Ether_bsp//libucosii_bsp.a(altera_up_avalon_character_lcd.o) (alt_find_dev)
../Ether_bsp//libucosii_bsp.a(alt_icache_flush_all.o)
                              ../Ether_bsp//libucosii_bsp.a(alt_load.o) (alt_icache_flush_all)
../Ether_bsp//libucosii_bsp.a(alt_iic.o)
                              ../Ether_bsp//libucosii_bsp.a(altera_avalon_jtag_uart_init.o) (alt_ic_isr_register)
../Ether_bsp//libucosii_bsp.a(alt_iic_isr_register.o)
                              ../Ether_bsp//libucosii_bsp.a(alt_iic.o) (alt_iic_isr_register)
../Ether_bsp//libucosii_bsp.a(alt_io_redirect.o)
                              ../Ether_bsp//libucosii_bsp.a(alt_main.o) (alt_io_redirect)
../Ether_bsp//libucosii_bsp.a(alt_irq_entry.o)
                              ../Ether_bsp//libucosii_bsp.a(alt_iic_isr_register.o) (alt_irq_entry)
../Ether_bsp//libucosii_bsp.a(alt_irq_handler.o)
                              ../Ether_bsp//libucosii_bsp.a(alt_iic_isr_register.o) (alt_irq_handler)
../Ether_bsp//libucosii_bsp.a(alt_irq_vars.o)
                              ../Ether_bsp//libucosii_bsp.a(alt_iic.o) (alt_irq_active)
../Ether_bsp//libucosii_bsp.a(alt_open.o)
                              ../Ether_bsp//libucosii_bsp.a(alt_io_redirect.o) (open)
../Ether_bsp//libucosii_bsp.a(alt_tick.o)
                              ../Ether_bsp//libucosii_bsp.a(altera_avalon_jtag_uart_init.o) (_alt_tick_rate)
../Ether_bsp//libucosii_bsp.a(altera_nios2_qsys_irq.o)
                              ../Ether_bsp//libucosii_bsp.a(alt_sys_init.o) (altera_nios2_qsys_irq_init)
../Ether_bsp//libucosii_bsp.a(os_cpu_a.o)
                              ../Ether_bsp//libucosii_bsp.a(os_core.o) (OSIntCtxSw)
../Ether_bsp//libucosii_bsp.a(os_cpu_c.o)
                              ../Ether_bsp//libucosii_bsp.a(os_task.o) (OSTaskStkInit)
../Ether_bsp//libucosii_bsp.a(alt_exception_entry.o)
                              ../Ether_bsp//libucosii_bsp.a(alt_irq_entry.o) (alt_exception)
../Ether_bsp//libucosii_bsp.a(alt_find_file.o)
                              ../Ether_bsp//libucosii_bsp.a(alt_open.o) (alt_find_file)
../Ether_bsp//libucosii_bsp.a(alt_get_fd.o)
                              ../Ether_bsp//libucosii_bsp.a(alt_open.o) (alt_get_fd)
../Ether_bsp//libucosii_bsp.a(alt_icache_flush.o)
                              ../Ether_bsp//libucosii_bsp.a(alt_icache_flush_all.o) (alt_icache_flush)
/OPT/altera/12.1/nios2eds/bin/gnu/H-i686-pc-linux-gnu/bin/../lib/gcc/nios2-elf/4.1.2/../../../../nios2-elf/lib/libc.a(lib_a-atexit.o)
                              ../Ether_bsp//libucosii_bsp.a(alt_main.o) (atexit)
/OPT/altera/12.1/nios2eds/bin/gnu/H-i686-pc-linux-gnu/bin/../lib/gcc/nios2-elf/4.1.2/../../../../nios2-elf/lib/libc.a(lib_a-exit.o)
                              ../Ether_bsp//libucosii_bsp.a(alt_main.o) (exit)
/OPT/altera/12.1/nios2eds/bin/gnu/H-i686-pc-linux-gnu/bin/../lib/gcc/nios2-elf/4.1.2/../../../../nios2-elf/lib/libc.a(lib_a-memcmp.o)
                              ../Ether_bsp//libucosii_bsp.a(alt_find_dev.o) (memcmp)
/OPT/altera/12.1/nios2eds/bin/gnu/H-i686-pc-linux-gnu/bin/../lib/gcc/nios2-elf/4.1.2/../../../../nios2-elf/lib/libc.a(lib_a-__atexit.o)
                              /OPT/altera/12.1/nios2eds/bin/gnu/H-i686-pc-linux-gnu/bin/../lib/gcc/nios2-elf/4.1.2/../../../../nios2-elf/lib/libc.a(lib_a-atexit.o) (__register_exitproc)
/OPT/altera/12.1/nios2eds/bin/gnu/H-i686-pc-linux-gnu/bin/../lib/gcc/nios2-elf/4.1.2/../../../../nios2-elf/lib/libc.a(lib_a-__call_atexit.o)
                              /OPT/altera/12.1/nios2eds/bin/gnu/H-i686-pc-linux-gnu/bin/../lib/gcc/nios2-elf/4.1.2/../../../../nios2-elf/lib/libc.a(lib_a-exit.o) (__call_exitprocs)
/OPT/altera/12.1/nios2eds/bin/gnu/H-i686-pc-linux-gnu/bin/../lib/gcc/nios2-elf/4.1.2/libgcc.a(lib2-divmod.o)
                              ../Ether_bsp//libucosii_bsp.a(os_core.o) (__udivsi3)
../Ether_bsp//libucosii_bsp.a(alt_exit.o)
                              /OPT/altera/12.1/nios2eds/bin/gnu/H-i686-pc-linux-gnu/bin/../lib/gcc/nios2-elf/4.1.2/../../../../nios2-elf/lib/libc.a(lib_a-exit.o) (_exit)

Allocating common symbols
Common symbol       size              file

alt_irq             0x100             ../Ether_bsp//libucosii_bsp.a(alt_irq_handler.o)
task1_stk           0x2000            obj/default/hello_ucosii.o
OSLockNesting       0x1               ../Ether_bsp//libucosii_bsp.a(os_core.o)
OSRunning           0x1               ../Ether_bsp//libucosii_bsp.a(os_core.o)
OSIdleCtr           0x4               ../Ether_bsp//libucosii_bsp.a(os_core.o)
OSPrioHighRdy       0x1               ../Ether_bsp//libucosii_bsp.a(os_core.o)
errno               0x4               /OPT/altera/12.1/nios2eds/bin/gnu/H-i686-pc-linux-gnu/bin/../lib/gcc/nios2-elf/4.1.2/../../../../nios2-elf/lib/libc.a(lib_a-int_errno.o)
alt_heapsem         0x4               ../Ether_bsp//libucosii_bsp.a(alt_malloc_lock.o)
OSFlagTbl           0x370             ../Ether_bsp//libucosii_bsp.a(os_core.o)
OSPrioCur           0x1               ../Ether_bsp//libucosii_bsp.a(os_core.o)
OSTCBList           0x4               ../Ether_bsp//libucosii_bsp.a(os_core.o)
alt_fd_list_lock    0x4               ../Ether_bsp//libucosii_bsp.a(alt_dev.o)
OSMemTbl            0xc30             ../Ether_bsp//libucosii_bsp.a(os_core.o)
OSTickStepState     0x1               ../Ether_bsp//libucosii_bsp.a(os_core.o)
OSTaskStatStk       0x800             ../Ether_bsp//libucosii_bsp.a(os_core.o)
OSCtxSwCtr          0x4               ../Ether_bsp//libucosii_bsp.a(os_core.o)
OSIdleCtrMax        0x4               ../Ether_bsp//libucosii_bsp.a(os_core.o)
OSTCBFreeList       0x4               ../Ether_bsp//libucosii_bsp.a(os_core.o)
OSCPUUsage          0x1               ../Ether_bsp//libucosii_bsp.a(os_core.o)
OSTaskCtr           0x1               ../Ether_bsp//libucosii_bsp.a(os_core.o)
OSMemFreeList       0x4               ../Ether_bsp//libucosii_bsp.a(os_core.o)
OSQTbl              0x1e0             ../Ether_bsp//libucosii_bsp.a(os_core.o)
OSTCBHighRdy        0x4               ../Ether_bsp//libucosii_bsp.a(os_core.o)
OSQFreeList         0x4               ../Ether_bsp//libucosii_bsp.a(os_core.o)
OSRdyGrp            0x1               ../Ether_bsp//libucosii_bsp.a(os_core.o)
task2_stk           0x2000            obj/default/hello_ucosii.o
_atexit0            0x190             /OPT/altera/12.1/nios2eds/bin/gnu/H-i686-pc-linux-gnu/bin/../lib/gcc/nios2-elf/4.1.2/../../../../nios2-elf/lib/libc.a(lib_a-atexit.o)
OSRdyTbl            0x3               ../Ether_bsp//libucosii_bsp.a(os_core.o)
OSEventFreeList     0x4               ../Ether_bsp//libucosii_bsp.a(os_core.o)
OSIntNesting        0x1               ../Ether_bsp//libucosii_bsp.a(os_core.o)
OSTCBCur            0x4               ../Ether_bsp//libucosii_bsp.a(os_core.o)
OSTime              0x4               ../Ether_bsp//libucosii_bsp.a(os_core.o)
OSTaskIdleStk       0x800             ../Ether_bsp//libucosii_bsp.a(os_core.o)
OSEventTbl          0xb40             ../Ether_bsp//libucosii_bsp.a(os_core.o)
OSTCBTbl            0x510             ../Ether_bsp//libucosii_bsp.a(os_core.o)
OSFlagFreeList      0x4               ../Ether_bsp//libucosii_bsp.a(os_core.o)
OSStatRdy           0x1               ../Ether_bsp//libucosii_bsp.a(os_core.o)
OSTCBPrioTbl        0x54              ../Ether_bsp//libucosii_bsp.a(os_core.o)
alt_envsem          0x4               ../Ether_bsp//libucosii_bsp.a(alt_env_lock.o)
OSIdleCtrRun        0x4               ../Ether_bsp//libucosii_bsp.a(os_core.o)

Memory Configuration

Name             Origin             Length             Attributes
sdram_0          0x00800000         0x00800000
reset            0x01104000         0x00000020
onchip_memory2_0 0x01104020         0x00003fe0
*default*        0x00000000         0xffffffff

Linker script and memory map

LOAD ../Ether_bsp//obj/HAL/src/crt0.o
LOAD obj/default/hello_ucosii.o
LOAD /OPT/altera/12.1/nios2eds/bin/gnu/H-i686-pc-linux-gnu/bin/../lib/gcc/nios2-elf/4.1.2/../../../../nios2-elf/lib/libstdc++.a
LOAD /OPT/altera/12.1/nios2eds/bin/gnu/H-i686-pc-linux-gnu/bin/../lib/gcc/nios2-elf/4.1.2/../../../../nios2-elf/lib/libm.a
LOAD /OPT/altera/12.1/nios2eds/bin/gnu/H-i686-pc-linux-gnu/bin/../lib/gcc/nios2-elf/4.1.2/libgcc.a
START GROUP
LOAD /OPT/altera/12.1/nios2eds/bin/gnu/H-i686-pc-linux-gnu/bin/../lib/gcc/nios2-elf/4.1.2/../../../../nios2-elf/lib/libc.a
LOAD /OPT/altera/12.1/nios2eds/bin/gnu/H-i686-pc-linux-gnu/bin/../lib/gcc/nios2-elf/4.1.2/libgcc.a
LOAD ../Ether_bsp//libucosii_bsp.a
END GROUP
LOAD /OPT/altera/12.1/nios2eds/bin/gnu/H-i686-pc-linux-gnu/bin/../lib/gcc/nios2-elf/4.1.2/libgcc.a
                0x00800000                __alt_mem_sdram_0 = 0x800000
                0x01104000                __alt_mem_onchip_memory2_0 = 0x1104000

.entry          0x01104000       0x20
 *(.entry)
 .entry         0x01104000       0x20 ../Ether_bsp//obj/HAL/src/crt0.o
                0x01104000                __reset

.exceptions     0x01104020      0x19c load address 0x00800000
                0x01104020                PROVIDE (__ram_exceptions_start, ABSOLUTE (.))
                0x01104020                . = ALIGN (0x20)
 *(.irq)
 *(.exceptions.entry.label)
 .exceptions.entry.label
                0x01104020        0x0 ../Ether_bsp//libucosii_bsp.a(alt_irq_entry.o)
                0x01104020                alt_irq_entry
 .exceptions.entry.label
                0x01104020        0x0 ../Ether_bsp//libucosii_bsp.a(alt_exception_entry.o)
                0x01104020                alt_exception
 *(.exceptions.entry.user)
 *(.exceptions.entry)
 .exceptions.entry
                0x01104020       0x54 ../Ether_bsp//libucosii_bsp.a(alt_exception_entry.o)
 *(.exceptions.irqtest.user)
 *(.exceptions.irqtest)
 .exceptions.irqtest
                0x01104074       0x10 ../Ether_bsp//libucosii_bsp.a(alt_irq_entry.o)
 *(.exceptions.irqhandler.user)
 *(.exceptions.irqhandler)
 .exceptions.irqhandler
                0x01104084        0x4 ../Ether_bsp//libucosii_bsp.a(alt_irq_entry.o)
 *(.exceptions.irqreturn.user)
 *(.exceptions.irqreturn)
 .exceptions.irqreturn
                0x01104088        0x4 ../Ether_bsp//libucosii_bsp.a(alt_irq_entry.o)
 *(.exceptions.notirq.label)
 .exceptions.notirq.label
                0x0110408c        0x0 ../Ether_bsp//libucosii_bsp.a(alt_irq_entry.o)
 *(.exceptions.notirq.user)
 *(.exceptions.notirq)
 .exceptions.notirq
                0x0110408c        0x8 ../Ether_bsp//libucosii_bsp.a(alt_exception_entry.o)
 *(.exceptions.soft.user)
 *(.exceptions.soft)
 *(.exceptions.unknown.user)
 *(.exceptions.unknown)
 .exceptions.unknown
                0x01104094        0x4 ../Ether_bsp//libucosii_bsp.a(alt_exception_entry.o)
 *(.exceptions.exit.label)
 .exceptions.exit.label
                0x01104098        0x0 ../Ether_bsp//libucosii_bsp.a(alt_irq_entry.o)
 .exceptions.exit.label
                0x01104098        0x0 ../Ether_bsp//libucosii_bsp.a(alt_exception_entry.o)
 *(.exceptions.exit.user)
 *(.exceptions.exit)
 .exceptions.exit
                0x01104098       0x54 ../Ether_bsp//libucosii_bsp.a(alt_exception_entry.o)
 *(.exceptions)
 .exceptions    0x011040ec       0xd0 ../Ether_bsp//libucosii_bsp.a(alt_irq_handler.o)
                0x011040ec                alt_irq_handler
                0x011041bc                PROVIDE (__ram_exceptions_end, ABSOLUTE (.))
                0x00800000                PROVIDE (__flash_exceptions_start, LOADADDR (.exceptions))

.text           0x0080019c     0xeb4c
                0x0080019c                PROVIDE (stext, ABSOLUTE (.))
 *(.interp)
 *(.hash)
 *(.dynsym)
 *(.dynstr)
 *(.gnu.version)
 *(.gnu.version_d)
 *(.gnu.version_r)
 *(.rel.init)
 *(.rela.init)
 *(.rel.text .rel.text.* .rel.gnu.linkonce.t.*)
 *(.rela.text .rela.text.* .rela.gnu.linkonce.t.*)
 *(.rel.fini)
 *(.rela.fini)
 *(.rel.rodata .rel.rodata.* .rel.gnu.linkonce.r.*)
 *(.rela.rodata .rela.rodata.* .rela.gnu.linkonce.r.*)
 *(.rel.data .rel.data.* .rel.gnu.linkonce.d.*)
 *(.rela.data .rela.data.* .rela.gnu.linkonce.d.*)
 *(.rel.tdata .rel.tdata.* .rel.gnu.linkonce.td.*)
 *(.rela.tdata .rela.tdata.* .rela.gnu.linkonce.td.*)
 *(.rel.tbss .rel.tbss.* .rel.gnu.linkonce.tb.*)
 *(.rela.tbss .rela.tbss.* .rela.gnu.linkonce.tb.*)
 *(.rel.ctors)
 *(.rela.ctors)
 *(.rel.dtors)
 *(.rela.dtors)
 *(.rel.got)
 *(.rela.got)
 *(.rel.sdata .rel.sdata.* .rel.gnu.linkonce.s.*)
 *(.rela.sdata .rela.sdata.* .rela.gnu.linkonce.s.*)
 *(.rel.sbss .rel.sbss.* .rel.gnu.linkonce.sb.*)
 *(.rela.sbss .rela.sbss.* .rela.gnu.linkonce.sb.*)
 *(.rel.sdata2 .rel.sdata2.* .rel.gnu.linkonce.s2.*)
 *(.rela.sdata2 .rela.sdata2.* .rela.gnu.linkonce.s2.*)
 *(.rel.sbss2 .rel.sbss2.* .rel.gnu.linkonce.sb2.*)
 *(.rela.sbss2 .rela.sbss2.* .rela.gnu.linkonce.sb2.*)
 *(.rel.bss .rel.bss.* .rel.gnu.linkonce.b.*)
 *(.rela.bss .rela.bss.* .rela.gnu.linkonce.b.*)
 *(.rel.plt)
 *(.rela.plt)
 *(.rel.dyn)
 *(.init)
 *(.plt)
 *(.text .stub .text.* .gnu.linkonce.t.*)
 .text          0x0080019c       0x4c ../Ether_bsp//obj/HAL/src/crt0.o
                0x0080019c                _start
 .text          0x008001e8      0x11c obj/default/hello_ucosii.o
                0x008001e8                task1
                0x00800220                task2
                0x00800258                main
 .text          0x00800304       0xb4 /OPT/altera/12.1/nios2eds/bin/gnu/H-i686-pc-linux-gnu/bin/../lib/gcc/nios2-elf/4.1.2/../../../../nios2-elf/lib/libc.a(lib_a-puts.o)
                0x00800304                _puts_r
                0x008003a4                puts
 .text          0x008003b8       0x74 /OPT/altera/12.1/nios2eds/bin/gnu/H-i686-pc-linux-gnu/bin/../lib/gcc/nios2-elf/4.1.2/../../../../nios2-elf/lib/libc.a(lib_a-strlen.o)
                0x008003b8                strlen
 .text          0x0080042c      0x49c /OPT/altera/12.1/nios2eds/bin/gnu/H-i686-pc-linux-gnu/bin/../lib/gcc/nios2-elf/4.1.2/../../../../nios2-elf/lib/libc.a(lib_a-fvwrite.o)
                0x0080042c                __sfvwrite_r
 .text          0x008008c8        0x0 /OPT/altera/12.1/nios2eds/bin/gnu/H-i686-pc-linux-gnu/bin/../lib/gcc/nios2-elf/4.1.2/../../../../nios2-elf/lib/libc.a(lib_a-impure.o)
 .text          0x008008c8      0x740 /OPT/altera/12.1/nios2eds/bin/gnu/H-i686-pc-linux-gnu/bin/../lib/gcc/nios2-elf/4.1.2/../../../../nios2-elf/lib/libc.a(lib_a-mallocr.o)
                0x008008c8                _malloc_r
 .text          0x00801008       0xe4 /OPT/altera/12.1/nios2eds/bin/gnu/H-i686-pc-linux-gnu/bin/../lib/gcc/nios2-elf/4.1.2/../../../../nios2-elf/lib/libc.a(lib_a-memchr.o)
                0x00801008                memchr
 .text          0x008010ec       0xa0 /OPT/altera/12.1/nios2eds/bin/gnu/H-i686-pc-linux-gnu/bin/../lib/gcc/nios2-elf/4.1.2/../../../../nios2-elf/lib/libc.a(lib_a-memcpy.o)
                0x008010ec                memcpy
 .text          0x0080118c       0xe0 /OPT/altera/12.1/nios2eds/bin/gnu/H-i686-pc-linux-gnu/bin/../lib/gcc/nios2-elf/4.1.2/../../../../nios2-elf/lib/libc.a(lib_a-memmove.o)
                0x0080118c                memmove
 .text          0x0080126c      0x5f4 /OPT/altera/12.1/nios2eds/bin/gnu/H-i686-pc-linux-gnu/bin/../lib/gcc/nios2-elf/4.1.2/../../../../nios2-elf/lib/libc.a(lib_a-reallocr.o)
                0x0080126c                _realloc_r
 .text          0x00801860       0x70 /OPT/altera/12.1/nios2eds/bin/gnu/H-i686-pc-linux-gnu/bin/../lib/gcc/nios2-elf/4.1.2/../../../../nios2-elf/lib/libc.a(lib_a-sbrkr.o)
                0x00801860                _sbrk_r
 .text          0x008018d0      0x13c /OPT/altera/12.1/nios2eds/bin/gnu/H-i686-pc-linux-gnu/bin/../lib/gcc/nios2-elf/4.1.2/../../../../nios2-elf/lib/libc.a(lib_a-wsetup.o)
                0x008018d0                __swsetup_r
 .text          0x00801a0c      0x230 /OPT/altera/12.1/nios2eds/bin/gnu/H-i686-pc-linux-gnu/bin/../lib/gcc/nios2-elf/4.1.2/../../../../nios2-elf/lib/libc.a(lib_a-fflush.o)
                0x00801a0c                _fflush_r
                0x00801c08                fflush
 .text          0x00801c3c      0x2c0 /OPT/altera/12.1/nios2eds/bin/gnu/H-i686-pc-linux-gnu/bin/../lib/gcc/nios2-elf/4.1.2/../../../../nios2-elf/lib/libc.a(lib_a-findfp.o)
                0x00801c94                __sfp_lock_acquire
                0x00801c98                __sfp_lock_release
                0x00801c9c                __sinit_lock_acquire
                0x00801ca0                __sinit_lock_release
                0x00801ca4                __sinit
                0x00801d58                __fp_unlock_all
                0x00801d70                __fp_lock_all
                0x00801d88                _cleanup_r
                0x00801d94                _cleanup
                0x00801da4                __sfmoreglue
                0x00801e0c                __sfp
 .text          0x00801efc      0x440 /OPT/altera/12.1/nios2eds/bin/gnu/H-i686-pc-linux-gnu/bin/../lib/gcc/nios2-elf/4.1.2/../../../../nios2-elf/lib/libc.a(lib_a-freer.o)
                0x00801efc                _malloc_trim_r
                0x00802028                _free_r
 .text          0x0080233c      0x180 /OPT/altera/12.1/nios2eds/bin/gnu/H-i686-pc-linux-gnu/bin/../lib/gcc/nios2-elf/4.1.2/../../../../nios2-elf/lib/libc.a(lib_a-fwalk.o)
                0x0080233c                _fwalk_reent
                0x00802404                _fwalk
 .text          0x008024bc        0x0 /OPT/altera/12.1/nios2eds/bin/gnu/H-i686-pc-linux-gnu/bin/../lib/gcc/nios2-elf/4.1.2/../../../../nios2-elf/lib/libc.a(lib_a-int_errno.o)
 .text          0x008024bc      0x194 /OPT/altera/12.1/nios2eds/bin/gnu/H-i686-pc-linux-gnu/bin/../lib/gcc/nios2-elf/4.1.2/../../../../nios2-elf/lib/libc.a(lib_a-makebuf.o)
                0x008024bc                __smakebuf_r
 .text          0x00802650       0x98 /OPT/altera/12.1/nios2eds/bin/gnu/H-i686-pc-linux-gnu/bin/../lib/gcc/nios2-elf/4.1.2/../../../../nios2-elf/lib/libc.a(lib_a-memset.o)
                0x00802650                memset
 .text          0x008026e8      0x14c /OPT/altera/12.1/nios2eds/bin/gnu/H-i686-pc-linux-gnu/bin/../lib/gcc/nios2-elf/4.1.2/../../../../nios2-elf/lib/libc.a(lib_a-stdio.o)
                0x008026e8                __sclose
                0x008026f0                __sseek
                0x00802758                __swrite
                0x008027d4                __sread
 .text          0x00802834       0x78 /OPT/altera/12.1/nios2eds/bin/gnu/H-i686-pc-linux-gnu/bin/../lib/gcc/nios2-elf/4.1.2/../../../../nios2-elf/lib/libc.a(lib_a-writer.o)
                0x00802834                _write_r
 .text          0x008028ac       0x70 /OPT/altera/12.1/nios2eds/bin/gnu/H-i686-pc-linux-gnu/bin/../lib/gcc/nios2-elf/4.1.2/../../../../nios2-elf/lib/libc.a(lib_a-closer.o)
                0x008028ac                _close_r
 .text          0x0080291c      0x124 /OPT/altera/12.1/nios2eds/bin/gnu/H-i686-pc-linux-gnu/bin/../lib/gcc/nios2-elf/4.1.2/../../../../nios2-elf/lib/libc.a(lib_a-fclose.o)
                0x0080291c                _fclose_r
                0x00802a2c                fclose
 .text          0x00802a40       0x74 /OPT/altera/12.1/nios2eds/bin/gnu/H-i686-pc-linux-gnu/bin/../lib/gcc/nios2-elf/4.1.2/../../../../nios2-elf/lib/libc.a(lib_a-fstatr.o)
                0x00802a40                _fstat_r
 .text          0x00802ab4       0x70 /OPT/altera/12.1/nios2eds/bin/gnu/H-i686-pc-linux-gnu/bin/../lib/gcc/nios2-elf/4.1.2/../../../../nios2-elf/lib/libc.a(lib_a-isattyr.o)
                0x00802ab4                _isatty_r
 .text          0x00802b24       0x78 /OPT/altera/12.1/nios2eds/bin/gnu/H-i686-pc-linux-gnu/bin/../lib/gcc/nios2-elf/4.1.2/../../../../nios2-elf/lib/libc.a(lib_a-lseekr.o)
                0x00802b24                _lseek_r
 .text          0x00802b9c       0x78 /OPT/altera/12.1/nios2eds/bin/gnu/H-i686-pc-linux-gnu/bin/../lib/gcc/nios2-elf/4.1.2/../../../../nios2-elf/lib/libc.a(lib_a-readr.o)
                0x00802b9c                _read_r
 .text          0x00802c14      0x15c ../Ether_bsp//libucosii_bsp.a(alt_close.o)
                0x00802c14                close
 .text          0x00802d70       0x2c ../Ether_bsp//libucosii_bsp.a(alt_dev.o)
 .text          0x00802d9c        0x0 ../Ether_bsp//libucosii_bsp.a(alt_errno.o)
 .text          0x00802d9c      0x134 ../Ether_bsp//libucosii_bsp.a(alt_fstat.o)
                0x00802d9c                fstat
 .text          0x00802ed0      0x120 ../Ether_bsp//libucosii_bsp.a(alt_isatty.o)
                0x00802ed0                isatty
 .text          0x00802ff0       0xec ../Ether_bsp//libucosii_bsp.a(alt_load.o)
                0x00802ff0                alt_load
 .text          0x008030dc      0x150 ../Ether_bsp//libucosii_bsp.a(alt_lseek.o)
                0x008030dc                lseek
 .text          0x0080322c       0xc8 ../Ether_bsp//libucosii_bsp.a(alt_main.o)
                0x0080322c                alt_main
 .text          0x008032f4      0x180 ../Ether_bsp//libucosii_bsp.a(alt_read.o)
                0x008032f4                read
 .text          0x00803474       0x60 ../Ether_bsp//libucosii_bsp.a(alt_release_fd.o)
                0x00803474                alt_release_fd
 .text          0x008034d4       0xbc ../Ether_bsp//libucosii_bsp.a(alt_sbrk.o)
                0x008034d4                sbrk
 .text          0x00803590      0x180 ../Ether_bsp//libucosii_bsp.a(alt_write.o)
                0x00803590                write
 .text          0x00803710      0x108 ../Ether_bsp//libucosii_bsp.a(alt_env_lock.o)
                0x00803710                __env_lock
                0x008037bc                __env_unlock
 .text          0x00803818      0x1d8 ../Ether_bsp//libucosii_bsp.a(alt_malloc_lock.o)
                0x00803818                __malloc_lock
                0x00803920                __malloc_unlock
 .text          0x008039f0     0x2128 ../Ether_bsp//libucosii_bsp.a(os_core.o)
                0x008039f0                OSEventNameGet
                0x00803b20                OSEventNameSet
                0x00803c64                OSEventPendMulti
                0x00804318                OSInit
                0x0080436c                OSIntEnter
                0x008043e8                OSIntExit
                0x008044e8                OSSchedLock
                0x00804574                OSSchedUnlock
                0x00804658                OSStart
                0x008046c8                OSStatInit
                0x00804774                OSTimeTick
                0x008049b4                OSVersion
                0x008049d4                OS_Dummy
                0x008049f0                OS_EventTaskRdy
                0x00804b84                OS_EventTaskWait
                0x00804c94                OS_EventTaskWaitMulti
                0x00804de8                OS_EventTaskRemove
                0x00804ea0                OS_EventTaskRemoveMulti
                0x00804fa4                OS_EventWaitListInit
                0x00805370                OS_MemClr
                0x008053c4                OS_MemCopy
                0x00805430                OS_Sched
                0x00805574                OS_StrCopy
                0x008055f4                OS_StrLen
                0x0080564c                OS_TaskIdle
                0x008056a8                OS_TaskStat
                0x00805770                OS_TaskStatStkChk
                0x00805838                OS_TCBInit
 .text          0x00805b18      0x18c ../Ether_bsp//libucosii_bsp.a(os_dbg.o)
                0x00805b18                OSDebugInit
 .text          0x00805ca4     0x193c ../Ether_bsp//libucosii_bsp.a(os_flag.o)
                0x00805ca4                OSFlagAccept
                0x00805fd8                OSFlagCreate
                0x00806114                OSFlagDel
                0x008063bc                OSFlagNameGet
                0x00806500                OSFlagNameSet
                0x00806654                OSFlagPend
                0x00806c98                OSFlagPendGetFlagsRdy
                0x00806d00                OSFlagPost
                0x008070a8                OSFlagQuery
                0x00807340                OS_FlagInit
                0x00807534                OS_FlagUnlink
 .text          0x008075e0      0x808 ../Ether_bsp//libucosii_bsp.a(os_mem.o)
                0x008075e0                OSMemCreate
                0x008077fc                OSMemGet
                0x00807900                OSMemNameGet
                0x00807a0c                OSMemNameSet
                0x00807b2c                OSMemPut
                0x00807c1c                OSMemQuery
                0x00807d18                OS_MemInit
 .text          0x00807de8     0x1334 ../Ether_bsp//libucosii_bsp.a(os_q.o)
                0x00807de8                OSQAccept
                0x00807f3c                OSQCreate
                0x00808150                OSQDel
                0x00808450                OSQFlush
                0x00808518                OSQPend
                0x00808838                OSQPendAbort
                0x008089b4                OSQPost
                0x00808b34                OSQPostFront
                0x00808cbc                OSQPostOpt
                0x00808ef0                OSQQuery
                0x00809070                OS_QInit
 .text          0x0080911c      0xbc8 ../Ether_bsp//libucosii_bsp.a(os_sem.o)
                0x0080911c                OSSemAccept
                0x008091dc                OSSemCreate
                0x008092f0                OSSemDel
                0x00809590                OSSemPend
                0x0080980c                OSSemPendAbort
                0x00809988                OSSemPost
                0x00809ab0                OSSemQuery
                0x00809be0                OSSemSet
 .text          0x00809ce4     0x1a40 ../Ether_bsp//libucosii_bsp.a(os_task.o)
                0x00809ce4                OSTaskChangePrio
                0x0080a258                OSTaskCreate
                0x0080a42c                OSTaskCreateExt
                0x0080a62c                OSTaskDel
                0x0080aa38                OSTaskDelReq
                0x0080aba8                OSTaskNameGet
                0x0080ad60                OSTaskNameSet
                0x0080af24                OSTaskResume
                0x0080b13c                OSTaskStkChk
                0x0080b338                OSTaskSuspend
                0x0080b564                OSTaskQuery
                0x0080b6a8                OS_TaskStkClr
 .text          0x0080b724      0x598 ../Ether_bsp//libucosii_bsp.a(os_time.o)
                0x0080b724                OSTimeDly
                0x0080b870                OSTimeDlyHMSM
                0x0080b9e4                OSTimeDlyResume
                0x0080bbf4                OSTimeGet
                0x0080bc58                OSTimeSet
 .text          0x0080bcbc      0x2e4 ../Ether_bsp//libucosii_bsp.a(alt_sys_init.o)
                0x0080bcbc                alt_irq_init
                0x0080bcf0                alt_sys_init
 .text          0x0080bfa0      0x148 ../Ether_bsp//libucosii_bsp.a(altera_avalon_jtag_uart_fd.o)
                0x0080bfa0                altera_avalon_jtag_uart_read_fd
                0x0080bff8                altera_avalon_jtag_uart_write_fd
                0x0080c050                altera_avalon_jtag_uart_close_fd
                0x0080c098                altera_avalon_jtag_uart_ioctl_fd
 .text          0x0080c0e8      0x584 ../Ether_bsp//libucosii_bsp.a(altera_avalon_jtag_uart_init.o)
                0x0080c0e8                altera_avalon_jtag_uart_init
                0x0080c5f8                altera_avalon_jtag_uart_close
 .text          0x0080c66c       0xf4 ../Ether_bsp//libucosii_bsp.a(altera_avalon_jtag_uart_ioctl.o)
                0x0080c66c                altera_avalon_jtag_uart_ioctl
 .text          0x0080c760      0x2c0 ../Ether_bsp//libucosii_bsp.a(altera_avalon_jtag_uart_read.o)
                0x0080c760                altera_avalon_jtag_uart_read
 .text          0x0080ca20      0x2dc ../Ether_bsp//libucosii_bsp.a(altera_avalon_jtag_uart_write.o)
                0x0080ca20                altera_avalon_jtag_uart_write
 .text          0x0080ccfc      0x100 ../Ether_bsp//libucosii_bsp.a(altera_avalon_timer_sc.o)
                0x0080cd6c                alt_avalon_timer_sc_init
 .text          0x0080cdfc      0x530 ../Ether_bsp//libucosii_bsp.a(altera_up_avalon_character_lcd.o)
                0x0080cdfc                get_DDRAM_addr
                0x0080ce78                alt_up_character_lcd_send_cmd
                0x0080ceac                alt_up_character_lcd_init
                0x0080cee0                alt_up_character_lcd_open_dev
                0x0080cf20                alt_up_character_lcd_write
                0x0080cf98                alt_up_character_lcd_string
                0x0080d010                alt_up_character_lcd_write_fd
                0x0080d05c                alt_up_character_lcd_set_cursor_pos
                0x0080d0d4                alt_up_character_lcd_shift_cursor
                0x0080d184                alt_up_character_lcd_shift_display
                0x0080d234                alt_up_character_lcd_erase_pos
                0x0080d2c4                alt_up_character_lcd_cursor_off
                0x0080d2f8                alt_up_character_lcd_cursor_blink_on
 .text          0x0080d32c      0x154 ../Ether_bsp//libucosii_bsp.a(alt_alarm_start.o)
                0x0080d32c                alt_alarm_start
 .text          0x0080d480       0x44 ../Ether_bsp//libucosii_bsp.a(alt_dcache_flush_all.o)
                0x0080d480                alt_dcache_flush_all
 .text          0x0080d4c4      0x114 ../Ether_bsp//libucosii_bsp.a(alt_dev_llist_insert.o)
                0x0080d4c4                alt_dev_llist_insert
 .text          0x0080d5d8       0x64 ../Ether_bsp//libucosii_bsp.a(alt_do_ctors.o)
                0x0080d5d8                _do_ctors
 .text          0x0080d63c       0x64 ../Ether_bsp//libucosii_bsp.a(alt_do_dtors.o)
                0x0080d63c                _do_dtors
 .text          0x0080d6a0       0x94 ../Ether_bsp//libucosii_bsp.a(alt_find_dev.o)
                0x0080d6a0                alt_find_dev
 .text          0x0080d734       0x30 ../Ether_bsp//libucosii_bsp.a(alt_icache_flush_all.o)
                0x0080d734                alt_icache_flush_all
 .text          0x0080d764      0x1d4 ../Ether_bsp//libucosii_bsp.a(alt_iic.o)
                0x0080d764                alt_ic_isr_register
                0x0080d7b4                alt_ic_irq_enable
                0x0080d850                alt_ic_irq_disable
                0x0080d8f0                alt_ic_irq_enabled
 .text          0x0080d938       0xf8 ../Ether_bsp//libucosii_bsp.a(alt_iic_isr_register.o)
                0x0080d938                alt_iic_isr_register
 .text          0x0080da30      0x13c ../Ether_bsp//libucosii_bsp.a(alt_io_redirect.o)
                0x0080daf4                alt_io_redirect
 .text          0x0080db6c        0x0 ../Ether_bsp//libucosii_bsp.a(alt_irq_entry.o)
 .text          0x0080db6c        0x0 ../Ether_bsp//libucosii_bsp.a(alt_irq_handler.o)
 .text          0x0080db6c        0x0 ../Ether_bsp//libucosii_bsp.a(alt_irq_vars.o)
 .text          0x0080db6c      0x2c4 ../Ether_bsp//libucosii_bsp.a(alt_open.o)
                0x0080dc48                open
 .text          0x0080de30      0x1a8 ../Ether_bsp//libucosii_bsp.a(alt_tick.o)
                0x0080de30                alt_alarm_stop
                0x0080dec8                alt_tick
 .text          0x0080dfd8       0x20 ../Ether_bsp//libucosii_bsp.a(altera_nios2_qsys_irq.o)
                0x0080dfd8                altera_nios2_qsys_irq_init
 .text          0x0080dff8       0xd0 ../Ether_bsp//libucosii_bsp.a(os_cpu_a.o)
                0x0080dff8                OSCtxSw
                0x0080dff8                OSIntCtxSw
                0x0080e084                OSStartHighRdy
                0x0080e0a4                OSStartTsk
 .text          0x0080e0c8      0x418 ../Ether_bsp//libucosii_bsp.a(os_cpu_c.o)
                0x0080e0c8                OSTaskStkInit
                0x0080e3d8                OSTaskCreateHook
                0x0080e3f8                OSTaskDelHook
                0x0080e418                OSTaskSwHook
                0x0080e434                OSTaskStatHook
                0x0080e450                OSTimeTickHook
                0x0080e46c                OSInitHookBegin
                0x0080e488                OSInitHookEnd
                0x0080e4a4                OSTaskIdleHook
                0x0080e4c0                OSTCBInitHook
 .text          0x0080e4e0        0x0 ../Ether_bsp//libucosii_bsp.a(alt_exception_entry.o)
 .text          0x0080e4e0      0x120 ../Ether_bsp//libucosii_bsp.a(alt_find_file.o)
                0x0080e4e0                alt_find_file
 .text          0x0080e600       0xf4 ../Ether_bsp//libucosii_bsp.a(alt_get_fd.o)
                0x0080e600                alt_get_fd
 .text          0x0080e6f4       0x90 ../Ether_bsp//libucosii_bsp.a(alt_icache_flush.o)
                0x0080e6f4                alt_icache_flush
 .text          0x0080e784       0x14 /OPT/altera/12.1/nios2eds/bin/gnu/H-i686-pc-linux-gnu/bin/../lib/gcc/nios2-elf/4.1.2/../../../../nios2-elf/lib/libc.a(lib_a-atexit.o)
                0x0080e784                atexit
 .text          0x0080e798       0x38 /OPT/altera/12.1/nios2eds/bin/gnu/H-i686-pc-linux-gnu/bin/../lib/gcc/nios2-elf/4.1.2/../../../../nios2-elf/lib/libc.a(lib_a-exit.o)
                0x0080e798                exit
 .text          0x0080e7d0       0x74 /OPT/altera/12.1/nios2eds/bin/gnu/H-i686-pc-linux-gnu/bin/../lib/gcc/nios2-elf/4.1.2/../../../../nios2-elf/lib/libc.a(lib_a-memcmp.o)
                0x0080e7d0                memcmp
 .text          0x0080e844      0x134 /OPT/altera/12.1/nios2eds/bin/gnu/H-i686-pc-linux-gnu/bin/../lib/gcc/nios2-elf/4.1.2/../../../../nios2-elf/lib/libc.a(lib_a-__atexit.o)
                0x0080e844                __register_exitproc
 .text          0x0080e978      0x1b4 /OPT/altera/12.1/nios2eds/bin/gnu/H-i686-pc-linux-gnu/bin/../lib/gcc/nios2-elf/4.1.2/../../../../nios2-elf/lib/libc.a(lib_a-__call_atexit.o)
                0x0080e97c                __call_exitprocs
 .text          0x0080eb2c      0x14c /OPT/altera/12.1/nios2eds/bin/gnu/H-i686-pc-linux-gnu/bin/../lib/gcc/nios2-elf/4.1.2/libgcc.a(lib2-divmod.o)
                0x0080eba8                __divsi3
                0x0080ec08                __modsi3
                0x0080ec68                __udivsi3
                0x0080ec70                __umodsi3
 .text          0x0080ec78       0x6c ../Ether_bsp//libucosii_bsp.a(alt_exit.o)
                0x0080ecb8                _exit
 *(.gnu.warning.*)
 *(.fini)
                0x0080ece4                PROVIDE (__etext, ABSOLUTE (.))
                0x0080ece4                PROVIDE (_etext, ABSOLUTE (.))
                0x0080ece4                PROVIDE (etext, ABSOLUTE (.))
 *(.eh_frame_hdr)
                0x0080ece4                . = ALIGN (0x4)
                0x0080ece4                PROVIDE (__preinit_array_start, ABSOLUTE (.))
 *(.preinit_array)
                0x0080ece4                PROVIDE (__preinit_array_end, ABSOLUTE (.))
                0x0080ece4                PROVIDE (__init_array_start, ABSOLUTE (.))
 *(.init_array)
                0x0080ece4                PROVIDE (__init_array_end, ABSOLUTE (.))
                0x0080ece4                PROVIDE (__fini_array_start, ABSOLUTE (.))
 *(.fini_array)
                0x0080ece4                PROVIDE (__fini_array_end, ABSOLUTE (.))
 *(.eh_frame)
 *(.gcc_except_table)
 *(.dynamic)
                0x0080ece4                PROVIDE (__CTOR_LIST__, ABSOLUTE (.))
 *(.ctors)
 *(SORT(.ctors.*))
 .ctors.65535   0x0080ece4        0x4 /OPT/altera/12.1/nios2eds/bin/gnu/H-i686-pc-linux-gnu/bin/../lib/gcc/nios2-elf/4.1.2/../../../../nios2-elf/lib/libc.a(lib_a-__call_atexit.o)
                0x0080ece8                PROVIDE (__CTOR_END__, ABSOLUTE (.))
                0x0080ece8                PROVIDE (__DTOR_LIST__, ABSOLUTE (.))
 *(.dtors)
 *(SORT(.dtors.*))
                0x0080ece8                PROVIDE (__DTOR_END__, ABSOLUTE (.))
 *(.jcr)
                0x0080ece8                . = ALIGN (0x4)

.rodata         0x0080ece8      0x1ec
                0x0080ece8                PROVIDE (__ram_rodata_start, ABSOLUTE (.))
                0x0080ece8                . = ALIGN (0x4)
 *(.rodata .rodata.* .gnu.linkonce.r.*)
 .rodata        0x0080ece8       0x28 obj/default/hello_ucosii.o
 .rodata.str1.4
                0x0080ed10        0x2 /OPT/altera/12.1/nios2eds/bin/gnu/H-i686-pc-linux-gnu/bin/../lib/gcc/nios2-elf/4.1.2/../../../../nios2-elf/lib/libc.a(lib_a-puts.o)
                                  0x4 (size before relaxing)
 *fill*         0x0080ed12        0x2 00
 .rodata.str1.4
                0x0080ed14        0x4 /OPT/altera/12.1/nios2eds/bin/gnu/H-i686-pc-linux-gnu/bin/../lib/gcc/nios2-elf/4.1.2/../../../../nios2-elf/lib/libc.a(lib_a-impure.o)
 .rodata        0x0080ed18        0xc ../Ether_bsp//libucosii_bsp.a(alt_dev.o)
 .rodata        0x0080ed24       0x14 ../Ether_bsp//libucosii_bsp.a(alt_main.o)
 .rodata        0x0080ed38      0x120 ../Ether_bsp//libucosii_bsp.a(os_core.o)
                0x0080ed38                OSUnMapTbl
 .rodata        0x0080ee58       0x78 ../Ether_bsp//libucosii_bsp.a(alt_sys_init.o)
 .rodata        0x0080eed0        0x4 ../Ether_bsp//libucosii_bsp.a(os_cpu_c.o)
 *(.rodata1)
                0x0080eed4                . = ALIGN (0x4)
                0x0080eed4                PROVIDE (__ram_rodata_end, ABSOLUTE (.))
                0x0080ece8                PROVIDE (__flash_rodata_start, LOADADDR (.rodata))

.rwdata         0x0080eed4     0x1b7c load address 0x00810a50
                0x0080eed4                PROVIDE (__ram_rwdata_start, ABSOLUTE (.))
                0x0080eed4                . = ALIGN (0x4)
 *(.got.plt)
 *(.got)
 *(.data1)
 *(.data .data.* .gnu.linkonce.d.*)
 .data          0x0080eed4        0x0 ../Ether_bsp//obj/HAL/src/crt0.o
 .data          0x0080eed4        0x0 obj/default/hello_ucosii.o
 .data          0x0080eed4        0x0 /OPT/altera/12.1/nios2eds/bin/gnu/H-i686-pc-linux-gnu/bin/../lib/gcc/nios2-elf/4.1.2/../../../../nios2-elf/lib/libc.a(lib_a-puts.o)
 .data          0x0080eed4        0x0 /OPT/altera/12.1/nios2eds/bin/gnu/H-i686-pc-linux-gnu/bin/../lib/gcc/nios2-elf/4.1.2/../../../../nios2-elf/lib/libc.a(lib_a-strlen.o)
 .data          0x0080eed4        0x0 /OPT/altera/12.1/nios2eds/bin/gnu/H-i686-pc-linux-gnu/bin/../lib/gcc/nios2-elf/4.1.2/../../../../nios2-elf/lib/libc.a(lib_a-fvwrite.o)
 .data          0x0080eed4      0x400 /OPT/altera/12.1/nios2eds/bin/gnu/H-i686-pc-linux-gnu/bin/../lib/gcc/nios2-elf/4.1.2/../../../../nios2-elf/lib/libc.a(lib_a-impure.o)
 .data          0x0080f2d4      0x408 /OPT/altera/12.1/nios2eds/bin/gnu/H-i686-pc-linux-gnu/bin/../lib/gcc/nios2-elf/4.1.2/../../../../nios2-elf/lib/libc.a(lib_a-mallocr.o)
                0x0080f2d4                __malloc_av_
 .data          0x0080f6dc        0x0 /OPT/altera/12.1/nios2eds/bin/gnu/H-i686-pc-linux-gnu/bin/../lib/gcc/nios2-elf/4.1.2/../../../../nios2-elf/lib/libc.a(lib_a-memchr.o)
 .data          0x0080f6dc        0x0 /OPT/altera/12.1/nios2eds/bin/gnu/H-i686-pc-linux-gnu/bin/../lib/gcc/nios2-elf/4.1.2/../../../../nios2-elf/lib/libc.a(lib_a-memcpy.o)
 .data          0x0080f6dc        0x0 /OPT/altera/12.1/nios2eds/bin/gnu/H-i686-pc-linux-gnu/bin/../lib/gcc/nios2-elf/4.1.2/../../../../nios2-elf/lib/libc.a(lib_a-memmove.o)
 .data          0x0080f6dc        0x0 /OPT/altera/12.1/nios2eds/bin/gnu/H-i686-pc-linux-gnu/bin/../lib/gcc/nios2-elf/4.1.2/../../../../nios2-elf/lib/libc.a(lib_a-reallocr.o)
 .data          0x0080f6dc        0x0 /OPT/altera/12.1/nios2eds/bin/gnu/H-i686-pc-linux-gnu/bin/../lib/gcc/nios2-elf/4.1.2/../../../../nios2-elf/lib/libc.a(lib_a-sbrkr.o)
 .data          0x0080f6dc        0x0 /OPT/altera/12.1/nios2eds/bin/gnu/H-i686-pc-linux-gnu/bin/../lib/gcc/nios2-elf/4.1.2/../../../../nios2-elf/lib/libc.a(lib_a-wsetup.o)
 .data          0x0080f6dc        0x0 /OPT/altera/12.1/nios2eds/bin/gnu/H-i686-pc-linux-gnu/bin/../lib/gcc/nios2-elf/4.1.2/../../../../nios2-elf/lib/libc.a(lib_a-fflush.o)
 .data          0x0080f6dc        0x0 /OPT/altera/12.1/nios2eds/bin/gnu/H-i686-pc-linux-gnu/bin/../lib/gcc/nios2-elf/4.1.2/../../../../nios2-elf/lib/libc.a(lib_a-findfp.o)
 .data          0x0080f6dc        0x0 /OPT/altera/12.1/nios2eds/bin/gnu/H-i686-pc-linux-gnu/bin/../lib/gcc/nios2-elf/4.1.2/../../../../nios2-elf/lib/libc.a(lib_a-freer.o)
 .data          0x0080f6dc        0x0 /OPT/altera/12.1/nios2eds/bin/gnu/H-i686-pc-linux-gnu/bin/../lib/gcc/nios2-elf/4.1.2/../../../../nios2-elf/lib/libc.a(lib_a-fwalk.o)
 .data          0x0080f6dc        0x0 /OPT/altera/12.1/nios2eds/bin/gnu/H-i686-pc-linux-gnu/bin/../lib/gcc/nios2-elf/4.1.2/../../../../nios2-elf/lib/libc.a(lib_a-int_errno.o)
 .data          0x0080f6dc        0x0 /OPT/altera/12.1/nios2eds/bin/gnu/H-i686-pc-linux-gnu/bin/../lib/gcc/nios2-elf/4.1.2/../../../../nios2-elf/lib/libc.a(lib_a-makebuf.o)
 .data          0x0080f6dc        0x0 /OPT/altera/12.1/nios2eds/bin/gnu/H-i686-pc-linux-gnu/bin/../lib/gcc/nios2-elf/4.1.2/../../../../nios2-elf/lib/libc.a(lib_a-memset.o)
 .data          0x0080f6dc        0x0 /OPT/altera/12.1/nios2eds/bin/gnu/H-i686-pc-linux-gnu/bin/../lib/gcc/nios2-elf/4.1.2/../../../../nios2-elf/lib/libc.a(lib_a-stdio.o)
 .data          0x0080f6dc        0x0 /OPT/altera/12.1/nios2eds/bin/gnu/H-i686-pc-linux-gnu/bin/../lib/gcc/nios2-elf/4.1.2/../../../../nios2-elf/lib/libc.a(lib_a-writer.o)
 .data          0x0080f6dc        0x0 /OPT/altera/12.1/nios2eds/bin/gnu/H-i686-pc-linux-gnu/bin/../lib/gcc/nios2-elf/4.1.2/../../../../nios2-elf/lib/libc.a(lib_a-closer.o)
 .data          0x0080f6dc        0x0 /OPT/altera/12.1/nios2eds/bin/gnu/H-i686-pc-linux-gnu/bin/../lib/gcc/nios2-elf/4.1.2/../../../../nios2-elf/lib/libc.a(lib_a-fclose.o)
 .data          0x0080f6dc        0x0 /OPT/altera/12.1/nios2eds/bin/gnu/H-i686-pc-linux-gnu/bin/../lib/gcc/nios2-elf/4.1.2/../../../../nios2-elf/lib/libc.a(lib_a-fstatr.o)
 .data          0x0080f6dc        0x0 /OPT/altera/12.1/nios2eds/bin/gnu/H-i686-pc-linux-gnu/bin/../lib/gcc/nios2-elf/4.1.2/../../../../nios2-elf/lib/libc.a(lib_a-isattyr.o)
 .data          0x0080f6dc        0x0 /OPT/altera/12.1/nios2eds/bin/gnu/H-i686-pc-linux-gnu/bin/../lib/gcc/nios2-elf/4.1.2/../../../../nios2-elf/lib/libc.a(lib_a-lseekr.o)
 .data          0x0080f6dc        0x0 /OPT/altera/12.1/nios2eds/bin/gnu/H-i686-pc-linux-gnu/bin/../lib/gcc/nios2-elf/4.1.2/../../../../nios2-elf/lib/libc.a(lib_a-readr.o)
 .data          0x0080f6dc        0x0 ../Ether_bsp//libucosii_bsp.a(alt_close.o)
 .data          0x0080f6dc      0x1a8 ../Ether_bsp//libucosii_bsp.a(alt_dev.o)
                0x0080f6dc                alt_dev_null
                0x0080f704                alt_fd_list
 .data          0x0080f884        0x0 ../Ether_bsp//libucosii_bsp.a(alt_errno.o)
 .data          0x0080f884        0x0 ../Ether_bsp//libucosii_bsp.a(alt_fstat.o)
 .data          0x0080f884        0x0 ../Ether_bsp//libucosii_bsp.a(alt_isatty.o)
 .data          0x0080f884        0x0 ../Ether_bsp//libucosii_bsp.a(alt_load.o)
 .data          0x0080f884        0x0 ../Ether_bsp//libucosii_bsp.a(alt_lseek.o)
 .data          0x0080f884        0x0 ../Ether_bsp//libucosii_bsp.a(alt_main.o)
 .data          0x0080f884        0x0 ../Ether_bsp//libucosii_bsp.a(alt_read.o)
 .data          0x0080f884        0x0 ../Ether_bsp//libucosii_bsp.a(alt_release_fd.o)
 .data          0x0080f884        0x0 ../Ether_bsp//libucosii_bsp.a(alt_sbrk.o)
 .data          0x0080f884        0x0 ../Ether_bsp//libucosii_bsp.a(alt_write.o)
 .data          0x0080f884        0x0 ../Ether_bsp//libucosii_bsp.a(alt_env_lock.o)
 .data          0x0080f884        0x0 ../Ether_bsp//libucosii_bsp.a(alt_malloc_lock.o)
 .data          0x0080f884        0x0 ../Ether_bsp//libucosii_bsp.a(os_core.o)
 .data          0x0080f884        0x0 ../Ether_bsp//libucosii_bsp.a(os_dbg.o)
 .data          0x0080f884        0x0 ../Ether_bsp//libucosii_bsp.a(os_flag.o)
 .data          0x0080f884        0x0 ../Ether_bsp//libucosii_bsp.a(os_mem.o)
 .data          0x0080f884        0x0 ../Ether_bsp//libucosii_bsp.a(os_q.o)
 .data          0x0080f884        0x0 ../Ether_bsp//libucosii_bsp.a(os_sem.o)
 .data          0x0080f884        0x0 ../Ether_bsp//libucosii_bsp.a(os_task.o)
 .data          0x0080f884        0x0 ../Ether_bsp//libucosii_bsp.a(os_time.o)
 .data          0x0080f884     0x1118 ../Ether_bsp//libucosii_bsp.a(alt_sys_init.o)
 .data          0x0081099c        0x0 ../Ether_bsp//libucosii_bsp.a(altera_avalon_jtag_uart_fd.o)
 .data          0x0081099c        0x0 ../Ether_bsp//libucosii_bsp.a(altera_avalon_jtag_uart_init.o)
 .data          0x0081099c        0x0 ../Ether_bsp//libucosii_bsp.a(altera_avalon_jtag_uart_ioctl.o)
 .data          0x0081099c        0x0 ../Ether_bsp//libucosii_bsp.a(altera_avalon_jtag_uart_read.o)
 .data          0x0081099c        0x0 ../Ether_bsp//libucosii_bsp.a(altera_avalon_jtag_uart_write.o)
 .data          0x0081099c        0x0 ../Ether_bsp//libucosii_bsp.a(altera_avalon_timer_sc.o)
 .data          0x0081099c        0x0 ../Ether_bsp//libucosii_bsp.a(altera_up_avalon_character_lcd.o)
 .data          0x0081099c        0x0 ../Ether_bsp//libucosii_bsp.a(alt_alarm_start.o)
 .data          0x0081099c        0x0 ../Ether_bsp//libucosii_bsp.a(alt_dcache_flush_all.o)
 .data          0x0081099c        0x0 ../Ether_bsp//libucosii_bsp.a(alt_dev_llist_insert.o)
 .data          0x0081099c        0x0 ../Ether_bsp//libucosii_bsp.a(alt_do_ctors.o)
 .data          0x0081099c        0x0 ../Ether_bsp//libucosii_bsp.a(alt_do_dtors.o)
 .data          0x0081099c        0x0 ../Ether_bsp//libucosii_bsp.a(alt_find_dev.o)
 .data          0x0081099c        0x0 ../Ether_bsp//libucosii_bsp.a(alt_icache_flush_all.o)
 .data          0x0081099c        0x0 ../Ether_bsp//libucosii_bsp.a(alt_iic.o)
 .data          0x0081099c        0x0 ../Ether_bsp//libucosii_bsp.a(alt_iic_isr_register.o)
 .data          0x0081099c        0x0 ../Ether_bsp//libucosii_bsp.a(alt_io_redirect.o)
 .data          0x0081099c        0x0 ../Ether_bsp//libucosii_bsp.a(alt_irq_entry.o)
 .data          0x0081099c        0x0 ../Ether_bsp//libucosii_bsp.a(alt_irq_handler.o)
 .data          0x0081099c        0x0 ../Ether_bsp//libucosii_bsp.a(alt_irq_vars.o)
 .data          0x0081099c        0x0 ../Ether_bsp//libucosii_bsp.a(alt_open.o)
 .data          0x0081099c        0x0 ../Ether_bsp//libucosii_bsp.a(alt_tick.o)
 .data          0x0081099c        0x0 ../Ether_bsp//libucosii_bsp.a(altera_nios2_qsys_irq.o)
 .data          0x0081099c        0x0 ../Ether_bsp//libucosii_bsp.a(os_cpu_a.o)
 .data          0x0081099c        0x0 ../Ether_bsp//libucosii_bsp.a(os_cpu_c.o)
 .data          0x0081099c        0x0 ../Ether_bsp//libucosii_bsp.a(alt_exception_entry.o)
 .data          0x0081099c        0x0 ../Ether_bsp//libucosii_bsp.a(alt_find_file.o)
 .data          0x0081099c        0x0 ../Ether_bsp//libucosii_bsp.a(alt_get_fd.o)
 .data          0x0081099c        0x0 ../Ether_bsp//libucosii_bsp.a(alt_icache_flush.o)
 .data          0x0081099c        0x0 /OPT/altera/12.1/nios2eds/bin/gnu/H-i686-pc-linux-gnu/bin/../lib/gcc/nios2-elf/4.1.2/../../../../nios2-elf/lib/libc.a(lib_a-atexit.o)
 .data          0x0081099c        0x0 /OPT/altera/12.1/nios2eds/bin/gnu/H-i686-pc-linux-gnu/bin/../lib/gcc/nios2-elf/4.1.2/../../../../nios2-elf/lib/libc.a(lib_a-exit.o)
 .data          0x0081099c        0x0 /OPT/altera/12.1/nios2eds/bin/gnu/H-i686-pc-linux-gnu/bin/../lib/gcc/nios2-elf/4.1.2/../../../../nios2-elf/lib/libc.a(lib_a-memcmp.o)
 .data          0x0081099c        0x0 /OPT/altera/12.1/nios2eds/bin/gnu/H-i686-pc-linux-gnu/bin/../lib/gcc/nios2-elf/4.1.2/../../../../nios2-elf/lib/libc.a(lib_a-__atexit.o)
 .data          0x0081099c        0x0 /OPT/altera/12.1/nios2eds/bin/gnu/H-i686-pc-linux-gnu/bin/../lib/gcc/nios2-elf/4.1.2/../../../../nios2-elf/lib/libc.a(lib_a-__call_atexit.o)
 .data          0x0081099c        0x0 /OPT/altera/12.1/nios2eds/bin/gnu/H-i686-pc-linux-gnu/bin/../lib/gcc/nios2-elf/4.1.2/libgcc.a(lib2-divmod.o)
 .data          0x0081099c        0x0 ../Ether_bsp//libucosii_bsp.a(alt_exit.o)
                0x0081899c                _gp = ABSOLUTE ((. + 0x8000))
                0x0081899c                PROVIDE (gp, _gp)
 *(.rwdata .rwdata.*)
 *(.sdata .sdata.* .gnu.linkonce.s.*)
 .sdata         0x0081099c        0x8 /OPT/altera/12.1/nios2eds/bin/gnu/H-i686-pc-linux-gnu/bin/../lib/gcc/nios2-elf/4.1.2/../../../../nios2-elf/lib/libc.a(lib_a-impure.o)
                0x0081099c                _impure_ptr
                0x008109a0                _global_impure_ptr
 .sdata         0x008109a4        0x8 /OPT/altera/12.1/nios2eds/bin/gnu/H-i686-pc-linux-gnu/bin/../lib/gcc/nios2-elf/4.1.2/../../../../nios2-elf/lib/libc.a(lib_a-mallocr.o)
                0x008109a4                __malloc_trim_threshold
                0x008109a8                __malloc_sbrk_base
 .sdata         0x008109ac       0x14 ../Ether_bsp//libucosii_bsp.a(alt_dev.o)
                0x008109ac                alt_fs_list
                0x008109b4                alt_dev_list
                0x008109bc                alt_max_fd
 .sdata         0x008109c0        0x4 ../Ether_bsp//libucosii_bsp.a(alt_errno.o)
                0x008109c0                alt_errno
 .sdata         0x008109c4        0x4 ../Ether_bsp//libucosii_bsp.a(alt_sbrk.o)
 .sdata         0x008109c8        0x4 ../Ether_bsp//libucosii_bsp.a(alt_env_lock.o)
 .sdata         0x008109cc        0x4 ../Ether_bsp//libucosii_bsp.a(alt_malloc_lock.o)
 .sdata         0x008109d0       0x74 ../Ether_bsp//libucosii_bsp.a(os_dbg.o)
                0x008109d0                OSDebugEn
                0x008109d4                OSEndiannessTest
                0x008109d8                OSEventEn
                0x008109da                OSEventMax
                0x008109dc                OSEventNameSize
                0x008109de                OSEventSize
                0x008109e0                OSEventTblSize
                0x008109e2                OSEventMultiEn
                0x008109e4                OSFlagEn
                0x008109e6                OSFlagGrpSize
                0x008109e8                OSFlagNodeSize
                0x008109ea                OSFlagWidth
                0x008109ec                OSFlagMax
                0x008109ee                OSFlagNameSize
                0x008109f0                OSLowestPrio
                0x008109f2                OSMboxEn
                0x008109f4                OSMemEn
                0x008109f6                OSMemMax
                0x008109f8                OSMemNameSize
                0x008109fa                OSMemSize
                0x008109fc                OSMemTblSize
                0x008109fe                OSMutexEn
                0x00810a00                OSPtrSize
                0x00810a02                OSQEn
                0x00810a04                OSQMax
                0x00810a06                OSQSize
                0x00810a08                OSRdyTblSize
                0x00810a0a                OSSemEn
                0x00810a0c                OSStkWidth
                0x00810a0e                OSTaskCreateEn
                0x00810a10                OSTaskCreateExtEn
                0x00810a12                OSTaskDelEn
                0x00810a14                OSTaskIdleStkSize
                0x00810a16                OSTaskProfileEn
                0x00810a18                OSTaskMax
                0x00810a1a                OSTaskNameSize
                0x00810a1c                OSTaskStatEn
                0x00810a1e                OSTaskStatStkSize
                0x00810a20                OSTaskStatStkChkEn
                0x00810a22                OSTaskSwHookEn
                0x00810a24                OSTCBPrioTblMax
                0x00810a26                OSTCBSize
                0x00810a28                OSTicksPerSec
                0x00810a2a                OSTimeTickHookEn
                0x00810a2c                OSVersionNbr
                0x00810a2e                OSTmrEn
                0x00810a30                OSTmrCfgMax
                0x00810a32                OSTmrCfgNameSize
                0x00810a34                OSTmrCfgWheelSize
                0x00810a36                OSTmrCfgTicksPerSec
                0x00810a38                OSTmrSize
                0x00810a3a                OSTmrTblSize
                0x00810a3c                OSTmrWheelSize
                0x00810a3e                OSTmrWheelTblSize
                0x00810a40                OSDataSize
 .sdata         0x00810a44        0x4 ../Ether_bsp//libucosii_bsp.a(alt_irq_vars.o)
                0x00810a44                alt_priority_mask
 .sdata         0x00810a48        0x8 ../Ether_bsp//libucosii_bsp.a(alt_tick.o)
                0x00810a48                alt_alarm_list
 *(.sdata2 .sdata2.* .gnu.linkonce.s2.*)
                0x00810a50                . = ALIGN (0x4)
                0x00810a50                _edata = ABSOLUTE (.)
                0x00810a50                PROVIDE (edata, ABSOLUTE (.))
                0x00810a50                PROVIDE (__ram_rwdata_end, ABSOLUTE (.))
                0x00810a50                PROVIDE (__flash_rwdata_start, LOADADDR (.rwdata))

.bss            0x008125cc     0x7568
                0x008125cc                __bss_start = ABSOLUTE (.)
                0x008125cc                PROVIDE (__sbss_start, ABSOLUTE (.))
                0x008125cc                PROVIDE (___sbss_start, ABSOLUTE (.))
 *(.dynsbss)
 *(.sbss .sbss.* .gnu.linkonce.sb.*)
 .sbss          0x008125cc        0xc /OPT/altera/12.1/nios2eds/bin/gnu/H-i686-pc-linux-gnu/bin/../lib/gcc/nios2-elf/4.1.2/../../../../nios2-elf/lib/libc.a(lib_a-mallocr.o)
                0x008125cc                __malloc_top_pad
                0x008125d0                __malloc_max_sbrked_mem
                0x008125d4                __malloc_max_total_mem
 .sbss          0x008125d8        0x4 /OPT/altera/12.1/nios2eds/bin/gnu/H-i686-pc-linux-gnu/bin/../lib/gcc/nios2-elf/4.1.2/../../../../nios2-elf/lib/libc.a(lib_a-int_errno.o)
                0x008125d8                errno
 .sbss          0x008125dc        0x4 ../Ether_bsp//libucosii_bsp.a(alt_dev.o)
                0x008125dc                alt_fd_list_lock
 .sbss          0x008125e0        0xc ../Ether_bsp//libucosii_bsp.a(alt_main.o)
                0x008125e0                alt_argc
                0x008125e4                alt_argv
                0x008125e8                alt_envp
 .sbss          0x008125ec        0x8 ../Ether_bsp//libucosii_bsp.a(alt_env_lock.o)
                0x008125f0                alt_envsem
 .sbss          0x008125f4        0x8 ../Ether_bsp//libucosii_bsp.a(alt_malloc_lock.o)
                0x008125f8                alt_heapsem
 .sbss          0x008125fc       0x50 ../Ether_bsp//libucosii_bsp.a(os_core.o)
                0x008125fc                OSLockNesting
                0x008125fd                OSRunning
                0x00812600                OSIdleCtr
                0x00812604                OSPrioHighRdy
                0x00812605                OSPrioCur
                0x00812608                OSTCBList
                0x0081260c                OSTickStepState
                0x00812610                OSCtxSwCtr
                0x00812614                OSIdleCtrMax
                0x00812618                OSTCBFreeList
                0x0081261c                OSCPUUsage
                0x0081261d                OSTaskCtr
                0x00812620                OSMemFreeList
                0x00812624                OSTCBHighRdy
                0x00812628                OSQFreeList
                0x0081262c                OSRdyGrp
                0x0081262d                OSRdyTbl
                0x00812630                OSEventFreeList
                0x00812634                OSIntNesting
                0x00812638                OSTCBCur
                0x0081263c                OSTime
                0x00812640                OSFlagFreeList
                0x00812644                OSStatRdy
                0x00812648                OSIdleCtrRun
 .sbss          0x0081264c        0x4 ../Ether_bsp//libucosii_bsp.a(alt_irq_vars.o)
                0x0081264c                alt_irq_active
 .sbss          0x00812650        0x8 ../Ether_bsp//libucosii_bsp.a(alt_tick.o)
                0x00812650                _alt_tick_rate
                0x00812654                _alt_nticks
 *(.sbss2 .sbss2.* .gnu.linkonce.sb2.*)
 *(.scommon)
                0x00812658                PROVIDE (__sbss_end, ABSOLUTE (.))
                0x00812658                PROVIDE (___sbss_end, ABSOLUTE (.))
 *(.dynbss)
 *(.bss .bss.* .gnu.linkonce.b.*)
 .bss           0x00812658        0x0 ../Ether_bsp//obj/HAL/src/crt0.o
 .bss           0x00812658        0x0 obj/default/hello_ucosii.o
 .bss           0x00812658        0x0 /OPT/altera/12.1/nios2eds/bin/gnu/H-i686-pc-linux-gnu/bin/../lib/gcc/nios2-elf/4.1.2/../../../../nios2-elf/lib/libc.a(lib_a-puts.o)
 .bss           0x00812658        0x0 /OPT/altera/12.1/nios2eds/bin/gnu/H-i686-pc-linux-gnu/bin/../lib/gcc/nios2-elf/4.1.2/../../../../nios2-elf/lib/libc.a(lib_a-strlen.o)
 .bss           0x00812658        0x0 /OPT/altera/12.1/nios2eds/bin/gnu/H-i686-pc-linux-gnu/bin/../lib/gcc/nios2-elf/4.1.2/../../../../nios2-elf/lib/libc.a(lib_a-fvwrite.o)
 .bss           0x00812658        0x0 /OPT/altera/12.1/nios2eds/bin/gnu/H-i686-pc-linux-gnu/bin/../lib/gcc/nios2-elf/4.1.2/../../../../nios2-elf/lib/libc.a(lib_a-impure.o)
 .bss           0x00812658       0x28 /OPT/altera/12.1/nios2eds/bin/gnu/H-i686-pc-linux-gnu/bin/../lib/gcc/nios2-elf/4.1.2/../../../../nios2-elf/lib/libc.a(lib_a-mallocr.o)
                0x00812658                __malloc_current_mallinfo
 .bss           0x00812680        0x0 /OPT/altera/12.1/nios2eds/bin/gnu/H-i686-pc-linux-gnu/bin/../lib/gcc/nios2-elf/4.1.2/../../../../nios2-elf/lib/libc.a(lib_a-memchr.o)
 .bss           0x00812680        0x0 /OPT/altera/12.1/nios2eds/bin/gnu/H-i686-pc-linux-gnu/bin/../lib/gcc/nios2-elf/4.1.2/../../../../nios2-elf/lib/libc.a(lib_a-memcpy.o)
 .bss           0x00812680        0x0 /OPT/altera/12.1/nios2eds/bin/gnu/H-i686-pc-linux-gnu/bin/../lib/gcc/nios2-elf/4.1.2/../../../../nios2-elf/lib/libc.a(lib_a-memmove.o)
 .bss           0x00812680        0x0 /OPT/altera/12.1/nios2eds/bin/gnu/H-i686-pc-linux-gnu/bin/../lib/gcc/nios2-elf/4.1.2/../../../../nios2-elf/lib/libc.a(lib_a-reallocr.o)
 .bss           0x00812680        0x0 /OPT/altera/12.1/nios2eds/bin/gnu/H-i686-pc-linux-gnu/bin/../lib/gcc/nios2-elf/4.1.2/../../../../nios2-elf/lib/libc.a(lib_a-sbrkr.o)
 .bss           0x00812680        0x0 /OPT/altera/12.1/nios2eds/bin/gnu/H-i686-pc-linux-gnu/bin/../lib/gcc/nios2-elf/4.1.2/../../../../nios2-elf/lib/libc.a(lib_a-wsetup.o)
 .bss           0x00812680        0x0 /OPT/altera/12.1/nios2eds/bin/gnu/H-i686-pc-linux-gnu/bin/../lib/gcc/nios2-elf/4.1.2/../../../../nios2-elf/lib/libc.a(lib_a-fflush.o)
 .bss           0x00812680        0x0 /OPT/altera/12.1/nios2eds/bin/gnu/H-i686-pc-linux-gnu/bin/../lib/gcc/nios2-elf/4.1.2/../../../../nios2-elf/lib/libc.a(lib_a-findfp.o)
 .bss           0x00812680        0x0 /OPT/altera/12.1/nios2eds/bin/gnu/H-i686-pc-linux-gnu/bin/../lib/gcc/nios2-elf/4.1.2/../../../../nios2-elf/lib/libc.a(lib_a-freer.o)
 .bss           0x00812680        0x0 /OPT/altera/12.1/nios2eds/bin/gnu/H-i686-pc-linux-gnu/bin/../lib/gcc/nios2-elf/4.1.2/../../../../nios2-elf/lib/libc.a(lib_a-fwalk.o)
 .bss           0x00812680        0x0 /OPT/altera/12.1/nios2eds/bin/gnu/H-i686-pc-linux-gnu/bin/../lib/gcc/nios2-elf/4.1.2/../../../../nios2-elf/lib/libc.a(lib_a-int_errno.o)
 .bss           0x00812680        0x0 /OPT/altera/12.1/nios2eds/bin/gnu/H-i686-pc-linux-gnu/bin/../lib/gcc/nios2-elf/4.1.2/../../../../nios2-elf/lib/libc.a(lib_a-makebuf.o)
 .bss           0x00812680        0x0 /OPT/altera/12.1/nios2eds/bin/gnu/H-i686-pc-linux-gnu/bin/../lib/gcc/nios2-elf/4.1.2/../../../../nios2-elf/lib/libc.a(lib_a-memset.o)
 .bss           0x00812680        0x0 /OPT/altera/12.1/nios2eds/bin/gnu/H-i686-pc-linux-gnu/bin/../lib/gcc/nios2-elf/4.1.2/../../../../nios2-elf/lib/libc.a(lib_a-stdio.o)
 .bss           0x00812680        0x0 /OPT/altera/12.1/nios2eds/bin/gnu/H-i686-pc-linux-gnu/bin/../lib/gcc/nios2-elf/4.1.2/../../../../nios2-elf/lib/libc.a(lib_a-writer.o)
 .bss           0x00812680        0x0 /OPT/altera/12.1/nios2eds/bin/gnu/H-i686-pc-linux-gnu/bin/../lib/gcc/nios2-elf/4.1.2/../../../../nios2-elf/lib/libc.a(lib_a-closer.o)
 .bss           0x00812680        0x0 /OPT/altera/12.1/nios2eds/bin/gnu/H-i686-pc-linux-gnu/bin/../lib/gcc/nios2-elf/4.1.2/../../../../nios2-elf/lib/libc.a(lib_a-fclose.o)
 .bss           0x00812680        0x0 /OPT/altera/12.1/nios2eds/bin/gnu/H-i686-pc-linux-gnu/bin/../lib/gcc/nios2-elf/4.1.2/../../../../nios2-elf/lib/libc.a(lib_a-fstatr.o)
 .bss           0x00812680        0x0 /OPT/altera/12.1/nios2eds/bin/gnu/H-i686-pc-linux-gnu/bin/../lib/gcc/nios2-elf/4.1.2/../../../../nios2-elf/lib/libc.a(lib_a-isattyr.o)
 .bss           0x00812680        0x0 /OPT/altera/12.1/nios2eds/bin/gnu/H-i686-pc-linux-gnu/bin/../lib/gcc/nios2-elf/4.1.2/../../../../nios2-elf/lib/libc.a(lib_a-lseekr.o)
 .bss           0x00812680        0x0 /OPT/altera/12.1/nios2eds/bin/gnu/H-i686-pc-linux-gnu/bin/../lib/gcc/nios2-elf/4.1.2/../../../../nios2-elf/lib/libc.a(lib_a-readr.o)
 .bss           0x00812680        0x0 ../Ether_bsp//libucosii_bsp.a(alt_close.o)
 .bss           0x00812680        0x0 ../Ether_bsp//libucosii_bsp.a(alt_dev.o)
 .bss           0x00812680        0x0 ../Ether_bsp//libucosii_bsp.a(alt_errno.o)
 .bss           0x00812680        0x0 ../Ether_bsp//libucosii_bsp.a(alt_fstat.o)
 .bss           0x00812680        0x0 ../Ether_bsp//libucosii_bsp.a(alt_isatty.o)
 .bss           0x00812680        0x0 ../Ether_bsp//libucosii_bsp.a(alt_load.o)
 .bss           0x00812680        0x0 ../Ether_bsp//libucosii_bsp.a(alt_lseek.o)
 .bss           0x00812680        0x0 ../Ether_bsp//libucosii_bsp.a(alt_main.o)
 .bss           0x00812680        0x0 ../Ether_bsp//libucosii_bsp.a(alt_read.o)
 .bss           0x00812680        0x0 ../Ether_bsp//libucosii_bsp.a(alt_release_fd.o)
 .bss           0x00812680        0x0 ../Ether_bsp//libucosii_bsp.a(alt_sbrk.o)
 .bss           0x00812680        0x0 ../Ether_bsp//libucosii_bsp.a(alt_write.o)
 .bss           0x00812680        0x0 ../Ether_bsp//libucosii_bsp.a(alt_env_lock.o)
 .bss           0x00812680        0x0 ../Ether_bsp//libucosii_bsp.a(alt_malloc_lock.o)
 .bss           0x00812680        0x0 ../Ether_bsp//libucosii_bsp.a(os_core.o)
 .bss           0x00812680        0x0 ../Ether_bsp//libucosii_bsp.a(os_dbg.o)
 .bss           0x00812680        0x0 ../Ether_bsp//libucosii_bsp.a(os_flag.o)
 .bss           0x00812680        0x0 ../Ether_bsp//libucosii_bsp.a(os_mem.o)
 .bss           0x00812680        0x0 ../Ether_bsp//libucosii_bsp.a(os_q.o)
 .bss           0x00812680        0x0 ../Ether_bsp//libucosii_bsp.a(os_sem.o)
 .bss           0x00812680        0x0 ../Ether_bsp//libucosii_bsp.a(os_task.o)
 .bss           0x00812680        0x0 ../Ether_bsp//libucosii_bsp.a(os_time.o)
 .bss           0x00812680        0x0 ../Ether_bsp//libucosii_bsp.a(alt_sys_init.o)
 .bss           0x00812680        0x0 ../Ether_bsp//libucosii_bsp.a(altera_avalon_jtag_uart_fd.o)
 .bss           0x00812680        0x0 ../Ether_bsp//libucosii_bsp.a(altera_avalon_jtag_uart_init.o)
 .bss           0x00812680        0x0 ../Ether_bsp//libucosii_bsp.a(altera_avalon_jtag_uart_ioctl.o)
 .bss           0x00812680        0x0 ../Ether_bsp//libucosii_bsp.a(altera_avalon_jtag_uart_read.o)
 .bss           0x00812680        0x0 ../Ether_bsp//libucosii_bsp.a(altera_avalon_jtag_uart_write.o)
 .bss           0x00812680        0x0 ../Ether_bsp//libucosii_bsp.a(altera_avalon_timer_sc.o)
 .bss           0x00812680        0x0 ../Ether_bsp//libucosii_bsp.a(altera_up_avalon_character_lcd.o)
 .bss           0x00812680        0x0 ../Ether_bsp//libucosii_bsp.a(alt_alarm_start.o)
 .bss           0x00812680        0x0 ../Ether_bsp//libucosii_bsp.a(alt_dcache_flush_all.o)
 .bss           0x00812680        0x0 ../Ether_bsp//libucosii_bsp.a(alt_dev_llist_insert.o)
 .bss           0x00812680        0x0 ../Ether_bsp//libucosii_bsp.a(alt_do_ctors.o)
 .bss           0x00812680        0x0 ../Ether_bsp//libucosii_bsp.a(alt_do_dtors.o)
 .bss           0x00812680        0x0 ../Ether_bsp//libucosii_bsp.a(alt_find_dev.o)
 .bss           0x00812680        0x0 ../Ether_bsp//libucosii_bsp.a(alt_icache_flush_all.o)
 .bss           0x00812680        0x0 ../Ether_bsp//libucosii_bsp.a(alt_iic.o)
 .bss           0x00812680        0x0 ../Ether_bsp//libucosii_bsp.a(alt_iic_isr_register.o)
 .bss           0x00812680        0x0 ../Ether_bsp//libucosii_bsp.a(alt_io_redirect.o)
 .bss           0x00812680        0x0 ../Ether_bsp//libucosii_bsp.a(alt_irq_entry.o)
 .bss           0x00812680        0x0 ../Ether_bsp//libucosii_bsp.a(alt_irq_handler.o)
 .bss           0x00812680        0x0 ../Ether_bsp//libucosii_bsp.a(alt_irq_vars.o)
 .bss           0x00812680        0x0 ../Ether_bsp//libucosii_bsp.a(alt_open.o)
 .bss           0x00812680        0x0 ../Ether_bsp//libucosii_bsp.a(alt_tick.o)
 .bss           0x00812680        0x0 ../Ether_bsp//libucosii_bsp.a(altera_nios2_qsys_irq.o)
 .bss           0x00812680        0x0 ../Ether_bsp//libucosii_bsp.a(os_cpu_a.o)
 .bss           0x00812680        0x0 ../Ether_bsp//libucosii_bsp.a(os_cpu_c.o)
 .bss           0x00812680        0x0 ../Ether_bsp//libucosii_bsp.a(alt_exception_entry.o)
 .bss           0x00812680        0x0 ../Ether_bsp//libucosii_bsp.a(alt_find_file.o)
 .bss           0x00812680        0x0 ../Ether_bsp//libucosii_bsp.a(alt_get_fd.o)
 .bss           0x00812680        0x0 ../Ether_bsp//libucosii_bsp.a(alt_icache_flush.o)
 .bss           0x00812680        0x0 /OPT/altera/12.1/nios2eds/bin/gnu/H-i686-pc-linux-gnu/bin/../lib/gcc/nios2-elf/4.1.2/../../../../nios2-elf/lib/libc.a(lib_a-atexit.o)
 .bss           0x00812680        0x0 /OPT/altera/12.1/nios2eds/bin/gnu/H-i686-pc-linux-gnu/bin/../lib/gcc/nios2-elf/4.1.2/../../../../nios2-elf/lib/libc.a(lib_a-exit.o)
 .bss           0x00812680        0x0 /OPT/altera/12.1/nios2eds/bin/gnu/H-i686-pc-linux-gnu/bin/../lib/gcc/nios2-elf/4.1.2/../../../../nios2-elf/lib/libc.a(lib_a-memcmp.o)
 .bss           0x00812680        0x0 /OPT/altera/12.1/nios2eds/bin/gnu/H-i686-pc-linux-gnu/bin/../lib/gcc/nios2-elf/4.1.2/../../../../nios2-elf/lib/libc.a(lib_a-__atexit.o)
 .bss           0x00812680        0x0 /OPT/altera/12.1/nios2eds/bin/gnu/H-i686-pc-linux-gnu/bin/../lib/gcc/nios2-elf/4.1.2/../../../../nios2-elf/lib/libc.a(lib_a-__call_atexit.o)
 .bss           0x00812680        0x0 /OPT/altera/12.1/nios2eds/bin/gnu/H-i686-pc-linux-gnu/bin/../lib/gcc/nios2-elf/4.1.2/libgcc.a(lib2-divmod.o)
 .bss           0x00812680        0x0 ../Ether_bsp//libucosii_bsp.a(alt_exit.o)
 *(COMMON)
 COMMON         0x00812680     0x4000 obj/default/hello_ucosii.o
                0x00812680                task1_stk
                0x00814680                task2_stk
 COMMON         0x00816680     0x3224 ../Ether_bsp//libucosii_bsp.a(os_core.o)
                0x00816680                OSFlagTbl
                0x008169f0                OSMemTbl
                0x00817620                OSTaskStatStk
                0x00817e20                OSQTbl
                0x00818000                OSTaskIdleStk
                0x00818800                OSEventTbl
                0x00819340                OSTCBTbl
                0x00819850                OSTCBPrioTbl
 COMMON         0x008198a4      0x100 ../Ether_bsp//libucosii_bsp.a(alt_irq_handler.o)
                0x008198a4                alt_irq
 COMMON         0x008199a4      0x190 /OPT/altera/12.1/nios2eds/bin/gnu/H-i686-pc-linux-gnu/bin/../lib/gcc/nios2-elf/4.1.2/../../../../nios2-elf/lib/libc.a(lib_a-atexit.o)
                0x008199a4                _atexit0
                0x00819b34                . = ALIGN (0x4)
                0x00819b34                __bss_end = ABSOLUTE (.)

.sdram_0        0x00819b34        0x0
                0x00819b34                PROVIDE (_alt_partition_sdram_0_start, ABSOLUTE (.))
 *(.sdram_0. sdram_0.*)
                0x00819b34                . = ALIGN (0x4)
                0x00819b34                PROVIDE (_alt_partition_sdram_0_end, ABSOLUTE (.))
                0x00819b34                _end = ABSOLUTE (.)
                0x00819b34                end = ABSOLUTE (.)
                0x00819b34                __alt_stack_base = ABSOLUTE (.)
                0x00819b34                PROVIDE (_alt_partition_sdram_0_load_addr, LOADADDR (.sdram_0))

.onchip_memory2_0
                0x011041bc        0x0 load address 0x00819b34
                0x011041bc                PROVIDE (_alt_partition_onchip_memory2_0_start, ABSOLUTE (.))
 *(.onchip_memory2_0. onchip_memory2_0.*)
                0x011041bc                . = ALIGN (0x4)
                0x011041bc                PROVIDE (_alt_partition_onchip_memory2_0_end, ABSOLUTE (.))
                0x00819b34                PROVIDE (_alt_partition_onchip_memory2_0_load_addr, LOADADDR (.onchip_memory2_0))

.stab
 *(.stab)

.stabstr
 *(.stabstr)

.stab.excl
 *(.stab.excl)

.stab.exclstr
 *(.stab.exclstr)

.stab.index
 *(.stab.index)

.stab.indexstr
 *(.stab.indexstr)

.comment        0x00000000       0x26
 *(.comment)
 .comment       0x00000000       0x26 obj/default/hello_ucosii.o
                                 0x27 (size before relaxing)
 .comment       0x00000000       0x27 /OPT/altera/12.1/nios2eds/bin/gnu/H-i686-pc-linux-gnu/bin/../lib/gcc/nios2-elf/4.1.2/../../../../nios2-elf/lib/libc.a(lib_a-puts.o)
 .comment       0x00000000       0x27 /OPT/altera/12.1/nios2eds/bin/gnu/H-i686-pc-linux-gnu/bin/../lib/gcc/nios2-elf/4.1.2/../../../../nios2-elf/lib/libc.a(lib_a-strlen.o)
 .comment       0x00000000       0x27 /OPT/altera/12.1/nios2eds/bin/gnu/H-i686-pc-linux-gnu/bin/../lib/gcc/nios2-elf/4.1.2/../../../../nios2-elf/lib/libc.a(lib_a-fvwrite.o)
 .comment       0x00000000       0x27 /OPT/altera/12.1/nios2eds/bin/gnu/H-i686-pc-linux-gnu/bin/../lib/gcc/nios2-elf/4.1.2/../../../../nios2-elf/lib/libc.a(lib_a-impure.o)
 .comment       0x00000000       0x27 /OPT/altera/12.1/nios2eds/bin/gnu/H-i686-pc-linux-gnu/bin/../lib/gcc/nios2-elf/4.1.2/../../../../nios2-elf/lib/libc.a(lib_a-mallocr.o)
 .comment       0x00000000       0x27 /OPT/altera/12.1/nios2eds/bin/gnu/H-i686-pc-linux-gnu/bin/../lib/gcc/nios2-elf/4.1.2/../../../../nios2-elf/lib/libc.a(lib_a-memchr.o)
 .comment       0x00000000       0x27 /OPT/altera/12.1/nios2eds/bin/gnu/H-i686-pc-linux-gnu/bin/../lib/gcc/nios2-elf/4.1.2/../../../../nios2-elf/lib/libc.a(lib_a-memcpy.o)
 .comment       0x00000000       0x27 /OPT/altera/12.1/nios2eds/bin/gnu/H-i686-pc-linux-gnu/bin/../lib/gcc/nios2-elf/4.1.2/../../../../nios2-elf/lib/libc.a(lib_a-memmove.o)
 .comment       0x00000000       0x27 /OPT/altera/12.1/nios2eds/bin/gnu/H-i686-pc-linux-gnu/bin/../lib/gcc/nios2-elf/4.1.2/../../../../nios2-elf/lib/libc.a(lib_a-reallocr.o)
 .comment       0x00000000       0x27 /OPT/altera/12.1/nios2eds/bin/gnu/H-i686-pc-linux-gnu/bin/../lib/gcc/nios2-elf/4.1.2/../../../../nios2-elf/lib/libc.a(lib_a-sbrkr.o)
 .comment       0x00000000       0x27 /OPT/altera/12.1/nios2eds/bin/gnu/H-i686-pc-linux-gnu/bin/../lib/gcc/nios2-elf/4.1.2/../../../../nios2-elf/lib/libc.a(lib_a-wsetup.o)
 .comment       0x00000000       0x27 /OPT/altera/12.1/nios2eds/bin/gnu/H-i686-pc-linux-gnu/bin/../lib/gcc/nios2-elf/4.1.2/../../../../nios2-elf/lib/libc.a(lib_a-fflush.o)
 .comment       0x00000000       0x27 /OPT/altera/12.1/nios2eds/bin/gnu/H-i686-pc-linux-gnu/bin/../lib/gcc/nios2-elf/4.1.2/../../../../nios2-elf/lib/libc.a(lib_a-findfp.o)
 .comment       0x00000000       0x27 /OPT/altera/12.1/nios2eds/bin/gnu/H-i686-pc-linux-gnu/bin/../lib/gcc/nios2-elf/4.1.2/../../../../nios2-elf/lib/libc.a(lib_a-freer.o)
 .comment       0x00000000       0x27 /OPT/altera/12.1/nios2eds/bin/gnu/H-i686-pc-linux-gnu/bin/../lib/gcc/nios2-elf/4.1.2/../../../../nios2-elf/lib/libc.a(lib_a-fwalk.o)
 .comment       0x00000000       0x27 /OPT/altera/12.1/nios2eds/bin/gnu/H-i686-pc-linux-gnu/bin/../lib/gcc/nios2-elf/4.1.2/../../../../nios2-elf/lib/libc.a(lib_a-int_errno.o)
 .comment       0x00000000       0x27 /OPT/altera/12.1/nios2eds/bin/gnu/H-i686-pc-linux-gnu/bin/../lib/gcc/nios2-elf/4.1.2/../../../../nios2-elf/lib/libc.a(lib_a-makebuf.o)
 .comment       0x00000000       0x27 /OPT/altera/12.1/nios2eds/bin/gnu/H-i686-pc-linux-gnu/bin/../lib/gcc/nios2-elf/4.1.2/../../../../nios2-elf/lib/libc.a(lib_a-memset.o)
 .comment       0x00000000       0x27 /OPT/altera/12.1/nios2eds/bin/gnu/H-i686-pc-linux-gnu/bin/../lib/gcc/nios2-elf/4.1.2/../../../../nios2-elf/lib/libc.a(lib_a-stdio.o)
 .comment       0x00000000       0x27 /OPT/altera/12.1/nios2eds/bin/gnu/H-i686-pc-linux-gnu/bin/../lib/gcc/nios2-elf/4.1.2/../../../../nios2-elf/lib/libc.a(lib_a-writer.o)
 .comment       0x00000000       0x27 /OPT/altera/12.1/nios2eds/bin/gnu/H-i686-pc-linux-gnu/bin/../lib/gcc/nios2-elf/4.1.2/../../../../nios2-elf/lib/libc.a(lib_a-closer.o)
 .comment       0x00000000       0x27 /OPT/altera/12.1/nios2eds/bin/gnu/H-i686-pc-linux-gnu/bin/../lib/gcc/nios2-elf/4.1.2/../../../../nios2-elf/lib/libc.a(lib_a-fclose.o)
 .comment       0x00000000       0x27 /OPT/altera/12.1/nios2eds/bin/gnu/H-i686-pc-linux-gnu/bin/../lib/gcc/nios2-elf/4.1.2/../../../../nios2-elf/lib/libc.a(lib_a-fstatr.o)
 .comment       0x00000000       0x27 /OPT/altera/12.1/nios2eds/bin/gnu/H-i686-pc-linux-gnu/bin/../lib/gcc/nios2-elf/4.1.2/../../../../nios2-elf/lib/libc.a(lib_a-isattyr.o)
 .comment       0x00000000       0x27 /OPT/altera/12.1/nios2eds/bin/gnu/H-i686-pc-linux-gnu/bin/../lib/gcc/nios2-elf/4.1.2/../../../../nios2-elf/lib/libc.a(lib_a-lseekr.o)
 .comment       0x00000000       0x27 /OPT/altera/12.1/nios2eds/bin/gnu/H-i686-pc-linux-gnu/bin/../lib/gcc/nios2-elf/4.1.2/../../../../nios2-elf/lib/libc.a(lib_a-readr.o)
 .comment       0x00000000       0x27 ../Ether_bsp//libucosii_bsp.a(alt_close.o)
 .comment       0x00000000       0x27 ../Ether_bsp//libucosii_bsp.a(alt_dev.o)
 .comment       0x00000000       0x27 ../Ether_bsp//libucosii_bsp.a(alt_errno.o)
 .comment       0x00000000       0x27 ../Ether_bsp//libucosii_bsp.a(alt_fstat.o)
 .comment       0x00000000       0x27 ../Ether_bsp//libucosii_bsp.a(alt_isatty.o)
 .comment       0x00000000       0x27 ../Ether_bsp//libucosii_bsp.a(alt_load.o)
 .comment       0x00000000       0x27 ../Ether_bsp//libucosii_bsp.a(alt_lseek.o)
 .comment       0x00000000       0x27 ../Ether_bsp//libucosii_bsp.a(alt_main.o)
 .comment       0x00000000       0x27 ../Ether_bsp//libucosii_bsp.a(alt_read.o)
 .comment       0x00000000       0x27 ../Ether_bsp//libucosii_bsp.a(alt_release_fd.o)
 .comment       0x00000000       0x27 ../Ether_bsp//libucosii_bsp.a(alt_sbrk.o)
 .comment       0x00000000       0x27 ../Ether_bsp//libucosii_bsp.a(alt_write.o)
 .comment       0x00000000       0x27 ../Ether_bsp//libucosii_bsp.a(alt_env_lock.o)
 .comment       0x00000000       0x27 ../Ether_bsp//libucosii_bsp.a(alt_malloc_lock.o)
 .comment       0x00000000       0x27 ../Ether_bsp//libucosii_bsp.a(os_core.o)
 .comment       0x00000000       0x27 ../Ether_bsp//libucosii_bsp.a(os_dbg.o)
 .comment       0x00000000       0x27 ../Ether_bsp//libucosii_bsp.a(os_flag.o)
 .comment       0x00000000       0x27 ../Ether_bsp//libucosii_bsp.a(os_mem.o)
 .comment       0x00000000       0x27 ../Ether_bsp//libucosii_bsp.a(os_q.o)
 .comment       0x00000000       0x27 ../Ether_bsp//libucosii_bsp.a(os_sem.o)
 .comment       0x00000000       0x27 ../Ether_bsp//libucosii_bsp.a(os_task.o)
 .comment       0x00000000       0x27 ../Ether_bsp//libucosii_bsp.a(os_time.o)
 .comment       0x00000000       0x27 ../Ether_bsp//libucosii_bsp.a(alt_sys_init.o)
 .comment       0x00000000       0x27 ../Ether_bsp//libucosii_bsp.a(altera_avalon_jtag_uart_fd.o)
 .comment       0x00000000       0x27 ../Ether_bsp//libucosii_bsp.a(altera_avalon_jtag_uart_init.o)
 .comment       0x00000000       0x27 ../Ether_bsp//libucosii_bsp.a(altera_avalon_jtag_uart_ioctl.o)
 .comment       0x00000000       0x27 ../Ether_bsp//libucosii_bsp.a(altera_avalon_jtag_uart_read.o)
 .comment       0x00000000       0x27 ../Ether_bsp//libucosii_bsp.a(altera_avalon_jtag_uart_write.o)
 .comment       0x00000000       0x27 ../Ether_bsp//libucosii_bsp.a(altera_avalon_timer_sc.o)
 .comment       0x00000000       0x27 ../Ether_bsp//libucosii_bsp.a(altera_up_avalon_character_lcd.o)
 .comment       0x00000000       0x27 ../Ether_bsp//libucosii_bsp.a(alt_alarm_start.o)
 .comment       0x00000000       0x27 ../Ether_bsp//libucosii_bsp.a(alt_dcache_flush_all.o)
 .comment       0x00000000       0x27 ../Ether_bsp//libucosii_bsp.a(alt_dev_llist_insert.o)
 .comment       0x00000000       0x27 ../Ether_bsp//libucosii_bsp.a(alt_do_ctors.o)
 .comment       0x00000000       0x27 ../Ether_bsp//libucosii_bsp.a(alt_do_dtors.o)
 .comment       0x00000000       0x27 ../Ether_bsp//libucosii_bsp.a(alt_find_dev.o)
 .comment       0x00000000       0x27 ../Ether_bsp//libucosii_bsp.a(alt_icache_flush_all.o)
 .comment       0x00000000       0x27 ../Ether_bsp//libucosii_bsp.a(alt_iic.o)
 .comment       0x00000000       0x27 ../Ether_bsp//libucosii_bsp.a(alt_iic_isr_register.o)
 .comment       0x00000000       0x27 ../Ether_bsp//libucosii_bsp.a(alt_io_redirect.o)
 .comment       0x00000000       0x27 ../Ether_bsp//libucosii_bsp.a(alt_irq_handler.o)
 .comment       0x00000000       0x27 ../Ether_bsp//libucosii_bsp.a(alt_irq_vars.o)
 .comment       0x00000000       0x27 ../Ether_bsp//libucosii_bsp.a(alt_open.o)
 .comment       0x00000000       0x27 ../Ether_bsp//libucosii_bsp.a(alt_tick.o)
 .comment       0x00000000       0x27 ../Ether_bsp//libucosii_bsp.a(altera_nios2_qsys_irq.o)
 .comment       0x00000000       0x27 ../Ether_bsp//libucosii_bsp.a(os_cpu_c.o)
 .comment       0x00000000       0x27 ../Ether_bsp//libucosii_bsp.a(alt_find_file.o)
 .comment       0x00000000       0x27 ../Ether_bsp//libucosii_bsp.a(alt_get_fd.o)
 .comment       0x00000000       0x27 ../Ether_bsp//libucosii_bsp.a(alt_icache_flush.o)
 .comment       0x00000000       0x27 /OPT/altera/12.1/nios2eds/bin/gnu/H-i686-pc-linux-gnu/bin/../lib/gcc/nios2-elf/4.1.2/../../../../nios2-elf/lib/libc.a(lib_a-atexit.o)
 .comment       0x00000000       0x27 /OPT/altera/12.1/nios2eds/bin/gnu/H-i686-pc-linux-gnu/bin/../lib/gcc/nios2-elf/4.1.2/../../../../nios2-elf/lib/libc.a(lib_a-exit.o)
 .comment       0x00000000       0x27 /OPT/altera/12.1/nios2eds/bin/gnu/H-i686-pc-linux-gnu/bin/../lib/gcc/nios2-elf/4.1.2/../../../../nios2-elf/lib/libc.a(lib_a-memcmp.o)
 .comment       0x00000000       0x27 /OPT/altera/12.1/nios2eds/bin/gnu/H-i686-pc-linux-gnu/bin/../lib/gcc/nios2-elf/4.1.2/../../../../nios2-elf/lib/libc.a(lib_a-__atexit.o)
 .comment       0x00000000       0x27 /OPT/altera/12.1/nios2eds/bin/gnu/H-i686-pc-linux-gnu/bin/../lib/gcc/nios2-elf/4.1.2/../../../../nios2-elf/lib/libc.a(lib_a-__call_atexit.o)
 .comment       0x00000000       0x27 /OPT/altera/12.1/nios2eds/bin/gnu/H-i686-pc-linux-gnu/bin/../lib/gcc/nios2-elf/4.1.2/libgcc.a(lib2-divmod.o)
 .comment       0x00000000       0x27 ../Ether_bsp//libucosii_bsp.a(alt_exit.o)

.debug
 *(.debug)

.line
 *(.line)

.debug_srcinfo
 *(.debug_srcinfo)

.debug_sfnames
 *(.debug_sfnames)

.debug_aranges  0x00000000      0xa98
 *(.debug_aranges)
 .debug_aranges
                0x00000000       0x28 ../Ether_bsp//obj/HAL/src/crt0.o
 .debug_aranges
                0x00000028       0x20 obj/default/hello_ucosii.o
 .debug_aranges
                0x00000048       0x20 /OPT/altera/12.1/nios2eds/bin/gnu/H-i686-pc-linux-gnu/bin/../lib/gcc/nios2-elf/4.1.2/../../../../nios2-elf/lib/libc.a(lib_a-puts.o)
 .debug_aranges
                0x00000068       0x20 /OPT/altera/12.1/nios2eds/bin/gnu/H-i686-pc-linux-gnu/bin/../lib/gcc/nios2-elf/4.1.2/../../../../nios2-elf/lib/libc.a(lib_a-strlen.o)
 .debug_aranges
                0x00000088       0x20 /OPT/altera/12.1/nios2eds/bin/gnu/H-i686-pc-linux-gnu/bin/../lib/gcc/nios2-elf/4.1.2/../../../../nios2-elf/lib/libc.a(lib_a-fvwrite.o)
 .debug_aranges
                0x000000a8       0x20 /OPT/altera/12.1/nios2eds/bin/gnu/H-i686-pc-linux-gnu/bin/../lib/gcc/nios2-elf/4.1.2/../../../../nios2-elf/lib/libc.a(lib_a-mallocr.o)
 .debug_aranges
                0x000000c8       0x20 /OPT/altera/12.1/nios2eds/bin/gnu/H-i686-pc-linux-gnu/bin/../lib/gcc/nios2-elf/4.1.2/../../../../nios2-elf/lib/libc.a(lib_a-memchr.o)
 .debug_aranges
                0x000000e8       0x20 /OPT/altera/12.1/nios2eds/bin/gnu/H-i686-pc-linux-gnu/bin/../lib/gcc/nios2-elf/4.1.2/../../../../nios2-elf/lib/libc.a(lib_a-memcpy.o)
 .debug_aranges
                0x00000108       0x20 /OPT/altera/12.1/nios2eds/bin/gnu/H-i686-pc-linux-gnu/bin/../lib/gcc/nios2-elf/4.1.2/../../../../nios2-elf/lib/libc.a(lib_a-memmove.o)
 .debug_aranges
                0x00000128       0x20 /OPT/altera/12.1/nios2eds/bin/gnu/H-i686-pc-linux-gnu/bin/../lib/gcc/nios2-elf/4.1.2/../../../../nios2-elf/lib/libc.a(lib_a-reallocr.o)
 .debug_aranges
                0x00000148       0x20 /OPT/altera/12.1/nios2eds/bin/gnu/H-i686-pc-linux-gnu/bin/../lib/gcc/nios2-elf/4.1.2/../../../../nios2-elf/lib/libc.a(lib_a-sbrkr.o)
 .debug_aranges
                0x00000168       0x20 /OPT/altera/12.1/nios2eds/bin/gnu/H-i686-pc-linux-gnu/bin/../lib/gcc/nios2-elf/4.1.2/../../../../nios2-elf/lib/libc.a(lib_a-wsetup.o)
 .debug_aranges
                0x00000188       0x20 /OPT/altera/12.1/nios2eds/bin/gnu/H-i686-pc-linux-gnu/bin/../lib/gcc/nios2-elf/4.1.2/../../../../nios2-elf/lib/libc.a(lib_a-fflush.o)
 .debug_aranges
                0x000001a8       0x20 /OPT/altera/12.1/nios2eds/bin/gnu/H-i686-pc-linux-gnu/bin/../lib/gcc/nios2-elf/4.1.2/../../../../nios2-elf/lib/libc.a(lib_a-findfp.o)
 .debug_aranges
                0x000001c8       0x20 /OPT/altera/12.1/nios2eds/bin/gnu/H-i686-pc-linux-gnu/bin/../lib/gcc/nios2-elf/4.1.2/../../../../nios2-elf/lib/libc.a(lib_a-freer.o)
 .debug_aranges
                0x000001e8       0x20 /OPT/altera/12.1/nios2eds/bin/gnu/H-i686-pc-linux-gnu/bin/../lib/gcc/nios2-elf/4.1.2/../../../../nios2-elf/lib/libc.a(lib_a-fwalk.o)
 .debug_aranges
                0x00000208       0x20 /OPT/altera/12.1/nios2eds/bin/gnu/H-i686-pc-linux-gnu/bin/../lib/gcc/nios2-elf/4.1.2/../../../../nios2-elf/lib/libc.a(lib_a-makebuf.o)
 .debug_aranges
                0x00000228       0x20 /OPT/altera/12.1/nios2eds/bin/gnu/H-i686-pc-linux-gnu/bin/../lib/gcc/nios2-elf/4.1.2/../../../../nios2-elf/lib/libc.a(lib_a-memset.o)
 .debug_aranges
                0x00000248       0x20 /OPT/altera/12.1/nios2eds/bin/gnu/H-i686-pc-linux-gnu/bin/../lib/gcc/nios2-elf/4.1.2/../../../../nios2-elf/lib/libc.a(lib_a-stdio.o)
 .debug_aranges
                0x00000268       0x20 /OPT/altera/12.1/nios2eds/bin/gnu/H-i686-pc-linux-gnu/bin/../lib/gcc/nios2-elf/4.1.2/../../../../nios2-elf/lib/libc.a(lib_a-writer.o)
 .debug_aranges
                0x00000288       0x20 /OPT/altera/12.1/nios2eds/bin/gnu/H-i686-pc-linux-gnu/bin/../lib/gcc/nios2-elf/4.1.2/../../../../nios2-elf/lib/libc.a(lib_a-closer.o)
 .debug_aranges
                0x000002a8       0x20 /OPT/altera/12.1/nios2eds/bin/gnu/H-i686-pc-linux-gnu/bin/../lib/gcc/nios2-elf/4.1.2/../../../../nios2-elf/lib/libc.a(lib_a-fclose.o)
 .debug_aranges
                0x000002c8       0x20 /OPT/altera/12.1/nios2eds/bin/gnu/H-i686-pc-linux-gnu/bin/../lib/gcc/nios2-elf/4.1.2/../../../../nios2-elf/lib/libc.a(lib_a-fstatr.o)
 .debug_aranges
                0x000002e8       0x20 /OPT/altera/12.1/nios2eds/bin/gnu/H-i686-pc-linux-gnu/bin/../lib/gcc/nios2-elf/4.1.2/../../../../nios2-elf/lib/libc.a(lib_a-isattyr.o)
 .debug_aranges
                0x00000308       0x20 /OPT/altera/12.1/nios2eds/bin/gnu/H-i686-pc-linux-gnu/bin/../lib/gcc/nios2-elf/4.1.2/../../../../nios2-elf/lib/libc.a(lib_a-lseekr.o)
 .debug_aranges
                0x00000328       0x20 /OPT/altera/12.1/nios2eds/bin/gnu/H-i686-pc-linux-gnu/bin/../lib/gcc/nios2-elf/4.1.2/../../../../nios2-elf/lib/libc.a(lib_a-readr.o)
 .debug_aranges
                0x00000348       0x20 ../Ether_bsp//libucosii_bsp.a(alt_close.o)
 .debug_aranges
                0x00000368       0x20 ../Ether_bsp//libucosii_bsp.a(alt_dev.o)
 .debug_aranges
                0x00000388       0x20 ../Ether_bsp//libucosii_bsp.a(alt_fstat.o)
 .debug_aranges
                0x000003a8       0x20 ../Ether_bsp//libucosii_bsp.a(alt_isatty.o)
 .debug_aranges
                0x000003c8       0x20 ../Ether_bsp//libucosii_bsp.a(alt_load.o)
 .debug_aranges
                0x000003e8       0x20 ../Ether_bsp//libucosii_bsp.a(alt_lseek.o)
 .debug_aranges
                0x00000408       0x20 ../Ether_bsp//libucosii_bsp.a(alt_main.o)
 .debug_aranges
                0x00000428       0x20 ../Ether_bsp//libucosii_bsp.a(alt_read.o)
 .debug_aranges
                0x00000448       0x20 ../Ether_bsp//libucosii_bsp.a(alt_release_fd.o)
 .debug_aranges
                0x00000468       0x20 ../Ether_bsp//libucosii_bsp.a(alt_sbrk.o)
 .debug_aranges
                0x00000488       0x20 ../Ether_bsp//libucosii_bsp.a(alt_write.o)
 .debug_aranges
                0x000004a8       0x20 ../Ether_bsp//libucosii_bsp.a(alt_env_lock.o)
 .debug_aranges
                0x000004c8       0x20 ../Ether_bsp//libucosii_bsp.a(alt_malloc_lock.o)
 .debug_aranges
                0x000004e8       0x20 ../Ether_bsp//libucosii_bsp.a(os_core.o)
 .debug_aranges
                0x00000508       0x20 ../Ether_bsp//libucosii_bsp.a(os_dbg.o)
 .debug_aranges
                0x00000528       0x20 ../Ether_bsp//libucosii_bsp.a(os_flag.o)
 .debug_aranges
                0x00000548       0x20 ../Ether_bsp//libucosii_bsp.a(os_mem.o)
 .debug_aranges
                0x00000568       0x20 ../Ether_bsp//libucosii_bsp.a(os_q.o)
 .debug_aranges
                0x00000588       0x20 ../Ether_bsp//libucosii_bsp.a(os_sem.o)
 .debug_aranges
                0x000005a8       0x20 ../Ether_bsp//libucosii_bsp.a(os_task.o)
 .debug_aranges
                0x000005c8       0x20 ../Ether_bsp//libucosii_bsp.a(os_time.o)
 .debug_aranges
                0x000005e8       0x20 ../Ether_bsp//libucosii_bsp.a(alt_sys_init.o)
 .debug_aranges
                0x00000608       0x20 ../Ether_bsp//libucosii_bsp.a(altera_avalon_jtag_uart_fd.o)
 .debug_aranges
                0x00000628       0x20 ../Ether_bsp//libucosii_bsp.a(altera_avalon_jtag_uart_init.o)
 .debug_aranges
                0x00000648       0x20 ../Ether_bsp//libucosii_bsp.a(altera_avalon_jtag_uart_ioctl.o)
 .debug_aranges
                0x00000668       0x20 ../Ether_bsp//libucosii_bsp.a(altera_avalon_jtag_uart_read.o)
 .debug_aranges
                0x00000688       0x20 ../Ether_bsp//libucosii_bsp.a(altera_avalon_jtag_uart_write.o)
 .debug_aranges
                0x000006a8       0x20 ../Ether_bsp//libucosii_bsp.a(altera_avalon_timer_sc.o)
 .debug_aranges
                0x000006c8       0x20 ../Ether_bsp//libucosii_bsp.a(altera_up_avalon_character_lcd.o)
 .debug_aranges
                0x000006e8       0x20 ../Ether_bsp//libucosii_bsp.a(alt_alarm_start.o)
 .debug_aranges
                0x00000708       0x20 ../Ether_bsp//libucosii_bsp.a(alt_dcache_flush_all.o)
 .debug_aranges
                0x00000728       0x20 ../Ether_bsp//libucosii_bsp.a(alt_dev_llist_insert.o)
 .debug_aranges
                0x00000748       0x20 ../Ether_bsp//libucosii_bsp.a(alt_do_ctors.o)
 .debug_aranges
                0x00000768       0x20 ../Ether_bsp//libucosii_bsp.a(alt_do_dtors.o)
 .debug_aranges
                0x00000788       0x20 ../Ether_bsp//libucosii_bsp.a(alt_find_dev.o)
 .debug_aranges
                0x000007a8       0x20 ../Ether_bsp//libucosii_bsp.a(alt_icache_flush_all.o)
 .debug_aranges
                0x000007c8       0x20 ../Ether_bsp//libucosii_bsp.a(alt_iic.o)
 .debug_aranges
                0x000007e8       0x20 ../Ether_bsp//libucosii_bsp.a(alt_iic_isr_register.o)
 .debug_aranges
                0x00000808       0x20 ../Ether_bsp//libucosii_bsp.a(alt_io_redirect.o)
 .debug_aranges
                0x00000828       0x30 ../Ether_bsp//libucosii_bsp.a(alt_irq_entry.o)
 .debug_aranges
                0x00000858       0x28 ../Ether_bsp//libucosii_bsp.a(alt_irq_handler.o)
 .debug_aranges
                0x00000880       0x20 ../Ether_bsp//libucosii_bsp.a(alt_open.o)
 .debug_aranges
                0x000008a0       0x20 ../Ether_bsp//libucosii_bsp.a(alt_tick.o)
 .debug_aranges
                0x000008c0       0x20 ../Ether_bsp//libucosii_bsp.a(altera_nios2_qsys_irq.o)
 .debug_aranges
                0x000008e0       0x20 ../Ether_bsp//libucosii_bsp.a(os_cpu_a.o)
 .debug_aranges
                0x00000900       0x20 ../Ether_bsp//libucosii_bsp.a(os_cpu_c.o)
 .debug_aranges
                0x00000920       0x38 ../Ether_bsp//libucosii_bsp.a(alt_exception_entry.o)
 .debug_aranges
                0x00000958       0x20 ../Ether_bsp//libucosii_bsp.a(alt_find_file.o)
 .debug_aranges
                0x00000978       0x20 ../Ether_bsp//libucosii_bsp.a(alt_get_fd.o)
 .debug_aranges
                0x00000998       0x20 ../Ether_bsp//libucosii_bsp.a(alt_icache_flush.o)
 .debug_aranges
                0x000009b8       0x20 /OPT/altera/12.1/nios2eds/bin/gnu/H-i686-pc-linux-gnu/bin/../lib/gcc/nios2-elf/4.1.2/../../../../nios2-elf/lib/libc.a(lib_a-atexit.o)
 .debug_aranges
                0x000009d8       0x20 /OPT/altera/12.1/nios2eds/bin/gnu/H-i686-pc-linux-gnu/bin/../lib/gcc/nios2-elf/4.1.2/../../../../nios2-elf/lib/libc.a(lib_a-exit.o)
 .debug_aranges
                0x000009f8       0x20 /OPT/altera/12.1/nios2eds/bin/gnu/H-i686-pc-linux-gnu/bin/../lib/gcc/nios2-elf/4.1.2/../../../../nios2-elf/lib/libc.a(lib_a-memcmp.o)
 .debug_aranges
                0x00000a18       0x20 /OPT/altera/12.1/nios2eds/bin/gnu/H-i686-pc-linux-gnu/bin/../lib/gcc/nios2-elf/4.1.2/../../../../nios2-elf/lib/libc.a(lib_a-__atexit.o)
 .debug_aranges
                0x00000a38       0x20 /OPT/altera/12.1/nios2eds/bin/gnu/H-i686-pc-linux-gnu/bin/../lib/gcc/nios2-elf/4.1.2/../../../../nios2-elf/lib/libc.a(lib_a-__call_atexit.o)
 .debug_aranges
                0x00000a58       0x20 /OPT/altera/12.1/nios2eds/bin/gnu/H-i686-pc-linux-gnu/bin/../lib/gcc/nios2-elf/4.1.2/libgcc.a(lib2-divmod.o)
 .debug_aranges
                0x00000a78       0x20 ../Ether_bsp//libucosii_bsp.a(alt_exit.o)

.debug_pubnames
                0x00000000     0x1c4c
 *(.debug_pubnames)
 .debug_pubnames
                0x00000000       0x4b obj/default/hello_ucosii.o
 .debug_pubnames
                0x0000004b       0x27 /OPT/altera/12.1/nios2eds/bin/gnu/H-i686-pc-linux-gnu/bin/../lib/gcc/nios2-elf/4.1.2/../../../../nios2-elf/lib/libc.a(lib_a-puts.o)
 .debug_pubnames
                0x00000072       0x1d /OPT/altera/12.1/nios2eds/bin/gnu/H-i686-pc-linux-gnu/bin/../lib/gcc/nios2-elf/4.1.2/../../../../nios2-elf/lib/libc.a(lib_a-strlen.o)
 .debug_pubnames
                0x0000008f       0x23 /OPT/altera/12.1/nios2eds/bin/gnu/H-i686-pc-linux-gnu/bin/../lib/gcc/nios2-elf/4.1.2/../../../../nios2-elf/lib/libc.a(lib_a-fvwrite.o)
 .debug_pubnames
                0x000000b2       0x39 /OPT/altera/12.1/nios2eds/bin/gnu/H-i686-pc-linux-gnu/bin/../lib/gcc/nios2-elf/4.1.2/../../../../nios2-elf/lib/libc.a(lib_a-impure.o)
 .debug_pubnames
                0x000000eb       0xce /OPT/altera/12.1/nios2eds/bin/gnu/H-i686-pc-linux-gnu/bin/../lib/gcc/nios2-elf/4.1.2/../../../../nios2-elf/lib/libc.a(lib_a-mallocr.o)
 .debug_pubnames
                0x000001b9       0x1d /OPT/altera/12.1/nios2eds/bin/gnu/H-i686-pc-linux-gnu/bin/../lib/gcc/nios2-elf/4.1.2/../../../../nios2-elf/lib/libc.a(lib_a-memchr.o)
 .debug_pubnames
                0x000001d6       0x1d /OPT/altera/12.1/nios2eds/bin/gnu/H-i686-pc-linux-gnu/bin/../lib/gcc/nios2-elf/4.1.2/../../../../nios2-elf/lib/libc.a(lib_a-memcpy.o)
 .debug_pubnames
                0x000001f3       0x1e /OPT/altera/12.1/nios2eds/bin/gnu/H-i686-pc-linux-gnu/bin/../lib/gcc/nios2-elf/4.1.2/../../../../nios2-elf/lib/libc.a(lib_a-memmove.o)
 .debug_pubnames
                0x00000211       0x21 /OPT/altera/12.1/nios2eds/bin/gnu/H-i686-pc-linux-gnu/bin/../lib/gcc/nios2-elf/4.1.2/../../../../nios2-elf/lib/libc.a(lib_a-reallocr.o)
 .debug_pubnames
                0x00000232       0x1e /OPT/altera/12.1/nios2eds/bin/gnu/H-i686-pc-linux-gnu/bin/../lib/gcc/nios2-elf/4.1.2/../../../../nios2-elf/lib/libc.a(lib_a-sbrkr.o)
 .debug_pubnames
                0x00000250       0x22 /OPT/altera/12.1/nios2eds/bin/gnu/H-i686-pc-linux-gnu/bin/../lib/gcc/nios2-elf/4.1.2/../../../../nios2-elf/lib/libc.a(lib_a-wsetup.o)
 .debug_pubnames
                0x00000272       0x2b /OPT/altera/12.1/nios2eds/bin/gnu/H-i686-pc-linux-gnu/bin/../lib/gcc/nios2-elf/4.1.2/../../../../nios2-elf/lib/libc.a(lib_a-fflush.o)
 .debug_pubnames
                0x0000029d       0xdb /OPT/altera/12.1/nios2eds/bin/gnu/H-i686-pc-linux-gnu/bin/../lib/gcc/nios2-elf/4.1.2/../../../../nios2-elf/lib/libc.a(lib_a-findfp.o)
 .debug_pubnames
                0x00000378       0x31 /OPT/altera/12.1/nios2eds/bin/gnu/H-i686-pc-linux-gnu/bin/../lib/gcc/nios2-elf/4.1.2/../../../../nios2-elf/lib/libc.a(lib_a-freer.o)
 .debug_pubnames
                0x000003a9       0x2e /OPT/altera/12.1/nios2eds/bin/gnu/H-i686-pc-linux-gnu/bin/../lib/gcc/nios2-elf/4.1.2/../../../../nios2-elf/lib/libc.a(lib_a-fwalk.o)
 .debug_pubnames
                0x000003d7       0x1c /OPT/altera/12.1/nios2eds/bin/gnu/H-i686-pc-linux-gnu/bin/../lib/gcc/nios2-elf/4.1.2/../../../../nios2-elf/lib/libc.a(lib_a-int_errno.o)
 .debug_pubnames
                0x000003f3       0x23 /OPT/altera/12.1/nios2eds/bin/gnu/H-i686-pc-linux-gnu/bin/../lib/gcc/nios2-elf/4.1.2/../../../../nios2-elf/lib/libc.a(lib_a-makebuf.o)
 .debug_pubnames
                0x00000416       0x1d /OPT/altera/12.1/nios2eds/bin/gnu/H-i686-pc-linux-gnu/bin/../lib/gcc/nios2-elf/4.1.2/../../../../nios2-elf/lib/libc.a(lib_a-memset.o)
 .debug_pubnames
                0x00000433       0x44 /OPT/altera/12.1/nios2eds/bin/gnu/H-i686-pc-linux-gnu/bin/../lib/gcc/nios2-elf/4.1.2/../../../../nios2-elf/lib/libc.a(lib_a-stdio.o)
 .debug_pubnames
                0x00000477       0x1f /OPT/altera/12.1/nios2eds/bin/gnu/H-i686-pc-linux-gnu/bin/../lib/gcc/nios2-elf/4.1.2/../../../../nios2-elf/lib/libc.a(lib_a-writer.o)
 .debug_pubnames
                0x00000496       0x1f /OPT/altera/12.1/nios2eds/bin/gnu/H-i686-pc-linux-gnu/bin/../lib/gcc/nios2-elf/4.1.2/../../../../nios2-elf/lib/libc.a(lib_a-closer.o)
 .debug_pubnames
                0x000004b5       0x2b /OPT/altera/12.1/nios2eds/bin/gnu/H-i686-pc-linux-gnu/bin/../lib/gcc/nios2-elf/4.1.2/../../../../nios2-elf/lib/libc.a(lib_a-fclose.o)
 .debug_pubnames
                0x000004e0       0x1f /OPT/altera/12.1/nios2eds/bin/gnu/H-i686-pc-linux-gnu/bin/../lib/gcc/nios2-elf/4.1.2/../../../../nios2-elf/lib/libc.a(lib_a-fstatr.o)
 .debug_pubnames
                0x000004ff       0x20 /OPT/altera/12.1/nios2eds/bin/gnu/H-i686-pc-linux-gnu/bin/../lib/gcc/nios2-elf/4.1.2/../../../../nios2-elf/lib/libc.a(lib_a-isattyr.o)
 .debug_pubnames
                0x0000051f       0x1f /OPT/altera/12.1/nios2eds/bin/gnu/H-i686-pc-linux-gnu/bin/../lib/gcc/nios2-elf/4.1.2/../../../../nios2-elf/lib/libc.a(lib_a-lseekr.o)
 .debug_pubnames
                0x0000053e       0x1e /OPT/altera/12.1/nios2eds/bin/gnu/H-i686-pc-linux-gnu/bin/../lib/gcc/nios2-elf/4.1.2/../../../../nios2-elf/lib/libc.a(lib_a-readr.o)
 .debug_pubnames
                0x0000055c       0x1c ../Ether_bsp//libucosii_bsp.a(alt_close.o)
 .debug_pubnames
                0x00000578       0x78 ../Ether_bsp//libucosii_bsp.a(alt_dev.o)
 .debug_pubnames
                0x000005f0       0x20 ../Ether_bsp//libucosii_bsp.a(alt_errno.o)
 .debug_pubnames
                0x00000610       0x1c ../Ether_bsp//libucosii_bsp.a(alt_fstat.o)
 .debug_pubnames
                0x0000062c       0x1d ../Ether_bsp//libucosii_bsp.a(alt_isatty.o)
 .debug_pubnames
                0x00000649       0x1f ../Ether_bsp//libucosii_bsp.a(alt_load.o)
 .debug_pubnames
                0x00000668       0x1c ../Ether_bsp//libucosii_bsp.a(alt_lseek.o)
 .debug_pubnames
                0x00000684       0x46 ../Ether_bsp//libucosii_bsp.a(alt_main.o)
 .debug_pubnames
                0x000006ca       0x1b ../Ether_bsp//libucosii_bsp.a(alt_read.o)
 .debug_pubnames
                0x000006e5       0x25 ../Ether_bsp//libucosii_bsp.a(alt_release_fd.o)
 .debug_pubnames
                0x0000070a       0x1b ../Ether_bsp//libucosii_bsp.a(alt_sbrk.o)
 .debug_pubnames
                0x00000725       0x1c ../Ether_bsp//libucosii_bsp.a(alt_write.o)
 .debug_pubnames
                0x00000741       0x41 ../Ether_bsp//libucosii_bsp.a(alt_env_lock.o)
 .debug_pubnames
                0x00000782       0x48 ../Ether_bsp//libucosii_bsp.a(alt_malloc_lock.o)
 .debug_pubnames
                0x000007ca      0x3f8 ../Ether_bsp//libucosii_bsp.a(os_core.o)
 .debug_pubnames
                0x00000bc2      0x3c5 ../Ether_bsp//libucosii_bsp.a(os_dbg.o)
 .debug_pubnames
                0x00000f87       0xd0 ../Ether_bsp//libucosii_bsp.a(os_flag.o)
 .debug_pubnames
                0x00001057       0x7c ../Ether_bsp//libucosii_bsp.a(os_mem.o)
 .debug_pubnames
                0x000010d3       0xa9 ../Ether_bsp//libucosii_bsp.a(os_q.o)
 .debug_pubnames
                0x0000117c       0x8a ../Ether_bsp//libucosii_bsp.a(os_sem.o)
 .debug_pubnames
                0x00001206       0xe5 ../Ether_bsp//libucosii_bsp.a(os_task.o)
 .debug_pubnames
                0x000012eb       0x62 ../Ether_bsp//libucosii_bsp.a(os_time.o)
 .debug_pubnames
                0x0000134d       0x34 ../Ether_bsp//libucosii_bsp.a(alt_sys_init.o)
 .debug_pubnames
                0x00001381       0xa5 ../Ether_bsp//libucosii_bsp.a(altera_avalon_jtag_uart_fd.o)
 .debug_pubnames
                0x00001426       0x55 ../Ether_bsp//libucosii_bsp.a(altera_avalon_jtag_uart_init.o)
 .debug_pubnames
                0x0000147b       0x34 ../Ether_bsp//libucosii_bsp.a(altera_avalon_jtag_uart_ioctl.o)
 .debug_pubnames
                0x000014af       0x33 ../Ether_bsp//libucosii_bsp.a(altera_avalon_jtag_uart_read.o)
 .debug_pubnames
                0x000014e2       0x34 ../Ether_bsp//libucosii_bsp.a(altera_avalon_jtag_uart_write.o)
 .debug_pubnames
                0x00001516       0x2f ../Ether_bsp//libucosii_bsp.a(altera_avalon_timer_sc.o)
 .debug_pubnames
                0x00001545      0x1cd ../Ether_bsp//libucosii_bsp.a(altera_up_avalon_character_lcd.o)
 .debug_pubnames
                0x00001712       0x26 ../Ether_bsp//libucosii_bsp.a(alt_alarm_start.o)
 .debug_pubnames
                0x00001738       0x2b ../Ether_bsp//libucosii_bsp.a(alt_dcache_flush_all.o)
 .debug_pubnames
                0x00001763       0x2b ../Ether_bsp//libucosii_bsp.a(alt_dev_llist_insert.o)
 .debug_pubnames
                0x0000178e       0x20 ../Ether_bsp//libucosii_bsp.a(alt_do_ctors.o)
 .debug_pubnames
                0x000017ae       0x20 ../Ether_bsp//libucosii_bsp.a(alt_do_dtors.o)
 .debug_pubnames
                0x000017ce       0x23 ../Ether_bsp//libucosii_bsp.a(alt_find_dev.o)
 .debug_pubnames
                0x000017f1       0x2b ../Ether_bsp//libucosii_bsp.a(alt_icache_flush_all.o)
 .debug_pubnames
                0x0000181c       0x6e ../Ether_bsp//libucosii_bsp.a(alt_iic.o)
 .debug_pubnames
                0x0000188a       0x2b ../Ether_bsp//libucosii_bsp.a(alt_iic_isr_register.o)
 .debug_pubnames
                0x000018b5       0x26 ../Ether_bsp//libucosii_bsp.a(alt_io_redirect.o)
 .debug_pubnames
                0x000018db       0x32 ../Ether_bsp//libucosii_bsp.a(alt_irq_handler.o)
 .debug_pubnames
                0x0000190d       0x3b ../Ether_bsp//libucosii_bsp.a(alt_irq_vars.o)
 .debug_pubnames
                0x00001948       0x1b ../Ether_bsp//libucosii_bsp.a(alt_open.o)
 .debug_pubnames
                0x00001963       0x68 ../Ether_bsp//libucosii_bsp.a(alt_tick.o)
 .debug_pubnames
                0x000019cb       0x31 ../Ether_bsp//libucosii_bsp.a(altera_nios2_qsys_irq.o)
 .debug_pubnames
                0x000019fc       0xcd ../Ether_bsp//libucosii_bsp.a(os_cpu_c.o)
 .debug_pubnames
                0x00001ac9       0x24 ../Ether_bsp//libucosii_bsp.a(alt_find_file.o)
 .debug_pubnames
                0x00001aed       0x21 ../Ether_bsp//libucosii_bsp.a(alt_get_fd.o)
 .debug_pubnames
                0x00001b0e       0x27 ../Ether_bsp//libucosii_bsp.a(alt_icache_flush.o)
 .debug_pubnames
                0x00001b35       0x2a /OPT/altera/12.1/nios2eds/bin/gnu/H-i686-pc-linux-gnu/bin/../lib/gcc/nios2-elf/4.1.2/../../../../nios2-elf/lib/libc.a(lib_a-atexit.o)
 .debug_pubnames
                0x00001b5f       0x1b /OPT/altera/12.1/nios2eds/bin/gnu/H-i686-pc-linux-gnu/bin/../lib/gcc/nios2-elf/4.1.2/../../../../nios2-elf/lib/libc.a(lib_a-exit.o)
 .debug_pubnames
                0x00001b7a       0x1d /OPT/altera/12.1/nios2eds/bin/gnu/H-i686-pc-linux-gnu/bin/../lib/gcc/nios2-elf/4.1.2/../../../../nios2-elf/lib/libc.a(lib_a-memcmp.o)
 .debug_pubnames
                0x00001b97       0x2a /OPT/altera/12.1/nios2eds/bin/gnu/H-i686-pc-linux-gnu/bin/../lib/gcc/nios2-elf/4.1.2/../../../../nios2-elf/lib/libc.a(lib_a-__atexit.o)
 .debug_pubnames
                0x00001bc1       0x27 /OPT/altera/12.1/nios2eds/bin/gnu/H-i686-pc-linux-gnu/bin/../lib/gcc/nios2-elf/4.1.2/../../../../nios2-elf/lib/libc.a(lib_a-__call_atexit.o)
 .debug_pubnames
                0x00001be8       0x48 /OPT/altera/12.1/nios2eds/bin/gnu/H-i686-pc-linux-gnu/bin/../lib/gcc/nios2-elf/4.1.2/libgcc.a(lib2-divmod.o)
 .debug_pubnames
                0x00001c30       0x1c ../Ether_bsp//libucosii_bsp.a(alt_exit.o)

.debug_info     0x00000000    0x27650
 *(.debug_info .gnu.linkonce.wi.*)
 .debug_info    0x00000000       0xa2 ../Ether_bsp//obj/HAL/src/crt0.o
 .debug_info    0x000000a2      0x266 obj/default/hello_ucosii.o
 .debug_info    0x00000308      0xa25 /OPT/altera/12.1/nios2eds/bin/gnu/H-i686-pc-linux-gnu/bin/../lib/gcc/nios2-elf/4.1.2/../../../../nios2-elf/lib/libc.a(lib_a-puts.o)
 .debug_info    0x00000d2d       0xdb /OPT/altera/12.1/nios2eds/bin/gnu/H-i686-pc-linux-gnu/bin/../lib/gcc/nios2-elf/4.1.2/../../../../nios2-elf/lib/libc.a(lib_a-strlen.o)
 .debug_info    0x00000e08      0xa88 /OPT/altera/12.1/nios2eds/bin/gnu/H-i686-pc-linux-gnu/bin/../lib/gcc/nios2-elf/4.1.2/../../../../nios2-elf/lib/libc.a(lib_a-fvwrite.o)
 .debug_info    0x00001890      0x93d /OPT/altera/12.1/nios2eds/bin/gnu/H-i686-pc-linux-gnu/bin/../lib/gcc/nios2-elf/4.1.2/../../../../nios2-elf/lib/libc.a(lib_a-impure.o)
 .debug_info    0x000021cd      0xcd0 /OPT/altera/12.1/nios2eds/bin/gnu/H-i686-pc-linux-gnu/bin/../lib/gcc/nios2-elf/4.1.2/../../../../nios2-elf/lib/libc.a(lib_a-mallocr.o)
 .debug_info    0x00002e9d      0x138 /OPT/altera/12.1/nios2eds/bin/gnu/H-i686-pc-linux-gnu/bin/../lib/gcc/nios2-elf/4.1.2/../../../../nios2-elf/lib/libc.a(lib_a-memchr.o)
 .debug_info    0x00002fd5      0x106 /OPT/altera/12.1/nios2eds/bin/gnu/H-i686-pc-linux-gnu/bin/../lib/gcc/nios2-elf/4.1.2/../../../../nios2-elf/lib/libc.a(lib_a-memcpy.o)
 .debug_info    0x000030db      0x13e /OPT/altera/12.1/nios2eds/bin/gnu/H-i686-pc-linux-gnu/bin/../lib/gcc/nios2-elf/4.1.2/../../../../nios2-elf/lib/libc.a(lib_a-memmove.o)
 .debug_info    0x00003219      0xbd7 /OPT/altera/12.1/nios2eds/bin/gnu/H-i686-pc-linux-gnu/bin/../lib/gcc/nios2-elf/4.1.2/../../../../nios2-elf/lib/libc.a(lib_a-reallocr.o)
 .debug_info    0x00003df0      0x962 /OPT/altera/12.1/nios2eds/bin/gnu/H-i686-pc-linux-gnu/bin/../lib/gcc/nios2-elf/4.1.2/../../../../nios2-elf/lib/libc.a(lib_a-sbrkr.o)
 .debug_info    0x00004752      0x95d /OPT/altera/12.1/nios2eds/bin/gnu/H-i686-pc-linux-gnu/bin/../lib/gcc/nios2-elf/4.1.2/../../../../nios2-elf/lib/libc.a(lib_a-wsetup.o)
 .debug_info    0x000050af      0x9fe /OPT/altera/12.1/nios2eds/bin/gnu/H-i686-pc-linux-gnu/bin/../lib/gcc/nios2-elf/4.1.2/../../../../nios2-elf/lib/libc.a(lib_a-fflush.o)
 .debug_info    0x00005aad      0xb72 /OPT/altera/12.1/nios2eds/bin/gnu/H-i686-pc-linux-gnu/bin/../lib/gcc/nios2-elf/4.1.2/../../../../nios2-elf/lib/libc.a(lib_a-findfp.o)
 .debug_info    0x0000661f      0xbc9 /OPT/altera/12.1/nios2eds/bin/gnu/H-i686-pc-linux-gnu/bin/../lib/gcc/nios2-elf/4.1.2/../../../../nios2-elf/lib/libc.a(lib_a-freer.o)
 .debug_info    0x000071e8      0xaed /OPT/altera/12.1/nios2eds/bin/gnu/H-i686-pc-linux-gnu/bin/../lib/gcc/nios2-elf/4.1.2/../../../../nios2-elf/lib/libc.a(lib_a-fwalk.o)
 .debug_info    0x00007cd5       0x8c /OPT/altera/12.1/nios2eds/bin/gnu/H-i686-pc-linux-gnu/bin/../lib/gcc/nios2-elf/4.1.2/../../../../nios2-elf/lib/libc.a(lib_a-int_errno.o)
 .debug_info    0x00007d61      0xb1a /OPT/altera/12.1/nios2eds/bin/gnu/H-i686-pc-linux-gnu/bin/../lib/gcc/nios2-elf/4.1.2/../../../../nios2-elf/lib/libc.a(lib_a-makebuf.o)
 .debug_info    0x0000887b      0x113 /OPT/altera/12.1/nios2eds/bin/gnu/H-i686-pc-linux-gnu/bin/../lib/gcc/nios2-elf/4.1.2/../../../../nios2-elf/lib/libc.a(lib_a-memset.o)
 .debug_info    0x0000898e      0xaac /OPT/altera/12.1/nios2eds/bin/gnu/H-i686-pc-linux-gnu/bin/../lib/gcc/nios2-elf/4.1.2/../../../../nios2-elf/lib/libc.a(lib_a-stdio.o)
 .debug_info    0x0000943a      0x993 /OPT/altera/12.1/nios2eds/bin/gnu/H-i686-pc-linux-gnu/bin/../lib/gcc/nios2-elf/4.1.2/../../../../nios2-elf/lib/libc.a(lib_a-writer.o)
 .debug_info    0x00009dcd      0x958 /OPT/altera/12.1/nios2eds/bin/gnu/H-i686-pc-linux-gnu/bin/../lib/gcc/nios2-elf/4.1.2/../../../../nios2-elf/lib/libc.a(lib_a-closer.o)
 .debug_info    0x0000a725      0x994 /OPT/altera/12.1/nios2eds/bin/gnu/H-i686-pc-linux-gnu/bin/../lib/gcc/nios2-elf/4.1.2/../../../../nios2-elf/lib/libc.a(lib_a-fclose.o)
 .debug_info    0x0000b0b9      0xafc /OPT/altera/12.1/nios2eds/bin/gnu/H-i686-pc-linux-gnu/bin/../lib/gcc/nios2-elf/4.1.2/../../../../nios2-elf/lib/libc.a(lib_a-fstatr.o)
 .debug_info    0x0000bbb5      0x958 /OPT/altera/12.1/nios2eds/bin/gnu/H-i686-pc-linux-gnu/bin/../lib/gcc/nios2-elf/4.1.2/../../../../nios2-elf/lib/libc.a(lib_a-isattyr.o)
 .debug_info    0x0000c50d      0x981 /OPT/altera/12.1/nios2eds/bin/gnu/H-i686-pc-linux-gnu/bin/../lib/gcc/nios2-elf/4.1.2/../../../../nios2-elf/lib/libc.a(lib_a-lseekr.o)
 .debug_info    0x0000ce8e      0x98c /OPT/altera/12.1/nios2eds/bin/gnu/H-i686-pc-linux-gnu/bin/../lib/gcc/nios2-elf/4.1.2/../../../../nios2-elf/lib/libc.a(lib_a-readr.o)
 .debug_info    0x0000d81a      0x4e8 ../Ether_bsp//libucosii_bsp.a(alt_close.o)
 .debug_info    0x0000dd02      0x80a ../Ether_bsp//libucosii_bsp.a(alt_dev.o)
 .debug_info    0x0000e50c      0x18b ../Ether_bsp//libucosii_bsp.a(alt_errno.o)
 .debug_info    0x0000e697      0x6e1 ../Ether_bsp//libucosii_bsp.a(alt_fstat.o)
 .debug_info    0x0000ed78      0x6e7 ../Ether_bsp//libucosii_bsp.a(alt_isatty.o)
 .debug_info    0x0000f45f      0x2b4 ../Ether_bsp//libucosii_bsp.a(alt_load.o)
 .debug_info    0x0000f713      0x51b ../Ether_bsp//libucosii_bsp.a(alt_lseek.o)
 .debug_info    0x0000fc2e      0x40a ../Ether_bsp//libucosii_bsp.a(alt_main.o)
 .debug_info    0x00010038      0x705 ../Ether_bsp//libucosii_bsp.a(alt_read.o)
 .debug_info    0x0001073d      0x476 ../Ether_bsp//libucosii_bsp.a(alt_release_fd.o)
 .debug_info    0x00010bb3      0x2de ../Ether_bsp//libucosii_bsp.a(alt_sbrk.o)
 .debug_info    0x00010e91      0x70e ../Ether_bsp//libucosii_bsp.a(alt_write.o)
 .debug_info    0x0001159f     0x11fa ../Ether_bsp//libucosii_bsp.a(alt_env_lock.o)
 .debug_info    0x00012799     0x1356 ../Ether_bsp//libucosii_bsp.a(alt_malloc_lock.o)
 .debug_info    0x00013aef     0x1c10 ../Ether_bsp//libucosii_bsp.a(os_core.o)
 .debug_info    0x000156ff     0x1155 ../Ether_bsp//libucosii_bsp.a(os_dbg.o)
 .debug_info    0x00016854     0x126b ../Ether_bsp//libucosii_bsp.a(os_flag.o)
 .debug_info    0x00017abf      0x835 ../Ether_bsp//libucosii_bsp.a(os_mem.o)
 .debug_info    0x000182f4     0x10a5 ../Ether_bsp//libucosii_bsp.a(os_q.o)
 .debug_info    0x00019399      0xd0d ../Ether_bsp//libucosii_bsp.a(os_sem.o)
 .debug_info    0x0001a0a6     0x1383 ../Ether_bsp//libucosii_bsp.a(os_task.o)
 .debug_info    0x0001b429      0xa07 ../Ether_bsp//libucosii_bsp.a(os_time.o)
 .debug_info    0x0001be30      0xb8f ../Ether_bsp//libucosii_bsp.a(alt_sys_init.o)
 .debug_info    0x0001c9bf      0x9f9 ../Ether_bsp//libucosii_bsp.a(altera_avalon_jtag_uart_fd.o)
 .debug_info    0x0001d3b8      0x977 ../Ether_bsp//libucosii_bsp.a(altera_avalon_jtag_uart_init.o)
 .debug_info    0x0001dd2f      0x663 ../Ether_bsp//libucosii_bsp.a(altera_avalon_jtag_uart_ioctl.o)
 .debug_info    0x0001e392      0x81f ../Ether_bsp//libucosii_bsp.a(altera_avalon_jtag_uart_read.o)
 .debug_info    0x0001ebb1      0x816 ../Ether_bsp//libucosii_bsp.a(altera_avalon_jtag_uart_write.o)
 .debug_info    0x0001f3c7      0x3b2 ../Ether_bsp//libucosii_bsp.a(altera_avalon_timer_sc.o)
 .debug_info    0x0001f779      0x923 ../Ether_bsp//libucosii_bsp.a(altera_up_avalon_character_lcd.o)
 .debug_info    0x0002009c      0x46f ../Ether_bsp//libucosii_bsp.a(alt_alarm_start.o)
 .debug_info    0x0002050b      0x19c ../Ether_bsp//libucosii_bsp.a(alt_dcache_flush_all.o)
 .debug_info    0x000206a7      0x2de ../Ether_bsp//libucosii_bsp.a(alt_dev_llist_insert.o)
 .debug_info    0x00020985      0x136 ../Ether_bsp//libucosii_bsp.a(alt_do_ctors.o)
 .debug_info    0x00020abb      0x135 ../Ether_bsp//libucosii_bsp.a(alt_do_dtors.o)
 .debug_info    0x00020bf0      0x499 ../Ether_bsp//libucosii_bsp.a(alt_find_dev.o)
 .debug_info    0x00021089      0x189 ../Ether_bsp//libucosii_bsp.a(alt_icache_flush_all.o)
 .debug_info    0x00021212      0x4c0 ../Ether_bsp//libucosii_bsp.a(alt_iic.o)
 .debug_info    0x000216d2      0x341 ../Ether_bsp//libucosii_bsp.a(alt_iic_isr_register.o)
 .debug_info    0x00021a13      0x716 ../Ether_bsp//libucosii_bsp.a(alt_io_redirect.o)
 .debug_info    0x00022129       0xb1 ../Ether_bsp//libucosii_bsp.a(alt_irq_entry.o)
 .debug_info    0x000221da      0x2e7 ../Ether_bsp//libucosii_bsp.a(alt_irq_handler.o)
 .debug_info    0x000224c1      0x194 ../Ether_bsp//libucosii_bsp.a(alt_irq_vars.o)
 .debug_info    0x00022655      0x597 ../Ether_bsp//libucosii_bsp.a(alt_open.o)
 .debug_info    0x00022bec      0x438 ../Ether_bsp//libucosii_bsp.a(alt_tick.o)
 .debug_info    0x00023024      0x18a ../Ether_bsp//libucosii_bsp.a(altera_nios2_qsys_irq.o)
 .debug_info    0x000231ae       0xaa ../Ether_bsp//libucosii_bsp.a(os_cpu_a.o)
 .debug_info    0x00023258     0x12fa ../Ether_bsp//libucosii_bsp.a(os_cpu_c.o)
 .debug_info    0x00024552       0xb7 ../Ether_bsp//libucosii_bsp.a(alt_exception_entry.o)
 .debug_info    0x00024609      0x4a0 ../Ether_bsp//libucosii_bsp.a(alt_find_file.o)
 .debug_info    0x00024aa9      0x632 ../Ether_bsp//libucosii_bsp.a(alt_get_fd.o)
 .debug_info    0x000250db      0x1d1 ../Ether_bsp//libucosii_bsp.a(alt_icache_flush.o)
 .debug_info    0x000252ac      0x181 /OPT/altera/12.1/nios2eds/bin/gnu/H-i686-pc-linux-gnu/bin/../lib/gcc/nios2-elf/4.1.2/../../../../nios2-elf/lib/libc.a(lib_a-atexit.o)
 .debug_info    0x0002542d      0x93f /OPT/altera/12.1/nios2eds/bin/gnu/H-i686-pc-linux-gnu/bin/../lib/gcc/nios2-elf/4.1.2/../../../../nios2-elf/lib/libc.a(lib_a-exit.o)
 .debug_info    0x00025d6c      0x115 /OPT/altera/12.1/nios2eds/bin/gnu/H-i686-pc-linux-gnu/bin/../lib/gcc/nios2-elf/4.1.2/../../../../nios2-elf/lib/libc.a(lib_a-memcmp.o)
 .debug_info    0x00025e81      0x99c /OPT/altera/12.1/nios2eds/bin/gnu/H-i686-pc-linux-gnu/bin/../lib/gcc/nios2-elf/4.1.2/../../../../nios2-elf/lib/libc.a(lib_a-__atexit.o)
 .debug_info    0x0002681d      0x9e2 /OPT/altera/12.1/nios2eds/bin/gnu/H-i686-pc-linux-gnu/bin/../lib/gcc/nios2-elf/4.1.2/../../../../nios2-elf/lib/libc.a(lib_a-__call_atexit.o)
 .debug_info    0x000271ff      0x21c /OPT/altera/12.1/nios2eds/bin/gnu/H-i686-pc-linux-gnu/bin/../lib/gcc/nios2-elf/4.1.2/libgcc.a(lib2-divmod.o)
 .debug_info    0x0002741b      0x235 ../Ether_bsp//libucosii_bsp.a(alt_exit.o)

.debug_abbrev   0x00000000     0x69fd
 *(.debug_abbrev)
 .debug_abbrev  0x00000000       0x12 ../Ether_bsp//obj/HAL/src/crt0.o
 .debug_abbrev  0x00000012       0xb6 obj/default/hello_ucosii.o
 .debug_abbrev  0x000000c8      0x1ac /OPT/altera/12.1/nios2eds/bin/gnu/H-i686-pc-linux-gnu/bin/../lib/gcc/nios2-elf/4.1.2/../../../../nios2-elf/lib/libc.a(lib_a-puts.o)
 .debug_abbrev  0x00000274       0x8b /OPT/altera/12.1/nios2eds/bin/gnu/H-i686-pc-linux-gnu/bin/../lib/gcc/nios2-elf/4.1.2/../../../../nios2-elf/lib/libc.a(lib_a-strlen.o)
 .debug_abbrev  0x000002ff      0x1a3 /OPT/altera/12.1/nios2eds/bin/gnu/H-i686-pc-linux-gnu/bin/../lib/gcc/nios2-elf/4.1.2/../../../../nios2-elf/lib/libc.a(lib_a-fvwrite.o)
 .debug_abbrev  0x000004a2      0x157 /OPT/altera/12.1/nios2eds/bin/gnu/H-i686-pc-linux-gnu/bin/../lib/gcc/nios2-elf/4.1.2/../../../../nios2-elf/lib/libc.a(lib_a-impure.o)
 .debug_abbrev  0x000005f9      0x216 /OPT/altera/12.1/nios2eds/bin/gnu/H-i686-pc-linux-gnu/bin/../lib/gcc/nios2-elf/4.1.2/../../../../nios2-elf/lib/libc.a(lib_a-mallocr.o)
 .debug_abbrev  0x0000080f       0xb5 /OPT/altera/12.1/nios2eds/bin/gnu/H-i686-pc-linux-gnu/bin/../lib/gcc/nios2-elf/4.1.2/../../../../nios2-elf/lib/libc.a(lib_a-memchr.o)
 .debug_abbrev  0x000008c4       0xb5 /OPT/altera/12.1/nios2eds/bin/gnu/H-i686-pc-linux-gnu/bin/../lib/gcc/nios2-elf/4.1.2/../../../../nios2-elf/lib/libc.a(lib_a-memcpy.o)
 .debug_abbrev  0x00000979       0xb5 /OPT/altera/12.1/nios2eds/bin/gnu/H-i686-pc-linux-gnu/bin/../lib/gcc/nios2-elf/4.1.2/../../../../nios2-elf/lib/libc.a(lib_a-memmove.o)
 .debug_abbrev  0x00000a2e      0x1c3 /OPT/altera/12.1/nios2eds/bin/gnu/H-i686-pc-linux-gnu/bin/../lib/gcc/nios2-elf/4.1.2/../../../../nios2-elf/lib/libc.a(lib_a-reallocr.o)
 .debug_abbrev  0x00000bf1      0x18c /OPT/altera/12.1/nios2eds/bin/gnu/H-i686-pc-linux-gnu/bin/../lib/gcc/nios2-elf/4.1.2/../../../../nios2-elf/lib/libc.a(lib_a-sbrkr.o)
 .debug_abbrev  0x00000d7d      0x170 /OPT/altera/12.1/nios2eds/bin/gnu/H-i686-pc-linux-gnu/bin/../lib/gcc/nios2-elf/4.1.2/../../../../nios2-elf/lib/libc.a(lib_a-wsetup.o)
 .debug_abbrev  0x00000eed      0x1c6 /OPT/altera/12.1/nios2eds/bin/gnu/H-i686-pc-linux-gnu/bin/../lib/gcc/nios2-elf/4.1.2/../../../../nios2-elf/lib/libc.a(lib_a-fflush.o)
 .debug_abbrev  0x000010b3      0x24c /OPT/altera/12.1/nios2eds/bin/gnu/H-i686-pc-linux-gnu/bin/../lib/gcc/nios2-elf/4.1.2/../../../../nios2-elf/lib/libc.a(lib_a-findfp.o)
 .debug_abbrev  0x000012ff      0x1d9 /OPT/altera/12.1/nios2eds/bin/gnu/H-i686-pc-linux-gnu/bin/../lib/gcc/nios2-elf/4.1.2/../../../../nios2-elf/lib/libc.a(lib_a-freer.o)
 .debug_abbrev  0x000014d8      0x1e3 /OPT/altera/12.1/nios2eds/bin/gnu/H-i686-pc-linux-gnu/bin/../lib/gcc/nios2-elf/4.1.2/../../../../nios2-elf/lib/libc.a(lib_a-fwalk.o)
 .debug_abbrev  0x000016bb       0x3b /OPT/altera/12.1/nios2eds/bin/gnu/H-i686-pc-linux-gnu/bin/../lib/gcc/nios2-elf/4.1.2/../../../../nios2-elf/lib/libc.a(lib_a-int_errno.o)
 .debug_abbrev  0x000016f6      0x197 /OPT/altera/12.1/nios2eds/bin/gnu/H-i686-pc-linux-gnu/bin/../lib/gcc/nios2-elf/4.1.2/../../../../nios2-elf/lib/libc.a(lib_a-makebuf.o)
 .debug_abbrev  0x0000188d       0xb8 /OPT/altera/12.1/nios2eds/bin/gnu/H-i686-pc-linux-gnu/bin/../lib/gcc/nios2-elf/4.1.2/../../../../nios2-elf/lib/libc.a(lib_a-memset.o)
 .debug_abbrev  0x00001945      0x1c9 /OPT/altera/12.1/nios2eds/bin/gnu/H-i686-pc-linux-gnu/bin/../lib/gcc/nios2-elf/4.1.2/../../../../nios2-elf/lib/libc.a(lib_a-stdio.o)
 .debug_abbrev  0x00001b0e      0x184 /OPT/altera/12.1/nios2eds/bin/gnu/H-i686-pc-linux-gnu/bin/../lib/gcc/nios2-elf/4.1.2/../../../../nios2-elf/lib/libc.a(lib_a-writer.o)
 .debug_abbrev  0x00001c92      0x17f /OPT/altera/12.1/nios2eds/bin/gnu/H-i686-pc-linux-gnu/bin/../lib/gcc/nios2-elf/4.1.2/../../../../nios2-elf/lib/libc.a(lib_a-closer.o)
 .debug_abbrev  0x00001e11      0x1a7 /OPT/altera/12.1/nios2eds/bin/gnu/H-i686-pc-linux-gnu/bin/../lib/gcc/nios2-elf/4.1.2/../../../../nios2-elf/lib/libc.a(lib_a-fclose.o)
 .debug_abbrev  0x00001fb8      0x18e /OPT/altera/12.1/nios2eds/bin/gnu/H-i686-pc-linux-gnu/bin/../lib/gcc/nios2-elf/4.1.2/../../../../nios2-elf/lib/libc.a(lib_a-fstatr.o)
 .debug_abbrev  0x00002146      0x17f /OPT/altera/12.1/nios2eds/bin/gnu/H-i686-pc-linux-gnu/bin/../lib/gcc/nios2-elf/4.1.2/../../../../nios2-elf/lib/libc.a(lib_a-isattyr.o)
 .debug_abbrev  0x000022c5      0x18e /OPT/altera/12.1/nios2eds/bin/gnu/H-i686-pc-linux-gnu/bin/../lib/gcc/nios2-elf/4.1.2/../../../../nios2-elf/lib/libc.a(lib_a-lseekr.o)
 .debug_abbrev  0x00002453      0x17f /OPT/altera/12.1/nios2eds/bin/gnu/H-i686-pc-linux-gnu/bin/../lib/gcc/nios2-elf/4.1.2/../../../../nios2-elf/lib/libc.a(lib_a-readr.o)
 .debug_abbrev  0x000025d2      0x102 ../Ether_bsp//libucosii_bsp.a(alt_close.o)
 .debug_abbrev  0x000026d4      0x10a ../Ether_bsp//libucosii_bsp.a(alt_dev.o)
 .debug_abbrev  0x000027de       0x5e ../Ether_bsp//libucosii_bsp.a(alt_errno.o)
 .debug_abbrev  0x0000283c      0x102 ../Ether_bsp//libucosii_bsp.a(alt_fstat.o)
 .debug_abbrev  0x0000293e      0x102 ../Ether_bsp//libucosii_bsp.a(alt_isatty.o)
 .debug_abbrev  0x00002a40       0x88 ../Ether_bsp//libucosii_bsp.a(alt_load.o)
 .debug_abbrev  0x00002ac8      0x102 ../Ether_bsp//libucosii_bsp.a(alt_lseek.o)
 .debug_abbrev  0x00002bca      0x120 ../Ether_bsp//libucosii_bsp.a(alt_main.o)
 .debug_abbrev  0x00002cea      0x102 ../Ether_bsp//libucosii_bsp.a(alt_read.o)
 .debug_abbrev  0x00002dec       0xd3 ../Ether_bsp//libucosii_bsp.a(alt_release_fd.o)
 .debug_abbrev  0x00002ebf      0x115 ../Ether_bsp//libucosii_bsp.a(alt_sbrk.o)
 .debug_abbrev  0x00002fd4      0x107 ../Ether_bsp//libucosii_bsp.a(alt_write.o)
 .debug_abbrev  0x000030db      0x1b3 ../Ether_bsp//libucosii_bsp.a(alt_env_lock.o)
 .debug_abbrev  0x0000328e      0x234 ../Ether_bsp//libucosii_bsp.a(alt_malloc_lock.o)
 .debug_abbrev  0x000034c2      0x2aa ../Ether_bsp//libucosii_bsp.a(os_core.o)
 .debug_abbrev  0x0000376c      0x114 ../Ether_bsp//libucosii_bsp.a(os_dbg.o)
 .debug_abbrev  0x00003880      0x21b ../Ether_bsp//libucosii_bsp.a(os_flag.o)
 .debug_abbrev  0x00003a9b      0x235 ../Ether_bsp//libucosii_bsp.a(os_mem.o)
 .debug_abbrev  0x00003cd0      0x20d ../Ether_bsp//libucosii_bsp.a(os_q.o)
 .debug_abbrev  0x00003edd      0x20d ../Ether_bsp//libucosii_bsp.a(os_sem.o)
 .debug_abbrev  0x000040ea      0x20e ../Ether_bsp//libucosii_bsp.a(os_task.o)
 .debug_abbrev  0x000042f8      0x1de ../Ether_bsp//libucosii_bsp.a(os_time.o)
 .debug_abbrev  0x000044d6      0x197 ../Ether_bsp//libucosii_bsp.a(alt_sys_init.o)
 .debug_abbrev  0x0000466d      0x13c ../Ether_bsp//libucosii_bsp.a(altera_avalon_jtag_uart_fd.o)
 .debug_abbrev  0x000047a9      0x21e ../Ether_bsp//libucosii_bsp.a(altera_avalon_jtag_uart_init.o)
 .debug_abbrev  0x000049c7      0x135 ../Ether_bsp//libucosii_bsp.a(altera_avalon_jtag_uart_ioctl.o)
 .debug_abbrev  0x00004afc      0x1ee ../Ether_bsp//libucosii_bsp.a(altera_avalon_jtag_uart_read.o)
 .debug_abbrev  0x00004cea      0x1ea ../Ether_bsp//libucosii_bsp.a(altera_avalon_jtag_uart_write.o)
 .debug_abbrev  0x00004ed4      0x137 ../Ether_bsp//libucosii_bsp.a(altera_avalon_timer_sc.o)
 .debug_abbrev  0x0000500b      0x127 ../Ether_bsp//libucosii_bsp.a(altera_up_avalon_character_lcd.o)
 .debug_abbrev  0x00005132      0x172 ../Ether_bsp//libucosii_bsp.a(alt_alarm_start.o)
 .debug_abbrev  0x000052a4       0x57 ../Ether_bsp//libucosii_bsp.a(alt_dcache_flush_all.o)
 .debug_abbrev  0x000052fb       0xf6 ../Ether_bsp//libucosii_bsp.a(alt_dev_llist_insert.o)
 .debug_abbrev  0x000053f1       0x76 ../Ether_bsp//libucosii_bsp.a(alt_do_ctors.o)
 .debug_abbrev  0x00005467       0x76 ../Ether_bsp//libucosii_bsp.a(alt_do_dtors.o)
 .debug_abbrev  0x000054dd       0xd6 ../Ether_bsp//libucosii_bsp.a(alt_find_dev.o)
 .debug_abbrev  0x000055b3       0x3f ../Ether_bsp//libucosii_bsp.a(alt_icache_flush_all.o)
 .debug_abbrev  0x000055f2      0x134 ../Ether_bsp//libucosii_bsp.a(alt_iic.o)
 .debug_abbrev  0x00005726      0x14e ../Ether_bsp//libucosii_bsp.a(alt_iic_isr_register.o)
 .debug_abbrev  0x00005874       0xf7 ../Ether_bsp//libucosii_bsp.a(alt_io_redirect.o)
 .debug_abbrev  0x0000596b       0x12 ../Ether_bsp//libucosii_bsp.a(alt_irq_entry.o)
 .debug_abbrev  0x0000597d      0x124 ../Ether_bsp//libucosii_bsp.a(alt_irq_handler.o)
 .debug_abbrev  0x00005aa1       0x44 ../Ether_bsp//libucosii_bsp.a(alt_irq_vars.o)
 .debug_abbrev  0x00005ae5      0x119 ../Ether_bsp//libucosii_bsp.a(alt_open.o)
 .debug_abbrev  0x00005bfe      0x150 ../Ether_bsp//libucosii_bsp.a(alt_tick.o)
 .debug_abbrev  0x00005d4e       0x3f ../Ether_bsp//libucosii_bsp.a(altera_nios2_qsys_irq.o)
 .debug_abbrev  0x00005d8d       0x14 ../Ether_bsp//libucosii_bsp.a(os_cpu_a.o)
 .debug_abbrev  0x00005da1      0x1d0 ../Ether_bsp//libucosii_bsp.a(os_cpu_c.o)
 .debug_abbrev  0x00005f71       0x12 ../Ether_bsp//libucosii_bsp.a(alt_exception_entry.o)
 .debug_abbrev  0x00005f83       0xd6 ../Ether_bsp//libucosii_bsp.a(alt_find_file.o)
 .debug_abbrev  0x00006059      0x173 ../Ether_bsp//libucosii_bsp.a(alt_get_fd.o)
 .debug_abbrev  0x000061cc       0x7a ../Ether_bsp//libucosii_bsp.a(alt_icache_flush.o)
 .debug_abbrev  0x00006246       0xb7 /OPT/altera/12.1/nios2eds/bin/gnu/H-i686-pc-linux-gnu/bin/../lib/gcc/nios2-elf/4.1.2/../../../../nios2-elf/lib/libc.a(lib_a-atexit.o)
 .debug_abbrev  0x000062fd      0x16e /OPT/altera/12.1/nios2eds/bin/gnu/H-i686-pc-linux-gnu/bin/../lib/gcc/nios2-elf/4.1.2/../../../../nios2-elf/lib/libc.a(lib_a-exit.o)
 .debug_abbrev  0x0000646b       0x7c /OPT/altera/12.1/nios2eds/bin/gnu/H-i686-pc-linux-gnu/bin/../lib/gcc/nios2-elf/4.1.2/../../../../nios2-elf/lib/libc.a(lib_a-memcmp.o)
 .debug_abbrev  0x000064e7      0x1ae /OPT/altera/12.1/nios2eds/bin/gnu/H-i686-pc-linux-gnu/bin/../lib/gcc/nios2-elf/4.1.2/../../../../nios2-elf/lib/libc.a(lib_a-__atexit.o)
 .debug_abbrev  0x00006695      0x1de /OPT/altera/12.1/nios2eds/bin/gnu/H-i686-pc-linux-gnu/bin/../lib/gcc/nios2-elf/4.1.2/../../../../nios2-elf/lib/libc.a(lib_a-__call_atexit.o)
 .debug_abbrev  0x00006873       0xe0 /OPT/altera/12.1/nios2eds/bin/gnu/H-i686-pc-linux-gnu/bin/../lib/gcc/nios2-elf/4.1.2/libgcc.a(lib2-divmod.o)
 .debug_abbrev  0x00006953       0xaa ../Ether_bsp//libucosii_bsp.a(alt_exit.o)

.debug_line     0x00000000    0x14877
 *(.debug_line)
 .debug_line    0x00000000       0x72 ../Ether_bsp//obj/HAL/src/crt0.o
 .debug_line    0x00000072      0x2de obj/default/hello_ucosii.o
 .debug_line    0x00000350      0x2f7 /OPT/altera/12.1/nios2eds/bin/gnu/H-i686-pc-linux-gnu/bin/../lib/gcc/nios2-elf/4.1.2/../../../../nios2-elf/lib/libc.a(lib_a-puts.o)
 .debug_line    0x00000647      0x26d /OPT/altera/12.1/nios2eds/bin/gnu/H-i686-pc-linux-gnu/bin/../lib/gcc/nios2-elf/4.1.2/../../../../nios2-elf/lib/libc.a(lib_a-strlen.o)
 .debug_line    0x000008b4      0x641 /OPT/altera/12.1/nios2eds/bin/gnu/H-i686-pc-linux-gnu/bin/../lib/gcc/nios2-elf/4.1.2/../../../../nios2-elf/lib/libc.a(lib_a-fvwrite.o)
 .debug_line    0x00000ef5      0x22d /OPT/altera/12.1/nios2eds/bin/gnu/H-i686-pc-linux-gnu/bin/../lib/gcc/nios2-elf/4.1.2/../../../../nios2-elf/lib/libc.a(lib_a-impure.o)
 .debug_line    0x00001122      0x80a /OPT/altera/12.1/nios2eds/bin/gnu/H-i686-pc-linux-gnu/bin/../lib/gcc/nios2-elf/4.1.2/../../../../nios2-elf/lib/libc.a(lib_a-mallocr.o)
 .debug_line    0x0000192c      0x303 /OPT/altera/12.1/nios2eds/bin/gnu/H-i686-pc-linux-gnu/bin/../lib/gcc/nios2-elf/4.1.2/../../../../nios2-elf/lib/libc.a(lib_a-memchr.o)
 .debug_line    0x00001c2f      0x1ac /OPT/altera/12.1/nios2eds/bin/gnu/H-i686-pc-linux-gnu/bin/../lib/gcc/nios2-elf/4.1.2/../../../../nios2-elf/lib/libc.a(lib_a-memcpy.o)
 .debug_line    0x00001ddb      0x30a /OPT/altera/12.1/nios2eds/bin/gnu/H-i686-pc-linux-gnu/bin/../lib/gcc/nios2-elf/4.1.2/../../../../nios2-elf/lib/libc.a(lib_a-memmove.o)
 .debug_line    0x000020e5      0x58a /OPT/altera/12.1/nios2eds/bin/gnu/H-i686-pc-linux-gnu/bin/../lib/gcc/nios2-elf/4.1.2/../../../../nios2-elf/lib/libc.a(lib_a-reallocr.o)
 .debug_line    0x0000266f      0x299 /OPT/altera/12.1/nios2eds/bin/gnu/H-i686-pc-linux-gnu/bin/../lib/gcc/nios2-elf/4.1.2/../../../../nios2-elf/lib/libc.a(lib_a-sbrkr.o)
 .debug_line    0x00002908      0x2f0 /OPT/altera/12.1/nios2eds/bin/gnu/H-i686-pc-linux-gnu/bin/../lib/gcc/nios2-elf/4.1.2/../../../../nios2-elf/lib/libc.a(lib_a-wsetup.o)
 .debug_line    0x00002bf8      0x40d /OPT/altera/12.1/nios2eds/bin/gnu/H-i686-pc-linux-gnu/bin/../lib/gcc/nios2-elf/4.1.2/../../../../nios2-elf/lib/libc.a(lib_a-fflush.o)
 .debug_line    0x00003005      0x601 /OPT/altera/12.1/nios2eds/bin/gnu/H-i686-pc-linux-gnu/bin/../lib/gcc/nios2-elf/4.1.2/../../../../nios2-elf/lib/libc.a(lib_a-findfp.o)
 .debug_line    0x00003606      0x5eb /OPT/altera/12.1/nios2eds/bin/gnu/H-i686-pc-linux-gnu/bin/../lib/gcc/nios2-elf/4.1.2/../../../../nios2-elf/lib/libc.a(lib_a-freer.o)
 .debug_line    0x00003bf1      0x34a /OPT/altera/12.1/nios2eds/bin/gnu/H-i686-pc-linux-gnu/bin/../lib/gcc/nios2-elf/4.1.2/../../../../nios2-elf/lib/libc.a(lib_a-fwalk.o)
 .debug_line    0x00003f3b      0x1df /OPT/altera/12.1/nios2eds/bin/gnu/H-i686-pc-linux-gnu/bin/../lib/gcc/nios2-elf/4.1.2/../../../../nios2-elf/lib/libc.a(lib_a-int_errno.o)
 .debug_line    0x0000411a      0x3c3 /OPT/altera/12.1/nios2eds/bin/gnu/H-i686-pc-linux-gnu/bin/../lib/gcc/nios2-elf/4.1.2/../../../../nios2-elf/lib/libc.a(lib_a-makebuf.o)
 .debug_line    0x000044dd      0x301 /OPT/altera/12.1/nios2eds/bin/gnu/H-i686-pc-linux-gnu/bin/../lib/gcc/nios2-elf/4.1.2/../../../../nios2-elf/lib/libc.a(lib_a-memset.o)
 .debug_line    0x000047de      0x38c /OPT/altera/12.1/nios2eds/bin/gnu/H-i686-pc-linux-gnu/bin/../lib/gcc/nios2-elf/4.1.2/../../../../nios2-elf/lib/libc.a(lib_a-stdio.o)
 .debug_line    0x00004b6a      0x29a /OPT/altera/12.1/nios2eds/bin/gnu/H-i686-pc-linux-gnu/bin/../lib/gcc/nios2-elf/4.1.2/../../../../nios2-elf/lib/libc.a(lib_a-writer.o)
 .debug_line    0x00004e04      0x29a /OPT/altera/12.1/nios2eds/bin/gnu/H-i686-pc-linux-gnu/bin/../lib/gcc/nios2-elf/4.1.2/../../../../nios2-elf/lib/libc.a(lib_a-closer.o)
 .debug_line    0x0000509e      0x2e8 /OPT/altera/12.1/nios2eds/bin/gnu/H-i686-pc-linux-gnu/bin/../lib/gcc/nios2-elf/4.1.2/../../../../nios2-elf/lib/libc.a(lib_a-fclose.o)
 .debug_line    0x00005386      0x264 /OPT/altera/12.1/nios2eds/bin/gnu/H-i686-pc-linux-gnu/bin/../lib/gcc/nios2-elf/4.1.2/../../../../nios2-elf/lib/libc.a(lib_a-fstatr.o)
 .debug_line    0x000055ea      0x29b /OPT/altera/12.1/nios2eds/bin/gnu/H-i686-pc-linux-gnu/bin/../lib/gcc/nios2-elf/4.1.2/../../../../nios2-elf/lib/libc.a(lib_a-isattyr.o)
 .debug_line    0x00005885      0x29a /OPT/altera/12.1/nios2eds/bin/gnu/H-i686-pc-linux-gnu/bin/../lib/gcc/nios2-elf/4.1.2/../../../../nios2-elf/lib/libc.a(lib_a-lseekr.o)
 .debug_line    0x00005b1f      0x299 /OPT/altera/12.1/nios2eds/bin/gnu/H-i686-pc-linux-gnu/bin/../lib/gcc/nios2-elf/4.1.2/../../../../nios2-elf/lib/libc.a(lib_a-readr.o)
 .debug_line    0x00005db8      0x301 ../Ether_bsp//libucosii_bsp.a(alt_close.o)
 .debug_line    0x000060b9      0x2c2 ../Ether_bsp//libucosii_bsp.a(alt_dev.o)
 .debug_line    0x0000637b      0x1b2 ../Ether_bsp//libucosii_bsp.a(alt_errno.o)
 .debug_line    0x0000652d      0x309 ../Ether_bsp//libucosii_bsp.a(alt_fstat.o)
 .debug_line    0x00006836      0x30a ../Ether_bsp//libucosii_bsp.a(alt_isatty.o)
 .debug_line    0x00006b40      0x21f ../Ether_bsp//libucosii_bsp.a(alt_load.o)
 .debug_line    0x00006d5f      0x309 ../Ether_bsp//libucosii_bsp.a(alt_lseek.o)
 .debug_line    0x00007068      0x351 ../Ether_bsp//libucosii_bsp.a(alt_main.o)
 .debug_line    0x000073b9      0x330 ../Ether_bsp//libucosii_bsp.a(alt_read.o)
 .debug_line    0x000076e9      0x281 ../Ether_bsp//libucosii_bsp.a(alt_release_fd.o)
 .debug_line    0x0000796a      0x269 ../Ether_bsp//libucosii_bsp.a(alt_sbrk.o)
 .debug_line    0x00007bd3      0x331 ../Ether_bsp//libucosii_bsp.a(alt_write.o)
 .debug_line    0x00007f04      0x2c7 ../Ether_bsp//libucosii_bsp.a(alt_env_lock.o)
 .debug_line    0x000081cb      0x383 ../Ether_bsp//libucosii_bsp.a(alt_malloc_lock.o)
 .debug_line    0x0000854e     0x166b ../Ether_bsp//libucosii_bsp.a(os_core.o)
 .debug_line    0x00009bb9      0x390 ../Ether_bsp//libucosii_bsp.a(os_dbg.o)
 .debug_line    0x00009f49     0x11ef ../Ether_bsp//libucosii_bsp.a(os_flag.o)
 .debug_line    0x0000b138      0x792 ../Ether_bsp//libucosii_bsp.a(os_mem.o)
 .debug_line    0x0000b8ca      0xe73 ../Ether_bsp//libucosii_bsp.a(os_q.o)
 .debug_line    0x0000c73d      0xa2b ../Ether_bsp//libucosii_bsp.a(os_sem.o)
 .debug_line    0x0000d168     0x1134 ../Ether_bsp//libucosii_bsp.a(os_task.o)
 .debug_line    0x0000e29c      0x537 ../Ether_bsp//libucosii_bsp.a(os_time.o)
 .debug_line    0x0000e7d3      0x392 ../Ether_bsp//libucosii_bsp.a(alt_sys_init.o)
 .debug_line    0x0000eb65      0x321 ../Ether_bsp//libucosii_bsp.a(altera_avalon_jtag_uart_fd.o)
 .debug_line    0x0000ee86      0x5a0 ../Ether_bsp//libucosii_bsp.a(altera_avalon_jtag_uart_init.o)
 .debug_line    0x0000f426      0x35e ../Ether_bsp//libucosii_bsp.a(altera_avalon_jtag_uart_ioctl.o)
 .debug_line    0x0000f784      0x49c ../Ether_bsp//libucosii_bsp.a(altera_avalon_jtag_uart_read.o)
 .debug_line    0x0000fc20      0x4aa ../Ether_bsp//libucosii_bsp.a(altera_avalon_jtag_uart_write.o)
 .debug_line    0x000100ca      0x2bb ../Ether_bsp//libucosii_bsp.a(altera_avalon_timer_sc.o)
 .debug_line    0x00010385      0x4cd ../Ether_bsp//libucosii_bsp.a(altera_up_avalon_character_lcd.o)
 .debug_line    0x00010852      0x2e4 ../Ether_bsp//libucosii_bsp.a(alt_alarm_start.o)
 .debug_line    0x00010b36      0x1d5 ../Ether_bsp//libucosii_bsp.a(alt_dcache_flush_all.o)
 .debug_line    0x00010d0b      0x262 ../Ether_bsp//libucosii_bsp.a(alt_dev_llist_insert.o)
 .debug_line    0x00010f6d       0x83 ../Ether_bsp//libucosii_bsp.a(alt_do_ctors.o)
 .debug_line    0x00010ff0       0x83 ../Ether_bsp//libucosii_bsp.a(alt_do_dtors.o)
 .debug_line    0x00011073      0x2e2 ../Ether_bsp//libucosii_bsp.a(alt_find_dev.o)
 .debug_line    0x00011355      0x1c5 ../Ether_bsp//libucosii_bsp.a(alt_icache_flush_all.o)
 .debug_line    0x0001151a      0x2d0 ../Ether_bsp//libucosii_bsp.a(alt_iic.o)
 .debug_line    0x000117ea      0x251 ../Ether_bsp//libucosii_bsp.a(alt_iic_isr_register.o)
 .debug_line    0x00011a3b      0x32b ../Ether_bsp//libucosii_bsp.a(alt_io_redirect.o)
 .debug_line    0x00011d66       0x6b ../Ether_bsp//libucosii_bsp.a(alt_irq_entry.o)
 .debug_line    0x00011dd1      0x2cc ../Ether_bsp//libucosii_bsp.a(alt_irq_handler.o)
 .debug_line    0x0001209d       0x72 ../Ether_bsp//libucosii_bsp.a(alt_irq_vars.o)
 .debug_line    0x0001210f      0x367 ../Ether_bsp//libucosii_bsp.a(alt_open.o)
 .debug_line    0x00012476      0x31e ../Ether_bsp//libucosii_bsp.a(alt_tick.o)
 .debug_line    0x00012794      0x1d6 ../Ether_bsp//libucosii_bsp.a(altera_nios2_qsys_irq.o)
 .debug_line    0x0001296a       0x86 ../Ether_bsp//libucosii_bsp.a(os_cpu_a.o)
 .debug_line    0x000129f0      0x330 ../Ether_bsp//libucosii_bsp.a(os_cpu_c.o)
 .debug_line    0x00012d20       0xab ../Ether_bsp//libucosii_bsp.a(alt_exception_entry.o)
 .debug_line    0x00012dcb      0x2f3 ../Ether_bsp//libucosii_bsp.a(alt_find_file.o)
 .debug_line    0x000130be      0x323 ../Ether_bsp//libucosii_bsp.a(alt_get_fd.o)
 .debug_line    0x000133e1      0x201 ../Ether_bsp//libucosii_bsp.a(alt_icache_flush.o)
 .debug_line    0x000135e2      0x200 /OPT/altera/12.1/nios2eds/bin/gnu/H-i686-pc-linux-gnu/bin/../lib/gcc/nios2-elf/4.1.2/../../../../nios2-elf/lib/libc.a(lib_a-atexit.o)
 .debug_line    0x000137e2      0x238 /OPT/altera/12.1/nios2eds/bin/gnu/H-i686-pc-linux-gnu/bin/../lib/gcc/nios2-elf/4.1.2/../../../../nios2-elf/lib/libc.a(lib_a-exit.o)
 .debug_line    0x00013a1a      0x29f /OPT/altera/12.1/nios2eds/bin/gnu/H-i686-pc-linux-gnu/bin/../lib/gcc/nios2-elf/4.1.2/../../../../nios2-elf/lib/libc.a(lib_a-memcmp.o)
 .debug_line    0x00013cb9      0x313 /OPT/altera/12.1/nios2eds/bin/gnu/H-i686-pc-linux-gnu/bin/../lib/gcc/nios2-elf/4.1.2/../../../../nios2-elf/lib/libc.a(lib_a-__atexit.o)
 .debug_line    0x00013fcc      0x367 /OPT/altera/12.1/nios2eds/bin/gnu/H-i686-pc-linux-gnu/bin/../lib/gcc/nios2-elf/4.1.2/../../../../nios2-elf/lib/libc.a(lib_a-__call_atexit.o)
 .debug_line    0x00014333      0x2c6 /OPT/altera/12.1/nios2eds/bin/gnu/H-i686-pc-linux-gnu/bin/../lib/gcc/nios2-elf/4.1.2/libgcc.a(lib2-divmod.o)
 .debug_line    0x000145f9      0x27e ../Ether_bsp//libucosii_bsp.a(alt_exit.o)

.debug_frame    0x00000000     0x1e44
 *(.debug_frame)
 .debug_frame   0x00000000       0x64 obj/default/hello_ucosii.o
 .debug_frame   0x00000064       0x3c /OPT/altera/12.1/nios2eds/bin/gnu/H-i686-pc-linux-gnu/bin/../lib/gcc/nios2-elf/4.1.2/../../../../nios2-elf/lib/libc.a(lib_a-puts.o)
 .debug_frame   0x000000a0       0x20 /OPT/altera/12.1/nios2eds/bin/gnu/H-i686-pc-linux-gnu/bin/../lib/gcc/nios2-elf/4.1.2/../../../../nios2-elf/lib/libc.a(lib_a-strlen.o)
 .debug_frame   0x000000c0       0x38 /OPT/altera/12.1/nios2eds/bin/gnu/H-i686-pc-linux-gnu/bin/../lib/gcc/nios2-elf/4.1.2/../../../../nios2-elf/lib/libc.a(lib_a-fvwrite.o)
 .debug_frame   0x000000f8       0x38 /OPT/altera/12.1/nios2eds/bin/gnu/H-i686-pc-linux-gnu/bin/../lib/gcc/nios2-elf/4.1.2/../../../../nios2-elf/lib/libc.a(lib_a-mallocr.o)
 .debug_frame   0x00000130       0x20 /OPT/altera/12.1/nios2eds/bin/gnu/H-i686-pc-linux-gnu/bin/../lib/gcc/nios2-elf/4.1.2/../../../../nios2-elf/lib/libc.a(lib_a-memchr.o)
 .debug_frame   0x00000150       0x20 /OPT/altera/12.1/nios2eds/bin/gnu/H-i686-pc-linux-gnu/bin/../lib/gcc/nios2-elf/4.1.2/../../../../nios2-elf/lib/libc.a(lib_a-memcpy.o)
 .debug_frame   0x00000170       0x20 /OPT/altera/12.1/nios2eds/bin/gnu/H-i686-pc-linux-gnu/bin/../lib/gcc/nios2-elf/4.1.2/../../../../nios2-elf/lib/libc.a(lib_a-memmove.o)
 .debug_frame   0x00000190       0x38 /OPT/altera/12.1/nios2eds/bin/gnu/H-i686-pc-linux-gnu/bin/../lib/gcc/nios2-elf/4.1.2/../../../../nios2-elf/lib/libc.a(lib_a-reallocr.o)
 .debug_frame   0x000001c8       0x2c /OPT/altera/12.1/nios2eds/bin/gnu/H-i686-pc-linux-gnu/bin/../lib/gcc/nios2-elf/4.1.2/../../../../nios2-elf/lib/libc.a(lib_a-sbrkr.o)
 .debug_frame   0x000001f4       0x2c /OPT/altera/12.1/nios2eds/bin/gnu/H-i686-pc-linux-gnu/bin/../lib/gcc/nios2-elf/4.1.2/../../../../nios2-elf/lib/libc.a(lib_a-wsetup.o)
 .debug_frame   0x00000220       0x40 /OPT/altera/12.1/nios2eds/bin/gnu/H-i686-pc-linux-gnu/bin/../lib/gcc/nios2-elf/4.1.2/../../../../nios2-elf/lib/libc.a(lib_a-fflush.o)
 .debug_frame   0x00000260      0x118 /OPT/altera/12.1/nios2eds/bin/gnu/H-i686-pc-linux-gnu/bin/../lib/gcc/nios2-elf/4.1.2/../../../../nios2-elf/lib/libc.a(lib_a-findfp.o)
 .debug_frame   0x00000378       0x4c /OPT/altera/12.1/nios2eds/bin/gnu/H-i686-pc-linux-gnu/bin/../lib/gcc/nios2-elf/4.1.2/../../../../nios2-elf/lib/libc.a(lib_a-freer.o)
 .debug_frame   0x000003c4       0x60 /OPT/altera/12.1/nios2eds/bin/gnu/H-i686-pc-linux-gnu/bin/../lib/gcc/nios2-elf/4.1.2/../../../../nios2-elf/lib/libc.a(lib_a-fwalk.o)
 .debug_frame   0x00000424       0x2c /OPT/altera/12.1/nios2eds/bin/gnu/H-i686-pc-linux-gnu/bin/../lib/gcc/nios2-elf/4.1.2/../../../../nios2-elf/lib/libc.a(lib_a-makebuf.o)
 .debug_frame   0x00000450       0x20 /OPT/altera/12.1/nios2eds/bin/gnu/H-i686-pc-linux-gnu/bin/../lib/gcc/nios2-elf/4.1.2/../../../../nios2-elf/lib/libc.a(lib_a-memset.o)
 .debug_frame   0x00000470       0x78 /OPT/altera/12.1/nios2eds/bin/gnu/H-i686-pc-linux-gnu/bin/../lib/gcc/nios2-elf/4.1.2/../../../../nios2-elf/lib/libc.a(lib_a-stdio.o)
 .debug_frame   0x000004e8       0x2c /OPT/altera/12.1/nios2eds/bin/gnu/H-i686-pc-linux-gnu/bin/../lib/gcc/nios2-elf/4.1.2/../../../../nios2-elf/lib/libc.a(lib_a-writer.o)
 .debug_frame   0x00000514       0x2c /OPT/altera/12.1/nios2eds/bin/gnu/H-i686-pc-linux-gnu/bin/../lib/gcc/nios2-elf/4.1.2/../../../../nios2-elf/lib/libc.a(lib_a-closer.o)
 .debug_frame   0x00000540       0x3c /OPT/altera/12.1/nios2eds/bin/gnu/H-i686-pc-linux-gnu/bin/../lib/gcc/nios2-elf/4.1.2/../../../../nios2-elf/lib/libc.a(lib_a-fclose.o)
 .debug_frame   0x0000057c       0x2c /OPT/altera/12.1/nios2eds/bin/gnu/H-i686-pc-linux-gnu/bin/../lib/gcc/nios2-elf/4.1.2/../../../../nios2-elf/lib/libc.a(lib_a-fstatr.o)
 .debug_frame   0x000005a8       0x2c /OPT/altera/12.1/nios2eds/bin/gnu/H-i686-pc-linux-gnu/bin/../lib/gcc/nios2-elf/4.1.2/../../../../nios2-elf/lib/libc.a(lib_a-isattyr.o)
 .debug_frame   0x000005d4       0x2c /OPT/altera/12.1/nios2eds/bin/gnu/H-i686-pc-linux-gnu/bin/../lib/gcc/nios2-elf/4.1.2/../../../../nios2-elf/lib/libc.a(lib_a-lseekr.o)
 .debug_frame   0x00000600       0x2c /OPT/altera/12.1/nios2eds/bin/gnu/H-i686-pc-linux-gnu/bin/../lib/gcc/nios2-elf/4.1.2/../../../../nios2-elf/lib/libc.a(lib_a-readr.o)
 .debug_frame   0x0000062c       0x48 ../Ether_bsp//libucosii_bsp.a(alt_close.o)
 .debug_frame   0x00000674       0x2c ../Ether_bsp//libucosii_bsp.a(alt_dev.o)
 .debug_frame   0x000006a0       0x48 ../Ether_bsp//libucosii_bsp.a(alt_fstat.o)
 .debug_frame   0x000006e8       0x48 ../Ether_bsp//libucosii_bsp.a(alt_isatty.o)
 .debug_frame   0x00000730       0x48 ../Ether_bsp//libucosii_bsp.a(alt_load.o)
 .debug_frame   0x00000778       0x48 ../Ether_bsp//libucosii_bsp.a(alt_lseek.o)
 .debug_frame   0x000007c0       0x2c ../Ether_bsp//libucosii_bsp.a(alt_main.o)
 .debug_frame   0x000007ec       0x48 ../Ether_bsp//libucosii_bsp.a(alt_read.o)
 .debug_frame   0x00000834       0x2c ../Ether_bsp//libucosii_bsp.a(alt_release_fd.o)
 .debug_frame   0x00000860       0x2c ../Ether_bsp//libucosii_bsp.a(alt_sbrk.o)
 .debug_frame   0x0000088c       0x48 ../Ether_bsp//libucosii_bsp.a(alt_write.o)
 .debug_frame   0x000008d4       0x4c ../Ether_bsp//libucosii_bsp.a(alt_env_lock.o)
 .debug_frame   0x00000920       0x4c ../Ether_bsp//libucosii_bsp.a(alt_malloc_lock.o)
 .debug_frame   0x0000096c      0x3e4 ../Ether_bsp//libucosii_bsp.a(os_core.o)
 .debug_frame   0x00000d50       0x2c ../Ether_bsp//libucosii_bsp.a(os_dbg.o)
 .debug_frame   0x00000d7c      0x180 ../Ether_bsp//libucosii_bsp.a(os_flag.o)
 .debug_frame   0x00000efc       0xd4 ../Ether_bsp//libucosii_bsp.a(os_mem.o)
 .debug_frame   0x00000fd0      0x144 ../Ether_bsp//libucosii_bsp.a(os_q.o)
 .debug_frame   0x00001114       0xf0 ../Ether_bsp//libucosii_bsp.a(os_sem.o)
 .debug_frame   0x00001204      0x160 ../Ether_bsp//libucosii_bsp.a(os_task.o)
 .debug_frame   0x00001364       0xa0 ../Ether_bsp//libucosii_bsp.a(os_time.o)
 .debug_frame   0x00001404       0x64 ../Ether_bsp//libucosii_bsp.a(alt_sys_init.o)
 .debug_frame   0x00001468       0x80 ../Ether_bsp//libucosii_bsp.a(altera_avalon_jtag_uart_fd.o)
 .debug_frame   0x000014e8       0x80 ../Ether_bsp//libucosii_bsp.a(altera_avalon_jtag_uart_init.o)
 .debug_frame   0x00001568       0x2c ../Ether_bsp//libucosii_bsp.a(altera_avalon_jtag_uart_ioctl.o)
 .debug_frame   0x00001594       0x2c ../Ether_bsp//libucosii_bsp.a(altera_avalon_jtag_uart_read.o)
 .debug_frame   0x000015c0       0x2c ../Ether_bsp//libucosii_bsp.a(altera_avalon_jtag_uart_write.o)
 .debug_frame   0x000015ec       0x48 ../Ether_bsp//libucosii_bsp.a(altera_avalon_timer_sc.o)
 .debug_frame   0x00001634      0x17c ../Ether_bsp//libucosii_bsp.a(altera_up_avalon_character_lcd.o)
 .debug_frame   0x000017b0       0x2c ../Ether_bsp//libucosii_bsp.a(alt_alarm_start.o)
 .debug_frame   0x000017dc       0x2c ../Ether_bsp//libucosii_bsp.a(alt_dcache_flush_all.o)
 .debug_frame   0x00001808       0x48 ../Ether_bsp//libucosii_bsp.a(alt_dev_llist_insert.o)
 .debug_frame   0x00001850       0x2c ../Ether_bsp//libucosii_bsp.a(alt_do_ctors.o)
 .debug_frame   0x0000187c       0x2c ../Ether_bsp//libucosii_bsp.a(alt_do_dtors.o)
 .debug_frame   0x000018a8       0x2c ../Ether_bsp//libucosii_bsp.a(alt_find_dev.o)
 .debug_frame   0x000018d4       0x2c ../Ether_bsp//libucosii_bsp.a(alt_icache_flush_all.o)
 .debug_frame   0x00001900       0x80 ../Ether_bsp//libucosii_bsp.a(alt_iic.o)
 .debug_frame   0x00001980       0x2c ../Ether_bsp//libucosii_bsp.a(alt_iic_isr_register.o)
 .debug_frame   0x000019ac       0x48 ../Ether_bsp//libucosii_bsp.a(alt_io_redirect.o)
 .debug_frame   0x000019f4       0x2c ../Ether_bsp//libucosii_bsp.a(alt_irq_handler.o)
 .debug_frame   0x00001a20       0x64 ../Ether_bsp//libucosii_bsp.a(alt_open.o)
 .debug_frame   0x00001a84       0x48 ../Ether_bsp//libucosii_bsp.a(alt_tick.o)
 .debug_frame   0x00001acc       0x2c ../Ether_bsp//libucosii_bsp.a(altera_nios2_qsys_irq.o)
 .debug_frame   0x00001af8      0x128 ../Ether_bsp//libucosii_bsp.a(os_cpu_c.o)
 .debug_frame   0x00001c20       0x2c ../Ether_bsp//libucosii_bsp.a(alt_find_file.o)
 .debug_frame   0x00001c4c       0x2c ../Ether_bsp//libucosii_bsp.a(alt_get_fd.o)
 .debug_frame   0x00001c78       0x2c ../Ether_bsp//libucosii_bsp.a(alt_icache_flush.o)
 .debug_frame   0x00001ca4       0x20 /OPT/altera/12.1/nios2eds/bin/gnu/H-i686-pc-linux-gnu/bin/../lib/gcc/nios2-elf/4.1.2/../../../../nios2-elf/lib/libc.a(lib_a-atexit.o)
 .debug_frame   0x00001cc4       0x28 /OPT/altera/12.1/nios2eds/bin/gnu/H-i686-pc-linux-gnu/bin/../lib/gcc/nios2-elf/4.1.2/../../../../nios2-elf/lib/libc.a(lib_a-exit.o)
 .debug_frame   0x00001cec       0x20 /OPT/altera/12.1/nios2eds/bin/gnu/H-i686-pc-linux-gnu/bin/../lib/gcc/nios2-elf/4.1.2/../../../../nios2-elf/lib/libc.a(lib_a-memcmp.o)
 .debug_frame   0x00001d0c       0x34 /OPT/altera/12.1/nios2eds/bin/gnu/H-i686-pc-linux-gnu/bin/../lib/gcc/nios2-elf/4.1.2/../../../../nios2-elf/lib/libc.a(lib_a-__atexit.o)
 .debug_frame   0x00001d40       0x4c /OPT/altera/12.1/nios2eds/bin/gnu/H-i686-pc-linux-gnu/bin/../lib/gcc/nios2-elf/4.1.2/../../../../nios2-elf/lib/libc.a(lib_a-__call_atexit.o)
 .debug_frame   0x00001d8c       0x70 /OPT/altera/12.1/nios2eds/bin/gnu/H-i686-pc-linux-gnu/bin/../lib/gcc/nios2-elf/4.1.2/libgcc.a(lib2-divmod.o)
 .debug_frame   0x00001dfc       0x48 ../Ether_bsp//libucosii_bsp.a(alt_exit.o)

.debug_str      0x00000000     0x19cf
 *(.debug_str)
 .debug_str     0x00000000       0x12 obj/default/hello_ucosii.o
 .debug_str     0x00000012      0x4d4 /OPT/altera/12.1/nios2eds/bin/gnu/H-i686-pc-linux-gnu/bin/../lib/gcc/nios2-elf/4.1.2/../../../../nios2-elf/lib/libc.a(lib_a-puts.o)
                                0x54e (size before relaxing)
 .debug_str     0x000004e6       0xe0 /OPT/altera/12.1/nios2eds/bin/gnu/H-i686-pc-linux-gnu/bin/../lib/gcc/nios2-elf/4.1.2/../../../../nios2-elf/lib/libc.a(lib_a-strlen.o)
                                0x182 (size before relaxing)
 .debug_str     0x000005c6       0x66 /OPT/altera/12.1/nios2eds/bin/gnu/H-i686-pc-linux-gnu/bin/../lib/gcc/nios2-elf/4.1.2/../../../../nios2-elf/lib/libc.a(lib_a-fvwrite.o)
                                0x568 (size before relaxing)
 .debug_str     0x0000062c       0xe9 /OPT/altera/12.1/nios2eds/bin/gnu/H-i686-pc-linux-gnu/bin/../lib/gcc/nios2-elf/4.1.2/../../../../nios2-elf/lib/libc.a(lib_a-impure.o)
                                0x51f (size before relaxing)
 .debug_str     0x00000715      0x29f /OPT/altera/12.1/nios2eds/bin/gnu/H-i686-pc-linux-gnu/bin/../lib/gcc/nios2-elf/4.1.2/../../../../nios2-elf/lib/libc.a(lib_a-mallocr.o)
                                0x6f6 (size before relaxing)
 .debug_str     0x000009b4       0x63 /OPT/altera/12.1/nios2eds/bin/gnu/H-i686-pc-linux-gnu/bin/../lib/gcc/nios2-elf/4.1.2/../../../../nios2-elf/lib/libc.a(lib_a-memchr.o)
                                0x190 (size before relaxing)
 .debug_str     0x00000a17       0x69 /OPT/altera/12.1/nios2eds/bin/gnu/H-i686-pc-linux-gnu/bin/../lib/gcc/nios2-elf/4.1.2/../../../../nios2-elf/lib/libc.a(lib_a-memcpy.o)
                                0x12d (size before relaxing)
 .debug_str     0x00000a80       0x4d /OPT/altera/12.1/nios2eds/bin/gnu/H-i686-pc-linux-gnu/bin/../lib/gcc/nios2-elf/4.1.2/../../../../nios2-elf/lib/libc.a(lib_a-memmove.o)
                                0x1a2 (size before relaxing)
 .debug_str     0x00000acd       0x59 /OPT/altera/12.1/nios2eds/bin/gnu/H-i686-pc-linux-gnu/bin/../lib/gcc/nios2-elf/4.1.2/../../../../nios2-elf/lib/libc.a(lib_a-reallocr.o)
                                0x5c8 (size before relaxing)
 .debug_str     0x00000b26       0x50 /OPT/altera/12.1/nios2eds/bin/gnu/H-i686-pc-linux-gnu/bin/../lib/gcc/nios2-elf/4.1.2/../../../../nios2-elf/lib/libc.a(lib_a-sbrkr.o)
                                0x510 (size before relaxing)
 .debug_str     0x00000b76       0x46 /OPT/altera/12.1/nios2eds/bin/gnu/H-i686-pc-linux-gnu/bin/../lib/gcc/nios2-elf/4.1.2/../../../../nios2-elf/lib/libc.a(lib_a-wsetup.o)
                                0x511 (size before relaxing)
 .debug_str     0x00000bbc       0x52 /OPT/altera/12.1/nios2eds/bin/gnu/H-i686-pc-linux-gnu/bin/../lib/gcc/nios2-elf/4.1.2/../../../../nios2-elf/lib/libc.a(lib_a-fflush.o)
                                0x537 (size before relaxing)
 .debug_str     0x00000c0e      0x102 /OPT/altera/12.1/nios2eds/bin/gnu/H-i686-pc-linux-gnu/bin/../lib/gcc/nios2-elf/4.1.2/../../../../nios2-elf/lib/libc.a(lib_a-findfp.o)
                                0x5f9 (size before relaxing)
 .debug_str     0x00000d10       0x3c /OPT/altera/12.1/nios2eds/bin/gnu/H-i686-pc-linux-gnu/bin/../lib/gcc/nios2-elf/4.1.2/../../../../nios2-elf/lib/libc.a(lib_a-freer.o)
                                0x648 (size before relaxing)
 .debug_str     0x00000d4c       0x5e /OPT/altera/12.1/nios2eds/bin/gnu/H-i686-pc-linux-gnu/bin/../lib/gcc/nios2-elf/4.1.2/../../../../nios2-elf/lib/libc.a(lib_a-fwalk.o)
                                0x53a (size before relaxing)
 .debug_str     0x00000daa       0x3d /OPT/altera/12.1/nios2eds/bin/gnu/H-i686-pc-linux-gnu/bin/../lib/gcc/nios2-elf/4.1.2/../../../../nios2-elf/lib/libc.a(lib_a-int_errno.o)
                                0x168 (size before relaxing)
 .debug_str     0x00000de7      0x123 /OPT/altera/12.1/nios2eds/bin/gnu/H-i686-pc-linux-gnu/bin/../lib/gcc/nios2-elf/4.1.2/../../../../nios2-elf/lib/libc.a(lib_a-makebuf.o)
                                0x60b (size before relaxing)
 .debug_str     0x00000f0a       0x42 /OPT/altera/12.1/nios2eds/bin/gnu/H-i686-pc-linux-gnu/bin/../lib/gcc/nios2-elf/4.1.2/../../../../nios2-elf/lib/libc.a(lib_a-memset.o)
                                0x183 (size before relaxing)
 .debug_str     0x00000f4c       0x62 /OPT/altera/12.1/nios2eds/bin/gnu/H-i686-pc-linux-gnu/bin/../lib/gcc/nios2-elf/4.1.2/../../../../nios2-elf/lib/libc.a(lib_a-stdio.o)
                                0x536 (size before relaxing)
 .debug_str     0x00000fae       0x4c /OPT/altera/12.1/nios2eds/bin/gnu/H-i686-pc-linux-gnu/bin/../lib/gcc/nios2-elf/4.1.2/../../../../nios2-elf/lib/libc.a(lib_a-writer.o)
                                0x513 (size before relaxing)
 .debug_str     0x00000ffa       0x43 /OPT/altera/12.1/nios2eds/bin/gnu/H-i686-pc-linux-gnu/bin/../lib/gcc/nios2-elf/4.1.2/../../../../nios2-elf/lib/libc.a(lib_a-closer.o)
                                0x503 (size before relaxing)
 .debug_str     0x0000103d       0x50 /OPT/altera/12.1/nios2eds/bin/gnu/H-i686-pc-linux-gnu/bin/../lib/gcc/nios2-elf/4.1.2/../../../../nios2-elf/lib/libc.a(lib_a-fclose.o)
                                0x51b (size before relaxing)
 .debug_str     0x0000108d       0x49 /OPT/altera/12.1/nios2eds/bin/gnu/H-i686-pc-linux-gnu/bin/../lib/gcc/nios2-elf/4.1.2/../../../../nios2-elf/lib/libc.a(lib_a-fstatr.o)
                                0x5f6 (size before relaxing)
 .debug_str     0x000010d6       0x45 /OPT/altera/12.1/nios2eds/bin/gnu/H-i686-pc-linux-gnu/bin/../lib/gcc/nios2-elf/4.1.2/../../../../nios2-elf/lib/libc.a(lib_a-isattyr.o)
                                0x505 (size before relaxing)
 .debug_str     0x0000111b       0x43 /OPT/altera/12.1/nios2eds/bin/gnu/H-i686-pc-linux-gnu/bin/../lib/gcc/nios2-elf/4.1.2/../../../../nios2-elf/lib/libc.a(lib_a-lseekr.o)
                                0x511 (size before relaxing)
 .debug_str     0x0000115e       0x41 /OPT/altera/12.1/nios2eds/bin/gnu/H-i686-pc-linux-gnu/bin/../lib/gcc/nios2-elf/4.1.2/../../../../nios2-elf/lib/libc.a(lib_a-readr.o)
                                0x511 (size before relaxing)
 .debug_str     0x0000119f       0x12 ../Ether_bsp//libucosii_bsp.a(alt_close.o)
 .debug_str     0x000011b1       0x12 ../Ether_bsp//libucosii_bsp.a(alt_dev.o)
 .debug_str     0x000011c3       0x12 ../Ether_bsp//libucosii_bsp.a(alt_errno.o)
 .debug_str     0x000011d5       0x12 ../Ether_bsp//libucosii_bsp.a(alt_fstat.o)
 .debug_str     0x000011e7       0x12 ../Ether_bsp//libucosii_bsp.a(alt_isatty.o)
 .debug_str     0x000011f9       0x12 ../Ether_bsp//libucosii_bsp.a(alt_load.o)
 .debug_str     0x0000120b       0x12 ../Ether_bsp//libucosii_bsp.a(alt_lseek.o)
 .debug_str     0x0000121d       0x12 ../Ether_bsp//libucosii_bsp.a(alt_main.o)
 .debug_str     0x0000122f       0x12 ../Ether_bsp//libucosii_bsp.a(alt_read.o)
 .debug_str     0x00001241       0x12 ../Ether_bsp//libucosii_bsp.a(alt_release_fd.o)
 .debug_str     0x00001253       0x1a ../Ether_bsp//libucosii_bsp.a(alt_sbrk.o)
 .debug_str     0x0000126d       0x12 ../Ether_bsp//libucosii_bsp.a(alt_write.o)
 .debug_str     0x0000127f       0x36 ../Ether_bsp//libucosii_bsp.a(alt_env_lock.o)
 .debug_str     0x000012b5       0x36 ../Ether_bsp//libucosii_bsp.a(alt_malloc_lock.o)
 .debug_str     0x000012eb       0x46 ../Ether_bsp//libucosii_bsp.a(os_core.o)
 .debug_str     0x00001331       0x2b ../Ether_bsp//libucosii_bsp.a(os_dbg.o)
 .debug_str     0x0000135c       0x4e ../Ether_bsp//libucosii_bsp.a(os_flag.o)
 .debug_str     0x000013aa       0x2c ../Ether_bsp//libucosii_bsp.a(os_mem.o)
 .debug_str     0x000013d6       0x36 ../Ether_bsp//libucosii_bsp.a(os_q.o)
 .debug_str     0x0000140c       0x36 ../Ether_bsp//libucosii_bsp.a(os_sem.o)
 .debug_str     0x00001442       0x23 ../Ether_bsp//libucosii_bsp.a(os_task.o)
 .debug_str     0x00001465       0x1f ../Ether_bsp//libucosii_bsp.a(os_time.o)
 .debug_str     0x00001484       0x5a ../Ether_bsp//libucosii_bsp.a(alt_sys_init.o)
 .debug_str     0x000014de       0x12 ../Ether_bsp//libucosii_bsp.a(altera_avalon_jtag_uart_fd.o)
 .debug_str     0x000014f0       0x1a ../Ether_bsp//libucosii_bsp.a(altera_avalon_jtag_uart_init.o)
 .debug_str     0x0000150a       0x12 ../Ether_bsp//libucosii_bsp.a(altera_avalon_jtag_uart_ioctl.o)
 .debug_str     0x0000151c       0x22 ../Ether_bsp//libucosii_bsp.a(altera_avalon_jtag_uart_read.o)
 .debug_str     0x0000153e       0x22 ../Ether_bsp//libucosii_bsp.a(altera_avalon_jtag_uart_write.o)
 .debug_str     0x00001560       0x12 ../Ether_bsp//libucosii_bsp.a(altera_avalon_timer_sc.o)
 .debug_str     0x00001572       0x55 ../Ether_bsp//libucosii_bsp.a(altera_up_avalon_character_lcd.o)
 .debug_str     0x000015c7       0x23 ../Ether_bsp//libucosii_bsp.a(alt_alarm_start.o)
 .debug_str     0x000015ea       0x12 ../Ether_bsp//libucosii_bsp.a(alt_dcache_flush_all.o)
 .debug_str     0x000015fc       0x12 ../Ether_bsp//libucosii_bsp.a(alt_dev_llist_insert.o)
 .debug_str     0x0000160e       0x12 ../Ether_bsp//libucosii_bsp.a(alt_find_dev.o)
 .debug_str     0x00001620       0x12 ../Ether_bsp//libucosii_bsp.a(alt_icache_flush_all.o)
 .debug_str     0x00001632       0x18 ../Ether_bsp//libucosii_bsp.a(alt_iic.o)
 .debug_str     0x0000164a       0x1a ../Ether_bsp//libucosii_bsp.a(alt_iic_isr_register.o)
 .debug_str     0x00001664       0x12 ../Ether_bsp//libucosii_bsp.a(alt_io_redirect.o)
 .debug_str     0x00001676       0x12 ../Ether_bsp//libucosii_bsp.a(alt_irq_handler.o)
 .debug_str     0x00001688       0x12 ../Ether_bsp//libucosii_bsp.a(alt_open.o)
 .debug_str     0x0000169a       0x1a ../Ether_bsp//libucosii_bsp.a(alt_tick.o)
 .debug_str     0x000016b4       0x12 ../Ether_bsp//libucosii_bsp.a(altera_nios2_qsys_irq.o)
 .debug_str     0x000016c6       0x20 ../Ether_bsp//libucosii_bsp.a(os_cpu_c.o)
 .debug_str     0x000016e6       0x12 ../Ether_bsp//libucosii_bsp.a(alt_find_file.o)
 .debug_str     0x000016f8       0x12 ../Ether_bsp//libucosii_bsp.a(alt_get_fd.o)
 .debug_str     0x0000170a       0x12 ../Ether_bsp//libucosii_bsp.a(alt_icache_flush.o)
 .debug_str     0x0000171c       0x3b /OPT/altera/12.1/nios2eds/bin/gnu/H-i686-pc-linux-gnu/bin/../lib/gcc/nios2-elf/4.1.2/../../../../nios2-elf/lib/libc.a(lib_a-atexit.o)
                                0x1c4 (size before relaxing)
 .debug_str     0x00001757       0x3e /OPT/altera/12.1/nios2eds/bin/gnu/H-i686-pc-linux-gnu/bin/../lib/gcc/nios2-elf/4.1.2/../../../../nios2-elf/lib/libc.a(lib_a-exit.o)
                                0x511 (size before relaxing)
 .debug_str     0x00001795       0x42 /OPT/altera/12.1/nios2eds/bin/gnu/H-i686-pc-linux-gnu/bin/../lib/gcc/nios2-elf/4.1.2/../../../../nios2-elf/lib/libc.a(lib_a-memcmp.o)
                                0x16f (size before relaxing)
 .debug_str     0x000017d7       0x51 /OPT/altera/12.1/nios2eds/bin/gnu/H-i686-pc-linux-gnu/bin/../lib/gcc/nios2-elf/4.1.2/../../../../nios2-elf/lib/libc.a(lib_a-__atexit.o)
                                0x529 (size before relaxing)
 .debug_str     0x00001828       0x7b /OPT/altera/12.1/nios2eds/bin/gnu/H-i686-pc-linux-gnu/bin/../lib/gcc/nios2-elf/4.1.2/../../../../nios2-elf/lib/libc.a(lib_a-__call_atexit.o)
                                0x553 (size before relaxing)
 .debug_str     0x000018a3      0x110 /OPT/altera/12.1/nios2eds/bin/gnu/H-i686-pc-linux-gnu/bin/../lib/gcc/nios2-elf/4.1.2/libgcc.a(lib2-divmod.o)
                                0x1b9 (size before relaxing)
 .debug_str     0x000019b3       0x1c ../Ether_bsp//libucosii_bsp.a(alt_exit.o)

.debug_loc      0x00000000     0x53e3
 *(.debug_loc)
 .debug_loc     0x00000000       0x81 obj/default/hello_ucosii.o
 .debug_loc     0x00000081       0xa2 /OPT/altera/12.1/nios2eds/bin/gnu/H-i686-pc-linux-gnu/bin/../lib/gcc/nios2-elf/4.1.2/../../../../nios2-elf/lib/libc.a(lib_a-puts.o)
 .debug_loc     0x00000123       0x3c /OPT/altera/12.1/nios2eds/bin/gnu/H-i686-pc-linux-gnu/bin/../lib/gcc/nios2-elf/4.1.2/../../../../nios2-elf/lib/libc.a(lib_a-strlen.o)
 .debug_loc     0x0000015f      0x4e4 /OPT/altera/12.1/nios2eds/bin/gnu/H-i686-pc-linux-gnu/bin/../lib/gcc/nios2-elf/4.1.2/../../../../nios2-elf/lib/libc.a(lib_a-fvwrite.o)
 .debug_loc     0x00000643      0xaeb /OPT/altera/12.1/nios2eds/bin/gnu/H-i686-pc-linux-gnu/bin/../lib/gcc/nios2-elf/4.1.2/../../../../nios2-elf/lib/libc.a(lib_a-mallocr.o)
 .debug_loc     0x0000112e      0x106 /OPT/altera/12.1/nios2eds/bin/gnu/H-i686-pc-linux-gnu/bin/../lib/gcc/nios2-elf/4.1.2/../../../../nios2-elf/lib/libc.a(lib_a-memchr.o)
 .debug_loc     0x00001234       0xca /OPT/altera/12.1/nios2eds/bin/gnu/H-i686-pc-linux-gnu/bin/../lib/gcc/nios2-elf/4.1.2/../../../../nios2-elf/lib/libc.a(lib_a-memcpy.o)
 .debug_loc     0x000012fe      0x117 /OPT/altera/12.1/nios2eds/bin/gnu/H-i686-pc-linux-gnu/bin/../lib/gcc/nios2-elf/4.1.2/../../../../nios2-elf/lib/libc.a(lib_a-memmove.o)
 .debug_loc     0x00001415      0x8c0 /OPT/altera/12.1/nios2eds/bin/gnu/H-i686-pc-linux-gnu/bin/../lib/gcc/nios2-elf/4.1.2/../../../../nios2-elf/lib/libc.a(lib_a-reallocr.o)
 .debug_loc     0x00001cd5       0x5b /OPT/altera/12.1/nios2eds/bin/gnu/H-i686-pc-linux-gnu/bin/../lib/gcc/nios2-elf/4.1.2/../../../../nios2-elf/lib/libc.a(lib_a-sbrkr.o)
 .debug_loc     0x00001d30       0x7c /OPT/altera/12.1/nios2eds/bin/gnu/H-i686-pc-linux-gnu/bin/../lib/gcc/nios2-elf/4.1.2/../../../../nios2-elf/lib/libc.a(lib_a-wsetup.o)
 .debug_loc     0x00001dac      0x1f6 /OPT/altera/12.1/nios2eds/bin/gnu/H-i686-pc-linux-gnu/bin/../lib/gcc/nios2-elf/4.1.2/../../../../nios2-elf/lib/libc.a(lib_a-fflush.o)
 .debug_loc     0x00001fa2      0x19f /OPT/altera/12.1/nios2eds/bin/gnu/H-i686-pc-linux-gnu/bin/../lib/gcc/nios2-elf/4.1.2/../../../../nios2-elf/lib/libc.a(lib_a-findfp.o)
 .debug_loc     0x00002141      0x4a7 /OPT/altera/12.1/nios2eds/bin/gnu/H-i686-pc-linux-gnu/bin/../lib/gcc/nios2-elf/4.1.2/../../../../nios2-elf/lib/libc.a(lib_a-freer.o)
 .debug_loc     0x000025e8      0x1d2 /OPT/altera/12.1/nios2eds/bin/gnu/H-i686-pc-linux-gnu/bin/../lib/gcc/nios2-elf/4.1.2/../../../../nios2-elf/lib/libc.a(lib_a-fwalk.o)
 .debug_loc     0x000027ba      0x11c /OPT/altera/12.1/nios2eds/bin/gnu/H-i686-pc-linux-gnu/bin/../lib/gcc/nios2-elf/4.1.2/../../../../nios2-elf/lib/libc.a(lib_a-makebuf.o)
 .debug_loc     0x000028d6       0xa1 /OPT/altera/12.1/nios2eds/bin/gnu/H-i686-pc-linux-gnu/bin/../lib/gcc/nios2-elf/4.1.2/../../../../nios2-elf/lib/libc.a(lib_a-memset.o)
 .debug_loc     0x00002977      0x21f /OPT/altera/12.1/nios2eds/bin/gnu/H-i686-pc-linux-gnu/bin/../lib/gcc/nios2-elf/4.1.2/../../../../nios2-elf/lib/libc.a(lib_a-stdio.o)
 .debug_loc     0x00002b96       0x97 /OPT/altera/12.1/nios2eds/bin/gnu/H-i686-pc-linux-gnu/bin/../lib/gcc/nios2-elf/4.1.2/../../../../nios2-elf/lib/libc.a(lib_a-writer.o)
 .debug_loc     0x00002c2d       0x5b /OPT/altera/12.1/nios2eds/bin/gnu/H-i686-pc-linux-gnu/bin/../lib/gcc/nios2-elf/4.1.2/../../../../nios2-elf/lib/libc.a(lib_a-closer.o)
 .debug_loc     0x00002c88       0xe4 /OPT/altera/12.1/nios2eds/bin/gnu/H-i686-pc-linux-gnu/bin/../lib/gcc/nios2-elf/4.1.2/../../../../nios2-elf/lib/libc.a(lib_a-fclose.o)
 .debug_loc     0x00002d6c       0x79 /OPT/altera/12.1/nios2eds/bin/gnu/H-i686-pc-linux-gnu/bin/../lib/gcc/nios2-elf/4.1.2/../../../../nios2-elf/lib/libc.a(lib_a-fstatr.o)
 .debug_loc     0x00002de5       0x5b /OPT/altera/12.1/nios2eds/bin/gnu/H-i686-pc-linux-gnu/bin/../lib/gcc/nios2-elf/4.1.2/../../../../nios2-elf/lib/libc.a(lib_a-isattyr.o)
 .debug_loc     0x00002e40       0x97 /OPT/altera/12.1/nios2eds/bin/gnu/H-i686-pc-linux-gnu/bin/../lib/gcc/nios2-elf/4.1.2/../../../../nios2-elf/lib/libc.a(lib_a-lseekr.o)
 .debug_loc     0x00002ed7       0x97 /OPT/altera/12.1/nios2eds/bin/gnu/H-i686-pc-linux-gnu/bin/../lib/gcc/nios2-elf/4.1.2/../../../../nios2-elf/lib/libc.a(lib_a-readr.o)
 .debug_loc     0x00002f6e       0x56 ../Ether_bsp//libucosii_bsp.a(alt_close.o)
 .debug_loc     0x00002fc4       0x2b ../Ether_bsp//libucosii_bsp.a(alt_dev.o)
 .debug_loc     0x00002fef       0x56 ../Ether_bsp//libucosii_bsp.a(alt_fstat.o)
 .debug_loc     0x00003045       0x57 ../Ether_bsp//libucosii_bsp.a(alt_isatty.o)
 .debug_loc     0x0000309c       0x56 ../Ether_bsp//libucosii_bsp.a(alt_load.o)
 .debug_loc     0x000030f2       0x56 ../Ether_bsp//libucosii_bsp.a(alt_lseek.o)
 .debug_loc     0x00003148       0x2b ../Ether_bsp//libucosii_bsp.a(alt_main.o)
 .debug_loc     0x00003173       0x56 ../Ether_bsp//libucosii_bsp.a(alt_read.o)
 .debug_loc     0x000031c9       0x2b ../Ether_bsp//libucosii_bsp.a(alt_release_fd.o)
 .debug_loc     0x000031f4       0x2b ../Ether_bsp//libucosii_bsp.a(alt_sbrk.o)
 .debug_loc     0x0000321f       0x56 ../Ether_bsp//libucosii_bsp.a(alt_write.o)
 .debug_loc     0x00003275       0x57 ../Ether_bsp//libucosii_bsp.a(alt_env_lock.o)
 .debug_loc     0x000032cc       0x57 ../Ether_bsp//libucosii_bsp.a(alt_malloc_lock.o)
 .debug_loc     0x00003323      0x5e2 ../Ether_bsp//libucosii_bsp.a(os_core.o)
 .debug_loc     0x00003905       0x2b ../Ether_bsp//libucosii_bsp.a(os_dbg.o)
 .debug_loc     0x00003930      0x232 ../Ether_bsp//libucosii_bsp.a(os_flag.o)
 .debug_loc     0x00003b62      0x12d ../Ether_bsp//libucosii_bsp.a(os_mem.o)
 .debug_loc     0x00003c8f      0x1da ../Ether_bsp//libucosii_bsp.a(os_q.o)
 .debug_loc     0x00003e69      0x158 ../Ether_bsp//libucosii_bsp.a(os_sem.o)
 .debug_loc     0x00003fc1      0x207 ../Ether_bsp//libucosii_bsp.a(os_task.o)
 .debug_loc     0x000041c8       0xd7 ../Ether_bsp//libucosii_bsp.a(os_time.o)
 .debug_loc     0x0000429f       0x81 ../Ether_bsp//libucosii_bsp.a(alt_sys_init.o)
 .debug_loc     0x00004320       0xac ../Ether_bsp//libucosii_bsp.a(altera_avalon_jtag_uart_fd.o)
 .debug_loc     0x000043cc       0xac ../Ether_bsp//libucosii_bsp.a(altera_avalon_jtag_uart_init.o)
 .debug_loc     0x00004478       0x2b ../Ether_bsp//libucosii_bsp.a(altera_avalon_jtag_uart_ioctl.o)
 .debug_loc     0x000044a3       0x2c ../Ether_bsp//libucosii_bsp.a(altera_avalon_jtag_uart_read.o)
 .debug_loc     0x000044cf       0x2c ../Ether_bsp//libucosii_bsp.a(altera_avalon_jtag_uart_write.o)
 .debug_loc     0x000044fb       0x56 ../Ether_bsp//libucosii_bsp.a(altera_avalon_timer_sc.o)
 .debug_loc     0x00004551      0x22f ../Ether_bsp//libucosii_bsp.a(altera_up_avalon_character_lcd.o)
 .debug_loc     0x00004780       0x2b ../Ether_bsp//libucosii_bsp.a(alt_alarm_start.o)
 .debug_loc     0x000047ab       0x2b ../Ether_bsp//libucosii_bsp.a(alt_dcache_flush_all.o)
 .debug_loc     0x000047d6       0x56 ../Ether_bsp//libucosii_bsp.a(alt_dev_llist_insert.o)
 .debug_loc     0x0000482c       0x2b ../Ether_bsp//libucosii_bsp.a(alt_do_ctors.o)
 .debug_loc     0x00004857       0x2b ../Ether_bsp//libucosii_bsp.a(alt_do_dtors.o)
 .debug_loc     0x00004882       0x2b ../Ether_bsp//libucosii_bsp.a(alt_find_dev.o)
 .debug_loc     0x000048ad       0x2b ../Ether_bsp//libucosii_bsp.a(alt_icache_flush_all.o)
 .debug_loc     0x000048d8       0xac ../Ether_bsp//libucosii_bsp.a(alt_iic.o)
 .debug_loc     0x00004984       0x2b ../Ether_bsp//libucosii_bsp.a(alt_iic_isr_register.o)
 .debug_loc     0x000049af       0x56 ../Ether_bsp//libucosii_bsp.a(alt_io_redirect.o)
 .debug_loc     0x00004a05       0x2b ../Ether_bsp//libucosii_bsp.a(alt_irq_handler.o)
 .debug_loc     0x00004a30       0x81 ../Ether_bsp//libucosii_bsp.a(alt_open.o)
 .debug_loc     0x00004ab1       0x56 ../Ether_bsp//libucosii_bsp.a(alt_tick.o)
 .debug_loc     0x00004b07       0x2b ../Ether_bsp//libucosii_bsp.a(altera_nios2_qsys_irq.o)
 .debug_loc     0x00004b32      0x1ae ../Ether_bsp//libucosii_bsp.a(os_cpu_c.o)
 .debug_loc     0x00004ce0       0x2b ../Ether_bsp//libucosii_bsp.a(alt_find_file.o)
 .debug_loc     0x00004d0b       0x2b ../Ether_bsp//libucosii_bsp.a(alt_get_fd.o)
 .debug_loc     0x00004d36       0x2b ../Ether_bsp//libucosii_bsp.a(alt_icache_flush.o)
 .debug_loc     0x00004d61       0x1e /OPT/altera/12.1/nios2eds/bin/gnu/H-i686-pc-linux-gnu/bin/../lib/gcc/nios2-elf/4.1.2/../../../../nios2-elf/lib/libc.a(lib_a-atexit.o)
 .debug_loc     0x00004d7f       0x3d /OPT/altera/12.1/nios2eds/bin/gnu/H-i686-pc-linux-gnu/bin/../lib/gcc/nios2-elf/4.1.2/../../../../nios2-elf/lib/libc.a(lib_a-exit.o)
 .debug_loc     0x00004dbc      0x114 /OPT/altera/12.1/nios2eds/bin/gnu/H-i686-pc-linux-gnu/bin/../lib/gcc/nios2-elf/4.1.2/../../../../nios2-elf/lib/libc.a(lib_a-memcmp.o)
 .debug_loc     0x00004ed0      0x120 /OPT/altera/12.1/nios2eds/bin/gnu/H-i686-pc-linux-gnu/bin/../lib/gcc/nios2-elf/4.1.2/../../../../nios2-elf/lib/libc.a(lib_a-__atexit.o)
 .debug_loc     0x00004ff0      0x1cb /OPT/altera/12.1/nios2eds/bin/gnu/H-i686-pc-linux-gnu/bin/../lib/gcc/nios2-elf/4.1.2/../../../../nios2-elf/lib/libc.a(lib_a-__call_atexit.o)
 .debug_loc     0x000051bb      0x1d2 /OPT/altera/12.1/nios2eds/bin/gnu/H-i686-pc-linux-gnu/bin/../lib/gcc/nios2-elf/4.1.2/libgcc.a(lib2-divmod.o)
 .debug_loc     0x0000538d       0x56 ../Ether_bsp//libucosii_bsp.a(alt_exit.o)

.debug_macinfo
 *(.debug_macinfo)

.debug_weaknames
 *(.debug_weaknames)

.debug_funcnames
 *(.debug_funcnames)

.debug_typenames
 *(.debug_typenames)

.debug_varnames
 *(.debug_varnames)

.debug_alt_sim_info
                0x00000000       0x30
 *(.debug_alt_sim_info)
 .debug_alt_sim_info
                0x00000000       0x30 ../Ether_bsp//obj/HAL/src/crt0.o
                0x01000000                __alt_data_end = 0x1000000
                0x01000000                PROVIDE (__alt_stack_pointer, __alt_data_end)
                0x00819b34                PROVIDE (__alt_stack_limit, __alt_stack_base)
                0x00819b34                PROVIDE (__alt_heap_start, end)
                0x01000000                PROVIDE (__alt_heap_limit, 0x1000000)
OUTPUT(Ether.elf elf32-littlenios2)

.debug_ranges   0x00000000      0x310
 .debug_ranges  0x00000000       0x20 ../Ether_bsp//obj/HAL/src/crt0.o
 .debug_ranges  0x00000020       0x28 /OPT/altera/12.1/nios2eds/bin/gnu/H-i686-pc-linux-gnu/bin/../lib/gcc/nios2-elf/4.1.2/../../../../nios2-elf/lib/libc.a(lib_a-fvwrite.o)
 .debug_ranges  0x00000048       0x70 /OPT/altera/12.1/nios2eds/bin/gnu/H-i686-pc-linux-gnu/bin/../lib/gcc/nios2-elf/4.1.2/../../../../nios2-elf/lib/libc.a(lib_a-mallocr.o)
 .debug_ranges  0x000000b8      0x110 /OPT/altera/12.1/nios2eds/bin/gnu/H-i686-pc-linux-gnu/bin/../lib/gcc/nios2-elf/4.1.2/../../../../nios2-elf/lib/libc.a(lib_a-reallocr.o)
 .debug_ranges  0x000001c8       0x20 /OPT/altera/12.1/nios2eds/bin/gnu/H-i686-pc-linux-gnu/bin/../lib/gcc/nios2-elf/4.1.2/../../../../nios2-elf/lib/libc.a(lib_a-fflush.o)
 .debug_ranges  0x000001e8       0xa0 /OPT/altera/12.1/nios2eds/bin/gnu/H-i686-pc-linux-gnu/bin/../lib/gcc/nios2-elf/4.1.2/../../../../nios2-elf/lib/libc.a(lib_a-fwalk.o)
 .debug_ranges  0x00000288       0x18 ../Ether_bsp//libucosii_bsp.a(altera_avalon_jtag_uart_init.o)
 .debug_ranges  0x000002a0       0x28 ../Ether_bsp//libucosii_bsp.a(alt_irq_entry.o)
 .debug_ranges  0x000002c8       0x30 ../Ether_bsp//libucosii_bsp.a(alt_exception_entry.o)
 .debug_ranges  0x000002f8       0x18 /OPT/altera/12.1/nios2eds/bin/gnu/H-i686-pc-linux-gnu/bin/../lib/gcc/nios2-elf/4.1.2/../../../../nios2-elf/lib/libc.a(lib_a-__call_atexit.o)
